
F303_voltage_driver.elf:     file format elf32-littlearm

Sections:
Idx Name          Size      VMA       LMA       File off  Algn
  0 .isr_vector   00000188  08000000  08000000  00010000  2**0
                  CONTENTS, ALLOC, LOAD, READONLY, DATA
  1 .text         00009bec  08000190  08000190  00010190  2**4
                  CONTENTS, ALLOC, LOAD, READONLY, CODE
  2 .rodata       000006bc  08009d80  08009d80  00019d80  2**3
                  CONTENTS, ALLOC, LOAD, READONLY, DATA
  3 .ARM.extab    00000000  0800a43c  0800a43c  000201dc  2**0
                  CONTENTS
  4 .ARM          00000000  0800a43c  0800a43c  000201dc  2**0
                  CONTENTS
  5 .preinit_array 00000000  0800a43c  0800a43c  000201dc  2**0
                  CONTENTS, ALLOC, LOAD, DATA
  6 .init_array   00000004  0800a43c  0800a43c  0001a43c  2**2
                  CONTENTS, ALLOC, LOAD, DATA
  7 .fini_array   00000004  0800a440  0800a440  0001a440  2**2
                  CONTENTS, ALLOC, LOAD, DATA
  8 .data         000001dc  20000000  0800a444  00020000  2**2
                  CONTENTS, ALLOC, LOAD, DATA
  9 .ccmram       00000000  10000000  10000000  000201dc  2**0
                  CONTENTS
 10 .bss          000013c4  200001e0  200001e0  000201e0  2**3
                  ALLOC
 11 ._user_heap_stack 00000604  200015a4  200015a4  000201e0  2**0
                  ALLOC
 12 .ARM.attributes 00000030  00000000  00000000  000201dc  2**0
                  CONTENTS, READONLY
 13 .debug_info   00021db6  00000000  00000000  0002020c  2**0
                  CONTENTS, READONLY, DEBUGGING, OCTETS
 14 .debug_abbrev 00004325  00000000  00000000  00041fc2  2**0
                  CONTENTS, READONLY, DEBUGGING, OCTETS
 15 .debug_loc    00019b10  00000000  00000000  000462e7  2**0
                  CONTENTS, READONLY, DEBUGGING, OCTETS
 16 .debug_aranges 00001028  00000000  00000000  0005fdf8  2**3
                  CONTENTS, READONLY, DEBUGGING, OCTETS
 17 .debug_ranges 000027a0  00000000  00000000  00060e20  2**3
                  CONTENTS, READONLY, DEBUGGING, OCTETS
 18 .debug_line   0001e0ff  00000000  00000000  000635c0  2**0
                  CONTENTS, READONLY, DEBUGGING, OCTETS
 19 .debug_str    00005f97  00000000  00000000  000816bf  2**0
                  CONTENTS, READONLY, DEBUGGING, OCTETS
 20 .comment      00000050  00000000  00000000  00087656  2**0
                  CONTENTS, READONLY
 21 .debug_frame  00004a8c  00000000  00000000  000876a8  2**2
                  CONTENTS, READONLY, DEBUGGING, OCTETS

Disassembly of section .text:

08000190 <__do_global_dtors_aux>:
 8000190:	b510      	push	{r4, lr}
 8000192:	4c05      	ldr	r4, [pc, #20]	; (80001a8 <__do_global_dtors_aux+0x18>)
 8000194:	7823      	ldrb	r3, [r4, #0]
 8000196:	b933      	cbnz	r3, 80001a6 <__do_global_dtors_aux+0x16>
 8000198:	4b04      	ldr	r3, [pc, #16]	; (80001ac <__do_global_dtors_aux+0x1c>)
 800019a:	b113      	cbz	r3, 80001a2 <__do_global_dtors_aux+0x12>
 800019c:	4804      	ldr	r0, [pc, #16]	; (80001b0 <__do_global_dtors_aux+0x20>)
 800019e:	f3af 8000 	nop.w
 80001a2:	2301      	movs	r3, #1
 80001a4:	7023      	strb	r3, [r4, #0]
 80001a6:	bd10      	pop	{r4, pc}
 80001a8:	200001e0 	.word	0x200001e0
 80001ac:	00000000 	.word	0x00000000
 80001b0:	08009d64 	.word	0x08009d64

080001b4 <frame_dummy>:
 80001b4:	b508      	push	{r3, lr}
 80001b6:	4b03      	ldr	r3, [pc, #12]	; (80001c4 <frame_dummy+0x10>)
 80001b8:	b11b      	cbz	r3, 80001c2 <frame_dummy+0xe>
 80001ba:	4903      	ldr	r1, [pc, #12]	; (80001c8 <frame_dummy+0x14>)
 80001bc:	4803      	ldr	r0, [pc, #12]	; (80001cc <frame_dummy+0x18>)
 80001be:	f3af 8000 	nop.w
 80001c2:	bd08      	pop	{r3, pc}
 80001c4:	00000000 	.word	0x00000000
 80001c8:	200001e4 	.word	0x200001e4
 80001cc:	08009d64 	.word	0x08009d64

080001d0 <strlen>:
 80001d0:	4603      	mov	r3, r0
 80001d2:	f813 2b01 	ldrb.w	r2, [r3], #1
 80001d6:	2a00      	cmp	r2, #0
 80001d8:	d1fb      	bne.n	80001d2 <strlen+0x2>
 80001da:	1a18      	subs	r0, r3, r0
 80001dc:	3801      	subs	r0, #1
 80001de:	4770      	bx	lr

080001e0 <memchr>:
 80001e0:	f001 01ff 	and.w	r1, r1, #255	; 0xff
 80001e4:	2a10      	cmp	r2, #16
 80001e6:	db2b      	blt.n	8000240 <memchr+0x60>
 80001e8:	f010 0f07 	tst.w	r0, #7
 80001ec:	d008      	beq.n	8000200 <memchr+0x20>
 80001ee:	f810 3b01 	ldrb.w	r3, [r0], #1
 80001f2:	3a01      	subs	r2, #1
 80001f4:	428b      	cmp	r3, r1
 80001f6:	d02d      	beq.n	8000254 <memchr+0x74>
 80001f8:	f010 0f07 	tst.w	r0, #7
 80001fc:	b342      	cbz	r2, 8000250 <memchr+0x70>
 80001fe:	d1f6      	bne.n	80001ee <memchr+0xe>
 8000200:	b4f0      	push	{r4, r5, r6, r7}
 8000202:	ea41 2101 	orr.w	r1, r1, r1, lsl #8
 8000206:	ea41 4101 	orr.w	r1, r1, r1, lsl #16
 800020a:	f022 0407 	bic.w	r4, r2, #7
 800020e:	f07f 0700 	mvns.w	r7, #0
 8000212:	2300      	movs	r3, #0
 8000214:	e8f0 5602 	ldrd	r5, r6, [r0], #8
 8000218:	3c08      	subs	r4, #8
 800021a:	ea85 0501 	eor.w	r5, r5, r1
 800021e:	ea86 0601 	eor.w	r6, r6, r1
 8000222:	fa85 f547 	uadd8	r5, r5, r7
 8000226:	faa3 f587 	sel	r5, r3, r7
 800022a:	fa86 f647 	uadd8	r6, r6, r7
 800022e:	faa5 f687 	sel	r6, r5, r7
 8000232:	b98e      	cbnz	r6, 8000258 <memchr+0x78>
 8000234:	d1ee      	bne.n	8000214 <memchr+0x34>
 8000236:	bcf0      	pop	{r4, r5, r6, r7}
 8000238:	f001 01ff 	and.w	r1, r1, #255	; 0xff
 800023c:	f002 0207 	and.w	r2, r2, #7
 8000240:	b132      	cbz	r2, 8000250 <memchr+0x70>
 8000242:	f810 3b01 	ldrb.w	r3, [r0], #1
 8000246:	3a01      	subs	r2, #1
 8000248:	ea83 0301 	eor.w	r3, r3, r1
 800024c:	b113      	cbz	r3, 8000254 <memchr+0x74>
 800024e:	d1f8      	bne.n	8000242 <memchr+0x62>
 8000250:	2000      	movs	r0, #0
 8000252:	4770      	bx	lr
 8000254:	3801      	subs	r0, #1
 8000256:	4770      	bx	lr
 8000258:	2d00      	cmp	r5, #0
 800025a:	bf06      	itte	eq
 800025c:	4635      	moveq	r5, r6
 800025e:	3803      	subeq	r0, #3
 8000260:	3807      	subne	r0, #7
 8000262:	f015 0f01 	tst.w	r5, #1
 8000266:	d107      	bne.n	8000278 <memchr+0x98>
 8000268:	3001      	adds	r0, #1
 800026a:	f415 7f80 	tst.w	r5, #256	; 0x100
 800026e:	bf02      	ittt	eq
 8000270:	3001      	addeq	r0, #1
 8000272:	f415 3fc0 	tsteq.w	r5, #98304	; 0x18000
 8000276:	3001      	addeq	r0, #1
 8000278:	bcf0      	pop	{r4, r5, r6, r7}
 800027a:	3801      	subs	r0, #1
 800027c:	4770      	bx	lr
 800027e:	bf00      	nop

08000280 <__aeabi_drsub>:
 8000280:	f081 4100 	eor.w	r1, r1, #2147483648	; 0x80000000
 8000284:	e002      	b.n	800028c <__adddf3>
 8000286:	bf00      	nop

08000288 <__aeabi_dsub>:
 8000288:	f083 4300 	eor.w	r3, r3, #2147483648	; 0x80000000

0800028c <__adddf3>:
 800028c:	b530      	push	{r4, r5, lr}
 800028e:	ea4f 0441 	mov.w	r4, r1, lsl #1
 8000292:	ea4f 0543 	mov.w	r5, r3, lsl #1
 8000296:	ea94 0f05 	teq	r4, r5
 800029a:	bf08      	it	eq
 800029c:	ea90 0f02 	teqeq	r0, r2
 80002a0:	bf1f      	itttt	ne
 80002a2:	ea54 0c00 	orrsne.w	ip, r4, r0
 80002a6:	ea55 0c02 	orrsne.w	ip, r5, r2
 80002aa:	ea7f 5c64 	mvnsne.w	ip, r4, asr #21
 80002ae:	ea7f 5c65 	mvnsne.w	ip, r5, asr #21
 80002b2:	f000 80e2 	beq.w	800047a <__adddf3+0x1ee>
 80002b6:	ea4f 5454 	mov.w	r4, r4, lsr #21
 80002ba:	ebd4 5555 	rsbs	r5, r4, r5, lsr #21
 80002be:	bfb8      	it	lt
 80002c0:	426d      	neglt	r5, r5
 80002c2:	dd0c      	ble.n	80002de <__adddf3+0x52>
 80002c4:	442c      	add	r4, r5
 80002c6:	ea80 0202 	eor.w	r2, r0, r2
 80002ca:	ea81 0303 	eor.w	r3, r1, r3
 80002ce:	ea82 0000 	eor.w	r0, r2, r0
 80002d2:	ea83 0101 	eor.w	r1, r3, r1
 80002d6:	ea80 0202 	eor.w	r2, r0, r2
 80002da:	ea81 0303 	eor.w	r3, r1, r3
 80002de:	2d36      	cmp	r5, #54	; 0x36
 80002e0:	bf88      	it	hi
 80002e2:	bd30      	pophi	{r4, r5, pc}
 80002e4:	f011 4f00 	tst.w	r1, #2147483648	; 0x80000000
 80002e8:	ea4f 3101 	mov.w	r1, r1, lsl #12
 80002ec:	f44f 1c80 	mov.w	ip, #1048576	; 0x100000
 80002f0:	ea4c 3111 	orr.w	r1, ip, r1, lsr #12
 80002f4:	d002      	beq.n	80002fc <__adddf3+0x70>
 80002f6:	4240      	negs	r0, r0
 80002f8:	eb61 0141 	sbc.w	r1, r1, r1, lsl #1
 80002fc:	f013 4f00 	tst.w	r3, #2147483648	; 0x80000000
 8000300:	ea4f 3303 	mov.w	r3, r3, lsl #12
 8000304:	ea4c 3313 	orr.w	r3, ip, r3, lsr #12
 8000308:	d002      	beq.n	8000310 <__adddf3+0x84>
 800030a:	4252      	negs	r2, r2
 800030c:	eb63 0343 	sbc.w	r3, r3, r3, lsl #1
 8000310:	ea94 0f05 	teq	r4, r5
 8000314:	f000 80a7 	beq.w	8000466 <__adddf3+0x1da>
 8000318:	f1a4 0401 	sub.w	r4, r4, #1
 800031c:	f1d5 0e20 	rsbs	lr, r5, #32
 8000320:	db0d      	blt.n	800033e <__adddf3+0xb2>
 8000322:	fa02 fc0e 	lsl.w	ip, r2, lr
 8000326:	fa22 f205 	lsr.w	r2, r2, r5
 800032a:	1880      	adds	r0, r0, r2
 800032c:	f141 0100 	adc.w	r1, r1, #0
 8000330:	fa03 f20e 	lsl.w	r2, r3, lr
 8000334:	1880      	adds	r0, r0, r2
 8000336:	fa43 f305 	asr.w	r3, r3, r5
 800033a:	4159      	adcs	r1, r3
 800033c:	e00e      	b.n	800035c <__adddf3+0xd0>
 800033e:	f1a5 0520 	sub.w	r5, r5, #32
 8000342:	f10e 0e20 	add.w	lr, lr, #32
 8000346:	2a01      	cmp	r2, #1
 8000348:	fa03 fc0e 	lsl.w	ip, r3, lr
 800034c:	bf28      	it	cs
 800034e:	f04c 0c02 	orrcs.w	ip, ip, #2
 8000352:	fa43 f305 	asr.w	r3, r3, r5
 8000356:	18c0      	adds	r0, r0, r3
 8000358:	eb51 71e3 	adcs.w	r1, r1, r3, asr #31
 800035c:	f001 4500 	and.w	r5, r1, #2147483648	; 0x80000000
 8000360:	d507      	bpl.n	8000372 <__adddf3+0xe6>
 8000362:	f04f 0e00 	mov.w	lr, #0
 8000366:	f1dc 0c00 	rsbs	ip, ip, #0
 800036a:	eb7e 0000 	sbcs.w	r0, lr, r0
 800036e:	eb6e 0101 	sbc.w	r1, lr, r1
 8000372:	f5b1 1f80 	cmp.w	r1, #1048576	; 0x100000
 8000376:	d31b      	bcc.n	80003b0 <__adddf3+0x124>
 8000378:	f5b1 1f00 	cmp.w	r1, #2097152	; 0x200000
 800037c:	d30c      	bcc.n	8000398 <__adddf3+0x10c>
 800037e:	0849      	lsrs	r1, r1, #1
 8000380:	ea5f 0030 	movs.w	r0, r0, rrx
 8000384:	ea4f 0c3c 	mov.w	ip, ip, rrx
 8000388:	f104 0401 	add.w	r4, r4, #1
 800038c:	ea4f 5244 	mov.w	r2, r4, lsl #21
 8000390:	f512 0f80 	cmn.w	r2, #4194304	; 0x400000
 8000394:	f080 809a 	bcs.w	80004cc <__adddf3+0x240>
 8000398:	f1bc 4f00 	cmp.w	ip, #2147483648	; 0x80000000
 800039c:	bf08      	it	eq
 800039e:	ea5f 0c50 	movseq.w	ip, r0, lsr #1
 80003a2:	f150 0000 	adcs.w	r0, r0, #0
 80003a6:	eb41 5104 	adc.w	r1, r1, r4, lsl #20
 80003aa:	ea41 0105 	orr.w	r1, r1, r5
 80003ae:	bd30      	pop	{r4, r5, pc}
 80003b0:	ea5f 0c4c 	movs.w	ip, ip, lsl #1
 80003b4:	4140      	adcs	r0, r0
 80003b6:	eb41 0101 	adc.w	r1, r1, r1
 80003ba:	3c01      	subs	r4, #1
 80003bc:	bf28      	it	cs
 80003be:	f5b1 1f80 	cmpcs.w	r1, #1048576	; 0x100000
 80003c2:	d2e9      	bcs.n	8000398 <__adddf3+0x10c>
 80003c4:	f091 0f00 	teq	r1, #0
 80003c8:	bf04      	itt	eq
 80003ca:	4601      	moveq	r1, r0
 80003cc:	2000      	moveq	r0, #0
 80003ce:	fab1 f381 	clz	r3, r1
 80003d2:	bf08      	it	eq
 80003d4:	3320      	addeq	r3, #32
 80003d6:	f1a3 030b 	sub.w	r3, r3, #11
 80003da:	f1b3 0220 	subs.w	r2, r3, #32
 80003de:	da0c      	bge.n	80003fa <__adddf3+0x16e>
 80003e0:	320c      	adds	r2, #12
 80003e2:	dd08      	ble.n	80003f6 <__adddf3+0x16a>
 80003e4:	f102 0c14 	add.w	ip, r2, #20
 80003e8:	f1c2 020c 	rsb	r2, r2, #12
 80003ec:	fa01 f00c 	lsl.w	r0, r1, ip
 80003f0:	fa21 f102 	lsr.w	r1, r1, r2
 80003f4:	e00c      	b.n	8000410 <__adddf3+0x184>
 80003f6:	f102 0214 	add.w	r2, r2, #20
 80003fa:	bfd8      	it	le
 80003fc:	f1c2 0c20 	rsble	ip, r2, #32
 8000400:	fa01 f102 	lsl.w	r1, r1, r2
 8000404:	fa20 fc0c 	lsr.w	ip, r0, ip
 8000408:	bfdc      	itt	le
 800040a:	ea41 010c 	orrle.w	r1, r1, ip
 800040e:	4090      	lslle	r0, r2
 8000410:	1ae4      	subs	r4, r4, r3
 8000412:	bfa2      	ittt	ge
 8000414:	eb01 5104 	addge.w	r1, r1, r4, lsl #20
 8000418:	4329      	orrge	r1, r5
 800041a:	bd30      	popge	{r4, r5, pc}
 800041c:	ea6f 0404 	mvn.w	r4, r4
 8000420:	3c1f      	subs	r4, #31
 8000422:	da1c      	bge.n	800045e <__adddf3+0x1d2>
 8000424:	340c      	adds	r4, #12
 8000426:	dc0e      	bgt.n	8000446 <__adddf3+0x1ba>
 8000428:	f104 0414 	add.w	r4, r4, #20
 800042c:	f1c4 0220 	rsb	r2, r4, #32
 8000430:	fa20 f004 	lsr.w	r0, r0, r4
 8000434:	fa01 f302 	lsl.w	r3, r1, r2
 8000438:	ea40 0003 	orr.w	r0, r0, r3
 800043c:	fa21 f304 	lsr.w	r3, r1, r4
 8000440:	ea45 0103 	orr.w	r1, r5, r3
 8000444:	bd30      	pop	{r4, r5, pc}
 8000446:	f1c4 040c 	rsb	r4, r4, #12
 800044a:	f1c4 0220 	rsb	r2, r4, #32
 800044e:	fa20 f002 	lsr.w	r0, r0, r2
 8000452:	fa01 f304 	lsl.w	r3, r1, r4
 8000456:	ea40 0003 	orr.w	r0, r0, r3
 800045a:	4629      	mov	r1, r5
 800045c:	bd30      	pop	{r4, r5, pc}
 800045e:	fa21 f004 	lsr.w	r0, r1, r4
 8000462:	4629      	mov	r1, r5
 8000464:	bd30      	pop	{r4, r5, pc}
 8000466:	f094 0f00 	teq	r4, #0
 800046a:	f483 1380 	eor.w	r3, r3, #1048576	; 0x100000
 800046e:	bf06      	itte	eq
 8000470:	f481 1180 	eoreq.w	r1, r1, #1048576	; 0x100000
 8000474:	3401      	addeq	r4, #1
 8000476:	3d01      	subne	r5, #1
 8000478:	e74e      	b.n	8000318 <__adddf3+0x8c>
 800047a:	ea7f 5c64 	mvns.w	ip, r4, asr #21
 800047e:	bf18      	it	ne
 8000480:	ea7f 5c65 	mvnsne.w	ip, r5, asr #21
 8000484:	d029      	beq.n	80004da <__adddf3+0x24e>
 8000486:	ea94 0f05 	teq	r4, r5
 800048a:	bf08      	it	eq
 800048c:	ea90 0f02 	teqeq	r0, r2
 8000490:	d005      	beq.n	800049e <__adddf3+0x212>
 8000492:	ea54 0c00 	orrs.w	ip, r4, r0
 8000496:	bf04      	itt	eq
 8000498:	4619      	moveq	r1, r3
 800049a:	4610      	moveq	r0, r2
 800049c:	bd30      	pop	{r4, r5, pc}
 800049e:	ea91 0f03 	teq	r1, r3
 80004a2:	bf1e      	ittt	ne
 80004a4:	2100      	movne	r1, #0
 80004a6:	2000      	movne	r0, #0
 80004a8:	bd30      	popne	{r4, r5, pc}
 80004aa:	ea5f 5c54 	movs.w	ip, r4, lsr #21
 80004ae:	d105      	bne.n	80004bc <__adddf3+0x230>
 80004b0:	0040      	lsls	r0, r0, #1
 80004b2:	4149      	adcs	r1, r1
 80004b4:	bf28      	it	cs
 80004b6:	f041 4100 	orrcs.w	r1, r1, #2147483648	; 0x80000000
 80004ba:	bd30      	pop	{r4, r5, pc}
 80004bc:	f514 0480 	adds.w	r4, r4, #4194304	; 0x400000
 80004c0:	bf3c      	itt	cc
 80004c2:	f501 1180 	addcc.w	r1, r1, #1048576	; 0x100000
 80004c6:	bd30      	popcc	{r4, r5, pc}
 80004c8:	f001 4500 	and.w	r5, r1, #2147483648	; 0x80000000
 80004cc:	f045 41fe 	orr.w	r1, r5, #2130706432	; 0x7f000000
 80004d0:	f441 0170 	orr.w	r1, r1, #15728640	; 0xf00000
 80004d4:	f04f 0000 	mov.w	r0, #0
 80004d8:	bd30      	pop	{r4, r5, pc}
 80004da:	ea7f 5c64 	mvns.w	ip, r4, asr #21
 80004de:	bf1a      	itte	ne
 80004e0:	4619      	movne	r1, r3
 80004e2:	4610      	movne	r0, r2
 80004e4:	ea7f 5c65 	mvnseq.w	ip, r5, asr #21
 80004e8:	bf1c      	itt	ne
 80004ea:	460b      	movne	r3, r1
 80004ec:	4602      	movne	r2, r0
 80004ee:	ea50 3401 	orrs.w	r4, r0, r1, lsl #12
 80004f2:	bf06      	itte	eq
 80004f4:	ea52 3503 	orrseq.w	r5, r2, r3, lsl #12
 80004f8:	ea91 0f03 	teqeq	r1, r3
 80004fc:	f441 2100 	orrne.w	r1, r1, #524288	; 0x80000
 8000500:	bd30      	pop	{r4, r5, pc}
 8000502:	bf00      	nop

08000504 <__aeabi_ui2d>:
 8000504:	f090 0f00 	teq	r0, #0
 8000508:	bf04      	itt	eq
 800050a:	2100      	moveq	r1, #0
 800050c:	4770      	bxeq	lr
 800050e:	b530      	push	{r4, r5, lr}
 8000510:	f44f 6480 	mov.w	r4, #1024	; 0x400
 8000514:	f104 0432 	add.w	r4, r4, #50	; 0x32
 8000518:	f04f 0500 	mov.w	r5, #0
 800051c:	f04f 0100 	mov.w	r1, #0
 8000520:	e750      	b.n	80003c4 <__adddf3+0x138>
 8000522:	bf00      	nop

08000524 <__aeabi_i2d>:
 8000524:	f090 0f00 	teq	r0, #0
 8000528:	bf04      	itt	eq
 800052a:	2100      	moveq	r1, #0
 800052c:	4770      	bxeq	lr
 800052e:	b530      	push	{r4, r5, lr}
 8000530:	f44f 6480 	mov.w	r4, #1024	; 0x400
 8000534:	f104 0432 	add.w	r4, r4, #50	; 0x32
 8000538:	f010 4500 	ands.w	r5, r0, #2147483648	; 0x80000000
 800053c:	bf48      	it	mi
 800053e:	4240      	negmi	r0, r0
 8000540:	f04f 0100 	mov.w	r1, #0
 8000544:	e73e      	b.n	80003c4 <__adddf3+0x138>
 8000546:	bf00      	nop

08000548 <__aeabi_f2d>:
 8000548:	0042      	lsls	r2, r0, #1
 800054a:	ea4f 01e2 	mov.w	r1, r2, asr #3
 800054e:	ea4f 0131 	mov.w	r1, r1, rrx
 8000552:	ea4f 7002 	mov.w	r0, r2, lsl #28
 8000556:	bf1f      	itttt	ne
 8000558:	f012 437f 	andsne.w	r3, r2, #4278190080	; 0xff000000
 800055c:	f093 4f7f 	teqne	r3, #4278190080	; 0xff000000
 8000560:	f081 5160 	eorne.w	r1, r1, #939524096	; 0x38000000
 8000564:	4770      	bxne	lr
 8000566:	f032 427f 	bics.w	r2, r2, #4278190080	; 0xff000000
 800056a:	bf08      	it	eq
 800056c:	4770      	bxeq	lr
 800056e:	f093 4f7f 	teq	r3, #4278190080	; 0xff000000
 8000572:	bf04      	itt	eq
 8000574:	f441 2100 	orreq.w	r1, r1, #524288	; 0x80000
 8000578:	4770      	bxeq	lr
 800057a:	b530      	push	{r4, r5, lr}
 800057c:	f44f 7460 	mov.w	r4, #896	; 0x380
 8000580:	f001 4500 	and.w	r5, r1, #2147483648	; 0x80000000
 8000584:	f021 4100 	bic.w	r1, r1, #2147483648	; 0x80000000
 8000588:	e71c      	b.n	80003c4 <__adddf3+0x138>
 800058a:	bf00      	nop

0800058c <__aeabi_ul2d>:
 800058c:	ea50 0201 	orrs.w	r2, r0, r1
 8000590:	bf08      	it	eq
 8000592:	4770      	bxeq	lr
 8000594:	b530      	push	{r4, r5, lr}
 8000596:	f04f 0500 	mov.w	r5, #0
 800059a:	e00a      	b.n	80005b2 <__aeabi_l2d+0x16>

0800059c <__aeabi_l2d>:
 800059c:	ea50 0201 	orrs.w	r2, r0, r1
 80005a0:	bf08      	it	eq
 80005a2:	4770      	bxeq	lr
 80005a4:	b530      	push	{r4, r5, lr}
 80005a6:	f011 4500 	ands.w	r5, r1, #2147483648	; 0x80000000
 80005aa:	d502      	bpl.n	80005b2 <__aeabi_l2d+0x16>
 80005ac:	4240      	negs	r0, r0
 80005ae:	eb61 0141 	sbc.w	r1, r1, r1, lsl #1
 80005b2:	f44f 6480 	mov.w	r4, #1024	; 0x400
 80005b6:	f104 0432 	add.w	r4, r4, #50	; 0x32
 80005ba:	ea5f 5c91 	movs.w	ip, r1, lsr #22
 80005be:	f43f aed8 	beq.w	8000372 <__adddf3+0xe6>
 80005c2:	f04f 0203 	mov.w	r2, #3
 80005c6:	ea5f 0cdc 	movs.w	ip, ip, lsr #3
 80005ca:	bf18      	it	ne
 80005cc:	3203      	addne	r2, #3
 80005ce:	ea5f 0cdc 	movs.w	ip, ip, lsr #3
 80005d2:	bf18      	it	ne
 80005d4:	3203      	addne	r2, #3
 80005d6:	eb02 02dc 	add.w	r2, r2, ip, lsr #3
 80005da:	f1c2 0320 	rsb	r3, r2, #32
 80005de:	fa00 fc03 	lsl.w	ip, r0, r3
 80005e2:	fa20 f002 	lsr.w	r0, r0, r2
 80005e6:	fa01 fe03 	lsl.w	lr, r1, r3
 80005ea:	ea40 000e 	orr.w	r0, r0, lr
 80005ee:	fa21 f102 	lsr.w	r1, r1, r2
 80005f2:	4414      	add	r4, r2
 80005f4:	e6bd      	b.n	8000372 <__adddf3+0xe6>
 80005f6:	bf00      	nop

080005f8 <__aeabi_dmul>:
 80005f8:	b570      	push	{r4, r5, r6, lr}
 80005fa:	f04f 0cff 	mov.w	ip, #255	; 0xff
 80005fe:	f44c 6ce0 	orr.w	ip, ip, #1792	; 0x700
 8000602:	ea1c 5411 	ands.w	r4, ip, r1, lsr #20
 8000606:	bf1d      	ittte	ne
 8000608:	ea1c 5513 	andsne.w	r5, ip, r3, lsr #20
 800060c:	ea94 0f0c 	teqne	r4, ip
 8000610:	ea95 0f0c 	teqne	r5, ip
 8000614:	f000 f8de 	bleq	80007d4 <__aeabi_dmul+0x1dc>
 8000618:	442c      	add	r4, r5
 800061a:	ea81 0603 	eor.w	r6, r1, r3
 800061e:	ea21 514c 	bic.w	r1, r1, ip, lsl #21
 8000622:	ea23 534c 	bic.w	r3, r3, ip, lsl #21
 8000626:	ea50 3501 	orrs.w	r5, r0, r1, lsl #12
 800062a:	bf18      	it	ne
 800062c:	ea52 3503 	orrsne.w	r5, r2, r3, lsl #12
 8000630:	f441 1180 	orr.w	r1, r1, #1048576	; 0x100000
 8000634:	f443 1380 	orr.w	r3, r3, #1048576	; 0x100000
 8000638:	d038      	beq.n	80006ac <__aeabi_dmul+0xb4>
 800063a:	fba0 ce02 	umull	ip, lr, r0, r2
 800063e:	f04f 0500 	mov.w	r5, #0
 8000642:	fbe1 e502 	umlal	lr, r5, r1, r2
 8000646:	f006 4200 	and.w	r2, r6, #2147483648	; 0x80000000
 800064a:	fbe0 e503 	umlal	lr, r5, r0, r3
 800064e:	f04f 0600 	mov.w	r6, #0
 8000652:	fbe1 5603 	umlal	r5, r6, r1, r3
 8000656:	f09c 0f00 	teq	ip, #0
 800065a:	bf18      	it	ne
 800065c:	f04e 0e01 	orrne.w	lr, lr, #1
 8000660:	f1a4 04ff 	sub.w	r4, r4, #255	; 0xff
 8000664:	f5b6 7f00 	cmp.w	r6, #512	; 0x200
 8000668:	f564 7440 	sbc.w	r4, r4, #768	; 0x300
 800066c:	d204      	bcs.n	8000678 <__aeabi_dmul+0x80>
 800066e:	ea5f 0e4e 	movs.w	lr, lr, lsl #1
 8000672:	416d      	adcs	r5, r5
 8000674:	eb46 0606 	adc.w	r6, r6, r6
 8000678:	ea42 21c6 	orr.w	r1, r2, r6, lsl #11
 800067c:	ea41 5155 	orr.w	r1, r1, r5, lsr #21
 8000680:	ea4f 20c5 	mov.w	r0, r5, lsl #11
 8000684:	ea40 505e 	orr.w	r0, r0, lr, lsr #21
 8000688:	ea4f 2ece 	mov.w	lr, lr, lsl #11
 800068c:	f1b4 0cfd 	subs.w	ip, r4, #253	; 0xfd
 8000690:	bf88      	it	hi
 8000692:	f5bc 6fe0 	cmphi.w	ip, #1792	; 0x700
 8000696:	d81e      	bhi.n	80006d6 <__aeabi_dmul+0xde>
 8000698:	f1be 4f00 	cmp.w	lr, #2147483648	; 0x80000000
 800069c:	bf08      	it	eq
 800069e:	ea5f 0e50 	movseq.w	lr, r0, lsr #1
 80006a2:	f150 0000 	adcs.w	r0, r0, #0
 80006a6:	eb41 5104 	adc.w	r1, r1, r4, lsl #20
 80006aa:	bd70      	pop	{r4, r5, r6, pc}
 80006ac:	f006 4600 	and.w	r6, r6, #2147483648	; 0x80000000
 80006b0:	ea46 0101 	orr.w	r1, r6, r1
 80006b4:	ea40 0002 	orr.w	r0, r0, r2
 80006b8:	ea81 0103 	eor.w	r1, r1, r3
 80006bc:	ebb4 045c 	subs.w	r4, r4, ip, lsr #1
 80006c0:	bfc2      	ittt	gt
 80006c2:	ebd4 050c 	rsbsgt	r5, r4, ip
 80006c6:	ea41 5104 	orrgt.w	r1, r1, r4, lsl #20
 80006ca:	bd70      	popgt	{r4, r5, r6, pc}
 80006cc:	f441 1180 	orr.w	r1, r1, #1048576	; 0x100000
 80006d0:	f04f 0e00 	mov.w	lr, #0
 80006d4:	3c01      	subs	r4, #1
 80006d6:	f300 80ab 	bgt.w	8000830 <__aeabi_dmul+0x238>
 80006da:	f114 0f36 	cmn.w	r4, #54	; 0x36
 80006de:	bfde      	ittt	le
 80006e0:	2000      	movle	r0, #0
 80006e2:	f001 4100 	andle.w	r1, r1, #2147483648	; 0x80000000
 80006e6:	bd70      	pople	{r4, r5, r6, pc}
 80006e8:	f1c4 0400 	rsb	r4, r4, #0
 80006ec:	3c20      	subs	r4, #32
 80006ee:	da35      	bge.n	800075c <__aeabi_dmul+0x164>
 80006f0:	340c      	adds	r4, #12
 80006f2:	dc1b      	bgt.n	800072c <__aeabi_dmul+0x134>
 80006f4:	f104 0414 	add.w	r4, r4, #20
 80006f8:	f1c4 0520 	rsb	r5, r4, #32
 80006fc:	fa00 f305 	lsl.w	r3, r0, r5
 8000700:	fa20 f004 	lsr.w	r0, r0, r4
 8000704:	fa01 f205 	lsl.w	r2, r1, r5
 8000708:	ea40 0002 	orr.w	r0, r0, r2
 800070c:	f001 4200 	and.w	r2, r1, #2147483648	; 0x80000000
 8000710:	f021 4100 	bic.w	r1, r1, #2147483648	; 0x80000000
 8000714:	eb10 70d3 	adds.w	r0, r0, r3, lsr #31
 8000718:	fa21 f604 	lsr.w	r6, r1, r4
 800071c:	eb42 0106 	adc.w	r1, r2, r6
 8000720:	ea5e 0e43 	orrs.w	lr, lr, r3, lsl #1
 8000724:	bf08      	it	eq
 8000726:	ea20 70d3 	biceq.w	r0, r0, r3, lsr #31
 800072a:	bd70      	pop	{r4, r5, r6, pc}
 800072c:	f1c4 040c 	rsb	r4, r4, #12
 8000730:	f1c4 0520 	rsb	r5, r4, #32
 8000734:	fa00 f304 	lsl.w	r3, r0, r4
 8000738:	fa20 f005 	lsr.w	r0, r0, r5
 800073c:	fa01 f204 	lsl.w	r2, r1, r4
 8000740:	ea40 0002 	orr.w	r0, r0, r2
 8000744:	f001 4100 	and.w	r1, r1, #2147483648	; 0x80000000
 8000748:	eb10 70d3 	adds.w	r0, r0, r3, lsr #31
 800074c:	f141 0100 	adc.w	r1, r1, #0
 8000750:	ea5e 0e43 	orrs.w	lr, lr, r3, lsl #1
 8000754:	bf08      	it	eq
 8000756:	ea20 70d3 	biceq.w	r0, r0, r3, lsr #31
 800075a:	bd70      	pop	{r4, r5, r6, pc}
 800075c:	f1c4 0520 	rsb	r5, r4, #32
 8000760:	fa00 f205 	lsl.w	r2, r0, r5
 8000764:	ea4e 0e02 	orr.w	lr, lr, r2
 8000768:	fa20 f304 	lsr.w	r3, r0, r4
 800076c:	fa01 f205 	lsl.w	r2, r1, r5
 8000770:	ea43 0302 	orr.w	r3, r3, r2
 8000774:	fa21 f004 	lsr.w	r0, r1, r4
 8000778:	f001 4100 	and.w	r1, r1, #2147483648	; 0x80000000
 800077c:	fa21 f204 	lsr.w	r2, r1, r4
 8000780:	ea20 0002 	bic.w	r0, r0, r2
 8000784:	eb00 70d3 	add.w	r0, r0, r3, lsr #31
 8000788:	ea5e 0e43 	orrs.w	lr, lr, r3, lsl #1
 800078c:	bf08      	it	eq
 800078e:	ea20 70d3 	biceq.w	r0, r0, r3, lsr #31
 8000792:	bd70      	pop	{r4, r5, r6, pc}
 8000794:	f094 0f00 	teq	r4, #0
 8000798:	d10f      	bne.n	80007ba <__aeabi_dmul+0x1c2>
 800079a:	f001 4600 	and.w	r6, r1, #2147483648	; 0x80000000
 800079e:	0040      	lsls	r0, r0, #1
 80007a0:	eb41 0101 	adc.w	r1, r1, r1
 80007a4:	f411 1f80 	tst.w	r1, #1048576	; 0x100000
 80007a8:	bf08      	it	eq
 80007aa:	3c01      	subeq	r4, #1
 80007ac:	d0f7      	beq.n	800079e <__aeabi_dmul+0x1a6>
 80007ae:	ea41 0106 	orr.w	r1, r1, r6
 80007b2:	f095 0f00 	teq	r5, #0
 80007b6:	bf18      	it	ne
 80007b8:	4770      	bxne	lr
 80007ba:	f003 4600 	and.w	r6, r3, #2147483648	; 0x80000000
 80007be:	0052      	lsls	r2, r2, #1
 80007c0:	eb43 0303 	adc.w	r3, r3, r3
 80007c4:	f413 1f80 	tst.w	r3, #1048576	; 0x100000
 80007c8:	bf08      	it	eq
 80007ca:	3d01      	subeq	r5, #1
 80007cc:	d0f7      	beq.n	80007be <__aeabi_dmul+0x1c6>
 80007ce:	ea43 0306 	orr.w	r3, r3, r6
 80007d2:	4770      	bx	lr
 80007d4:	ea94 0f0c 	teq	r4, ip
 80007d8:	ea0c 5513 	and.w	r5, ip, r3, lsr #20
 80007dc:	bf18      	it	ne
 80007de:	ea95 0f0c 	teqne	r5, ip
 80007e2:	d00c      	beq.n	80007fe <__aeabi_dmul+0x206>
 80007e4:	ea50 0641 	orrs.w	r6, r0, r1, lsl #1
 80007e8:	bf18      	it	ne
 80007ea:	ea52 0643 	orrsne.w	r6, r2, r3, lsl #1
 80007ee:	d1d1      	bne.n	8000794 <__aeabi_dmul+0x19c>
 80007f0:	ea81 0103 	eor.w	r1, r1, r3
 80007f4:	f001 4100 	and.w	r1, r1, #2147483648	; 0x80000000
 80007f8:	f04f 0000 	mov.w	r0, #0
 80007fc:	bd70      	pop	{r4, r5, r6, pc}
 80007fe:	ea50 0641 	orrs.w	r6, r0, r1, lsl #1
 8000802:	bf06      	itte	eq
 8000804:	4610      	moveq	r0, r2
 8000806:	4619      	moveq	r1, r3
 8000808:	ea52 0643 	orrsne.w	r6, r2, r3, lsl #1
 800080c:	d019      	beq.n	8000842 <__aeabi_dmul+0x24a>
 800080e:	ea94 0f0c 	teq	r4, ip
 8000812:	d102      	bne.n	800081a <__aeabi_dmul+0x222>
 8000814:	ea50 3601 	orrs.w	r6, r0, r1, lsl #12
 8000818:	d113      	bne.n	8000842 <__aeabi_dmul+0x24a>
 800081a:	ea95 0f0c 	teq	r5, ip
 800081e:	d105      	bne.n	800082c <__aeabi_dmul+0x234>
 8000820:	ea52 3603 	orrs.w	r6, r2, r3, lsl #12
 8000824:	bf1c      	itt	ne
 8000826:	4610      	movne	r0, r2
 8000828:	4619      	movne	r1, r3
 800082a:	d10a      	bne.n	8000842 <__aeabi_dmul+0x24a>
 800082c:	ea81 0103 	eor.w	r1, r1, r3
 8000830:	f001 4100 	and.w	r1, r1, #2147483648	; 0x80000000
 8000834:	f041 41fe 	orr.w	r1, r1, #2130706432	; 0x7f000000
 8000838:	f441 0170 	orr.w	r1, r1, #15728640	; 0xf00000
 800083c:	f04f 0000 	mov.w	r0, #0
 8000840:	bd70      	pop	{r4, r5, r6, pc}
 8000842:	f041 41fe 	orr.w	r1, r1, #2130706432	; 0x7f000000
 8000846:	f441 0178 	orr.w	r1, r1, #16252928	; 0xf80000
 800084a:	bd70      	pop	{r4, r5, r6, pc}

0800084c <__aeabi_ddiv>:
 800084c:	b570      	push	{r4, r5, r6, lr}
 800084e:	f04f 0cff 	mov.w	ip, #255	; 0xff
 8000852:	f44c 6ce0 	orr.w	ip, ip, #1792	; 0x700
 8000856:	ea1c 5411 	ands.w	r4, ip, r1, lsr #20
 800085a:	bf1d      	ittte	ne
 800085c:	ea1c 5513 	andsne.w	r5, ip, r3, lsr #20
 8000860:	ea94 0f0c 	teqne	r4, ip
 8000864:	ea95 0f0c 	teqne	r5, ip
 8000868:	f000 f8a7 	bleq	80009ba <__aeabi_ddiv+0x16e>
 800086c:	eba4 0405 	sub.w	r4, r4, r5
 8000870:	ea81 0e03 	eor.w	lr, r1, r3
 8000874:	ea52 3503 	orrs.w	r5, r2, r3, lsl #12
 8000878:	ea4f 3101 	mov.w	r1, r1, lsl #12
 800087c:	f000 8088 	beq.w	8000990 <__aeabi_ddiv+0x144>
 8000880:	ea4f 3303 	mov.w	r3, r3, lsl #12
 8000884:	f04f 5580 	mov.w	r5, #268435456	; 0x10000000
 8000888:	ea45 1313 	orr.w	r3, r5, r3, lsr #4
 800088c:	ea43 6312 	orr.w	r3, r3, r2, lsr #24
 8000890:	ea4f 2202 	mov.w	r2, r2, lsl #8
 8000894:	ea45 1511 	orr.w	r5, r5, r1, lsr #4
 8000898:	ea45 6510 	orr.w	r5, r5, r0, lsr #24
 800089c:	ea4f 2600 	mov.w	r6, r0, lsl #8
 80008a0:	f00e 4100 	and.w	r1, lr, #2147483648	; 0x80000000
 80008a4:	429d      	cmp	r5, r3
 80008a6:	bf08      	it	eq
 80008a8:	4296      	cmpeq	r6, r2
 80008aa:	f144 04fd 	adc.w	r4, r4, #253	; 0xfd
 80008ae:	f504 7440 	add.w	r4, r4, #768	; 0x300
 80008b2:	d202      	bcs.n	80008ba <__aeabi_ddiv+0x6e>
 80008b4:	085b      	lsrs	r3, r3, #1
 80008b6:	ea4f 0232 	mov.w	r2, r2, rrx
 80008ba:	1ab6      	subs	r6, r6, r2
 80008bc:	eb65 0503 	sbc.w	r5, r5, r3
 80008c0:	085b      	lsrs	r3, r3, #1
 80008c2:	ea4f 0232 	mov.w	r2, r2, rrx
 80008c6:	f44f 1080 	mov.w	r0, #1048576	; 0x100000
 80008ca:	f44f 2c00 	mov.w	ip, #524288	; 0x80000
 80008ce:	ebb6 0e02 	subs.w	lr, r6, r2
 80008d2:	eb75 0e03 	sbcs.w	lr, r5, r3
 80008d6:	bf22      	ittt	cs
 80008d8:	1ab6      	subcs	r6, r6, r2
 80008da:	4675      	movcs	r5, lr
 80008dc:	ea40 000c 	orrcs.w	r0, r0, ip
 80008e0:	085b      	lsrs	r3, r3, #1
 80008e2:	ea4f 0232 	mov.w	r2, r2, rrx
 80008e6:	ebb6 0e02 	subs.w	lr, r6, r2
 80008ea:	eb75 0e03 	sbcs.w	lr, r5, r3
 80008ee:	bf22      	ittt	cs
 80008f0:	1ab6      	subcs	r6, r6, r2
 80008f2:	4675      	movcs	r5, lr
 80008f4:	ea40 005c 	orrcs.w	r0, r0, ip, lsr #1
 80008f8:	085b      	lsrs	r3, r3, #1
 80008fa:	ea4f 0232 	mov.w	r2, r2, rrx
 80008fe:	ebb6 0e02 	subs.w	lr, r6, r2
 8000902:	eb75 0e03 	sbcs.w	lr, r5, r3
 8000906:	bf22      	ittt	cs
 8000908:	1ab6      	subcs	r6, r6, r2
 800090a:	4675      	movcs	r5, lr
 800090c:	ea40 009c 	orrcs.w	r0, r0, ip, lsr #2
 8000910:	085b      	lsrs	r3, r3, #1
 8000912:	ea4f 0232 	mov.w	r2, r2, rrx
 8000916:	ebb6 0e02 	subs.w	lr, r6, r2
 800091a:	eb75 0e03 	sbcs.w	lr, r5, r3
 800091e:	bf22      	ittt	cs
 8000920:	1ab6      	subcs	r6, r6, r2
 8000922:	4675      	movcs	r5, lr
 8000924:	ea40 00dc 	orrcs.w	r0, r0, ip, lsr #3
 8000928:	ea55 0e06 	orrs.w	lr, r5, r6
 800092c:	d018      	beq.n	8000960 <__aeabi_ddiv+0x114>
 800092e:	ea4f 1505 	mov.w	r5, r5, lsl #4
 8000932:	ea45 7516 	orr.w	r5, r5, r6, lsr #28
 8000936:	ea4f 1606 	mov.w	r6, r6, lsl #4
 800093a:	ea4f 03c3 	mov.w	r3, r3, lsl #3
 800093e:	ea43 7352 	orr.w	r3, r3, r2, lsr #29
 8000942:	ea4f 02c2 	mov.w	r2, r2, lsl #3
 8000946:	ea5f 1c1c 	movs.w	ip, ip, lsr #4
 800094a:	d1c0      	bne.n	80008ce <__aeabi_ddiv+0x82>
 800094c:	f411 1f80 	tst.w	r1, #1048576	; 0x100000
 8000950:	d10b      	bne.n	800096a <__aeabi_ddiv+0x11e>
 8000952:	ea41 0100 	orr.w	r1, r1, r0
 8000956:	f04f 0000 	mov.w	r0, #0
 800095a:	f04f 4c00 	mov.w	ip, #2147483648	; 0x80000000
 800095e:	e7b6      	b.n	80008ce <__aeabi_ddiv+0x82>
 8000960:	f411 1f80 	tst.w	r1, #1048576	; 0x100000
 8000964:	bf04      	itt	eq
 8000966:	4301      	orreq	r1, r0
 8000968:	2000      	moveq	r0, #0
 800096a:	f1b4 0cfd 	subs.w	ip, r4, #253	; 0xfd
 800096e:	bf88      	it	hi
 8000970:	f5bc 6fe0 	cmphi.w	ip, #1792	; 0x700
 8000974:	f63f aeaf 	bhi.w	80006d6 <__aeabi_dmul+0xde>
 8000978:	ebb5 0c03 	subs.w	ip, r5, r3
 800097c:	bf04      	itt	eq
 800097e:	ebb6 0c02 	subseq.w	ip, r6, r2
 8000982:	ea5f 0c50 	movseq.w	ip, r0, lsr #1
 8000986:	f150 0000 	adcs.w	r0, r0, #0
 800098a:	eb41 5104 	adc.w	r1, r1, r4, lsl #20
 800098e:	bd70      	pop	{r4, r5, r6, pc}
 8000990:	f00e 4e00 	and.w	lr, lr, #2147483648	; 0x80000000
 8000994:	ea4e 3111 	orr.w	r1, lr, r1, lsr #12
 8000998:	eb14 045c 	adds.w	r4, r4, ip, lsr #1
 800099c:	bfc2      	ittt	gt
 800099e:	ebd4 050c 	rsbsgt	r5, r4, ip
 80009a2:	ea41 5104 	orrgt.w	r1, r1, r4, lsl #20
 80009a6:	bd70      	popgt	{r4, r5, r6, pc}
 80009a8:	f441 1180 	orr.w	r1, r1, #1048576	; 0x100000
 80009ac:	f04f 0e00 	mov.w	lr, #0
 80009b0:	3c01      	subs	r4, #1
 80009b2:	e690      	b.n	80006d6 <__aeabi_dmul+0xde>
 80009b4:	ea45 0e06 	orr.w	lr, r5, r6
 80009b8:	e68d      	b.n	80006d6 <__aeabi_dmul+0xde>
 80009ba:	ea0c 5513 	and.w	r5, ip, r3, lsr #20
 80009be:	ea94 0f0c 	teq	r4, ip
 80009c2:	bf08      	it	eq
 80009c4:	ea95 0f0c 	teqeq	r5, ip
 80009c8:	f43f af3b 	beq.w	8000842 <__aeabi_dmul+0x24a>
 80009cc:	ea94 0f0c 	teq	r4, ip
 80009d0:	d10a      	bne.n	80009e8 <__aeabi_ddiv+0x19c>
 80009d2:	ea50 3401 	orrs.w	r4, r0, r1, lsl #12
 80009d6:	f47f af34 	bne.w	8000842 <__aeabi_dmul+0x24a>
 80009da:	ea95 0f0c 	teq	r5, ip
 80009de:	f47f af25 	bne.w	800082c <__aeabi_dmul+0x234>
 80009e2:	4610      	mov	r0, r2
 80009e4:	4619      	mov	r1, r3
 80009e6:	e72c      	b.n	8000842 <__aeabi_dmul+0x24a>
 80009e8:	ea95 0f0c 	teq	r5, ip
 80009ec:	d106      	bne.n	80009fc <__aeabi_ddiv+0x1b0>
 80009ee:	ea52 3503 	orrs.w	r5, r2, r3, lsl #12
 80009f2:	f43f aefd 	beq.w	80007f0 <__aeabi_dmul+0x1f8>
 80009f6:	4610      	mov	r0, r2
 80009f8:	4619      	mov	r1, r3
 80009fa:	e722      	b.n	8000842 <__aeabi_dmul+0x24a>
 80009fc:	ea50 0641 	orrs.w	r6, r0, r1, lsl #1
 8000a00:	bf18      	it	ne
 8000a02:	ea52 0643 	orrsne.w	r6, r2, r3, lsl #1
 8000a06:	f47f aec5 	bne.w	8000794 <__aeabi_dmul+0x19c>
 8000a0a:	ea50 0441 	orrs.w	r4, r0, r1, lsl #1
 8000a0e:	f47f af0d 	bne.w	800082c <__aeabi_dmul+0x234>
 8000a12:	ea52 0543 	orrs.w	r5, r2, r3, lsl #1
 8000a16:	f47f aeeb 	bne.w	80007f0 <__aeabi_dmul+0x1f8>
 8000a1a:	e712      	b.n	8000842 <__aeabi_dmul+0x24a>

08000a1c <__gedf2>:
 8000a1c:	f04f 3cff 	mov.w	ip, #4294967295
 8000a20:	e006      	b.n	8000a30 <__cmpdf2+0x4>
 8000a22:	bf00      	nop

08000a24 <__ledf2>:
 8000a24:	f04f 0c01 	mov.w	ip, #1
 8000a28:	e002      	b.n	8000a30 <__cmpdf2+0x4>
 8000a2a:	bf00      	nop

08000a2c <__cmpdf2>:
 8000a2c:	f04f 0c01 	mov.w	ip, #1
 8000a30:	f84d cd04 	str.w	ip, [sp, #-4]!
 8000a34:	ea4f 0c41 	mov.w	ip, r1, lsl #1
 8000a38:	ea7f 5c6c 	mvns.w	ip, ip, asr #21
 8000a3c:	ea4f 0c43 	mov.w	ip, r3, lsl #1
 8000a40:	bf18      	it	ne
 8000a42:	ea7f 5c6c 	mvnsne.w	ip, ip, asr #21
 8000a46:	d01b      	beq.n	8000a80 <__cmpdf2+0x54>
 8000a48:	b001      	add	sp, #4
 8000a4a:	ea50 0c41 	orrs.w	ip, r0, r1, lsl #1
 8000a4e:	bf0c      	ite	eq
 8000a50:	ea52 0c43 	orrseq.w	ip, r2, r3, lsl #1
 8000a54:	ea91 0f03 	teqne	r1, r3
 8000a58:	bf02      	ittt	eq
 8000a5a:	ea90 0f02 	teqeq	r0, r2
 8000a5e:	2000      	moveq	r0, #0
 8000a60:	4770      	bxeq	lr
 8000a62:	f110 0f00 	cmn.w	r0, #0
 8000a66:	ea91 0f03 	teq	r1, r3
 8000a6a:	bf58      	it	pl
 8000a6c:	4299      	cmppl	r1, r3
 8000a6e:	bf08      	it	eq
 8000a70:	4290      	cmpeq	r0, r2
 8000a72:	bf2c      	ite	cs
 8000a74:	17d8      	asrcs	r0, r3, #31
 8000a76:	ea6f 70e3 	mvncc.w	r0, r3, asr #31
 8000a7a:	f040 0001 	orr.w	r0, r0, #1
 8000a7e:	4770      	bx	lr
 8000a80:	ea4f 0c41 	mov.w	ip, r1, lsl #1
 8000a84:	ea7f 5c6c 	mvns.w	ip, ip, asr #21
 8000a88:	d102      	bne.n	8000a90 <__cmpdf2+0x64>
 8000a8a:	ea50 3c01 	orrs.w	ip, r0, r1, lsl #12
 8000a8e:	d107      	bne.n	8000aa0 <__cmpdf2+0x74>
 8000a90:	ea4f 0c43 	mov.w	ip, r3, lsl #1
 8000a94:	ea7f 5c6c 	mvns.w	ip, ip, asr #21
 8000a98:	d1d6      	bne.n	8000a48 <__cmpdf2+0x1c>
 8000a9a:	ea52 3c03 	orrs.w	ip, r2, r3, lsl #12
 8000a9e:	d0d3      	beq.n	8000a48 <__cmpdf2+0x1c>
 8000aa0:	f85d 0b04 	ldr.w	r0, [sp], #4
 8000aa4:	4770      	bx	lr
 8000aa6:	bf00      	nop

08000aa8 <__aeabi_cdrcmple>:
 8000aa8:	4684      	mov	ip, r0
 8000aaa:	4610      	mov	r0, r2
 8000aac:	4662      	mov	r2, ip
 8000aae:	468c      	mov	ip, r1
 8000ab0:	4619      	mov	r1, r3
 8000ab2:	4663      	mov	r3, ip
 8000ab4:	e000      	b.n	8000ab8 <__aeabi_cdcmpeq>
 8000ab6:	bf00      	nop

08000ab8 <__aeabi_cdcmpeq>:
 8000ab8:	b501      	push	{r0, lr}
 8000aba:	f7ff ffb7 	bl	8000a2c <__cmpdf2>
 8000abe:	2800      	cmp	r0, #0
 8000ac0:	bf48      	it	mi
 8000ac2:	f110 0f00 	cmnmi.w	r0, #0
 8000ac6:	bd01      	pop	{r0, pc}

08000ac8 <__aeabi_dcmpeq>:
 8000ac8:	f84d ed08 	str.w	lr, [sp, #-8]!
 8000acc:	f7ff fff4 	bl	8000ab8 <__aeabi_cdcmpeq>
 8000ad0:	bf0c      	ite	eq
 8000ad2:	2001      	moveq	r0, #1
 8000ad4:	2000      	movne	r0, #0
 8000ad6:	f85d fb08 	ldr.w	pc, [sp], #8
 8000ada:	bf00      	nop

08000adc <__aeabi_dcmplt>:
 8000adc:	f84d ed08 	str.w	lr, [sp, #-8]!
 8000ae0:	f7ff ffea 	bl	8000ab8 <__aeabi_cdcmpeq>
 8000ae4:	bf34      	ite	cc
 8000ae6:	2001      	movcc	r0, #1
 8000ae8:	2000      	movcs	r0, #0
 8000aea:	f85d fb08 	ldr.w	pc, [sp], #8
 8000aee:	bf00      	nop

08000af0 <__aeabi_dcmple>:
 8000af0:	f84d ed08 	str.w	lr, [sp, #-8]!
 8000af4:	f7ff ffe0 	bl	8000ab8 <__aeabi_cdcmpeq>
 8000af8:	bf94      	ite	ls
 8000afa:	2001      	movls	r0, #1
 8000afc:	2000      	movhi	r0, #0
 8000afe:	f85d fb08 	ldr.w	pc, [sp], #8
 8000b02:	bf00      	nop

08000b04 <__aeabi_dcmpge>:
 8000b04:	f84d ed08 	str.w	lr, [sp, #-8]!
 8000b08:	f7ff ffce 	bl	8000aa8 <__aeabi_cdrcmple>
 8000b0c:	bf94      	ite	ls
 8000b0e:	2001      	movls	r0, #1
 8000b10:	2000      	movhi	r0, #0
 8000b12:	f85d fb08 	ldr.w	pc, [sp], #8
 8000b16:	bf00      	nop

08000b18 <__aeabi_dcmpgt>:
 8000b18:	f84d ed08 	str.w	lr, [sp, #-8]!
 8000b1c:	f7ff ffc4 	bl	8000aa8 <__aeabi_cdrcmple>
 8000b20:	bf34      	ite	cc
 8000b22:	2001      	movcc	r0, #1
 8000b24:	2000      	movcs	r0, #0
 8000b26:	f85d fb08 	ldr.w	pc, [sp], #8
 8000b2a:	bf00      	nop

08000b2c <__aeabi_dcmpun>:
 8000b2c:	ea4f 0c41 	mov.w	ip, r1, lsl #1
 8000b30:	ea7f 5c6c 	mvns.w	ip, ip, asr #21
 8000b34:	d102      	bne.n	8000b3c <__aeabi_dcmpun+0x10>
 8000b36:	ea50 3c01 	orrs.w	ip, r0, r1, lsl #12
 8000b3a:	d10a      	bne.n	8000b52 <__aeabi_dcmpun+0x26>
 8000b3c:	ea4f 0c43 	mov.w	ip, r3, lsl #1
 8000b40:	ea7f 5c6c 	mvns.w	ip, ip, asr #21
 8000b44:	d102      	bne.n	8000b4c <__aeabi_dcmpun+0x20>
 8000b46:	ea52 3c03 	orrs.w	ip, r2, r3, lsl #12
 8000b4a:	d102      	bne.n	8000b52 <__aeabi_dcmpun+0x26>
 8000b4c:	f04f 0000 	mov.w	r0, #0
 8000b50:	4770      	bx	lr
 8000b52:	f04f 0001 	mov.w	r0, #1
 8000b56:	4770      	bx	lr

08000b58 <__aeabi_d2iz>:
 8000b58:	ea4f 0241 	mov.w	r2, r1, lsl #1
 8000b5c:	f512 1200 	adds.w	r2, r2, #2097152	; 0x200000
 8000b60:	d215      	bcs.n	8000b8e <__aeabi_d2iz+0x36>
 8000b62:	d511      	bpl.n	8000b88 <__aeabi_d2iz+0x30>
 8000b64:	f46f 7378 	mvn.w	r3, #992	; 0x3e0
 8000b68:	ebb3 5262 	subs.w	r2, r3, r2, asr #21
 8000b6c:	d912      	bls.n	8000b94 <__aeabi_d2iz+0x3c>
 8000b6e:	ea4f 23c1 	mov.w	r3, r1, lsl #11
 8000b72:	f043 4300 	orr.w	r3, r3, #2147483648	; 0x80000000
 8000b76:	ea43 5350 	orr.w	r3, r3, r0, lsr #21
 8000b7a:	f011 4f00 	tst.w	r1, #2147483648	; 0x80000000
 8000b7e:	fa23 f002 	lsr.w	r0, r3, r2
 8000b82:	bf18      	it	ne
 8000b84:	4240      	negne	r0, r0
 8000b86:	4770      	bx	lr
 8000b88:	f04f 0000 	mov.w	r0, #0
 8000b8c:	4770      	bx	lr
 8000b8e:	ea50 3001 	orrs.w	r0, r0, r1, lsl #12
 8000b92:	d105      	bne.n	8000ba0 <__aeabi_d2iz+0x48>
 8000b94:	f011 4000 	ands.w	r0, r1, #2147483648	; 0x80000000
 8000b98:	bf08      	it	eq
 8000b9a:	f06f 4000 	mvneq.w	r0, #2147483648	; 0x80000000
 8000b9e:	4770      	bx	lr
 8000ba0:	f04f 0000 	mov.w	r0, #0
 8000ba4:	4770      	bx	lr
 8000ba6:	bf00      	nop

08000ba8 <__aeabi_d2uiz>:
 8000ba8:	004a      	lsls	r2, r1, #1
 8000baa:	d211      	bcs.n	8000bd0 <__aeabi_d2uiz+0x28>
 8000bac:	f512 1200 	adds.w	r2, r2, #2097152	; 0x200000
 8000bb0:	d211      	bcs.n	8000bd6 <__aeabi_d2uiz+0x2e>
 8000bb2:	d50d      	bpl.n	8000bd0 <__aeabi_d2uiz+0x28>
 8000bb4:	f46f 7378 	mvn.w	r3, #992	; 0x3e0
 8000bb8:	ebb3 5262 	subs.w	r2, r3, r2, asr #21
 8000bbc:	d40e      	bmi.n	8000bdc <__aeabi_d2uiz+0x34>
 8000bbe:	ea4f 23c1 	mov.w	r3, r1, lsl #11
 8000bc2:	f043 4300 	orr.w	r3, r3, #2147483648	; 0x80000000
 8000bc6:	ea43 5350 	orr.w	r3, r3, r0, lsr #21
 8000bca:	fa23 f002 	lsr.w	r0, r3, r2
 8000bce:	4770      	bx	lr
 8000bd0:	f04f 0000 	mov.w	r0, #0
 8000bd4:	4770      	bx	lr
 8000bd6:	ea50 3001 	orrs.w	r0, r0, r1, lsl #12
 8000bda:	d102      	bne.n	8000be2 <__aeabi_d2uiz+0x3a>
 8000bdc:	f04f 30ff 	mov.w	r0, #4294967295
 8000be0:	4770      	bx	lr
 8000be2:	f04f 0000 	mov.w	r0, #0
 8000be6:	4770      	bx	lr

08000be8 <__aeabi_d2f>:
 8000be8:	ea4f 0241 	mov.w	r2, r1, lsl #1
 8000bec:	f1b2 43e0 	subs.w	r3, r2, #1879048192	; 0x70000000
 8000bf0:	bf24      	itt	cs
 8000bf2:	f5b3 1c00 	subscs.w	ip, r3, #2097152	; 0x200000
 8000bf6:	f1dc 5cfe 	rsbscs	ip, ip, #532676608	; 0x1fc00000
 8000bfa:	d90d      	bls.n	8000c18 <__aeabi_d2f+0x30>
 8000bfc:	f001 4c00 	and.w	ip, r1, #2147483648	; 0x80000000
 8000c00:	ea4f 02c0 	mov.w	r2, r0, lsl #3
 8000c04:	ea4c 7050 	orr.w	r0, ip, r0, lsr #29
 8000c08:	f1b2 4f00 	cmp.w	r2, #2147483648	; 0x80000000
 8000c0c:	eb40 0083 	adc.w	r0, r0, r3, lsl #2
 8000c10:	bf08      	it	eq
 8000c12:	f020 0001 	biceq.w	r0, r0, #1
 8000c16:	4770      	bx	lr
 8000c18:	f011 4f80 	tst.w	r1, #1073741824	; 0x40000000
 8000c1c:	d121      	bne.n	8000c62 <__aeabi_d2f+0x7a>
 8000c1e:	f113 7238 	adds.w	r2, r3, #48234496	; 0x2e00000
 8000c22:	bfbc      	itt	lt
 8000c24:	f001 4000 	andlt.w	r0, r1, #2147483648	; 0x80000000
 8000c28:	4770      	bxlt	lr
 8000c2a:	f441 1180 	orr.w	r1, r1, #1048576	; 0x100000
 8000c2e:	ea4f 5252 	mov.w	r2, r2, lsr #21
 8000c32:	f1c2 0218 	rsb	r2, r2, #24
 8000c36:	f1c2 0c20 	rsb	ip, r2, #32
 8000c3a:	fa10 f30c 	lsls.w	r3, r0, ip
 8000c3e:	fa20 f002 	lsr.w	r0, r0, r2
 8000c42:	bf18      	it	ne
 8000c44:	f040 0001 	orrne.w	r0, r0, #1
 8000c48:	ea4f 23c1 	mov.w	r3, r1, lsl #11
 8000c4c:	ea4f 23d3 	mov.w	r3, r3, lsr #11
 8000c50:	fa03 fc0c 	lsl.w	ip, r3, ip
 8000c54:	ea40 000c 	orr.w	r0, r0, ip
 8000c58:	fa23 f302 	lsr.w	r3, r3, r2
 8000c5c:	ea4f 0343 	mov.w	r3, r3, lsl #1
 8000c60:	e7cc      	b.n	8000bfc <__aeabi_d2f+0x14>
 8000c62:	ea7f 5362 	mvns.w	r3, r2, asr #21
 8000c66:	d107      	bne.n	8000c78 <__aeabi_d2f+0x90>
 8000c68:	ea50 3301 	orrs.w	r3, r0, r1, lsl #12
 8000c6c:	bf1e      	ittt	ne
 8000c6e:	f04f 40fe 	movne.w	r0, #2130706432	; 0x7f000000
 8000c72:	f440 0040 	orrne.w	r0, r0, #12582912	; 0xc00000
 8000c76:	4770      	bxne	lr
 8000c78:	f001 4000 	and.w	r0, r1, #2147483648	; 0x80000000
 8000c7c:	f040 40fe 	orr.w	r0, r0, #2130706432	; 0x7f000000
 8000c80:	f440 0000 	orr.w	r0, r0, #8388608	; 0x800000
 8000c84:	4770      	bx	lr
 8000c86:	bf00      	nop

08000c88 <MX_ADC1_Init>:
ADC_HandleTypeDef hadc3;
DMA_HandleTypeDef hdma_adc1;

/* ADC1 init function */
void MX_ADC1_Init(void)
{
 8000c88:	b510      	push	{r4, lr}

  /* USER CODE END ADC1_Init 0 */

  ADC_MultiModeTypeDef multimode = {0};
  ADC_ChannelConfTypeDef sConfig = {0};
  ADC_InjectionConfTypeDef sConfigInjected = {0};
 8000c8a:	2228      	movs	r2, #40	; 0x28
  ADC_MultiModeTypeDef multimode = {0};
 8000c8c:	2400      	movs	r4, #0
{
 8000c8e:	b094      	sub	sp, #80	; 0x50
  ADC_InjectionConfTypeDef sConfigInjected = {0};
 8000c90:	eb0d 0002 	add.w	r0, sp, r2
 8000c94:	4621      	mov	r1, r4
  ADC_MultiModeTypeDef multimode = {0};
 8000c96:	e9cd 4402 	strd	r4, r4, [sp, #8]
  ADC_ChannelConfTypeDef sConfig = {0};
 8000c9a:	e9cd 4405 	strd	r4, r4, [sp, #20]
 8000c9e:	e9cd 4407 	strd	r4, r4, [sp, #28]
  ADC_MultiModeTypeDef multimode = {0};
 8000ca2:	9401      	str	r4, [sp, #4]
  ADC_ChannelConfTypeDef sConfig = {0};
 8000ca4:	9404      	str	r4, [sp, #16]
 8000ca6:	9409      	str	r4, [sp, #36]	; 0x24
  ADC_InjectionConfTypeDef sConfigInjected = {0};
 8000ca8:	f006 fab2 	bl	8007210 <memset>

  /* USER CODE END ADC1_Init 1 */

  /** Common config
  */
  hadc1.Instance = ADC1;
 8000cac:	4844      	ldr	r0, [pc, #272]	; (8000dc0 <MX_ADC1_Init+0x138>)
  hadc1.Init.ClockPrescaler = ADC_CLOCK_SYNC_PCLK_DIV4;
 8000cae:	f04f 42a0 	mov.w	r2, #1342177280	; 0x50000000
 8000cb2:	f44f 3340 	mov.w	r3, #196608	; 0x30000
 8000cb6:	e9c0 2300 	strd	r2, r3, [r0]
  hadc1.Init.Resolution = ADC_RESOLUTION_12B;
  hadc1.Init.ScanConvMode = ADC_SCAN_ENABLE;
 8000cba:	2301      	movs	r3, #1
  hadc1.Init.ContinuousConvMode = DISABLE;
  hadc1.Init.DiscontinuousConvMode = DISABLE;
  hadc1.Init.ExternalTrigConvEdge = ADC_EXTERNALTRIGCONVEDGE_NONE;
  hadc1.Init.ExternalTrigConv = ADC_SOFTWARE_START;
 8000cbc:	2201      	movs	r2, #1
  hadc1.Init.ScanConvMode = ADC_SCAN_ENABLE;
 8000cbe:	6103      	str	r3, [r0, #16]
  hadc1.Init.ExternalTrigConv = ADC_SOFTWARE_START;
 8000cc0:	2300      	movs	r3, #0
 8000cc2:	e9c0 230a 	strd	r2, r3, [r0, #40]	; 0x28
  hadc1.Init.DataAlign = ADC_DATAALIGN_RIGHT;
  hadc1.Init.NbrOfConversion = 2;
  hadc1.Init.DMAContinuousRequests = DISABLE;
  hadc1.Init.EOCSelection = ADC_EOC_SINGLE_CONV;
  hadc1.Init.LowPowerAutoWait = DISABLE;
 8000cc6:	8304      	strh	r4, [r0, #24]
  hadc1.Init.NbrOfConversion = 2;
 8000cc8:	2202      	movs	r2, #2
  hadc1.Init.EOCSelection = ADC_EOC_SINGLE_CONV;
 8000cca:	2304      	movs	r3, #4
  hadc1.Init.Resolution = ADC_RESOLUTION_12B;
 8000ccc:	6084      	str	r4, [r0, #8]
  hadc1.Init.DiscontinuousConvMode = DISABLE;
 8000cce:	f880 4020 	strb.w	r4, [r0, #32]
  hadc1.Init.DataAlign = ADC_DATAALIGN_RIGHT;
 8000cd2:	60c4      	str	r4, [r0, #12]
  hadc1.Init.NbrOfConversion = 2;
 8000cd4:	61c2      	str	r2, [r0, #28]
  hadc1.Init.DMAContinuousRequests = DISABLE;
 8000cd6:	f880 4030 	strb.w	r4, [r0, #48]	; 0x30
  hadc1.Init.EOCSelection = ADC_EOC_SINGLE_CONV;
 8000cda:	6143      	str	r3, [r0, #20]
  hadc1.Init.Overrun = ADC_OVR_DATA_OVERWRITTEN;
 8000cdc:	6344      	str	r4, [r0, #52]	; 0x34
  if (HAL_ADC_Init(&hadc1) != HAL_OK)
 8000cde:	f001 fd55 	bl	800278c <HAL_ADC_Init>
 8000ce2:	2800      	cmp	r0, #0
 8000ce4:	d151      	bne.n	8000d8a <MX_ADC1_Init+0x102>
    Error_Handler();
  }

  /** Configure the ADC multi-mode
  */
  multimode.Mode = ADC_MODE_INDEPENDENT;
 8000ce6:	2300      	movs	r3, #0
  if (HAL_ADCEx_MultiModeConfigChannel(&hadc1, &multimode) != HAL_OK)
 8000ce8:	4835      	ldr	r0, [pc, #212]	; (8000dc0 <MX_ADC1_Init+0x138>)
  multimode.Mode = ADC_MODE_INDEPENDENT;
 8000cea:	9301      	str	r3, [sp, #4]
  if (HAL_ADCEx_MultiModeConfigChannel(&hadc1, &multimode) != HAL_OK)
 8000cec:	a901      	add	r1, sp, #4
 8000cee:	f002 fb55 	bl	800339c <HAL_ADCEx_MultiModeConfigChannel>
 8000cf2:	2800      	cmp	r0, #0
 8000cf4:	d15c      	bne.n	8000db0 <MX_ADC1_Init+0x128>
    Error_Handler();
  }

  /** Configure Regular Channel
  */
  sConfig.Channel = ADC_CHANNEL_1;
 8000cf6:	2201      	movs	r2, #1
 8000cf8:	2301      	movs	r3, #1
 8000cfa:	e9cd 2304 	strd	r2, r3, [sp, #16]
 8000cfe:	2206      	movs	r2, #6
 8000d00:	2300      	movs	r3, #0
 8000d02:	e9cd 2306 	strd	r2, r3, [sp, #24]
  sConfig.Rank = ADC_REGULAR_RANK_1;
  sConfig.SingleDiff = ADC_SINGLE_ENDED;
  sConfig.SamplingTime = ADC_SAMPLETIME_181CYCLES_5;
  sConfig.OffsetNumber = ADC_OFFSET_NONE;
  sConfig.Offset = 0;
  if (HAL_ADC_ConfigChannel(&hadc1, &sConfig) != HAL_OK)
 8000d06:	482e      	ldr	r0, [pc, #184]	; (8000dc0 <MX_ADC1_Init+0x138>)
  sConfig.Channel = ADC_CHANNEL_1;
 8000d08:	2200      	movs	r2, #0
 8000d0a:	2300      	movs	r3, #0
  if (HAL_ADC_ConfigChannel(&hadc1, &sConfig) != HAL_OK)
 8000d0c:	a904      	add	r1, sp, #16
  sConfig.Channel = ADC_CHANNEL_1;
 8000d0e:	e9cd 2308 	strd	r2, r3, [sp, #32]
  if (HAL_ADC_ConfigChannel(&hadc1, &sConfig) != HAL_OK)
 8000d12:	f001 ff2b 	bl	8002b6c <HAL_ADC_ConfigChannel>
 8000d16:	2800      	cmp	r0, #0
 8000d18:	d147      	bne.n	8000daa <MX_ADC1_Init+0x122>
    Error_Handler();
  }

  /** Configure Regular Channel
  */
  sConfig.Channel = ADC_CHANNEL_4;
 8000d1a:	2204      	movs	r2, #4
 8000d1c:	2302      	movs	r3, #2
  sConfig.Rank = ADC_REGULAR_RANK_2;
  if (HAL_ADC_ConfigChannel(&hadc1, &sConfig) != HAL_OK)
 8000d1e:	4828      	ldr	r0, [pc, #160]	; (8000dc0 <MX_ADC1_Init+0x138>)
 8000d20:	a904      	add	r1, sp, #16
  sConfig.Channel = ADC_CHANNEL_4;
 8000d22:	e9cd 2304 	strd	r2, r3, [sp, #16]
  if (HAL_ADC_ConfigChannel(&hadc1, &sConfig) != HAL_OK)
 8000d26:	f001 ff21 	bl	8002b6c <HAL_ADC_ConfigChannel>
 8000d2a:	2800      	cmp	r0, #0
 8000d2c:	d13a      	bne.n	8000da4 <MX_ADC1_Init+0x11c>
  sConfigInjected.InjectedRank = ADC_INJECTED_RANK_1;
  sConfigInjected.InjectedSingleDiff = ADC_SINGLE_ENDED;
  sConfigInjected.InjectedNbrOfConversion = 3;
  sConfigInjected.InjectedSamplingTime = ADC_SAMPLETIME_601CYCLES_5;
  sConfigInjected.ExternalTrigInjecConvEdge = ADC_EXTERNALTRIGINJECCONV_EDGE_RISING;
  sConfigInjected.ExternalTrigInjecConv = ADC_INJECTED_SOFTWARE_START;
 8000d2e:	ed9f 7b22 	vldr	d7, [pc, #136]	; 8000db8 <MX_ADC1_Init+0x130>
  sConfigInjected.InjectedChannel = ADC_CHANNEL_1;
 8000d32:	2201      	movs	r2, #1
  sConfigInjected.InjectedNbrOfConversion = 3;
 8000d34:	2003      	movs	r0, #3
  sConfigInjected.InjectedSamplingTime = ADC_SAMPLETIME_601CYCLES_5;
 8000d36:	2107      	movs	r1, #7
  sConfigInjected.InjectedSingleDiff = ADC_SINGLE_ENDED;
 8000d38:	2300      	movs	r3, #0
  sConfigInjected.InjectedRank = ADC_INJECTED_RANK_1;
 8000d3a:	e9cd 220a 	strd	r2, r2, [sp, #40]	; 0x28
  sConfigInjected.InjectedNbrOfConversion = 3;
 8000d3e:	9010      	str	r0, [sp, #64]	; 0x40
  sConfigInjected.AutoInjectedConv = ENABLE;
  sConfigInjected.InjectedDiscontinuousConvMode = DISABLE;
 8000d40:	f44f 7280 	mov.w	r2, #256	; 0x100
  sConfigInjected.InjectedSamplingTime = ADC_SAMPLETIME_601CYCLES_5;
 8000d44:	910c      	str	r1, [sp, #48]	; 0x30
  sConfigInjected.QueueInjectedContext = DISABLE;
  sConfigInjected.InjectedOffset = 0;
  sConfigInjected.InjectedOffsetNumber = ADC_OFFSET_NONE;
  if (HAL_ADCEx_InjectedConfigChannel(&hadc1, &sConfigInjected) != HAL_OK)
 8000d46:	481e      	ldr	r0, [pc, #120]	; (8000dc0 <MX_ADC1_Init+0x138>)
  sConfigInjected.InjectedSingleDiff = ADC_SINGLE_ENDED;
 8000d48:	930d      	str	r3, [sp, #52]	; 0x34
  if (HAL_ADCEx_InjectedConfigChannel(&hadc1, &sConfigInjected) != HAL_OK)
 8000d4a:	a90a      	add	r1, sp, #40	; 0x28
  sConfigInjected.ExternalTrigInjecConv = ADC_INJECTED_SOFTWARE_START;
 8000d4c:	ed8d 7b12 	vstr	d7, [sp, #72]	; 0x48
  sConfigInjected.InjectedOffsetNumber = ADC_OFFSET_NONE;
 8000d50:	e9cd 330e 	strd	r3, r3, [sp, #56]	; 0x38
  sConfigInjected.InjectedDiscontinuousConvMode = DISABLE;
 8000d54:	f8ad 2044 	strh.w	r2, [sp, #68]	; 0x44
  sConfigInjected.QueueInjectedContext = DISABLE;
 8000d58:	f88d 3046 	strb.w	r3, [sp, #70]	; 0x46
  if (HAL_ADCEx_InjectedConfigChannel(&hadc1, &sConfigInjected) != HAL_OK)
 8000d5c:	f002 f8d0 	bl	8002f00 <HAL_ADCEx_InjectedConfigChannel>
 8000d60:	b9e8      	cbnz	r0, 8000d9e <MX_ADC1_Init+0x116>
    Error_Handler();
  }

  /** Configure Injected Channel
  */
  sConfigInjected.InjectedChannel = ADC_CHANNEL_4;
 8000d62:	2204      	movs	r2, #4
 8000d64:	2302      	movs	r3, #2
  sConfigInjected.InjectedRank = ADC_INJECTED_RANK_2;
  if (HAL_ADCEx_InjectedConfigChannel(&hadc1, &sConfigInjected) != HAL_OK)
 8000d66:	4816      	ldr	r0, [pc, #88]	; (8000dc0 <MX_ADC1_Init+0x138>)
 8000d68:	a90a      	add	r1, sp, #40	; 0x28
  sConfigInjected.InjectedChannel = ADC_CHANNEL_4;
 8000d6a:	e9cd 230a 	strd	r2, r3, [sp, #40]	; 0x28
  if (HAL_ADCEx_InjectedConfigChannel(&hadc1, &sConfigInjected) != HAL_OK)
 8000d6e:	f002 f8c7 	bl	8002f00 <HAL_ADCEx_InjectedConfigChannel>
 8000d72:	b988      	cbnz	r0, 8000d98 <MX_ADC1_Init+0x110>
    Error_Handler();
  }

  /** Configure Injected Channel
  */
  sConfigInjected.InjectedChannel = ADC_CHANNEL_5;
 8000d74:	2205      	movs	r2, #5
 8000d76:	2303      	movs	r3, #3
  sConfigInjected.InjectedRank = ADC_INJECTED_RANK_3;
  if (HAL_ADCEx_InjectedConfigChannel(&hadc1, &sConfigInjected) != HAL_OK)
 8000d78:	4811      	ldr	r0, [pc, #68]	; (8000dc0 <MX_ADC1_Init+0x138>)
 8000d7a:	a90a      	add	r1, sp, #40	; 0x28
  sConfigInjected.InjectedChannel = ADC_CHANNEL_5;
 8000d7c:	e9cd 230a 	strd	r2, r3, [sp, #40]	; 0x28
  if (HAL_ADCEx_InjectedConfigChannel(&hadc1, &sConfigInjected) != HAL_OK)
 8000d80:	f002 f8be 	bl	8002f00 <HAL_ADCEx_InjectedConfigChannel>
 8000d84:	b920      	cbnz	r0, 8000d90 <MX_ADC1_Init+0x108>
  }
  /* USER CODE BEGIN ADC1_Init 2 */

  /* USER CODE END ADC1_Init 2 */

}
 8000d86:	b014      	add	sp, #80	; 0x50
 8000d88:	bd10      	pop	{r4, pc}
    Error_Handler();
 8000d8a:	f000 ff07 	bl	8001b9c <Error_Handler>
 8000d8e:	e7aa      	b.n	8000ce6 <MX_ADC1_Init+0x5e>
    Error_Handler();
 8000d90:	f000 ff04 	bl	8001b9c <Error_Handler>
}
 8000d94:	b014      	add	sp, #80	; 0x50
 8000d96:	bd10      	pop	{r4, pc}
    Error_Handler();
 8000d98:	f000 ff00 	bl	8001b9c <Error_Handler>
 8000d9c:	e7ea      	b.n	8000d74 <MX_ADC1_Init+0xec>
    Error_Handler();
 8000d9e:	f000 fefd 	bl	8001b9c <Error_Handler>
 8000da2:	e7de      	b.n	8000d62 <MX_ADC1_Init+0xda>
    Error_Handler();
 8000da4:	f000 fefa 	bl	8001b9c <Error_Handler>
 8000da8:	e7c1      	b.n	8000d2e <MX_ADC1_Init+0xa6>
    Error_Handler();
 8000daa:	f000 fef7 	bl	8001b9c <Error_Handler>
 8000dae:	e7b4      	b.n	8000d1a <MX_ADC1_Init+0x92>
    Error_Handler();
 8000db0:	f000 fef4 	bl	8001b9c <Error_Handler>
 8000db4:	e79f      	b.n	8000cf6 <MX_ADC1_Init+0x6e>
 8000db6:	bf00      	nop
 8000db8:	00000001 	.word	0x00000001
 8000dbc:	00000040 	.word	0x00000040
 8000dc0:	20000200 	.word	0x20000200
 8000dc4:	00000000 	.word	0x00000000

08000dc8 <MX_ADC2_Init>:
/* ADC2 init function */
void MX_ADC2_Init(void)
{
 8000dc8:	b510      	push	{r4, lr}

  /* USER CODE BEGIN ADC2_Init 0 */

  /* USER CODE END ADC2_Init 0 */

  ADC_ChannelConfTypeDef sConfig = {0};
 8000dca:	2400      	movs	r4, #0
{
 8000dcc:	b090      	sub	sp, #64	; 0x40
  ADC_InjectionConfTypeDef sConfigInjected = {0};
 8000dce:	2228      	movs	r2, #40	; 0x28
 8000dd0:	4621      	mov	r1, r4
 8000dd2:	a806      	add	r0, sp, #24
  ADC_ChannelConfTypeDef sConfig = {0};
 8000dd4:	e9cd 4400 	strd	r4, r4, [sp]
 8000dd8:	e9cd 4402 	strd	r4, r4, [sp, #8]
 8000ddc:	e9cd 4404 	strd	r4, r4, [sp, #16]
  ADC_InjectionConfTypeDef sConfigInjected = {0};
 8000de0:	f006 fa16 	bl	8007210 <memset>

  /* USER CODE END ADC2_Init 1 */

  /** Common config
  */
  hadc2.Instance = ADC2;
 8000de4:	4828      	ldr	r0, [pc, #160]	; (8000e88 <MX_ADC2_Init+0xc0>)
  hadc2.Init.ClockPrescaler = ADC_CLOCK_SYNC_PCLK_DIV4;
 8000de6:	4a29      	ldr	r2, [pc, #164]	; (8000e8c <MX_ADC2_Init+0xc4>)
  hadc2.Init.ExternalTrigConv = ADC_SOFTWARE_START;
  hadc2.Init.DataAlign = ADC_DATAALIGN_RIGHT;
  hadc2.Init.NbrOfConversion = 1;
  hadc2.Init.DMAContinuousRequests = DISABLE;
  hadc2.Init.EOCSelection = ADC_EOC_SINGLE_CONV;
  hadc2.Init.LowPowerAutoWait = DISABLE;
 8000de8:	8304      	strh	r4, [r0, #24]
  hadc2.Init.ClockPrescaler = ADC_CLOCK_SYNC_PCLK_DIV4;
 8000dea:	f44f 3340 	mov.w	r3, #196608	; 0x30000
 8000dee:	e9c0 2300 	strd	r2, r3, [r0]
  hadc2.Init.ExternalTrigConv = ADC_SOFTWARE_START;
 8000df2:	2201      	movs	r2, #1
 8000df4:	2300      	movs	r3, #0
 8000df6:	e9c0 230a 	strd	r2, r3, [r0, #40]	; 0x28
  hadc2.Init.EOCSelection = ADC_EOC_SINGLE_CONV;
 8000dfa:	2304      	movs	r3, #4
  hadc2.Init.Resolution = ADC_RESOLUTION_12B;
 8000dfc:	6084      	str	r4, [r0, #8]
  hadc2.Init.ScanConvMode = ADC_SCAN_DISABLE;
 8000dfe:	6104      	str	r4, [r0, #16]
  hadc2.Init.DiscontinuousConvMode = DISABLE;
 8000e00:	f880 4020 	strb.w	r4, [r0, #32]
  hadc2.Init.DataAlign = ADC_DATAALIGN_RIGHT;
 8000e04:	60c4      	str	r4, [r0, #12]
  hadc2.Init.NbrOfConversion = 1;
 8000e06:	61c2      	str	r2, [r0, #28]
  hadc2.Init.DMAContinuousRequests = DISABLE;
 8000e08:	f880 4030 	strb.w	r4, [r0, #48]	; 0x30
  hadc2.Init.EOCSelection = ADC_EOC_SINGLE_CONV;
 8000e0c:	6143      	str	r3, [r0, #20]
  hadc2.Init.Overrun = ADC_OVR_DATA_OVERWRITTEN;
 8000e0e:	6344      	str	r4, [r0, #52]	; 0x34
  if (HAL_ADC_Init(&hadc2) != HAL_OK)
 8000e10:	f001 fcbc 	bl	800278c <HAL_ADC_Init>
 8000e14:	bb50      	cbnz	r0, 8000e6c <MX_ADC2_Init+0xa4>
    Error_Handler();
  }

  /** Configure Regular Channel
  */
  sConfig.Channel = ADC_CHANNEL_1;
 8000e16:	2201      	movs	r2, #1
 8000e18:	2301      	movs	r3, #1
 8000e1a:	e9cd 2300 	strd	r2, r3, [sp]
 8000e1e:	2207      	movs	r2, #7
 8000e20:	2300      	movs	r3, #0
 8000e22:	e9cd 2302 	strd	r2, r3, [sp, #8]
  sConfig.Rank = ADC_REGULAR_RANK_1;
  sConfig.SingleDiff = ADC_SINGLE_ENDED;
  sConfig.SamplingTime = ADC_SAMPLETIME_601CYCLES_5;
  sConfig.OffsetNumber = ADC_OFFSET_NONE;
  sConfig.Offset = 0;
  if (HAL_ADC_ConfigChannel(&hadc2, &sConfig) != HAL_OK)
 8000e26:	4818      	ldr	r0, [pc, #96]	; (8000e88 <MX_ADC2_Init+0xc0>)
  sConfig.Channel = ADC_CHANNEL_1;
 8000e28:	2200      	movs	r2, #0
 8000e2a:	2300      	movs	r3, #0
  if (HAL_ADC_ConfigChannel(&hadc2, &sConfig) != HAL_OK)
 8000e2c:	4669      	mov	r1, sp
  sConfig.Channel = ADC_CHANNEL_1;
 8000e2e:	e9cd 2304 	strd	r2, r3, [sp, #16]
  if (HAL_ADC_ConfigChannel(&hadc2, &sConfig) != HAL_OK)
 8000e32:	f001 fe9b 	bl	8002b6c <HAL_ADC_ConfigChannel>
 8000e36:	bb00      	cbnz	r0, 8000e7a <MX_ADC2_Init+0xb2>
  sConfigInjected.InjectedRank = ADC_INJECTED_RANK_1;
  sConfigInjected.InjectedSingleDiff = ADC_SINGLE_ENDED;
  sConfigInjected.InjectedNbrOfConversion = 1;
  sConfigInjected.InjectedSamplingTime = ADC_SAMPLETIME_1CYCLE_5;
  sConfigInjected.ExternalTrigInjecConvEdge = ADC_EXTERNALTRIGINJECCONV_EDGE_RISING;
  sConfigInjected.ExternalTrigInjecConv = ADC_INJECTED_SOFTWARE_START;
 8000e38:	ed9f 7b11 	vldr	d7, [pc, #68]	; 8000e80 <MX_ADC2_Init+0xb8>
  sConfigInjected.InjectedSingleDiff = ADC_SINGLE_ENDED;
 8000e3c:	2300      	movs	r3, #0
  sConfigInjected.InjectedChannel = ADC_CHANNEL_1;
 8000e3e:	2201      	movs	r2, #1
  sConfigInjected.AutoInjectedConv = ENABLE;
  sConfigInjected.InjectedDiscontinuousConvMode = DISABLE;
 8000e40:	f44f 7480 	mov.w	r4, #256	; 0x100
  sConfigInjected.QueueInjectedContext = DISABLE;
  sConfigInjected.InjectedOffset = 0;
  sConfigInjected.InjectedOffsetNumber = ADC_OFFSET_NONE;
  if (HAL_ADCEx_InjectedConfigChannel(&hadc2, &sConfigInjected) != HAL_OK)
 8000e44:	4810      	ldr	r0, [pc, #64]	; (8000e88 <MX_ADC2_Init+0xc0>)
  sConfigInjected.InjectedSingleDiff = ADC_SINGLE_ENDED;
 8000e46:	9309      	str	r3, [sp, #36]	; 0x24
  if (HAL_ADCEx_InjectedConfigChannel(&hadc2, &sConfigInjected) != HAL_OK)
 8000e48:	a906      	add	r1, sp, #24
  sConfigInjected.ExternalTrigInjecConv = ADC_INJECTED_SOFTWARE_START;
 8000e4a:	ed8d 7b0e 	vstr	d7, [sp, #56]	; 0x38
  sConfigInjected.InjectedRank = ADC_INJECTED_RANK_1;
 8000e4e:	e9cd 2206 	strd	r2, r2, [sp, #24]
  sConfigInjected.InjectedOffsetNumber = ADC_OFFSET_NONE;
 8000e52:	e9cd 330a 	strd	r3, r3, [sp, #40]	; 0x28
  sConfigInjected.InjectedNbrOfConversion = 1;
 8000e56:	920c      	str	r2, [sp, #48]	; 0x30
  sConfigInjected.InjectedDiscontinuousConvMode = DISABLE;
 8000e58:	f8ad 4034 	strh.w	r4, [sp, #52]	; 0x34
  sConfigInjected.InjectedSamplingTime = ADC_SAMPLETIME_1CYCLE_5;
 8000e5c:	9308      	str	r3, [sp, #32]
  sConfigInjected.QueueInjectedContext = DISABLE;
 8000e5e:	f88d 3036 	strb.w	r3, [sp, #54]	; 0x36
  if (HAL_ADCEx_InjectedConfigChannel(&hadc2, &sConfigInjected) != HAL_OK)
 8000e62:	f002 f84d 	bl	8002f00 <HAL_ADCEx_InjectedConfigChannel>
 8000e66:	b920      	cbnz	r0, 8000e72 <MX_ADC2_Init+0xaa>
  }
  /* USER CODE BEGIN ADC2_Init 2 */

  /* USER CODE END ADC2_Init 2 */

}
 8000e68:	b010      	add	sp, #64	; 0x40
 8000e6a:	bd10      	pop	{r4, pc}
    Error_Handler();
 8000e6c:	f000 fe96 	bl	8001b9c <Error_Handler>
 8000e70:	e7d1      	b.n	8000e16 <MX_ADC2_Init+0x4e>
    Error_Handler();
 8000e72:	f000 fe93 	bl	8001b9c <Error_Handler>
}
 8000e76:	b010      	add	sp, #64	; 0x40
 8000e78:	bd10      	pop	{r4, pc}
    Error_Handler();
 8000e7a:	f000 fe8f 	bl	8001b9c <Error_Handler>
 8000e7e:	e7db      	b.n	8000e38 <MX_ADC2_Init+0x70>
 8000e80:	00000001 	.word	0x00000001
 8000e84:	00000040 	.word	0x00000040
 8000e88:	20000250 	.word	0x20000250
 8000e8c:	50000100 	.word	0x50000100

08000e90 <MX_ADC3_Init>:
/* ADC3 init function */
void MX_ADC3_Init(void)
{
 8000e90:	b510      	push	{r4, lr}

  /* USER CODE END ADC3_Init 0 */

  ADC_MultiModeTypeDef multimode = {0};
  ADC_ChannelConfTypeDef sConfig = {0};
  ADC_InjectionConfTypeDef sConfigInjected = {0};
 8000e92:	2228      	movs	r2, #40	; 0x28
  ADC_MultiModeTypeDef multimode = {0};
 8000e94:	2400      	movs	r4, #0
{
 8000e96:	b094      	sub	sp, #80	; 0x50
  ADC_InjectionConfTypeDef sConfigInjected = {0};
 8000e98:	eb0d 0002 	add.w	r0, sp, r2
 8000e9c:	4621      	mov	r1, r4
  ADC_MultiModeTypeDef multimode = {0};
 8000e9e:	e9cd 4402 	strd	r4, r4, [sp, #8]
  ADC_ChannelConfTypeDef sConfig = {0};
 8000ea2:	e9cd 4405 	strd	r4, r4, [sp, #20]
 8000ea6:	e9cd 4407 	strd	r4, r4, [sp, #28]
  ADC_MultiModeTypeDef multimode = {0};
 8000eaa:	9401      	str	r4, [sp, #4]
  ADC_ChannelConfTypeDef sConfig = {0};
 8000eac:	9404      	str	r4, [sp, #16]
 8000eae:	9409      	str	r4, [sp, #36]	; 0x24
  ADC_InjectionConfTypeDef sConfigInjected = {0};
 8000eb0:	f006 f9ae 	bl	8007210 <memset>

  /* USER CODE END ADC3_Init 1 */

  /** Common config
  */
  hadc3.Instance = ADC3;
 8000eb4:	482e      	ldr	r0, [pc, #184]	; (8000f70 <MX_ADC3_Init+0xe0>)
 8000eb6:	4b2f      	ldr	r3, [pc, #188]	; (8000f74 <MX_ADC3_Init+0xe4>)
 8000eb8:	6003      	str	r3, [r0, #0]
  hadc3.Init.Resolution = ADC_RESOLUTION_12B;
  hadc3.Init.ScanConvMode = ADC_SCAN_DISABLE;
  hadc3.Init.ContinuousConvMode = DISABLE;
  hadc3.Init.DiscontinuousConvMode = DISABLE;
  hadc3.Init.ExternalTrigConvEdge = ADC_EXTERNALTRIGCONVEDGE_NONE;
  hadc3.Init.ExternalTrigConv = ADC_SOFTWARE_START;
 8000eba:	2201      	movs	r2, #1
 8000ebc:	2300      	movs	r3, #0
 8000ebe:	e9c0 230a 	strd	r2, r3, [r0, #40]	; 0x28
  hadc3.Init.DataAlign = ADC_DATAALIGN_RIGHT;
  hadc3.Init.NbrOfConversion = 1;
  hadc3.Init.DMAContinuousRequests = DISABLE;
  hadc3.Init.EOCSelection = ADC_EOC_SINGLE_CONV;
  hadc3.Init.LowPowerAutoWait = DISABLE;
 8000ec2:	8304      	strh	r4, [r0, #24]
  hadc3.Init.EOCSelection = ADC_EOC_SINGLE_CONV;
 8000ec4:	2304      	movs	r3, #4
  hadc3.Init.Resolution = ADC_RESOLUTION_12B;
 8000ec6:	e9c0 4401 	strd	r4, r4, [r0, #4]
  hadc3.Init.ScanConvMode = ADC_SCAN_DISABLE;
 8000eca:	6104      	str	r4, [r0, #16]
  hadc3.Init.DiscontinuousConvMode = DISABLE;
 8000ecc:	f880 4020 	strb.w	r4, [r0, #32]
  hadc3.Init.DataAlign = ADC_DATAALIGN_RIGHT;
 8000ed0:	60c4      	str	r4, [r0, #12]
  hadc3.Init.NbrOfConversion = 1;
 8000ed2:	61c2      	str	r2, [r0, #28]
  hadc3.Init.DMAContinuousRequests = DISABLE;
 8000ed4:	f880 4030 	strb.w	r4, [r0, #48]	; 0x30
  hadc3.Init.EOCSelection = ADC_EOC_SINGLE_CONV;
 8000ed8:	6143      	str	r3, [r0, #20]
  hadc3.Init.Overrun = ADC_OVR_DATA_OVERWRITTEN;
 8000eda:	6344      	str	r4, [r0, #52]	; 0x34
  if (HAL_ADC_Init(&hadc3) != HAL_OK)
 8000edc:	f001 fc56 	bl	800278c <HAL_ADC_Init>
 8000ee0:	bb98      	cbnz	r0, 8000f4a <MX_ADC3_Init+0xba>
    Error_Handler();
  }

  /** Configure the ADC multi-mode
  */
  multimode.Mode = ADC_MODE_INDEPENDENT;
 8000ee2:	2300      	movs	r3, #0
  if (HAL_ADCEx_MultiModeConfigChannel(&hadc3, &multimode) != HAL_OK)
 8000ee4:	4822      	ldr	r0, [pc, #136]	; (8000f70 <MX_ADC3_Init+0xe0>)
  multimode.Mode = ADC_MODE_INDEPENDENT;
 8000ee6:	9301      	str	r3, [sp, #4]
  if (HAL_ADCEx_MultiModeConfigChannel(&hadc3, &multimode) != HAL_OK)
 8000ee8:	a901      	add	r1, sp, #4
 8000eea:	f002 fa57 	bl	800339c <HAL_ADCEx_MultiModeConfigChannel>
 8000eee:	bbb0      	cbnz	r0, 8000f5e <MX_ADC3_Init+0xce>
    Error_Handler();
  }

  /** Configure Regular Channel
  */
  sConfig.Channel = ADC_CHANNEL_5;
 8000ef0:	2205      	movs	r2, #5
 8000ef2:	2301      	movs	r3, #1
 8000ef4:	e9cd 2304 	strd	r2, r3, [sp, #16]
 8000ef8:	2206      	movs	r2, #6
 8000efa:	2300      	movs	r3, #0
 8000efc:	e9cd 2306 	strd	r2, r3, [sp, #24]
  sConfig.Rank = ADC_REGULAR_RANK_1;
  sConfig.SingleDiff = ADC_SINGLE_ENDED;
  sConfig.SamplingTime = ADC_SAMPLETIME_181CYCLES_5;
  sConfig.OffsetNumber = ADC_OFFSET_NONE;
  sConfig.Offset = 0;
  if (HAL_ADC_ConfigChannel(&hadc3, &sConfig) != HAL_OK)
 8000f00:	481b      	ldr	r0, [pc, #108]	; (8000f70 <MX_ADC3_Init+0xe0>)
  sConfig.Channel = ADC_CHANNEL_5;
 8000f02:	2200      	movs	r2, #0
 8000f04:	2300      	movs	r3, #0
  if (HAL_ADC_ConfigChannel(&hadc3, &sConfig) != HAL_OK)
 8000f06:	a904      	add	r1, sp, #16
  sConfig.Channel = ADC_CHANNEL_5;
 8000f08:	e9cd 2308 	strd	r2, r3, [sp, #32]
  if (HAL_ADC_ConfigChannel(&hadc3, &sConfig) != HAL_OK)
 8000f0c:	f001 fe2e 	bl	8002b6c <HAL_ADC_ConfigChannel>
 8000f10:	bb10      	cbnz	r0, 8000f58 <MX_ADC3_Init+0xc8>
  sConfigInjected.InjectedRank = ADC_INJECTED_RANK_1;
  sConfigInjected.InjectedSingleDiff = ADC_SINGLE_ENDED;
  sConfigInjected.InjectedNbrOfConversion = 1;
  sConfigInjected.InjectedSamplingTime = ADC_SAMPLETIME_601CYCLES_5;
  sConfigInjected.ExternalTrigInjecConvEdge = ADC_EXTERNALTRIGINJECCONV_EDGE_RISING;
  sConfigInjected.ExternalTrigInjecConv = ADC_INJECTED_SOFTWARE_START;
 8000f12:	ed9f 7b15 	vldr	d7, [pc, #84]	; 8000f68 <MX_ADC3_Init+0xd8>
  sConfigInjected.InjectedRank = ADC_INJECTED_RANK_1;
 8000f16:	2201      	movs	r2, #1
  sConfigInjected.InjectedChannel = ADC_CHANNEL_5;
 8000f18:	2005      	movs	r0, #5
  sConfigInjected.InjectedSingleDiff = ADC_SINGLE_ENDED;
 8000f1a:	2300      	movs	r3, #0
  sConfigInjected.InjectedRank = ADC_INJECTED_RANK_1;
 8000f1c:	e9cd 020a 	strd	r0, r2, [sp, #40]	; 0x28
  sConfigInjected.InjectedSamplingTime = ADC_SAMPLETIME_601CYCLES_5;
 8000f20:	2407      	movs	r4, #7
  sConfigInjected.InjectedNbrOfConversion = 1;
 8000f22:	9210      	str	r2, [sp, #64]	; 0x40
  sConfigInjected.AutoInjectedConv = ENABLE;
  sConfigInjected.InjectedDiscontinuousConvMode = DISABLE;
  sConfigInjected.QueueInjectedContext = DISABLE;
  sConfigInjected.InjectedOffset = 0;
  sConfigInjected.InjectedOffsetNumber = ADC_OFFSET_NONE;
  if (HAL_ADCEx_InjectedConfigChannel(&hadc3, &sConfigInjected) != HAL_OK)
 8000f24:	4812      	ldr	r0, [pc, #72]	; (8000f70 <MX_ADC3_Init+0xe0>)
  sConfigInjected.InjectedSingleDiff = ADC_SINGLE_ENDED;
 8000f26:	930d      	str	r3, [sp, #52]	; 0x34
  sConfigInjected.InjectedDiscontinuousConvMode = DISABLE;
 8000f28:	f44f 7280 	mov.w	r2, #256	; 0x100
  if (HAL_ADCEx_InjectedConfigChannel(&hadc3, &sConfigInjected) != HAL_OK)
 8000f2c:	a90a      	add	r1, sp, #40	; 0x28
  sConfigInjected.ExternalTrigInjecConv = ADC_INJECTED_SOFTWARE_START;
 8000f2e:	ed8d 7b12 	vstr	d7, [sp, #72]	; 0x48
  sConfigInjected.InjectedOffsetNumber = ADC_OFFSET_NONE;
 8000f32:	e9cd 330e 	strd	r3, r3, [sp, #56]	; 0x38
  sConfigInjected.InjectedSamplingTime = ADC_SAMPLETIME_601CYCLES_5;
 8000f36:	940c      	str	r4, [sp, #48]	; 0x30
  sConfigInjected.InjectedDiscontinuousConvMode = DISABLE;
 8000f38:	f8ad 2044 	strh.w	r2, [sp, #68]	; 0x44
  sConfigInjected.QueueInjectedContext = DISABLE;
 8000f3c:	f88d 3046 	strb.w	r3, [sp, #70]	; 0x46
  if (HAL_ADCEx_InjectedConfigChannel(&hadc3, &sConfigInjected) != HAL_OK)
 8000f40:	f001 ffde 	bl	8002f00 <HAL_ADCEx_InjectedConfigChannel>
 8000f44:	b920      	cbnz	r0, 8000f50 <MX_ADC3_Init+0xc0>
  }
  /* USER CODE BEGIN ADC3_Init 2 */

  /* USER CODE END ADC3_Init 2 */

}
 8000f46:	b014      	add	sp, #80	; 0x50
 8000f48:	bd10      	pop	{r4, pc}
    Error_Handler();
 8000f4a:	f000 fe27 	bl	8001b9c <Error_Handler>
 8000f4e:	e7c8      	b.n	8000ee2 <MX_ADC3_Init+0x52>
    Error_Handler();
 8000f50:	f000 fe24 	bl	8001b9c <Error_Handler>
}
 8000f54:	b014      	add	sp, #80	; 0x50
 8000f56:	bd10      	pop	{r4, pc}
    Error_Handler();
 8000f58:	f000 fe20 	bl	8001b9c <Error_Handler>
 8000f5c:	e7d9      	b.n	8000f12 <MX_ADC3_Init+0x82>
    Error_Handler();
 8000f5e:	f000 fe1d 	bl	8001b9c <Error_Handler>
 8000f62:	e7c5      	b.n	8000ef0 <MX_ADC3_Init+0x60>
 8000f64:	f3af 8000 	nop.w
 8000f68:	00000001 	.word	0x00000001
 8000f6c:	00000040 	.word	0x00000040
 8000f70:	200002a0 	.word	0x200002a0
 8000f74:	50000400 	.word	0x50000400

08000f78 <HAL_ADC_MspInit>:

static uint32_t HAL_RCC_ADC12_CLK_ENABLED=0;

void HAL_ADC_MspInit(ADC_HandleTypeDef* adcHandle)
{
 8000f78:	b570      	push	{r4, r5, r6, lr}

  GPIO_InitTypeDef GPIO_InitStruct = {0};
  if(adcHandle->Instance==ADC1)
 8000f7a:	6802      	ldr	r2, [r0, #0]
{
 8000f7c:	b08e      	sub	sp, #56	; 0x38
  GPIO_InitTypeDef GPIO_InitStruct = {0};
 8000f7e:	2300      	movs	r3, #0
  if(adcHandle->Instance==ADC1)
 8000f80:	f1b2 4fa0 	cmp.w	r2, #1342177280	; 0x50000000
  GPIO_InitTypeDef GPIO_InitStruct = {0};
 8000f84:	e9cd 3308 	strd	r3, r3, [sp, #32]
 8000f88:	e9cd 330a 	strd	r3, r3, [sp, #40]	; 0x28
 8000f8c:	930c      	str	r3, [sp, #48]	; 0x30
  if(adcHandle->Instance==ADC1)
 8000f8e:	d022      	beq.n	8000fd6 <HAL_ADC_MspInit+0x5e>

  /* USER CODE BEGIN ADC1_MspInit 1 */

  /* USER CODE END ADC1_MspInit 1 */
  }
  else if(adcHandle->Instance==ADC2)
 8000f90:	4b50      	ldr	r3, [pc, #320]	; (80010d4 <HAL_ADC_MspInit+0x15c>)
 8000f92:	429a      	cmp	r2, r3
 8000f94:	d004      	beq.n	8000fa0 <HAL_ADC_MspInit+0x28>

  /* USER CODE BEGIN ADC2_MspInit 1 */

  /* USER CODE END ADC2_MspInit 1 */
  }
  else if(adcHandle->Instance==ADC3)
 8000f96:	4b50      	ldr	r3, [pc, #320]	; (80010d8 <HAL_ADC_MspInit+0x160>)
 8000f98:	429a      	cmp	r2, r3
 8000f9a:	d07a      	beq.n	8001092 <HAL_ADC_MspInit+0x11a>

  /* USER CODE BEGIN ADC3_MspInit 1 */

  /* USER CODE END ADC3_MspInit 1 */
  }
}
 8000f9c:	b00e      	add	sp, #56	; 0x38
 8000f9e:	bd70      	pop	{r4, r5, r6, pc}
    HAL_RCC_ADC12_CLK_ENABLED++;
 8000fa0:	4a4e      	ldr	r2, [pc, #312]	; (80010dc <HAL_ADC_MspInit+0x164>)
 8000fa2:	6813      	ldr	r3, [r2, #0]
 8000fa4:	3301      	adds	r3, #1
    if(HAL_RCC_ADC12_CLK_ENABLED==1){
 8000fa6:	2b01      	cmp	r3, #1
    HAL_RCC_ADC12_CLK_ENABLED++;
 8000fa8:	6013      	str	r3, [r2, #0]
    if(HAL_RCC_ADC12_CLK_ENABLED==1){
 8000faa:	d064      	beq.n	8001076 <HAL_ADC_MspInit+0xfe>
    __HAL_RCC_GPIOA_CLK_ENABLE();
 8000fac:	4b4c      	ldr	r3, [pc, #304]	; (80010e0 <HAL_ADC_MspInit+0x168>)
 8000fae:	695a      	ldr	r2, [r3, #20]
 8000fb0:	f442 3200 	orr.w	r2, r2, #131072	; 0x20000
 8000fb4:	615a      	str	r2, [r3, #20]
 8000fb6:	695b      	ldr	r3, [r3, #20]
 8000fb8:	f403 3300 	and.w	r3, r3, #131072	; 0x20000
 8000fbc:	9305      	str	r3, [sp, #20]
    GPIO_InitStruct.Pin = GPIO_PIN_4;
 8000fbe:	2410      	movs	r4, #16
 8000fc0:	2503      	movs	r5, #3
    HAL_GPIO_Init(GPIOA, &GPIO_InitStruct);
 8000fc2:	a908      	add	r1, sp, #32
 8000fc4:	f04f 4090 	mov.w	r0, #1207959552	; 0x48000000
    GPIO_InitStruct.Pin = GPIO_PIN_4;
 8000fc8:	e9cd 4508 	strd	r4, r5, [sp, #32]
    __HAL_RCC_GPIOA_CLK_ENABLE();
 8000fcc:	9b05      	ldr	r3, [sp, #20]
    HAL_GPIO_Init(GPIOA, &GPIO_InitStruct);
 8000fce:	f002 ff2f 	bl	8003e30 <HAL_GPIO_Init>
}
 8000fd2:	b00e      	add	sp, #56	; 0x38
 8000fd4:	bd70      	pop	{r4, r5, r6, pc}
    HAL_RCC_ADC12_CLK_ENABLED++;
 8000fd6:	4a41      	ldr	r2, [pc, #260]	; (80010dc <HAL_ADC_MspInit+0x164>)
 8000fd8:	6813      	ldr	r3, [r2, #0]
 8000fda:	3301      	adds	r3, #1
    if(HAL_RCC_ADC12_CLK_ENABLED==1){
 8000fdc:	2b01      	cmp	r3, #1
 8000fde:	4604      	mov	r4, r0
    HAL_RCC_ADC12_CLK_ENABLED++;
 8000fe0:	6013      	str	r3, [r2, #0]
    if(HAL_RCC_ADC12_CLK_ENABLED==1){
 8000fe2:	d03d      	beq.n	8001060 <HAL_ADC_MspInit+0xe8>
    __HAL_RCC_GPIOA_CLK_ENABLE();
 8000fe4:	4b3e      	ldr	r3, [pc, #248]	; (80010e0 <HAL_ADC_MspInit+0x168>)
    hdma_adc1.Instance = DMA1_Channel1;
 8000fe6:	4d3f      	ldr	r5, [pc, #252]	; (80010e4 <HAL_ADC_MspInit+0x16c>)
    __HAL_RCC_GPIOA_CLK_ENABLE();
 8000fe8:	695a      	ldr	r2, [r3, #20]
 8000fea:	f442 3200 	orr.w	r2, r2, #131072	; 0x20000
 8000fee:	615a      	str	r2, [r3, #20]
 8000ff0:	695a      	ldr	r2, [r3, #20]
 8000ff2:	f402 3200 	and.w	r2, r2, #131072	; 0x20000
 8000ff6:	9202      	str	r2, [sp, #8]
 8000ff8:	9a02      	ldr	r2, [sp, #8]
    __HAL_RCC_GPIOF_CLK_ENABLE();
 8000ffa:	695a      	ldr	r2, [r3, #20]
 8000ffc:	f442 0280 	orr.w	r2, r2, #4194304	; 0x400000
 8001000:	615a      	str	r2, [r3, #20]
 8001002:	695b      	ldr	r3, [r3, #20]
 8001004:	f403 0380 	and.w	r3, r3, #4194304	; 0x400000
 8001008:	9303      	str	r3, [sp, #12]
    GPIO_InitStruct.Pin = GPIO_PIN_0|GPIO_PIN_3;
 800100a:	2209      	movs	r2, #9
    HAL_GPIO_Init(GPIOA, &GPIO_InitStruct);
 800100c:	a908      	add	r1, sp, #32
 800100e:	f04f 4090 	mov.w	r0, #1207959552	; 0x48000000
    GPIO_InitStruct.Pin = GPIO_PIN_0|GPIO_PIN_3;
 8001012:	2303      	movs	r3, #3
    GPIO_InitStruct.Pull = GPIO_NOPULL;
 8001014:	2600      	movs	r6, #0
    GPIO_InitStruct.Pin = GPIO_PIN_0|GPIO_PIN_3;
 8001016:	e9cd 2308 	strd	r2, r3, [sp, #32]
    __HAL_RCC_GPIOF_CLK_ENABLE();
 800101a:	9b03      	ldr	r3, [sp, #12]
    HAL_GPIO_Init(GPIOA, &GPIO_InitStruct);
 800101c:	f002 ff08 	bl	8003e30 <HAL_GPIO_Init>
    GPIO_InitStruct.Pin = GPIO_PIN_4;
 8001020:	2210      	movs	r2, #16
 8001022:	2303      	movs	r3, #3
    HAL_GPIO_Init(GPIOF, &GPIO_InitStruct);
 8001024:	4830      	ldr	r0, [pc, #192]	; (80010e8 <HAL_ADC_MspInit+0x170>)
    GPIO_InitStruct.Pull = GPIO_NOPULL;
 8001026:	960a      	str	r6, [sp, #40]	; 0x28
    HAL_GPIO_Init(GPIOF, &GPIO_InitStruct);
 8001028:	a908      	add	r1, sp, #32
    GPIO_InitStruct.Pin = GPIO_PIN_4;
 800102a:	e9cd 2308 	strd	r2, r3, [sp, #32]
    HAL_GPIO_Init(GPIOF, &GPIO_InitStruct);
 800102e:	f002 feff 	bl	8003e30 <HAL_GPIO_Init>
    hdma_adc1.Instance = DMA1_Channel1;
 8001032:	4a2e      	ldr	r2, [pc, #184]	; (80010ec <HAL_ADC_MspInit+0x174>)
    hdma_adc1.Init.MemInc = DMA_MINC_ENABLE;
 8001034:	2380      	movs	r3, #128	; 0x80
    hdma_adc1.Init.Direction = DMA_PERIPH_TO_MEMORY;
 8001036:	e9c5 2600 	strd	r2, r6, [r5]
    hdma_adc1.Init.MemInc = DMA_MINC_ENABLE;
 800103a:	e9c5 6302 	strd	r6, r3, [r5, #8]
    hdma_adc1.Init.MemDataAlignment = DMA_MDATAALIGN_HALFWORD;
 800103e:	f44f 7280 	mov.w	r2, #256	; 0x100
 8001042:	f44f 6380 	mov.w	r3, #1024	; 0x400
 8001046:	e9c5 2304 	strd	r2, r3, [r5, #16]
    if (HAL_DMA_Init(&hdma_adc1) != HAL_OK)
 800104a:	4628      	mov	r0, r5
    hdma_adc1.Init.Mode = DMA_CIRCULAR;
 800104c:	2320      	movs	r3, #32
    hdma_adc1.Init.Priority = DMA_PRIORITY_LOW;
 800104e:	e9c5 3606 	strd	r3, r6, [r5, #24]
    if (HAL_DMA_Init(&hdma_adc1) != HAL_OK)
 8001052:	f002 fe1b 	bl	8003c8c <HAL_DMA_Init>
 8001056:	b9c8      	cbnz	r0, 800108c <HAL_ADC_MspInit+0x114>
    __HAL_LINKDMA(adcHandle,DMA_Handle,hdma_adc1);
 8001058:	63a5      	str	r5, [r4, #56]	; 0x38
 800105a:	626c      	str	r4, [r5, #36]	; 0x24
}
 800105c:	b00e      	add	sp, #56	; 0x38
 800105e:	bd70      	pop	{r4, r5, r6, pc}
      __HAL_RCC_ADC12_CLK_ENABLE();
 8001060:	4b1f      	ldr	r3, [pc, #124]	; (80010e0 <HAL_ADC_MspInit+0x168>)
 8001062:	695a      	ldr	r2, [r3, #20]
 8001064:	f042 5280 	orr.w	r2, r2, #268435456	; 0x10000000
 8001068:	615a      	str	r2, [r3, #20]
 800106a:	695b      	ldr	r3, [r3, #20]
 800106c:	f003 5380 	and.w	r3, r3, #268435456	; 0x10000000
 8001070:	9301      	str	r3, [sp, #4]
 8001072:	9b01      	ldr	r3, [sp, #4]
 8001074:	e7b6      	b.n	8000fe4 <HAL_ADC_MspInit+0x6c>
      __HAL_RCC_ADC12_CLK_ENABLE();
 8001076:	4b1a      	ldr	r3, [pc, #104]	; (80010e0 <HAL_ADC_MspInit+0x168>)
 8001078:	695a      	ldr	r2, [r3, #20]
 800107a:	f042 5280 	orr.w	r2, r2, #268435456	; 0x10000000
 800107e:	615a      	str	r2, [r3, #20]
 8001080:	695b      	ldr	r3, [r3, #20]
 8001082:	f003 5380 	and.w	r3, r3, #268435456	; 0x10000000
 8001086:	9304      	str	r3, [sp, #16]
 8001088:	9b04      	ldr	r3, [sp, #16]
 800108a:	e78f      	b.n	8000fac <HAL_ADC_MspInit+0x34>
      Error_Handler();
 800108c:	f000 fd86 	bl	8001b9c <Error_Handler>
 8001090:	e7e2      	b.n	8001058 <HAL_ADC_MspInit+0xe0>
    __HAL_RCC_ADC34_CLK_ENABLE();
 8001092:	f103 4370 	add.w	r3, r3, #4026531840	; 0xf0000000
 8001096:	f503 3303 	add.w	r3, r3, #134144	; 0x20c00
    GPIO_InitStruct.Pin = GPIO_PIN_13;
 800109a:	f44f 5400 	mov.w	r4, #8192	; 0x2000
    __HAL_RCC_ADC34_CLK_ENABLE();
 800109e:	695a      	ldr	r2, [r3, #20]
    HAL_GPIO_Init(GPIOB, &GPIO_InitStruct);
 80010a0:	4813      	ldr	r0, [pc, #76]	; (80010f0 <HAL_ADC_MspInit+0x178>)
    __HAL_RCC_ADC34_CLK_ENABLE();
 80010a2:	f042 5200 	orr.w	r2, r2, #536870912	; 0x20000000
 80010a6:	615a      	str	r2, [r3, #20]
 80010a8:	695a      	ldr	r2, [r3, #20]
 80010aa:	f002 5200 	and.w	r2, r2, #536870912	; 0x20000000
 80010ae:	9206      	str	r2, [sp, #24]
 80010b0:	9a06      	ldr	r2, [sp, #24]
    __HAL_RCC_GPIOB_CLK_ENABLE();
 80010b2:	695a      	ldr	r2, [r3, #20]
 80010b4:	f442 2280 	orr.w	r2, r2, #262144	; 0x40000
 80010b8:	615a      	str	r2, [r3, #20]
 80010ba:	695b      	ldr	r3, [r3, #20]
 80010bc:	f403 2380 	and.w	r3, r3, #262144	; 0x40000
    GPIO_InitStruct.Pin = GPIO_PIN_13;
 80010c0:	2503      	movs	r5, #3
    __HAL_RCC_GPIOB_CLK_ENABLE();
 80010c2:	9307      	str	r3, [sp, #28]
    HAL_GPIO_Init(GPIOB, &GPIO_InitStruct);
 80010c4:	a908      	add	r1, sp, #32
    GPIO_InitStruct.Pin = GPIO_PIN_13;
 80010c6:	e9cd 4508 	strd	r4, r5, [sp, #32]
    __HAL_RCC_GPIOB_CLK_ENABLE();
 80010ca:	9b07      	ldr	r3, [sp, #28]
    HAL_GPIO_Init(GPIOB, &GPIO_InitStruct);
 80010cc:	f002 feb0 	bl	8003e30 <HAL_GPIO_Init>
}
 80010d0:	e764      	b.n	8000f9c <HAL_ADC_MspInit+0x24>
 80010d2:	bf00      	nop
 80010d4:	50000100 	.word	0x50000100
 80010d8:	50000400 	.word	0x50000400
 80010dc:	200001fc 	.word	0x200001fc
 80010e0:	40021000 	.word	0x40021000
 80010e4:	200002f0 	.word	0x200002f0
 80010e8:	48001400 	.word	0x48001400
 80010ec:	40020008 	.word	0x40020008
 80010f0:	48000400 	.word	0x48000400

080010f4 <MX_CAN_Init>:

CAN_HandleTypeDef hcan;

/* CAN init function */
void MX_CAN_Init(void)
{
 80010f4:	b510      	push	{r4, lr}
  /* USER CODE END CAN_Init 0 */

  /* USER CODE BEGIN CAN_Init 1 */

  /* USER CODE END CAN_Init 1 */
  hcan.Instance = CAN;
 80010f6:	480c      	ldr	r0, [pc, #48]	; (8001128 <MX_CAN_Init+0x34>)
 80010f8:	4c0c      	ldr	r4, [pc, #48]	; (800112c <MX_CAN_Init+0x38>)
  hcan.Init.Prescaler = 3;
  hcan.Init.Mode = CAN_MODE_NORMAL;
 80010fa:	2300      	movs	r3, #0
  hcan.Init.Prescaler = 3;
 80010fc:	2203      	movs	r2, #3
 80010fe:	e9c0 4200 	strd	r4, r2, [r0]
  hcan.Init.SyncJumpWidth = CAN_SJW_1TQ;
  hcan.Init.TimeSeg1 = CAN_BS1_6TQ;
 8001102:	f44f 21a0 	mov.w	r1, #327680	; 0x50000
  hcan.Init.TimeSeg2 = CAN_BS2_5TQ;
 8001106:	f44f 0280 	mov.w	r2, #4194304	; 0x400000
  hcan.Init.TimeTriggeredMode = DISABLE;
 800110a:	6183      	str	r3, [r0, #24]
  hcan.Init.AutoBusOff = DISABLE;
  hcan.Init.AutoWakeUp = DISABLE;
  hcan.Init.AutoRetransmission = DISABLE;
  hcan.Init.ReceiveFifoLocked = DISABLE;
 800110c:	8383      	strh	r3, [r0, #28]
  hcan.Init.SyncJumpWidth = CAN_SJW_1TQ;
 800110e:	e9c0 3302 	strd	r3, r3, [r0, #8]
  hcan.Init.TimeSeg2 = CAN_BS2_5TQ;
 8001112:	e9c0 1204 	strd	r1, r2, [r0, #16]
  hcan.Init.TransmitFifoPriority = DISABLE;
  if (HAL_CAN_Init(&hcan) != HAL_OK)
 8001116:	f002 f9d5 	bl	80034c4 <HAL_CAN_Init>
 800111a:	b900      	cbnz	r0, 800111e <MX_CAN_Init+0x2a>
  }
  /* USER CODE BEGIN CAN_Init 2 */

  /* USER CODE END CAN_Init 2 */

}
 800111c:	bd10      	pop	{r4, pc}
 800111e:	e8bd 4010 	ldmia.w	sp!, {r4, lr}
    Error_Handler();
 8001122:	f000 bd3b 	b.w	8001b9c <Error_Handler>
 8001126:	bf00      	nop
 8001128:	20000334 	.word	0x20000334
 800112c:	40006400 	.word	0x40006400

08001130 <HAL_CAN_MspInit>:

void HAL_CAN_MspInit(CAN_HandleTypeDef* canHandle)
{
 8001130:	b530      	push	{r4, r5, lr}

  GPIO_InitTypeDef GPIO_InitStruct = {0};
  if(canHandle->Instance==CAN)
 8001132:	4b28      	ldr	r3, [pc, #160]	; (80011d4 <HAL_CAN_MspInit+0xa4>)
 8001134:	6802      	ldr	r2, [r0, #0]
{
 8001136:	b089      	sub	sp, #36	; 0x24
  GPIO_InitTypeDef GPIO_InitStruct = {0};
 8001138:	2400      	movs	r4, #0
  if(canHandle->Instance==CAN)
 800113a:	429a      	cmp	r2, r3
  GPIO_InitTypeDef GPIO_InitStruct = {0};
 800113c:	e9cd 4402 	strd	r4, r4, [sp, #8]
 8001140:	e9cd 4404 	strd	r4, r4, [sp, #16]
 8001144:	9406      	str	r4, [sp, #24]
  if(canHandle->Instance==CAN)
 8001146:	d001      	beq.n	800114c <HAL_CAN_MspInit+0x1c>
    HAL_NVIC_EnableIRQ(CAN_SCE_IRQn);
  /* USER CODE BEGIN CAN_MspInit 1 */

  /* USER CODE END CAN_MspInit 1 */
  }
}
 8001148:	b009      	add	sp, #36	; 0x24
 800114a:	bd30      	pop	{r4, r5, pc}
    __HAL_RCC_CAN1_CLK_ENABLE();
 800114c:	f503 33d6 	add.w	r3, r3, #109568	; 0x1ac00
    HAL_GPIO_Init(GPIOA, &GPIO_InitStruct);
 8001150:	a902      	add	r1, sp, #8
    __HAL_RCC_CAN1_CLK_ENABLE();
 8001152:	69da      	ldr	r2, [r3, #28]
 8001154:	f042 7200 	orr.w	r2, r2, #33554432	; 0x2000000
 8001158:	61da      	str	r2, [r3, #28]
 800115a:	69da      	ldr	r2, [r3, #28]
 800115c:	f002 7200 	and.w	r2, r2, #33554432	; 0x2000000
 8001160:	9200      	str	r2, [sp, #0]
 8001162:	9a00      	ldr	r2, [sp, #0]
    __HAL_RCC_GPIOA_CLK_ENABLE();
 8001164:	695a      	ldr	r2, [r3, #20]
 8001166:	f442 3200 	orr.w	r2, r2, #131072	; 0x20000
 800116a:	615a      	str	r2, [r3, #20]
 800116c:	695b      	ldr	r3, [r3, #20]
 800116e:	f403 3300 	and.w	r3, r3, #131072	; 0x20000
 8001172:	9301      	str	r3, [sp, #4]
    GPIO_InitStruct.Pin = GPIO_PIN_11|GPIO_PIN_12;
 8001174:	f44f 52c0 	mov.w	r2, #6144	; 0x1800
 8001178:	2302      	movs	r3, #2
 800117a:	e9cd 2302 	strd	r2, r3, [sp, #8]
    HAL_GPIO_Init(GPIOA, &GPIO_InitStruct);
 800117e:	f04f 4090 	mov.w	r0, #1207959552	; 0x48000000
    GPIO_InitStruct.Alternate = GPIO_AF9_CAN;
 8001182:	2309      	movs	r3, #9
    GPIO_InitStruct.Speed = GPIO_SPEED_FREQ_HIGH;
 8001184:	2203      	movs	r2, #3
    GPIO_InitStruct.Alternate = GPIO_AF9_CAN;
 8001186:	e9cd 2305 	strd	r2, r3, [sp, #20]
    __HAL_RCC_GPIOA_CLK_ENABLE();
 800118a:	9d01      	ldr	r5, [sp, #4]
    HAL_GPIO_Init(GPIOA, &GPIO_InitStruct);
 800118c:	f002 fe50 	bl	8003e30 <HAL_GPIO_Init>
    HAL_NVIC_SetPriority(USB_HP_CAN_TX_IRQn, 0, 0);
 8001190:	4622      	mov	r2, r4
 8001192:	4621      	mov	r1, r4
 8001194:	2013      	movs	r0, #19
 8001196:	f002 fd13 	bl	8003bc0 <HAL_NVIC_SetPriority>
    HAL_NVIC_EnableIRQ(USB_HP_CAN_TX_IRQn);
 800119a:	2013      	movs	r0, #19
 800119c:	f002 fd4e 	bl	8003c3c <HAL_NVIC_EnableIRQ>
    HAL_NVIC_SetPriority(USB_LP_CAN_RX0_IRQn, 0, 0);
 80011a0:	4622      	mov	r2, r4
 80011a2:	4621      	mov	r1, r4
 80011a4:	2014      	movs	r0, #20
 80011a6:	f002 fd0b 	bl	8003bc0 <HAL_NVIC_SetPriority>
    HAL_NVIC_EnableIRQ(USB_LP_CAN_RX0_IRQn);
 80011aa:	2014      	movs	r0, #20
 80011ac:	f002 fd46 	bl	8003c3c <HAL_NVIC_EnableIRQ>
    HAL_NVIC_SetPriority(CAN_RX1_IRQn, 1, 0);
 80011b0:	4622      	mov	r2, r4
 80011b2:	2101      	movs	r1, #1
 80011b4:	2015      	movs	r0, #21
 80011b6:	f002 fd03 	bl	8003bc0 <HAL_NVIC_SetPriority>
    HAL_NVIC_EnableIRQ(CAN_RX1_IRQn);
 80011ba:	2015      	movs	r0, #21
 80011bc:	f002 fd3e 	bl	8003c3c <HAL_NVIC_EnableIRQ>
    HAL_NVIC_SetPriority(CAN_SCE_IRQn, 1, 0);
 80011c0:	4622      	mov	r2, r4
 80011c2:	2101      	movs	r1, #1
 80011c4:	2016      	movs	r0, #22
 80011c6:	f002 fcfb 	bl	8003bc0 <HAL_NVIC_SetPriority>
    HAL_NVIC_EnableIRQ(CAN_SCE_IRQn);
 80011ca:	2016      	movs	r0, #22
 80011cc:	f002 fd36 	bl	8003c3c <HAL_NVIC_EnableIRQ>
}
 80011d0:	b009      	add	sp, #36	; 0x24
 80011d2:	bd30      	pop	{r4, r5, pc}
 80011d4:	40006400 	.word	0x40006400

080011d8 <CAN_Filter_Init>:
  }
}

/* USER CODE BEGIN 1 */
void CAN_Filter_Init(uint16_t board_addr)
{
 80011d8:	b530      	push	{r4, r5, lr}
  CAN_FilterTypeDef sFilterConfig;
  sFilterConfig.FilterMode = CAN_FILTERMODE_IDLIST;
  sFilterConfig.FilterScale = CAN_FILTERSCALE_16BIT;
  sFilterConfig.FilterBank = 0;
  sFilterConfig.FilterIdHigh = (0x100 + board_addr) << 5;
 80011da:	f500 7480 	add.w	r4, r0, #256	; 0x100
{
 80011de:	b08b      	sub	sp, #44	; 0x2c
  sFilterConfig.FilterIdLow = (0x300 + board_addr) << 5;
 80011e0:	f500 7040 	add.w	r0, r0, #768	; 0x300
  sFilterConfig.FilterMode = CAN_FILTERMODE_IDLIST;
 80011e4:	2101      	movs	r1, #1
  sFilterConfig.FilterIdLow = (0x300 + board_addr) << 5;
 80011e6:	0143      	lsls	r3, r0, #5
  sFilterConfig.FilterIdHigh = (0x100 + board_addr) << 5;
 80011e8:	0164      	lsls	r4, r4, #5
  sFilterConfig.FilterScale = CAN_FILTERSCALE_16BIT;
 80011ea:	2200      	movs	r2, #0
  sFilterConfig.FilterIdLow = (0x300 + board_addr) << 5;
 80011ec:	e9cd 4300 	strd	r4, r3, [sp]
  sFilterConfig.FilterMaskIdHigh = 0x010 << 5;
 80011f0:	f44f 7500 	mov.w	r5, #512	; 0x200
  sFilterConfig.FilterMode = CAN_FILTERMODE_IDLIST;
 80011f4:	9106      	str	r1, [sp, #24]
  sFilterConfig.FilterMaskIdLow = 0x110 << 5;
  sFilterConfig.FilterFIFOAssignment = CAN_RX_FIFO0;
  sFilterConfig.FilterActivation = ENABLE;
 80011f6:	9108      	str	r1, [sp, #32]
  sFilterConfig.FilterMaskIdLow = 0x110 << 5;
 80011f8:	f44f 5308 	mov.w	r3, #8704	; 0x2200
  sFilterConfig.SlaveStartFilterBank = 0;
  if (HAL_CAN_ConfigFilter(&hcan, &sFilterConfig) != HAL_OK)
 80011fc:	480e      	ldr	r0, [pc, #56]	; (8001238 <CAN_Filter_Init+0x60>)
  sFilterConfig.FilterMaskIdHigh = 0x010 << 5;
 80011fe:	9502      	str	r5, [sp, #8]
  if (HAL_CAN_ConfigFilter(&hcan, &sFilterConfig) != HAL_OK)
 8001200:	4669      	mov	r1, sp
  sFilterConfig.FilterFIFOAssignment = CAN_RX_FIFO0;
 8001202:	e9cd 3203 	strd	r3, r2, [sp, #12]
  sFilterConfig.FilterScale = CAN_FILTERSCALE_16BIT;
 8001206:	9207      	str	r2, [sp, #28]
  sFilterConfig.FilterBank = 0;
 8001208:	9205      	str	r2, [sp, #20]
  sFilterConfig.SlaveStartFilterBank = 0;
 800120a:	9209      	str	r2, [sp, #36]	; 0x24
  if (HAL_CAN_ConfigFilter(&hcan, &sFilterConfig) != HAL_OK)
 800120c:	f002 f9da 	bl	80035c4 <HAL_CAN_ConfigFilter>
 8001210:	b930      	cbnz	r0, 8001220 <CAN_Filter_Init+0x48>
  {
    Error_Handler();
  }
  if (HAL_CAN_ActivateNotification(&hcan, CAN_IT_RX_FIFO0_MSG_PENDING) != HAL_OK)
 8001212:	4809      	ldr	r0, [pc, #36]	; (8001238 <CAN_Filter_Init+0x60>)
 8001214:	2102      	movs	r1, #2
 8001216:	f002 fb6d 	bl	80038f4 <HAL_CAN_ActivateNotification>
 800121a:	b948      	cbnz	r0, 8001230 <CAN_Filter_Init+0x58>
  {
    Error_Handler();
  }
}
 800121c:	b00b      	add	sp, #44	; 0x2c
 800121e:	bd30      	pop	{r4, r5, pc}
    Error_Handler();
 8001220:	f000 fcbc 	bl	8001b9c <Error_Handler>
  if (HAL_CAN_ActivateNotification(&hcan, CAN_IT_RX_FIFO0_MSG_PENDING) != HAL_OK)
 8001224:	4804      	ldr	r0, [pc, #16]	; (8001238 <CAN_Filter_Init+0x60>)
 8001226:	2102      	movs	r1, #2
 8001228:	f002 fb64 	bl	80038f4 <HAL_CAN_ActivateNotification>
 800122c:	2800      	cmp	r0, #0
 800122e:	d0f5      	beq.n	800121c <CAN_Filter_Init+0x44>
    Error_Handler();
 8001230:	f000 fcb4 	bl	8001b9c <Error_Handler>
}
 8001234:	b00b      	add	sp, #44	; 0x2c
 8001236:	bd30      	pop	{r4, r5, pc}
 8001238:	20000334 	.word	0x20000334

0800123c <MX_DMA_Init>:
  */
void MX_DMA_Init(void)
{

  /* DMA controller clock enable */
  __HAL_RCC_DMA1_CLK_ENABLE();
 800123c:	4b0b      	ldr	r3, [pc, #44]	; (800126c <MX_DMA_Init+0x30>)
{
 800123e:	b500      	push	{lr}
  __HAL_RCC_DMA1_CLK_ENABLE();
 8001240:	6959      	ldr	r1, [r3, #20]
 8001242:	f041 0101 	orr.w	r1, r1, #1
 8001246:	6159      	str	r1, [r3, #20]
 8001248:	695b      	ldr	r3, [r3, #20]
{
 800124a:	b083      	sub	sp, #12

  /* DMA interrupt init */
  /* DMA1_Channel1_IRQn interrupt configuration */
  HAL_NVIC_SetPriority(DMA1_Channel1_IRQn, 0, 0);
 800124c:	2200      	movs	r2, #0
  __HAL_RCC_DMA1_CLK_ENABLE();
 800124e:	f003 0301 	and.w	r3, r3, #1
 8001252:	9301      	str	r3, [sp, #4]
  HAL_NVIC_SetPriority(DMA1_Channel1_IRQn, 0, 0);
 8001254:	200b      	movs	r0, #11
 8001256:	4611      	mov	r1, r2
  __HAL_RCC_DMA1_CLK_ENABLE();
 8001258:	9b01      	ldr	r3, [sp, #4]
  HAL_NVIC_SetPriority(DMA1_Channel1_IRQn, 0, 0);
 800125a:	f002 fcb1 	bl	8003bc0 <HAL_NVIC_SetPriority>
  HAL_NVIC_EnableIRQ(DMA1_Channel1_IRQn);
 800125e:	200b      	movs	r0, #11

}
 8001260:	b003      	add	sp, #12
 8001262:	f85d eb04 	ldr.w	lr, [sp], #4
  HAL_NVIC_EnableIRQ(DMA1_Channel1_IRQn);
 8001266:	f002 bce9 	b.w	8003c3c <HAL_NVIC_EnableIRQ>
 800126a:	bf00      	nop
 800126c:	40021000 	.word	0x40021000

08001270 <MX_GPIO_Init>:
        * Output
        * EVENT_OUT
        * EXTI
*/
void MX_GPIO_Init(void)
{
 8001270:	e92d 4370 	stmdb	sp!, {r4, r5, r6, r8, r9, lr}

  GPIO_InitTypeDef GPIO_InitStruct = {0};
 8001274:	2400      	movs	r4, #0
{
 8001276:	b08a      	sub	sp, #40	; 0x28
  GPIO_InitTypeDef GPIO_InitStruct = {0};
 8001278:	e9cd 4404 	strd	r4, r4, [sp, #16]
 800127c:	e9cd 4406 	strd	r4, r4, [sp, #24]

  /* GPIO Ports Clock Enable */
  __HAL_RCC_GPIOC_CLK_ENABLE();
 8001280:	4b2c      	ldr	r3, [pc, #176]	; (8001334 <MX_GPIO_Init+0xc4>)
  GPIO_InitTypeDef GPIO_InitStruct = {0};
 8001282:	9408      	str	r4, [sp, #32]
  __HAL_RCC_GPIOC_CLK_ENABLE();
 8001284:	695a      	ldr	r2, [r3, #20]
  __HAL_RCC_GPIOF_CLK_ENABLE();
  __HAL_RCC_GPIOA_CLK_ENABLE();
  __HAL_RCC_GPIOB_CLK_ENABLE();

  /*Configure GPIO pin Output Level */
  HAL_GPIO_WritePin(GPIOC, GPIO_PIN_13|GPIO_PIN_14|GPIO_PIN_15, GPIO_PIN_RESET);
 8001286:	4d2c      	ldr	r5, [pc, #176]	; (8001338 <MX_GPIO_Init+0xc8>)

  /*Configure GPIO pin Output Level */
  HAL_GPIO_WritePin(GPIOB, GPIO_PIN_6|GPIO_PIN_7, GPIO_PIN_RESET);
 8001288:	4e2c      	ldr	r6, [pc, #176]	; (800133c <MX_GPIO_Init+0xcc>)
  __HAL_RCC_GPIOC_CLK_ENABLE();
 800128a:	f442 2200 	orr.w	r2, r2, #524288	; 0x80000
 800128e:	615a      	str	r2, [r3, #20]
 8001290:	695a      	ldr	r2, [r3, #20]
 8001292:	f402 2200 	and.w	r2, r2, #524288	; 0x80000
 8001296:	9200      	str	r2, [sp, #0]
 8001298:	9a00      	ldr	r2, [sp, #0]
  __HAL_RCC_GPIOF_CLK_ENABLE();
 800129a:	695a      	ldr	r2, [r3, #20]
 800129c:	f442 0280 	orr.w	r2, r2, #4194304	; 0x400000
 80012a0:	615a      	str	r2, [r3, #20]
 80012a2:	695a      	ldr	r2, [r3, #20]
 80012a4:	f402 0280 	and.w	r2, r2, #4194304	; 0x400000
 80012a8:	9201      	str	r2, [sp, #4]
 80012aa:	9a01      	ldr	r2, [sp, #4]
  __HAL_RCC_GPIOA_CLK_ENABLE();
 80012ac:	695a      	ldr	r2, [r3, #20]
 80012ae:	f442 3200 	orr.w	r2, r2, #131072	; 0x20000
 80012b2:	615a      	str	r2, [r3, #20]
 80012b4:	695a      	ldr	r2, [r3, #20]
 80012b6:	f402 3200 	and.w	r2, r2, #131072	; 0x20000
 80012ba:	9202      	str	r2, [sp, #8]
 80012bc:	9a02      	ldr	r2, [sp, #8]
  __HAL_RCC_GPIOB_CLK_ENABLE();
 80012be:	695a      	ldr	r2, [r3, #20]
 80012c0:	f442 2280 	orr.w	r2, r2, #262144	; 0x40000
 80012c4:	615a      	str	r2, [r3, #20]
 80012c6:	695b      	ldr	r3, [r3, #20]
 80012c8:	f403 2380 	and.w	r3, r3, #262144	; 0x40000
 80012cc:	9303      	str	r3, [sp, #12]
  HAL_GPIO_WritePin(GPIOC, GPIO_PIN_13|GPIO_PIN_14|GPIO_PIN_15, GPIO_PIN_RESET);
 80012ce:	4622      	mov	r2, r4
 80012d0:	4628      	mov	r0, r5
 80012d2:	f44f 4160 	mov.w	r1, #57344	; 0xe000
  __HAL_RCC_GPIOB_CLK_ENABLE();
 80012d6:	9b03      	ldr	r3, [sp, #12]
  HAL_GPIO_WritePin(GPIOC, GPIO_PIN_13|GPIO_PIN_14|GPIO_PIN_15, GPIO_PIN_RESET);
 80012d8:	f002 fe9a 	bl	8004010 <HAL_GPIO_WritePin>
  HAL_GPIO_WritePin(GPIOB, GPIO_PIN_6|GPIO_PIN_7, GPIO_PIN_RESET);
 80012dc:	4622      	mov	r2, r4
 80012de:	4630      	mov	r0, r6
 80012e0:	21c0      	movs	r1, #192	; 0xc0
 80012e2:	f002 fe95 	bl	8004010 <HAL_GPIO_WritePin>

  /*Configure GPIO pins : PC13 PC14 PC15 */
  GPIO_InitStruct.Pin = GPIO_PIN_13|GPIO_PIN_14|GPIO_PIN_15;
 80012e6:	f04f 0800 	mov.w	r8, #0
 80012ea:	f44f 4260 	mov.w	r2, #57344	; 0xe000
 80012ee:	2301      	movs	r3, #1
 80012f0:	f04f 0900 	mov.w	r9, #0
  GPIO_InitStruct.Mode = GPIO_MODE_OUTPUT_PP;
  GPIO_InitStruct.Pull = GPIO_NOPULL;
  GPIO_InitStruct.Speed = GPIO_SPEED_FREQ_LOW;
  HAL_GPIO_Init(GPIOC, &GPIO_InitStruct);
 80012f4:	a904      	add	r1, sp, #16
 80012f6:	4628      	mov	r0, r5
  GPIO_InitStruct.Pin = GPIO_PIN_13|GPIO_PIN_14|GPIO_PIN_15;
 80012f8:	e9cd 2304 	strd	r2, r3, [sp, #16]
 80012fc:	e9cd 8906 	strd	r8, r9, [sp, #24]
  HAL_GPIO_Init(GPIOC, &GPIO_InitStruct);
 8001300:	f002 fd96 	bl	8003e30 <HAL_GPIO_Init>

  /*Configure GPIO pins : PC0 PC1 PC2 PC3 */
  GPIO_InitStruct.Pin = GPIO_PIN_0|GPIO_PIN_1|GPIO_PIN_2|GPIO_PIN_3;
  GPIO_InitStruct.Mode = GPIO_MODE_INPUT;
  GPIO_InitStruct.Pull = GPIO_PULLUP;
 8001304:	2301      	movs	r3, #1
  HAL_GPIO_Init(GPIOC, &GPIO_InitStruct);
 8001306:	4628      	mov	r0, r5
 8001308:	a904      	add	r1, sp, #16
  GPIO_InitStruct.Pull = GPIO_PULLUP;
 800130a:	9306      	str	r3, [sp, #24]
  GPIO_InitStruct.Pin = GPIO_PIN_0|GPIO_PIN_1|GPIO_PIN_2|GPIO_PIN_3;
 800130c:	220f      	movs	r2, #15
 800130e:	2300      	movs	r3, #0
 8001310:	e9cd 2304 	strd	r2, r3, [sp, #16]
  HAL_GPIO_Init(GPIOC, &GPIO_InitStruct);
 8001314:	f002 fd8c 	bl	8003e30 <HAL_GPIO_Init>

  /*Configure GPIO pins : PB6 PB7 */
  GPIO_InitStruct.Pin = GPIO_PIN_6|GPIO_PIN_7;
 8001318:	22c0      	movs	r2, #192	; 0xc0
 800131a:	2301      	movs	r3, #1
  GPIO_InitStruct.Mode = GPIO_MODE_OUTPUT_PP;
  GPIO_InitStruct.Pull = GPIO_NOPULL;
  GPIO_InitStruct.Speed = GPIO_SPEED_FREQ_LOW;
  HAL_GPIO_Init(GPIOB, &GPIO_InitStruct);
 800131c:	a904      	add	r1, sp, #16
 800131e:	4630      	mov	r0, r6
  GPIO_InitStruct.Pin = GPIO_PIN_6|GPIO_PIN_7;
 8001320:	e9cd 8906 	strd	r8, r9, [sp, #24]
 8001324:	e9cd 2304 	strd	r2, r3, [sp, #16]
  HAL_GPIO_Init(GPIOB, &GPIO_InitStruct);
 8001328:	f002 fd82 	bl	8003e30 <HAL_GPIO_Init>

}
 800132c:	b00a      	add	sp, #40	; 0x28
 800132e:	e8bd 8370 	ldmia.w	sp!, {r4, r5, r6, r8, r9, pc}
 8001332:	bf00      	nop
 8001334:	40021000 	.word	0x40021000
 8001338:	48000800 	.word	0x48000800
 800133c:	48000400 	.word	0x48000400

08001340 <__io_putchar>:
#define PUTCHAR_PROTOTYPE int fputc(int ch, FILE *f)
#define GETCHAR_PROTOTYPE int f getc(FILE *f)
#endif

void __io_putchar(uint8_t ch)
{
 8001340:	b500      	push	{lr}
	HAL_UART_Transmit(&huart1, &ch, 1, 1);
 8001342:	2301      	movs	r3, #1
{
 8001344:	b083      	sub	sp, #12
 8001346:	4684      	mov	ip, r0
	HAL_UART_Transmit(&huart1, &ch, 1, 1);
 8001348:	461a      	mov	r2, r3
 800134a:	f10d 0107 	add.w	r1, sp, #7
 800134e:	4804      	ldr	r0, [pc, #16]	; (8001360 <__io_putchar+0x20>)
{
 8001350:	f88d c007 	strb.w	ip, [sp, #7]
	HAL_UART_Transmit(&huart1, &ch, 1, 1);
 8001354:	f004 fdbe 	bl	8005ed4 <HAL_UART_Transmit>
}
 8001358:	b003      	add	sp, #12
 800135a:	f85d fb04 	ldr.w	pc, [sp], #4
 800135e:	bf00      	nop
 8001360:	2000150c 	.word	0x2000150c

08001364 <HAL_UART_RxCpltCallback>:
uint8_t uart_rx_buf[10] = {0};
bool uart_rx_flag = false;

void HAL_UART_RxCpltCallback(UART_HandleTypeDef *huart)
{
	uart_rx_flag = true;
 8001364:	4b01      	ldr	r3, [pc, #4]	; (800136c <HAL_UART_RxCpltCallback+0x8>)
 8001366:	2201      	movs	r2, #1
 8001368:	701a      	strb	r2, [r3, #0]
}
 800136a:	4770      	bx	lr
 800136c:	200003ee 	.word	0x200003ee

08001370 <HAL_TIM_PeriodElapsedCallback>:
	print_mapped = rad_mapped;
	HAL_GPIO_WritePin(GPIOB, GPIO_PIN_6, GPIO_PIN_SET);
}
*/
void HAL_TIM_PeriodElapsedCallback(TIM_HandleTypeDef *htim)
{
 8001370:	b538      	push	{r3, r4, r5, lr}
	static uint32_t speed_calc_cycle = 0;
	static int32_t pre_diff_cnt = 0, diff_accel;
	if (htim == &htim1)
 8001372:	4b47      	ldr	r3, [pc, #284]	; (8001490 <HAL_TIM_PeriodElapsedCallback+0x120>)
 8001374:	4298      	cmp	r0, r3
 8001376:	d044      	beq.n	8001402 <HAL_TIM_PeriodElapsedCallback+0x92>
			if (diff_accel < diff_accel_min)
			{
				diff_accel_min = diff_accel;
			}
		}
	}else if(htim == &htim8){
 8001378:	4b46      	ldr	r3, [pc, #280]	; (8001494 <HAL_TIM_PeriodElapsedCallback+0x124>)
 800137a:	4298      	cmp	r0, r3
 800137c:	d000      	beq.n	8001380 <HAL_TIM_PeriodElapsedCallback+0x10>
			}
		}
		  HAL_ADC_Start(&hadc2); //M1
		HAL_ADC_Start(&hadc1);	//M0
	}
}
 800137e:	bd38      	pop	{r3, r4, r5, pc}
		updateMA702_M1();
 8001380:	f000 fcbe 	bl	8001d00 <updateMA702_M1>
		setOutputRadianTIM1(getRadianM702_M1() + offset_radian, output_voltage, 24);
 8001384:	f000 fd0c 	bl	8001da0 <getRadianM702_M1>
 8001388:	4a43      	ldr	r2, [pc, #268]	; (8001498 <HAL_TIM_PeriodElapsedCallback+0x128>)
 800138a:	4b44      	ldr	r3, [pc, #272]	; (800149c <HAL_TIM_PeriodElapsedCallback+0x12c>)
 800138c:	edd2 7a00 	vldr	s15, [r2]
 8001390:	edd3 0a00 	vldr	s1, [r3]
 8001394:	ee30 0a27 	vadd.f32	s0, s0, s15
 8001398:	eeb3 1a08 	vmov.f32	s2, #56	; 0x41c00000  24.0
 800139c:	f000 ffdc 	bl	8002358 <setOutputRadianTIM1>
		speed_calc_cycle++;
 80013a0:	4a3f      	ldr	r2, [pc, #252]	; (80014a0 <HAL_TIM_PeriodElapsedCallback+0x130>)
 80013a2:	6813      	ldr	r3, [r2, #0]
 80013a4:	3301      	adds	r3, #1
		if (speed_calc_cycle >= 200)
 80013a6:	2bc7      	cmp	r3, #199	; 0xc7
 80013a8:	d922      	bls.n	80013f0 <HAL_TIM_PeriodElapsedCallback+0x80>
			int temp_diff_cnt = enc_raw - pre_enc_raw;
 80013aa:	493e      	ldr	r1, [pc, #248]	; (80014a4 <HAL_TIM_PeriodElapsedCallback+0x134>)
 80013ac:	483e      	ldr	r0, [pc, #248]	; (80014a8 <HAL_TIM_PeriodElapsedCallback+0x138>)
 80013ae:	680b      	ldr	r3, [r1, #0]
 80013b0:	8800      	ldrh	r0, [r0, #0]
			pre_enc_raw = enc_raw;
 80013b2:	6008      	str	r0, [r1, #0]
			speed_calc_cycle = 0;
 80013b4:	2400      	movs	r4, #0
			int temp_diff_cnt = enc_raw - pre_enc_raw;
 80013b6:	1ac3      	subs	r3, r0, r3
			speed_calc_cycle = 0;
 80013b8:	6014      	str	r4, [r2, #0]
			if (temp_diff_cnt > 30000)
 80013ba:	f247 5230 	movw	r2, #30000	; 0x7530
 80013be:	4293      	cmp	r3, r2
 80013c0:	dc5f      	bgt.n	8001482 <HAL_TIM_PeriodElapsedCallback+0x112>
			else if (temp_diff_cnt < -30000)
 80013c2:	4a3a      	ldr	r2, [pc, #232]	; (80014ac <HAL_TIM_PeriodElapsedCallback+0x13c>)
 80013c4:	4293      	cmp	r3, r2
				diff_cnt = temp_diff_cnt + 65535;
 80013c6:	bfb8      	it	lt
 80013c8:	f503 437f 	addlt.w	r3, r3, #65280	; 0xff00
 80013cc:	4a38      	ldr	r2, [pc, #224]	; (80014b0 <HAL_TIM_PeriodElapsedCallback+0x140>)
 80013ce:	bfb8      	it	lt
 80013d0:	33ff      	addlt	r3, #255	; 0xff
				diff_cnt = temp_diff_cnt;
 80013d2:	6013      	str	r3, [r2, #0]
			diff_accel = diff_cnt - pre_diff_cnt;
 80013d4:	4a37      	ldr	r2, [pc, #220]	; (80014b4 <HAL_TIM_PeriodElapsedCallback+0x144>)
			if (diff_accel > diff_accel_max)
 80013d6:	4938      	ldr	r1, [pc, #224]	; (80014b8 <HAL_TIM_PeriodElapsedCallback+0x148>)
			diff_accel = diff_cnt - pre_diff_cnt;
 80013d8:	6814      	ldr	r4, [r2, #0]
			if (diff_accel > diff_accel_max)
 80013da:	6808      	ldr	r0, [r1, #0]
			pre_diff_cnt = 0;
 80013dc:	2500      	movs	r5, #0
			diff_accel = diff_cnt - pre_diff_cnt;
 80013de:	1b1b      	subs	r3, r3, r4
			pre_diff_cnt = 0;
 80013e0:	6015      	str	r5, [r2, #0]
			if (diff_accel < diff_accel_min)
 80013e2:	4a36      	ldr	r2, [pc, #216]	; (80014bc <HAL_TIM_PeriodElapsedCallback+0x14c>)
			if (diff_accel > diff_accel_max)
 80013e4:	4283      	cmp	r3, r0
				diff_accel_max = diff_accel;
 80013e6:	bfc8      	it	gt
 80013e8:	600b      	strgt	r3, [r1, #0]
			if (diff_accel < diff_accel_min)
 80013ea:	6811      	ldr	r1, [r2, #0]
 80013ec:	428b      	cmp	r3, r1
 80013ee:	da00      	bge.n	80013f2 <HAL_TIM_PeriodElapsedCallback+0x82>
				diff_accel_min = diff_accel;
 80013f0:	6013      	str	r3, [r2, #0]
		  HAL_ADC_Start(&hadc2); //M1
 80013f2:	4833      	ldr	r0, [pc, #204]	; (80014c0 <HAL_TIM_PeriodElapsedCallback+0x150>)
 80013f4:	f001 fb0c 	bl	8002a10 <HAL_ADC_Start>
}
 80013f8:	e8bd 4038 	ldmia.w	sp!, {r3, r4, r5, lr}
		HAL_ADC_Start(&hadc1);	//M0
 80013fc:	4831      	ldr	r0, [pc, #196]	; (80014c4 <HAL_TIM_PeriodElapsedCallback+0x154>)
 80013fe:	f001 bb07 	b.w	8002a10 <HAL_ADC_Start>
		updateMA702_M0();
 8001402:	f000 fc31 	bl	8001c68 <updateMA702_M0>
		setOutputRadianTIM8(getRadianM702_M0() + offset_radian, output_voltage,24);
 8001406:	f000 fcc5 	bl	8001d94 <getRadianM702_M0>
 800140a:	4a23      	ldr	r2, [pc, #140]	; (8001498 <HAL_TIM_PeriodElapsedCallback+0x128>)
 800140c:	4b23      	ldr	r3, [pc, #140]	; (800149c <HAL_TIM_PeriodElapsedCallback+0x12c>)
 800140e:	edd2 7a00 	vldr	s15, [r2]
 8001412:	edd3 0a00 	vldr	s1, [r3]
 8001416:	ee30 0a27 	vadd.f32	s0, s0, s15
 800141a:	eeb3 1a08 	vmov.f32	s2, #56	; 0x41c00000  24.0
 800141e:	f000 ffff 	bl	8002420 <setOutputRadianTIM8>
		speed_calc_cycle++;
 8001422:	4a1f      	ldr	r2, [pc, #124]	; (80014a0 <HAL_TIM_PeriodElapsedCallback+0x130>)
 8001424:	6813      	ldr	r3, [r2, #0]
 8001426:	3301      	adds	r3, #1
		if (speed_calc_cycle >= 200)
 8001428:	2bc7      	cmp	r3, #199	; 0xc7
 800142a:	d922      	bls.n	8001472 <HAL_TIM_PeriodElapsedCallback+0x102>
			int temp_diff_cnt = enc_raw - pre_enc_raw;
 800142c:	491d      	ldr	r1, [pc, #116]	; (80014a4 <HAL_TIM_PeriodElapsedCallback+0x134>)
 800142e:	481e      	ldr	r0, [pc, #120]	; (80014a8 <HAL_TIM_PeriodElapsedCallback+0x138>)
 8001430:	680b      	ldr	r3, [r1, #0]
 8001432:	8800      	ldrh	r0, [r0, #0]
			pre_enc_raw = enc_raw;
 8001434:	6008      	str	r0, [r1, #0]
			speed_calc_cycle = 0;
 8001436:	2400      	movs	r4, #0
			int temp_diff_cnt = enc_raw - pre_enc_raw;
 8001438:	1ac3      	subs	r3, r0, r3
			speed_calc_cycle = 0;
 800143a:	6014      	str	r4, [r2, #0]
			if (temp_diff_cnt > 30000)
 800143c:	f247 5230 	movw	r2, #30000	; 0x7530
 8001440:	4293      	cmp	r3, r2
 8001442:	dc18      	bgt.n	8001476 <HAL_TIM_PeriodElapsedCallback+0x106>
			else if (temp_diff_cnt < -30000)
 8001444:	4a19      	ldr	r2, [pc, #100]	; (80014ac <HAL_TIM_PeriodElapsedCallback+0x13c>)
 8001446:	4293      	cmp	r3, r2
				diff_cnt = temp_diff_cnt + 65535;
 8001448:	bfb8      	it	lt
 800144a:	f503 437f 	addlt.w	r3, r3, #65280	; 0xff00
 800144e:	4a18      	ldr	r2, [pc, #96]	; (80014b0 <HAL_TIM_PeriodElapsedCallback+0x140>)
 8001450:	bfb8      	it	lt
 8001452:	33ff      	addlt	r3, #255	; 0xff
				diff_cnt = temp_diff_cnt;
 8001454:	6013      	str	r3, [r2, #0]
			diff_accel = diff_cnt - pre_diff_cnt;
 8001456:	4a17      	ldr	r2, [pc, #92]	; (80014b4 <HAL_TIM_PeriodElapsedCallback+0x144>)
			if (diff_accel > diff_accel_max)
 8001458:	4917      	ldr	r1, [pc, #92]	; (80014b8 <HAL_TIM_PeriodElapsedCallback+0x148>)
			diff_accel = diff_cnt - pre_diff_cnt;
 800145a:	6814      	ldr	r4, [r2, #0]
			if (diff_accel > diff_accel_max)
 800145c:	6808      	ldr	r0, [r1, #0]
			pre_diff_cnt = 0;
 800145e:	2500      	movs	r5, #0
			diff_accel = diff_cnt - pre_diff_cnt;
 8001460:	1b1b      	subs	r3, r3, r4
			pre_diff_cnt = 0;
 8001462:	6015      	str	r5, [r2, #0]
			if (diff_accel < diff_accel_min)
 8001464:	4a15      	ldr	r2, [pc, #84]	; (80014bc <HAL_TIM_PeriodElapsedCallback+0x14c>)
			if (diff_accel > diff_accel_max)
 8001466:	4283      	cmp	r3, r0
				diff_accel_max = diff_accel;
 8001468:	bfc8      	it	gt
 800146a:	600b      	strgt	r3, [r1, #0]
			if (diff_accel < diff_accel_min)
 800146c:	6811      	ldr	r1, [r2, #0]
 800146e:	428b      	cmp	r3, r1
 8001470:	da85      	bge.n	800137e <HAL_TIM_PeriodElapsedCallback+0xe>
				diff_accel_min = diff_accel;
 8001472:	6013      	str	r3, [r2, #0]
}
 8001474:	bd38      	pop	{r3, r4, r5, pc}
				diff_cnt = temp_diff_cnt - 65535;
 8001476:	4a0e      	ldr	r2, [pc, #56]	; (80014b0 <HAL_TIM_PeriodElapsedCallback+0x140>)
 8001478:	f5a3 437f 	sub.w	r3, r3, #65280	; 0xff00
 800147c:	3bff      	subs	r3, #255	; 0xff
 800147e:	6013      	str	r3, [r2, #0]
 8001480:	e7e9      	b.n	8001456 <HAL_TIM_PeriodElapsedCallback+0xe6>
				diff_cnt = temp_diff_cnt - 65535;
 8001482:	4a0b      	ldr	r2, [pc, #44]	; (80014b0 <HAL_TIM_PeriodElapsedCallback+0x140>)
 8001484:	f5a3 437f 	sub.w	r3, r3, #65280	; 0xff00
 8001488:	3bff      	subs	r3, #255	; 0xff
 800148a:	6013      	str	r3, [r2, #0]
 800148c:	e7a2      	b.n	80013d4 <HAL_TIM_PeriodElapsedCallback+0x64>
 800148e:	bf00      	nop
 8001490:	20000474 	.word	0x20000474
 8001494:	200004c0 	.word	0x200004c0
 8001498:	200003d0 	.word	0x200003d0
 800149c:	200003d4 	.word	0x200003d4
 80014a0:	200003e0 	.word	0x200003e0
 80014a4:	200003dc 	.word	0x200003dc
 80014a8:	200003b8 	.word	0x200003b8
 80014ac:	ffff8ad0 	.word	0xffff8ad0
 80014b0:	200003b4 	.word	0x200003b4
 80014b4:	200003d8 	.word	0x200003d8
 80014b8:	200003ac 	.word	0x200003ac
 80014bc:	200003b0 	.word	0x200003b0
 80014c0:	20000250 	.word	0x20000250
 80014c4:	20000200 	.word	0x20000200

080014c8 <HAL_CAN_RxFifo0MsgPendingCallback>:

uint32_t can_rx_cnt = 0;
uint8_t can_rx_data[8];
CAN_RxHeaderTypeDef   can_rx_header;
void HAL_CAN_RxFifo0MsgPendingCallback(CAN_HandleTypeDef *hcan){
 80014c8:	b508      	push	{r3, lr}
	if (HAL_CAN_GetRxMessage(hcan, CAN_RX_FIFO0, &can_rx_header, can_rx_data) != HAL_OK)
 80014ca:	4a06      	ldr	r2, [pc, #24]	; (80014e4 <HAL_CAN_RxFifo0MsgPendingCallback+0x1c>)
 80014cc:	4b06      	ldr	r3, [pc, #24]	; (80014e8 <HAL_CAN_RxFifo0MsgPendingCallback+0x20>)
 80014ce:	2100      	movs	r1, #0
 80014d0:	f002 f986 	bl	80037e0 <HAL_CAN_GetRxMessage>
 80014d4:	b108      	cbz	r0, 80014da <HAL_CAN_RxFifo0MsgPendingCallback+0x12>
  \details Disables IRQ interrupts by setting the I-bit in the CPSR.
           Can only be executed in Privileged modes.
 */
__STATIC_FORCEINLINE void __disable_irq(void)
{
  __ASM volatile ("cpsid i" : : : "memory");
 80014d6:	b672      	cpsid	i
void Error_Handler(void)
{
  /* USER CODE BEGIN Error_Handler_Debug */
	/* User can add his own implementation to report the HAL error return state */
	__disable_irq();
	while (1)
 80014d8:	e7fe      	b.n	80014d8 <HAL_CAN_RxFifo0MsgPendingCallback+0x10>
	can_rx_cnt++;
 80014da:	4a04      	ldr	r2, [pc, #16]	; (80014ec <HAL_CAN_RxFifo0MsgPendingCallback+0x24>)
 80014dc:	6813      	ldr	r3, [r2, #0]
 80014de:	3301      	adds	r3, #1
 80014e0:	6013      	str	r3, [r2, #0]
}
 80014e2:	bd08      	pop	{r3, pc}
 80014e4:	20000390 	.word	0x20000390
 80014e8:	20000388 	.word	0x20000388
 80014ec:	20000384 	.word	0x20000384

080014f0 <runMode>:
{
 80014f0:	b570      	push	{r4, r5, r6, lr}
 80014f2:	ed2d 8b02 	vpush	{d8}
	if (offset_radian > M_PI * 2)
 80014f6:	4d78      	ldr	r5, [pc, #480]	; (80016d8 <runMode+0x1e8>)
{
 80014f8:	b088      	sub	sp, #32
	if (offset_radian > M_PI * 2)
 80014fa:	6828      	ldr	r0, [r5, #0]
 80014fc:	f7ff f824 	bl	8000548 <__aeabi_f2d>
 8001500:	a36f      	add	r3, pc, #444	; (adr r3, 80016c0 <runMode+0x1d0>)
 8001502:	e9d3 2300 	ldrd	r2, r3, [r3]
 8001506:	f7ff fb07 	bl	8000b18 <__aeabi_dcmpgt>
 800150a:	b108      	cbz	r0, 8001510 <runMode+0x20>
		offset_radian = 0;
 800150c:	2300      	movs	r3, #0
 800150e:	602b      	str	r3, [r5, #0]
	if (HAL_GPIO_ReadPin(GPIOC, GPIO_PIN_0) == 0)
 8001510:	4872      	ldr	r0, [pc, #456]	; (80016dc <runMode+0x1ec>)
		output_voltage = 2.0;
 8001512:	4c73      	ldr	r4, [pc, #460]	; (80016e0 <runMode+0x1f0>)
	if (HAL_GPIO_ReadPin(GPIOC, GPIO_PIN_0) == 0)
 8001514:	2101      	movs	r1, #1
 8001516:	f002 fd75 	bl	8004004 <HAL_GPIO_ReadPin>
 800151a:	b910      	cbnz	r0, 8001522 <runMode+0x32>
		output_voltage = 2.0;
 800151c:	f04f 4380 	mov.w	r3, #1073741824	; 0x40000000
 8001520:	6023      	str	r3, [r4, #0]
	if (HAL_GPIO_ReadPin(GPIOC, GPIO_PIN_1) == 0)
 8001522:	486e      	ldr	r0, [pc, #440]	; (80016dc <runMode+0x1ec>)
 8001524:	2102      	movs	r1, #2
 8001526:	f002 fd6d 	bl	8004004 <HAL_GPIO_ReadPin>
 800152a:	b910      	cbnz	r0, 8001532 <runMode+0x42>
		output_voltage = -2.0;
 800152c:	f04f 4340 	mov.w	r3, #3221225472	; 0xc0000000
 8001530:	6023      	str	r3, [r4, #0]
	if (HAL_GPIO_ReadPin(GPIOC, GPIO_PIN_2) == 0)
 8001532:	486a      	ldr	r0, [pc, #424]	; (80016dc <runMode+0x1ec>)
 8001534:	2104      	movs	r1, #4
 8001536:	f002 fd65 	bl	8004004 <HAL_GPIO_ReadPin>
 800153a:	2800      	cmp	r0, #0
 800153c:	f040 8092 	bne.w	8001664 <runMode+0x174>
		motor_accel = 0;
 8001540:	4e68      	ldr	r6, [pc, #416]	; (80016e4 <runMode+0x1f4>)
	if (HAL_GPIO_ReadPin(GPIOC, GPIO_PIN_3) == 0)
 8001542:	4866      	ldr	r0, [pc, #408]	; (80016dc <runMode+0x1ec>)
		motor_accel = 0;
 8001544:	2300      	movs	r3, #0
	if (HAL_GPIO_ReadPin(GPIOC, GPIO_PIN_3) == 0)
 8001546:	2108      	movs	r1, #8
		output_voltage = 0;
 8001548:	6023      	str	r3, [r4, #0]
		motor_accel = 0;
 800154a:	6033      	str	r3, [r6, #0]
	if (HAL_GPIO_ReadPin(GPIOC, GPIO_PIN_3) == 0)
 800154c:	f002 fd5a 	bl	8004004 <HAL_GPIO_ReadPin>
 8001550:	2800      	cmp	r0, #0
 8001552:	f000 80ae 	beq.w	80016b2 <runMode+0x1c2>
	if (output_voltage > 0)
 8001556:	edd4 7a00 	vldr	s15, [r4]
		offset_radian = 2.4 + user_offet_radian;
 800155a:	4b63      	ldr	r3, [pc, #396]	; (80016e8 <runMode+0x1f8>)
	if (output_voltage > 0)
 800155c:	eef5 7ac0 	vcmpe.f32	s15, #0.0
 8001560:	eef1 fa10 	vmrs	APSR_nzcv, fpscr
		offset_radian = 2.4 + user_offet_radian;
 8001564:	6818      	ldr	r0, [r3, #0]
	if (output_voltage > 0)
 8001566:	dd08      	ble.n	800157a <runMode+0x8a>
		offset_radian = 2.4 + user_offet_radian;
 8001568:	f7fe ffee 	bl	8000548 <__aeabi_f2d>
 800156c:	a356      	add	r3, pc, #344	; (adr r3, 80016c8 <runMode+0x1d8>)
 800156e:	e9d3 2300 	ldrd	r2, r3, [r3]
 8001572:	f7fe fe8b 	bl	800028c <__adddf3>
 8001576:	f7ff fb37 	bl	8000be8 <__aeabi_d2f>
	float spd_rps = (float)diff_cnt / 65535 * 26 * 50;
 800157a:	4b5c      	ldr	r3, [pc, #368]	; (80016ec <runMode+0x1fc>)
 800157c:	ed9f 7a5c 	vldr	s14, [pc, #368]	; 80016f0 <runMode+0x200>
 8001580:	ed93 8a00 	vldr	s16, [r3]
	if (max_speed_p < spd_rps)
 8001584:	4b5b      	ldr	r3, [pc, #364]	; (80016f4 <runMode+0x204>)
 8001586:	6028      	str	r0, [r5, #0]
	float spd_rps = (float)diff_cnt / 65535 * 26 * 50;
 8001588:	eeb8 8ac8 	vcvt.f32.s32	s16, s16
	if (max_speed_p < spd_rps)
 800158c:	edd3 7a00 	vldr	s15, [r3]
	float spd_rps = (float)diff_cnt / 65535 * 26 * 50;
 8001590:	ee28 8a07 	vmul.f32	s16, s16, s14
	if (max_speed_p < spd_rps)
 8001594:	eef4 7ac8 	vcmpe.f32	s15, s16
 8001598:	eef1 fa10 	vmrs	APSR_nzcv, fpscr
 800159c:	d456      	bmi.n	800164c <runMode+0x15c>
	if (max_speed_m > spd_rps)
 800159e:	4a56      	ldr	r2, [pc, #344]	; (80016f8 <runMode+0x208>)
 80015a0:	edd2 7a00 	vldr	s15, [r2]
 80015a4:	eeb4 8ae7 	vcmpe.f32	s16, s15
 80015a8:	eef1 fa10 	vmrs	APSR_nzcv, fpscr
 80015ac:	d505      	bpl.n	80015ba <runMode+0xca>
		max_speed_m = spd_rps;
 80015ae:	ed82 8a00 	vstr	s16, [r2]
		max_offset_m = offset_radian;
 80015b2:	4a52      	ldr	r2, [pc, #328]	; (80016fc <runMode+0x20c>)
 80015b4:	6010      	str	r0, [r2, #0]
		max_speed_p = 0;
 80015b6:	2200      	movs	r2, #0
 80015b8:	601a      	str	r2, [r3, #0]
	printf("M0cs %6d ",HAL_ADCEx_InjectedGetValue(&hadc1,ADC_INJECTED_RANK_1)/*,HAL_ADCEx_InjectedGetValue(&hadc1,ADC_INJECTED_RANK_2),HAL_ADCEx_InjectedGetValue(&hadc1,ADC_INJECTED_RANK_3)*/);
 80015ba:	2101      	movs	r1, #1
 80015bc:	4850      	ldr	r0, [pc, #320]	; (8001700 <runMode+0x210>)
 80015be:	f001 fabf 	bl	8002b40 <HAL_ADCEx_InjectedGetValue>
 80015c2:	4601      	mov	r1, r0
 80015c4:	484f      	ldr	r0, [pc, #316]	; (8001704 <runMode+0x214>)
 80015c6:	f006 fa95 	bl	8007af4 <iprintf>
	printf("M1cs %6d batt %6d ",HAL_ADCEx_InjectedGetValue(&hadc2,ADC_INJECTED_RANK_1),HAL_ADCEx_InjectedGetValue(&hadc3,ADC_INJECTED_RANK_1));
 80015ca:	2101      	movs	r1, #1
 80015cc:	484e      	ldr	r0, [pc, #312]	; (8001708 <runMode+0x218>)
 80015ce:	f001 fab7 	bl	8002b40 <HAL_ADCEx_InjectedGetValue>
 80015d2:	2101      	movs	r1, #1
 80015d4:	4606      	mov	r6, r0
 80015d6:	484d      	ldr	r0, [pc, #308]	; (800170c <runMode+0x21c>)
 80015d8:	f001 fab2 	bl	8002b40 <HAL_ADCEx_InjectedGetValue>
 80015dc:	4631      	mov	r1, r6
 80015de:	4602      	mov	r2, r0
 80015e0:	484b      	ldr	r0, [pc, #300]	; (8001710 <runMode+0x220>)
 80015e2:	f006 fa87 	bl	8007af4 <iprintf>
	printf("M0raw %8ld M1raw %8ld offset %4.3f, voltage %+6.3f\n", getRawM702_M0(),getRawM702_M1(), spd_rps, offset_radian, output_voltage * 2.7,can_rx_cnt);
 80015e6:	f000 fbe1 	bl	8001dac <getRawM702_M0>
 80015ea:	4606      	mov	r6, r0
 80015ec:	f000 fbe4 	bl	8001db8 <getRawM702_M1>
 80015f0:	4b48      	ldr	r3, [pc, #288]	; (8001714 <runMode+0x224>)
 80015f2:	4602      	mov	r2, r0
 80015f4:	681b      	ldr	r3, [r3, #0]
 80015f6:	6820      	ldr	r0, [r4, #0]
 80015f8:	9306      	str	r3, [sp, #24]
 80015fa:	4614      	mov	r4, r2
 80015fc:	f7fe ffa4 	bl	8000548 <__aeabi_f2d>
 8001600:	a333      	add	r3, pc, #204	; (adr r3, 80016d0 <runMode+0x1e0>)
 8001602:	e9d3 2300 	ldrd	r2, r3, [r3]
 8001606:	f7fe fff7 	bl	80005f8 <__aeabi_dmul>
 800160a:	4602      	mov	r2, r0
 800160c:	460b      	mov	r3, r1
 800160e:	6828      	ldr	r0, [r5, #0]
 8001610:	e9cd 2304 	strd	r2, r3, [sp, #16]
 8001614:	f7fe ff98 	bl	8000548 <__aeabi_f2d>
 8001618:	4602      	mov	r2, r0
 800161a:	460b      	mov	r3, r1
 800161c:	ee18 0a10 	vmov	r0, s16
 8001620:	e9cd 2302 	strd	r2, r3, [sp, #8]
 8001624:	f7fe ff90 	bl	8000548 <__aeabi_f2d>
 8001628:	4622      	mov	r2, r4
 800162a:	e9cd 0100 	strd	r0, r1, [sp]
 800162e:	4631      	mov	r1, r6
 8001630:	4839      	ldr	r0, [pc, #228]	; (8001718 <runMode+0x228>)
 8001632:	f006 fa5f 	bl	8007af4 <iprintf>
	diff_accel_max = -5000;
 8001636:	4939      	ldr	r1, [pc, #228]	; (800171c <runMode+0x22c>)
	diff_accel_min = 5000;
 8001638:	4b39      	ldr	r3, [pc, #228]	; (8001720 <runMode+0x230>)
	diff_accel_max = -5000;
 800163a:	483a      	ldr	r0, [pc, #232]	; (8001724 <runMode+0x234>)
 800163c:	6008      	str	r0, [r1, #0]
	diff_accel_min = 5000;
 800163e:	f241 3288 	movw	r2, #5000	; 0x1388
 8001642:	601a      	str	r2, [r3, #0]
}
 8001644:	b008      	add	sp, #32
 8001646:	ecbd 8b02 	vpop	{d8}
 800164a:	bd70      	pop	{r4, r5, r6, pc}
		max_offset_p = offset_radian;
 800164c:	4a36      	ldr	r2, [pc, #216]	; (8001728 <runMode+0x238>)
		max_speed_m = 0;
 800164e:	ed9f 7a37 	vldr	s14, [pc, #220]	; 800172c <runMode+0x23c>
		max_offset_p = offset_radian;
 8001652:	6010      	str	r0, [r2, #0]
		max_speed_m = 0;
 8001654:	4a28      	ldr	r2, [pc, #160]	; (80016f8 <runMode+0x208>)
		max_speed_p = spd_rps;
 8001656:	ed83 8a00 	vstr	s16, [r3]
		max_speed_m = 0;
 800165a:	eef0 7a47 	vmov.f32	s15, s14
 800165e:	ed82 7a00 	vstr	s14, [r2]
 8001662:	e79f      	b.n	80015a4 <runMode+0xb4>
	output_voltage += motor_accel;
 8001664:	4e1f      	ldr	r6, [pc, #124]	; (80016e4 <runMode+0x1f4>)
 8001666:	edd4 7a00 	vldr	s15, [r4]
 800166a:	edd6 6a00 	vldr	s13, [r6]
	if (HAL_GPIO_ReadPin(GPIOC, GPIO_PIN_3) == 0)
 800166e:	481b      	ldr	r0, [pc, #108]	; (80016dc <runMode+0x1ec>)
	output_voltage += motor_accel;
 8001670:	ee77 7aa6 	vadd.f32	s15, s15, s13
	if (output_voltage > 20.0)
 8001674:	eeb3 7a04 	vmov.f32	s14, #52	; 0x41a00000  20.0
 8001678:	eef4 7ac7 	vcmpe.f32	s15, s14
 800167c:	eef1 fa10 	vmrs	APSR_nzcv, fpscr
	if (output_voltage < -20.0)
 8001680:	eebb 7a04 	vmov.f32	s14, #180	; 0xc1a00000 -20.0
		motor_accel = -0.5;
 8001684:	bfc8      	it	gt
 8001686:	f04f 433f 	movgt.w	r3, #3204448256	; 0xbf000000
	if (output_voltage < -20.0)
 800168a:	eef4 7ac7 	vcmpe.f32	s15, s14
		motor_accel = -0.5;
 800168e:	bfc8      	it	gt
 8001690:	6033      	strgt	r3, [r6, #0]
	if (output_voltage < -20.0)
 8001692:	eef1 fa10 	vmrs	APSR_nzcv, fpscr
		motor_accel = 0.5;
 8001696:	bf48      	it	mi
 8001698:	f04f 537c 	movmi.w	r3, #1056964608	; 0x3f000000
	if (HAL_GPIO_ReadPin(GPIOC, GPIO_PIN_3) == 0)
 800169c:	f04f 0108 	mov.w	r1, #8
		motor_accel = 0.5;
 80016a0:	bf48      	it	mi
 80016a2:	6033      	strmi	r3, [r6, #0]
	output_voltage += motor_accel;
 80016a4:	edc4 7a00 	vstr	s15, [r4]
	if (HAL_GPIO_ReadPin(GPIOC, GPIO_PIN_3) == 0)
 80016a8:	f002 fcac 	bl	8004004 <HAL_GPIO_ReadPin>
 80016ac:	2800      	cmp	r0, #0
 80016ae:	f47f af52 	bne.w	8001556 <runMode+0x66>
		motor_accel = 0.1;
 80016b2:	4b1f      	ldr	r3, [pc, #124]	; (8001730 <runMode+0x240>)
		printf("start auto speed!!\n");
 80016b4:	481f      	ldr	r0, [pc, #124]	; (8001734 <runMode+0x244>)
		motor_accel = 0.1;
 80016b6:	6033      	str	r3, [r6, #0]
		printf("start auto speed!!\n");
 80016b8:	f006 faa2 	bl	8007c00 <puts>
 80016bc:	e74b      	b.n	8001556 <runMode+0x66>
 80016be:	bf00      	nop
 80016c0:	54442d18 	.word	0x54442d18
 80016c4:	401921fb 	.word	0x401921fb
 80016c8:	33333333 	.word	0x33333333
 80016cc:	40033333 	.word	0x40033333
 80016d0:	9999999a 	.word	0x9999999a
 80016d4:	40059999 	.word	0x40059999
 80016d8:	200003d0 	.word	0x200003d0
 80016dc:	48000800 	.word	0x48000800
 80016e0:	200003d4 	.word	0x200003d4
 80016e4:	200003cc 	.word	0x200003cc
 80016e8:	200003f0 	.word	0x200003f0
 80016ec:	200003b4 	.word	0x200003b4
 80016f0:	3ca280a2 	.word	0x3ca280a2
 80016f4:	200003c8 	.word	0x200003c8
 80016f8:	200003c4 	.word	0x200003c4
 80016fc:	200003bc 	.word	0x200003bc
 8001700:	20000200 	.word	0x20000200
 8001704:	08009d94 	.word	0x08009d94
 8001708:	20000250 	.word	0x20000250
 800170c:	200002a0 	.word	0x200002a0
 8001710:	08009da0 	.word	0x08009da0
 8001714:	20000384 	.word	0x20000384
 8001718:	08009db4 	.word	0x08009db4
 800171c:	200003ac 	.word	0x200003ac
 8001720:	200003b0 	.word	0x200003b0
 8001724:	ffffec78 	.word	0xffffec78
 8001728:	200003c0 	.word	0x200003c0
 800172c:	00000000 	.word	0x00000000
 8001730:	3dcccccd 	.word	0x3dcccccd
 8001734:	08009d80 	.word	0x08009d80

08001738 <SystemClock_Config>:
{
 8001738:	b510      	push	{r4, lr}
 800173a:	b0a0      	sub	sp, #128	; 0x80
  RCC_OscInitTypeDef RCC_OscInitStruct = {0};
 800173c:	2100      	movs	r1, #0
  RCC_PeriphCLKInitTypeDef PeriphClkInit = {0};
 800173e:	223c      	movs	r2, #60	; 0x3c
 8001740:	a810      	add	r0, sp, #64	; 0x40
  RCC_OscInitTypeDef RCC_OscInitStruct = {0};
 8001742:	e9cd 110b 	strd	r1, r1, [sp, #44]	; 0x2c
  RCC_ClkInitTypeDef RCC_ClkInitStruct = {0};
 8001746:	e9cd 1101 	strd	r1, r1, [sp, #4]
 800174a:	e9cd 1103 	strd	r1, r1, [sp, #12]
  RCC_OscInitTypeDef RCC_OscInitStruct = {0};
 800174e:	9108      	str	r1, [sp, #32]
  RCC_ClkInitTypeDef RCC_ClkInitStruct = {0};
 8001750:	9100      	str	r1, [sp, #0]
  RCC_OscInitTypeDef RCC_OscInitStruct = {0};
 8001752:	9109      	str	r1, [sp, #36]	; 0x24
  RCC_PeriphCLKInitTypeDef PeriphClkInit = {0};
 8001754:	f005 fd5c 	bl	8007210 <memset>
  RCC_OscInitStruct.OscillatorType = RCC_OSCILLATORTYPE_HSE;
 8001758:	2201      	movs	r2, #1
 800175a:	f44f 3380 	mov.w	r3, #65536	; 0x10000
 800175e:	e9cd 2306 	strd	r2, r3, [sp, #24]
  RCC_OscInitStruct.PLL.PLLState = RCC_PLL_ON;
 8001762:	2402      	movs	r4, #2
  RCC_OscInitStruct.HSIState = RCC_HSI_ON;
 8001764:	2101      	movs	r1, #1
  RCC_OscInitStruct.PLL.PLLSource = RCC_PLLSOURCE_HSE;
 8001766:	f44f 3280 	mov.w	r2, #65536	; 0x10000
  RCC_OscInitStruct.PLL.PLLMUL = RCC_PLL_MUL9;
 800176a:	f44f 13e0 	mov.w	r3, #1835008	; 0x1c0000
  if (HAL_RCC_OscConfig(&RCC_OscInitStruct) != HAL_OK)
 800176e:	a806      	add	r0, sp, #24
  RCC_OscInitStruct.PLL.PLLSource = RCC_PLLSOURCE_HSE;
 8001770:	e9cd 420d 	strd	r4, r2, [sp, #52]	; 0x34
  RCC_OscInitStruct.HSIState = RCC_HSI_ON;
 8001774:	910a      	str	r1, [sp, #40]	; 0x28
  RCC_OscInitStruct.PLL.PLLMUL = RCC_PLL_MUL9;
 8001776:	930f      	str	r3, [sp, #60]	; 0x3c
  if (HAL_RCC_OscConfig(&RCC_OscInitStruct) != HAL_OK)
 8001778:	f002 fc50 	bl	800401c <HAL_RCC_OscConfig>
 800177c:	b108      	cbz	r0, 8001782 <SystemClock_Config+0x4a>
 800177e:	b672      	cpsid	i
	while (1)
 8001780:	e7fe      	b.n	8001780 <SystemClock_Config+0x48>
  RCC_ClkInitStruct.ClockType = RCC_CLOCKTYPE_HCLK|RCC_CLOCKTYPE_SYSCLK
 8001782:	220f      	movs	r2, #15
 8001784:	2302      	movs	r3, #2
 8001786:	e9cd 2300 	strd	r2, r3, [sp]
  RCC_ClkInitStruct.APB2CLKDivider = RCC_HCLK_DIV1;
 800178a:	9004      	str	r0, [sp, #16]
  RCC_ClkInitStruct.ClockType = RCC_CLOCKTYPE_HCLK|RCC_CLOCKTYPE_SYSCLK
 800178c:	f44f 6380 	mov.w	r3, #1024	; 0x400
 8001790:	2200      	movs	r2, #0
  if (HAL_RCC_ClockConfig(&RCC_ClkInitStruct, FLASH_LATENCY_2) != HAL_OK)
 8001792:	4621      	mov	r1, r4
 8001794:	4668      	mov	r0, sp
  RCC_ClkInitStruct.ClockType = RCC_CLOCKTYPE_HCLK|RCC_CLOCKTYPE_SYSCLK
 8001796:	e9cd 2302 	strd	r2, r3, [sp, #8]
  if (HAL_RCC_ClockConfig(&RCC_ClkInitStruct, FLASH_LATENCY_2) != HAL_OK)
 800179a:	f002 ff27 	bl	80045ec <HAL_RCC_ClockConfig>
 800179e:	4603      	mov	r3, r0
 80017a0:	b108      	cbz	r0, 80017a6 <SystemClock_Config+0x6e>
 80017a2:	b672      	cpsid	i
	while (1)
 80017a4:	e7fe      	b.n	80017a4 <SystemClock_Config+0x6c>
  PeriphClkInit.Tim1ClockSelection = RCC_TIM1CLK_HCLK;
 80017a6:	ed9f 7b0a 	vldr	d7, [pc, #40]	; 80017d0 <SystemClock_Config+0x98>
  PeriphClkInit.PeriphClockSelection = RCC_PERIPHCLK_USART1|RCC_PERIPHCLK_TIM1
 80017aa:	f243 1101 	movw	r1, #12545	; 0x3101
  PeriphClkInit.Adc34ClockSelection = RCC_ADC34PLLCLK_DIV1;
 80017ae:	f44f 5200 	mov.w	r2, #8192	; 0x2000
  if (HAL_RCCEx_PeriphCLKConfig(&PeriphClkInit) != HAL_OK)
 80017b2:	a810      	add	r0, sp, #64	; 0x40
  PeriphClkInit.Tim1ClockSelection = RCC_TIM1CLK_HCLK;
 80017b4:	ed8d 7b1c 	vstr	d7, [sp, #112]	; 0x70
  PeriphClkInit.PeriphClockSelection = RCC_PERIPHCLK_USART1|RCC_PERIPHCLK_TIM1
 80017b8:	9110      	str	r1, [sp, #64]	; 0x40
  PeriphClkInit.Usart1ClockSelection = RCC_USART1CLKSOURCE_PCLK2;
 80017ba:	9312      	str	r3, [sp, #72]	; 0x48
  PeriphClkInit.Adc34ClockSelection = RCC_ADC34PLLCLK_DIV1;
 80017bc:	921a      	str	r2, [sp, #104]	; 0x68
  if (HAL_RCCEx_PeriphCLKConfig(&PeriphClkInit) != HAL_OK)
 80017be:	f003 f86f 	bl	80048a0 <HAL_RCCEx_PeriphCLKConfig>
 80017c2:	b108      	cbz	r0, 80017c8 <SystemClock_Config+0x90>
 80017c4:	b672      	cpsid	i
	while (1)
 80017c6:	e7fe      	b.n	80017c6 <SystemClock_Config+0x8e>
}
 80017c8:	b020      	add	sp, #128	; 0x80
 80017ca:	bd10      	pop	{r4, pc}
 80017cc:	f3af 8000 	nop.w
	...

080017d8 <main>:
{
 80017d8:	e92d 4880 	stmdb	sp!, {r7, fp, lr}
 80017dc:	b085      	sub	sp, #20
  HAL_Init();
 80017de:	f000 ff29 	bl	8002634 <HAL_Init>
  SystemClock_Config();
 80017e2:	f7ff ffa9 	bl	8001738 <SystemClock_Config>
  MX_GPIO_Init();
 80017e6:	f7ff fd43 	bl	8001270 <MX_GPIO_Init>
  MX_DMA_Init();
 80017ea:	f7ff fd27 	bl	800123c <MX_DMA_Init>
  MX_ADC1_Init();
 80017ee:	f7ff fa4b 	bl	8000c88 <MX_ADC1_Init>
  MX_ADC2_Init();
 80017f2:	f7ff fae9 	bl	8000dc8 <MX_ADC2_Init>
  MX_ADC3_Init();
 80017f6:	f7ff fb4b 	bl	8000e90 <MX_ADC3_Init>
  MX_CAN_Init();
 80017fa:	f7ff fc7b 	bl	80010f4 <MX_CAN_Init>
  MX_SPI1_Init();
 80017fe:	f000 f9cf 	bl	8001ba0 <MX_SPI1_Init>
  MX_TIM1_Init();
 8001802:	f000 fc45 	bl	8002090 <MX_TIM1_Init>
  MX_TIM8_Init();
 8001806:	f000 fcd3 	bl	80021b0 <MX_TIM8_Init>
  MX_USART1_UART_Init();
 800180a:	f000 fe6b 	bl	80024e4 <MX_USART1_UART_Init>
  initFirstSin();
 800180e:	f000 fd6b 	bl	80022e8 <initFirstSin>
  HAL_GPIO_WritePin(GPIOC, GPIO_PIN_13, GPIO_PIN_SET);
 8001812:	48b1      	ldr	r0, [pc, #708]	; (8001ad8 <main+0x300>)
 8001814:	4db1      	ldr	r5, [pc, #708]	; (8001adc <main+0x304>)
 8001816:	f8df 82f4 	ldr.w	r8, [pc, #756]	; 8001b0c <main+0x334>
 800181a:	4fb1      	ldr	r7, [pc, #708]	; (8001ae0 <main+0x308>)
 800181c:	4eb1      	ldr	r6, [pc, #708]	; (8001ae4 <main+0x30c>)
	float spd_rps = (float)diff_cnt / 65535 * 26 * 50;
 800181e:	ed9f 9ab2 	vldr	s18, [pc, #712]	; 8001ae8 <main+0x310>
		offset_radian = 0;
 8001822:	eddf 8ab2 	vldr	s17, [pc, #712]	; 8001aec <main+0x314>
 8001826:	f8df b31c 	ldr.w	fp, [pc, #796]	; 8001b44 <main+0x36c>
	printf("offset %+10.5f, spd %+10.5f\n", offset_radian, spd_rps);
 800182a:	f8df 931c 	ldr.w	r9, [pc, #796]	; 8001b48 <main+0x370>
  HAL_GPIO_WritePin(GPIOC, GPIO_PIN_13, GPIO_PIN_SET);
 800182e:	2201      	movs	r2, #1
 8001830:	f44f 5100 	mov.w	r1, #8192	; 0x2000
 8001834:	f002 fbec 	bl	8004010 <HAL_GPIO_WritePin>
  HAL_GPIO_WritePin(GPIOC, GPIO_PIN_14, GPIO_PIN_SET);
 8001838:	48a7      	ldr	r0, [pc, #668]	; (8001ad8 <main+0x300>)
 800183a:	2201      	movs	r2, #1
 800183c:	f44f 4180 	mov.w	r1, #16384	; 0x4000
 8001840:	f002 fbe6 	bl	8004010 <HAL_GPIO_WritePin>
  HAL_GPIO_WritePin(GPIOC, GPIO_PIN_15, GPIO_PIN_SET);
 8001844:	2201      	movs	r2, #1
 8001846:	f44f 4100 	mov.w	r1, #32768	; 0x8000
 800184a:	48a3      	ldr	r0, [pc, #652]	; (8001ad8 <main+0x300>)
 800184c:	f002 fbe0 	bl	8004010 <HAL_GPIO_WritePin>
  HAL_Delay(500);
 8001850:	f44f 70fa 	mov.w	r0, #500	; 0x1f4
 8001854:	f000 ff12 	bl	800267c <HAL_Delay>
  HAL_GPIO_WritePin(GPIOC, GPIO_PIN_13, GPIO_PIN_RESET);
 8001858:	489f      	ldr	r0, [pc, #636]	; (8001ad8 <main+0x300>)
 800185a:	2200      	movs	r2, #0
 800185c:	f44f 5100 	mov.w	r1, #8192	; 0x2000
 8001860:	f002 fbd6 	bl	8004010 <HAL_GPIO_WritePin>
  HAL_GPIO_WritePin(GPIOC, GPIO_PIN_14, GPIO_PIN_RESET);
 8001864:	489c      	ldr	r0, [pc, #624]	; (8001ad8 <main+0x300>)
 8001866:	2200      	movs	r2, #0
 8001868:	f44f 4180 	mov.w	r1, #16384	; 0x4000
 800186c:	f002 fbd0 	bl	8004010 <HAL_GPIO_WritePin>
  HAL_GPIO_WritePin(GPIOC, GPIO_PIN_15, GPIO_PIN_RESET);
 8001870:	2200      	movs	r2, #0
 8001872:	f44f 4100 	mov.w	r1, #32768	; 0x8000
 8001876:	4898      	ldr	r0, [pc, #608]	; (8001ad8 <main+0x300>)
 8001878:	f002 fbca 	bl	8004010 <HAL_GPIO_WritePin>
  printf("Orion VV driver V1 start! \n");
 800187c:	489c      	ldr	r0, [pc, #624]	; (8001af0 <main+0x318>)
 800187e:	f006 f9bf 	bl	8007c00 <puts>
	enc_raw = hspi1.Instance->DR;
 8001882:	4b9c      	ldr	r3, [pc, #624]	; (8001af4 <main+0x31c>)
 8001884:	499c      	ldr	r1, [pc, #624]	; (8001af8 <main+0x320>)
 8001886:	681b      	ldr	r3, [r3, #0]
 8001888:	68d8      	ldr	r0, [r3, #12]
	__HAL_SPI_ENABLE(&hspi1);
 800188a:	681c      	ldr	r4, [r3, #0]
	enc_raw = hspi1.Instance->DR;
 800188c:	8008      	strh	r0, [r1, #0]
	__HAL_SPI_ENABLE(&hspi1);
 800188e:	f044 0440 	orr.w	r4, r4, #64	; 0x40
 8001892:	601c      	str	r4, [r3, #0]
	HAL_GPIO_WritePin(GPIOB, GPIO_PIN_7, GPIO_PIN_SET);
 8001894:	2201      	movs	r2, #1
 8001896:	2180      	movs	r1, #128	; 0x80
 8001898:	4898      	ldr	r0, [pc, #608]	; (8001afc <main+0x324>)
 800189a:	4c99      	ldr	r4, [pc, #612]	; (8001b00 <main+0x328>)
 800189c:	f002 fbb8 	bl	8004010 <HAL_GPIO_WritePin>
	HAL_TIM_PWM_Init(&htim8);
 80018a0:	4898      	ldr	r0, [pc, #608]	; (8001b04 <main+0x32c>)
 80018a2:	f003 fa5f 	bl	8004d64 <HAL_TIM_PWM_Init>
	HAL_TIM_PWM_Start(&htim8, TIM_CHANNEL_1);
 80018a6:	2100      	movs	r1, #0
 80018a8:	4896      	ldr	r0, [pc, #600]	; (8001b04 <main+0x32c>)
 80018aa:	f003 fae3 	bl	8004e74 <HAL_TIM_PWM_Start>
	HAL_TIMEx_PWMN_Start(&htim8, TIM_CHANNEL_1);
 80018ae:	2100      	movs	r1, #0
 80018b0:	4894      	ldr	r0, [pc, #592]	; (8001b04 <main+0x32c>)
 80018b2:	f003 fda5 	bl	8005400 <HAL_TIMEx_PWMN_Start>
	HAL_TIM_PWM_Start(&htim8, TIM_CHANNEL_2);
 80018b6:	2104      	movs	r1, #4
 80018b8:	4892      	ldr	r0, [pc, #584]	; (8001b04 <main+0x32c>)
 80018ba:	f003 fadb 	bl	8004e74 <HAL_TIM_PWM_Start>
	HAL_TIMEx_PWMN_Start(&htim8, TIM_CHANNEL_2);
 80018be:	2104      	movs	r1, #4
 80018c0:	4890      	ldr	r0, [pc, #576]	; (8001b04 <main+0x32c>)
 80018c2:	f003 fd9d 	bl	8005400 <HAL_TIMEx_PWMN_Start>
	HAL_TIM_PWM_Start(&htim8, TIM_CHANNEL_3);
 80018c6:	2108      	movs	r1, #8
 80018c8:	488e      	ldr	r0, [pc, #568]	; (8001b04 <main+0x32c>)
 80018ca:	f003 fad3 	bl	8004e74 <HAL_TIM_PWM_Start>
	HAL_TIMEx_PWMN_Start(&htim8, TIM_CHANNEL_3);
 80018ce:	2108      	movs	r1, #8
 80018d0:	488c      	ldr	r0, [pc, #560]	; (8001b04 <main+0x32c>)
 80018d2:	f003 fd95 	bl	8005400 <HAL_TIMEx_PWMN_Start>
	HAL_TIM_PWM_Start(&htim1, TIM_CHANNEL_1);
 80018d6:	2100      	movs	r1, #0
 80018d8:	488b      	ldr	r0, [pc, #556]	; (8001b08 <main+0x330>)
 80018da:	f003 facb 	bl	8004e74 <HAL_TIM_PWM_Start>
	HAL_TIMEx_PWMN_Start(&htim1, TIM_CHANNEL_1);
 80018de:	2100      	movs	r1, #0
 80018e0:	4889      	ldr	r0, [pc, #548]	; (8001b08 <main+0x330>)
 80018e2:	f003 fd8d 	bl	8005400 <HAL_TIMEx_PWMN_Start>
	HAL_TIM_PWM_Start(&htim1, TIM_CHANNEL_2);
 80018e6:	2104      	movs	r1, #4
 80018e8:	4887      	ldr	r0, [pc, #540]	; (8001b08 <main+0x330>)
 80018ea:	f003 fac3 	bl	8004e74 <HAL_TIM_PWM_Start>
	HAL_TIMEx_PWMN_Start(&htim1, TIM_CHANNEL_2);
 80018ee:	2104      	movs	r1, #4
 80018f0:	4885      	ldr	r0, [pc, #532]	; (8001b08 <main+0x330>)
 80018f2:	f003 fd85 	bl	8005400 <HAL_TIMEx_PWMN_Start>
	HAL_TIM_PWM_Start(&htim1, TIM_CHANNEL_3);
 80018f6:	2108      	movs	r1, #8
 80018f8:	4883      	ldr	r0, [pc, #524]	; (8001b08 <main+0x330>)
 80018fa:	f003 fabb 	bl	8004e74 <HAL_TIM_PWM_Start>
	HAL_TIMEx_PWMN_Start(&htim1, TIM_CHANNEL_3);
 80018fe:	2108      	movs	r1, #8
 8001900:	4881      	ldr	r0, [pc, #516]	; (8001b08 <main+0x330>)
 8001902:	f003 fd7d 	bl	8005400 <HAL_TIMEx_PWMN_Start>
	HAL_TIM_Base_Start_IT(&htim1);
 8001906:	4880      	ldr	r0, [pc, #512]	; (8001b08 <main+0x330>)
 8001908:	f003 f9da 	bl	8004cc0 <HAL_TIM_Base_Start_IT>
	HAL_TIM_Base_Start_IT(&htim8);
 800190c:	487d      	ldr	r0, [pc, #500]	; (8001b04 <main+0x32c>)
 800190e:	f003 f9d7 	bl	8004cc0 <HAL_TIM_Base_Start_IT>
	HAL_UART_Receive_IT(&huart1, uart_rx_buf, 1);
 8001912:	497e      	ldr	r1, [pc, #504]	; (8001b0c <main+0x334>)
 8001914:	487e      	ldr	r0, [pc, #504]	; (8001b10 <main+0x338>)
 8001916:	2201      	movs	r2, #1
 8001918:	f003 fe68 	bl	80055ec <HAL_UART_Receive_IT>
	  HAL_ADC_Start(&hadc1);
 800191c:	487d      	ldr	r0, [pc, #500]	; (8001b14 <main+0x33c>)
 800191e:	f001 f877 	bl	8002a10 <HAL_ADC_Start>
	  HAL_ADC_Start(&hadc2);
 8001922:	487d      	ldr	r0, [pc, #500]	; (8001b18 <main+0x340>)
 8001924:	f001 f874 	bl	8002a10 <HAL_ADC_Start>
	  HAL_ADC_Start(&hadc3);
 8001928:	487c      	ldr	r0, [pc, #496]	; (8001b1c <main+0x344>)
 800192a:	f001 f871 	bl	8002a10 <HAL_ADC_Start>
	CAN_Filter_Init(0);
 800192e:	2000      	movs	r0, #0
 8001930:	f7ff fc52 	bl	80011d8 <CAN_Filter_Init>
	HAL_CAN_Start(&hcan);
 8001934:	487a      	ldr	r0, [pc, #488]	; (8001b20 <main+0x348>)
 8001936:	f001 febd 	bl	80036b4 <HAL_CAN_Start>
		if (uart_rx_flag)
 800193a:	782b      	ldrb	r3, [r5, #0]
 800193c:	b353      	cbz	r3, 8001994 <main+0x1bc>
			HAL_UART_Receive_IT(&huart1, uart_rx_buf, 1);
 800193e:	4973      	ldr	r1, [pc, #460]	; (8001b0c <main+0x334>)
 8001940:	4873      	ldr	r0, [pc, #460]	; (8001b10 <main+0x338>)
			uart_rx_flag = false;
 8001942:	f04f 0a00 	mov.w	sl, #0
			HAL_UART_Receive_IT(&huart1, uart_rx_buf, 1);
 8001946:	2201      	movs	r2, #1
			uart_rx_flag = false;
 8001948:	f885 a000 	strb.w	sl, [r5]
			HAL_UART_Receive_IT(&huart1, uart_rx_buf, 1);
 800194c:	f003 fe4e 	bl	80055ec <HAL_UART_Receive_IT>
			switch (uart_rx_buf[0])
 8001950:	f898 3000 	ldrb.w	r3, [r8]
 8001954:	2b30      	cmp	r3, #48	; 0x30
 8001956:	f000 80f9 	beq.w	8001b4c <main+0x374>
 800195a:	3b61      	subs	r3, #97	; 0x61
 800195c:	b2da      	uxtb	r2, r3
 800195e:	2a16      	cmp	r2, #22
 8001960:	d818      	bhi.n	8001994 <main+0x1bc>
 8001962:	2b16      	cmp	r3, #22
 8001964:	d816      	bhi.n	8001994 <main+0x1bc>
 8001966:	e8df f003 	tbb	[pc, r3]
 800196a:	158b      	.short	0x158b
 800196c:	1515154e 	.word	0x1515154e
 8001970:	15151515 	.word	0x15151515
 8001974:	15154415 	.word	0x15154415
 8001978:	1599a715 	.word	0x1599a715
 800197c:	1515150c 	.word	0x1515150c
 8001980:	30          	.byte	0x30
 8001981:	00          	.byte	0x00
				output_voltage -= 0.5;
 8001982:	4b68      	ldr	r3, [pc, #416]	; (8001b24 <main+0x34c>)
 8001984:	edd3 7a00 	vldr	s15, [r3]
 8001988:	eeb6 7a00 	vmov.f32	s14, #96	; 0x3f000000  0.5
 800198c:	ee77 7ac7 	vsub.f32	s15, s15, s14
 8001990:	edc3 7a00 	vstr	s15, [r3]
		if (calibration_mode)
 8001994:	f897 a000 	ldrb.w	sl, [r7]
 8001998:	f1ba 0f00 	cmp.w	sl, #0
 800199c:	d123      	bne.n	80019e6 <main+0x20e>
			runMode();
 800199e:	f7ff fda7 	bl	80014f0 <runMode>
			HAL_Delay(1);
 80019a2:	2001      	movs	r0, #1
 80019a4:	f000 fe6a 	bl	800267c <HAL_Delay>
			can_data[0] = 0;
 80019a8:	4a5f      	ldr	r2, [pc, #380]	; (8001b28 <main+0x350>)
 80019aa:	4b60      	ldr	r3, [pc, #384]	; (8001b2c <main+0x354>)
 80019ac:	6013      	str	r3, [r2, #0]
			can_header.RTR = CAN_RTR_DATA;
 80019ae:	2308      	movs	r3, #8
 80019b0:	6123      	str	r3, [r4, #16]
			HAL_CAN_AddTxMessage(&hcan,&can_header,can_data,&can_mailbox);
 80019b2:	4953      	ldr	r1, [pc, #332]	; (8001b00 <main+0x328>)
 80019b4:	4b5e      	ldr	r3, [pc, #376]	; (8001b30 <main+0x358>)
			can_header.RTR = CAN_RTR_DATA;
 80019b6:	f8c4 a00c 	str.w	sl, [r4, #12]
			HAL_CAN_AddTxMessage(&hcan,&can_header,can_data,&can_mailbox);
 80019ba:	4859      	ldr	r0, [pc, #356]	; (8001b20 <main+0x348>)
			can_header.StdId = 0x00;
 80019bc:	f8c4 a000 	str.w	sl, [r4]
			can_header.TransmitGlobalTime = DISABLE;
 80019c0:	f884 a014 	strb.w	sl, [r4, #20]
			HAL_CAN_AddTxMessage(&hcan,&can_header,can_data,&can_mailbox);
 80019c4:	f001 fea8 	bl	8003718 <HAL_CAN_AddTxMessage>
 80019c8:	e7b7      	b.n	800193a <main+0x162>
				output_voltage += 0.5;
 80019ca:	4b56      	ldr	r3, [pc, #344]	; (8001b24 <main+0x34c>)
		if (calibration_mode)
 80019cc:	f897 a000 	ldrb.w	sl, [r7]
				output_voltage += 0.5;
 80019d0:	edd3 7a00 	vldr	s15, [r3]
 80019d4:	eeb6 7a00 	vmov.f32	s14, #96	; 0x3f000000  0.5
 80019d8:	ee77 7a87 	vadd.f32	s15, s15, s14
 80019dc:	edc3 7a00 	vstr	s15, [r3]
		if (calibration_mode)
 80019e0:	f1ba 0f00 	cmp.w	sl, #0
 80019e4:	d0db      	beq.n	800199e <main+0x1c6>
	printf("offset %+10.5f, spd %+10.5f\n", offset_radian, spd_rps);
 80019e6:	6830      	ldr	r0, [r6, #0]
 80019e8:	f7fe fdae 	bl	8000548 <__aeabi_f2d>
 80019ec:	4602      	mov	r2, r0
 80019ee:	460b      	mov	r3, r1
 80019f0:	e016      	b.n	8001a20 <main+0x248>
				motor_accel = 0;
 80019f2:	4b50      	ldr	r3, [pc, #320]	; (8001b34 <main+0x35c>)
				printf("stop auto speed!!\n");
 80019f4:	4850      	ldr	r0, [pc, #320]	; (8001b38 <main+0x360>)
				motor_accel = 0;
 80019f6:	edc3 8a00 	vstr	s17, [r3]
				output_voltage = 0;
 80019fa:	4b4a      	ldr	r3, [pc, #296]	; (8001b24 <main+0x34c>)
 80019fc:	edc3 8a00 	vstr	s17, [r3]
				printf("stop auto speed!!\n");
 8001a00:	f006 f8fe 	bl	8007c00 <puts>
				break;
 8001a04:	e7c6      	b.n	8001994 <main+0x1bc>
				user_offet_radian = 0;
 8001a06:	4b4d      	ldr	r3, [pc, #308]	; (8001b3c <main+0x364>)
				output_voltage = 2.0;
 8001a08:	4a46      	ldr	r2, [pc, #280]	; (8001b24 <main+0x34c>)
				user_offet_radian = 0;
 8001a0a:	edc3 8a00 	vstr	s17, [r3]
				calibration_mode = true;
 8001a0e:	2301      	movs	r3, #1
 8001a10:	703b      	strb	r3, [r7, #0]
				output_voltage = 2.0;
 8001a12:	f04f 4380 	mov.w	r3, #1073741824	; 0x40000000
 8001a16:	6013      	str	r3, [r2, #0]
				offset_radian = 0;
 8001a18:	edc6 8a00 	vstr	s17, [r6]
				output_voltage = 2.0;
 8001a1c:	2200      	movs	r2, #0
 8001a1e:	2300      	movs	r3, #0
	float spd_rps = (float)diff_cnt / 65535 * 26 * 50;
 8001a20:	eddb 7a00 	vldr	s15, [fp]
 8001a24:	eef8 7ae7 	vcvt.f32.s32	s15, s15
 8001a28:	e9cd 2302 	strd	r2, r3, [sp, #8]
	printf("offset %+10.5f, spd %+10.5f\n", offset_radian, spd_rps);
 8001a2c:	ee67 7a89 	vmul.f32	s15, s15, s18
 8001a30:	ee17 0a90 	vmov	r0, s15
 8001a34:	f7fe fd88 	bl	8000548 <__aeabi_f2d>
 8001a38:	e9dd 2302 	ldrd	r2, r3, [sp, #8]
 8001a3c:	e9cd 0100 	strd	r0, r1, [sp]
 8001a40:	4648      	mov	r0, r9
 8001a42:	f006 f857 	bl	8007af4 <iprintf>
	offset_radian += 0.05;
 8001a46:	6830      	ldr	r0, [r6, #0]
 8001a48:	f7fe fd7e 	bl	8000548 <__aeabi_f2d>
 8001a4c:	a31e      	add	r3, pc, #120	; (adr r3, 8001ac8 <main+0x2f0>)
 8001a4e:	e9d3 2300 	ldrd	r2, r3, [r3]
 8001a52:	f7fe fc1b 	bl	800028c <__adddf3>
 8001a56:	f7ff f8c7 	bl	8000be8 <__aeabi_d2f>
 8001a5a:	ee08 0a10 	vmov	s16, r0
	if (offset_radian > M_PI * 2)
 8001a5e:	f7fe fd73 	bl	8000548 <__aeabi_f2d>
 8001a62:	a31b      	add	r3, pc, #108	; (adr r3, 8001ad0 <main+0x2f8>)
 8001a64:	e9d3 2300 	ldrd	r2, r3, [r3]
 8001a68:	f7ff f856 	bl	8000b18 <__aeabi_dcmpgt>
	offset_radian += 0.05;
 8001a6c:	2800      	cmp	r0, #0
 8001a6e:	bf18      	it	ne
 8001a70:	eeb0 8a68 	vmovne.f32	s16, s17
			HAL_Delay(100);
 8001a74:	2064      	movs	r0, #100	; 0x64
	offset_radian += 0.05;
 8001a76:	ed86 8a00 	vstr	s16, [r6]
			HAL_Delay(100);
 8001a7a:	f000 fdff 	bl	800267c <HAL_Delay>
 8001a7e:	e75c      	b.n	800193a <main+0x162>
				user_offet_radian -= 0.05;
 8001a80:	4b2e      	ldr	r3, [pc, #184]	; (8001b3c <main+0x364>)
 8001a82:	6818      	ldr	r0, [r3, #0]
 8001a84:	f7fe fd60 	bl	8000548 <__aeabi_f2d>
 8001a88:	a30f      	add	r3, pc, #60	; (adr r3, 8001ac8 <main+0x2f0>)
 8001a8a:	e9d3 2300 	ldrd	r2, r3, [r3]
 8001a8e:	f7fe fbfb 	bl	8000288 <__aeabi_dsub>
 8001a92:	f7ff f8a9 	bl	8000be8 <__aeabi_d2f>
 8001a96:	4b29      	ldr	r3, [pc, #164]	; (8001b3c <main+0x364>)
 8001a98:	6018      	str	r0, [r3, #0]
				break;
 8001a9a:	e77b      	b.n	8001994 <main+0x1bc>
				user_offet_radian += 0.05;
 8001a9c:	4b27      	ldr	r3, [pc, #156]	; (8001b3c <main+0x364>)
 8001a9e:	6818      	ldr	r0, [r3, #0]
 8001aa0:	f7fe fd52 	bl	8000548 <__aeabi_f2d>
 8001aa4:	a308      	add	r3, pc, #32	; (adr r3, 8001ac8 <main+0x2f0>)
 8001aa6:	e9d3 2300 	ldrd	r2, r3, [r3]
 8001aaa:	f7fe fbef 	bl	800028c <__adddf3>
 8001aae:	f7ff f89b 	bl	8000be8 <__aeabi_d2f>
 8001ab2:	4b22      	ldr	r3, [pc, #136]	; (8001b3c <main+0x364>)
 8001ab4:	6018      	str	r0, [r3, #0]
				break;
 8001ab6:	e76d      	b.n	8001994 <main+0x1bc>
				motor_accel = 0.5;
 8001ab8:	4a1e      	ldr	r2, [pc, #120]	; (8001b34 <main+0x35c>)
				printf("start auto speed!!\n");
 8001aba:	4821      	ldr	r0, [pc, #132]	; (8001b40 <main+0x368>)
				motor_accel = 0.5;
 8001abc:	f04f 537c 	mov.w	r3, #1056964608	; 0x3f000000
 8001ac0:	6013      	str	r3, [r2, #0]
				printf("start auto speed!!\n");
 8001ac2:	f006 f89d 	bl	8007c00 <puts>
				break;
 8001ac6:	e765      	b.n	8001994 <main+0x1bc>
 8001ac8:	9999999a 	.word	0x9999999a
 8001acc:	3fa99999 	.word	0x3fa99999
 8001ad0:	54442d18 	.word	0x54442d18
 8001ad4:	401921fb 	.word	0x401921fb
 8001ad8:	48000800 	.word	0x48000800
 8001adc:	200003ee 	.word	0x200003ee
 8001ae0:	2000035c 	.word	0x2000035c
 8001ae4:	200003d0 	.word	0x200003d0
 8001ae8:	3ca280a2 	.word	0x3ca280a2
 8001aec:	00000000 	.word	0x00000000
 8001af0:	08009e08 	.word	0x08009e08
 8001af4:	200003f4 	.word	0x200003f4
 8001af8:	200003b8 	.word	0x200003b8
 8001afc:	48000400 	.word	0x48000400
 8001b00:	20000368 	.word	0x20000368
 8001b04:	200004c0 	.word	0x200004c0
 8001b08:	20000474 	.word	0x20000474
 8001b0c:	200003e4 	.word	0x200003e4
 8001b10:	2000150c 	.word	0x2000150c
 8001b14:	20000200 	.word	0x20000200
 8001b18:	20000250 	.word	0x20000250
 8001b1c:	200002a0 	.word	0x200002a0
 8001b20:	20000334 	.word	0x20000334
 8001b24:	200003d4 	.word	0x200003d4
 8001b28:	20000360 	.word	0x20000360
 8001b2c:	01010000 	.word	0x01010000
 8001b30:	20000380 	.word	0x20000380
 8001b34:	200003cc 	.word	0x200003cc
 8001b38:	08009e24 	.word	0x08009e24
 8001b3c:	200003f0 	.word	0x200003f0
 8001b40:	08009d80 	.word	0x08009d80
 8001b44:	200003b4 	.word	0x200003b4
 8001b48:	08009de8 	.word	0x08009de8
				HAL_TIM_Base_Stop_IT(&htim1);
 8001b4c:	4c10      	ldr	r4, [pc, #64]	; (8001b90 <main+0x3b8>)
				HAL_TIM_Base_Stop_IT(&htim8);
 8001b4e:	4d11      	ldr	r5, [pc, #68]	; (8001b94 <main+0x3bc>)
				printf("enter sleep!\n");
 8001b50:	4811      	ldr	r0, [pc, #68]	; (8001b98 <main+0x3c0>)
 8001b52:	f006 f855 	bl	8007c00 <puts>
				HAL_TIM_Base_Stop_IT(&htim1);
 8001b56:	4620      	mov	r0, r4
 8001b58:	f003 f8ec 	bl	8004d34 <HAL_TIM_Base_Stop_IT>
				HAL_TIM_Base_Stop_IT(&htim8);
 8001b5c:	4628      	mov	r0, r5
 8001b5e:	f003 f8e9 	bl	8004d34 <HAL_TIM_Base_Stop_IT>
				htim8.Instance->CCR1 = 0;
 8001b62:	6829      	ldr	r1, [r5, #0]
				htim1.Instance->CCR1 = 0;
 8001b64:	6822      	ldr	r2, [r4, #0]
				htim8.Instance->CCR1 = 0;
 8001b66:	f8c1 a034 	str.w	sl, [r1, #52]	; 0x34
				htim8.Instance->CCR2 = 0;
 8001b6a:	f8c1 a038 	str.w	sl, [r1, #56]	; 0x38
				htim8.Instance->CCR3 = 0;
 8001b6e:	f8c1 a03c 	str.w	sl, [r1, #60]	; 0x3c
				htim1.Instance->CCR1 = 0;
 8001b72:	f8c2 a034 	str.w	sl, [r2, #52]	; 0x34
				htim1.Instance->CCR2 = 0;
 8001b76:	f8c2 a038 	str.w	sl, [r2, #56]	; 0x38
				htim1.Instance->CCR3 = 0;
 8001b7a:	f8c2 a03c 	str.w	sl, [r2, #60]	; 0x3c
				__HAL_TIM_MOE_DISABLE_UNCONDITIONALLY(&htim8);
 8001b7e:	6c4b      	ldr	r3, [r1, #68]	; 0x44
 8001b80:	f423 4300 	bic.w	r3, r3, #32768	; 0x8000
 8001b84:	644b      	str	r3, [r1, #68]	; 0x44
				__HAL_TIM_MOE_DISABLE_UNCONDITIONALLY(&htim1);
 8001b86:	6c53      	ldr	r3, [r2, #68]	; 0x44
 8001b88:	f423 4300 	bic.w	r3, r3, #32768	; 0x8000
 8001b8c:	6453      	str	r3, [r2, #68]	; 0x44
				while (1)
 8001b8e:	e7fe      	b.n	8001b8e <main+0x3b6>
 8001b90:	20000474 	.word	0x20000474
 8001b94:	200004c0 	.word	0x200004c0
 8001b98:	08009e38 	.word	0x08009e38

08001b9c <Error_Handler>:
 8001b9c:	b672      	cpsid	i
	while (1)
 8001b9e:	e7fe      	b.n	8001b9e <Error_Handler+0x2>

08001ba0 <MX_SPI1_Init>:

SPI_HandleTypeDef hspi1;

/* SPI1 init function */
void MX_SPI1_Init(void)
{
 8001ba0:	b510      	push	{r4, lr}
  /* USER CODE END SPI1_Init 0 */

  /* USER CODE BEGIN SPI1_Init 1 */

  /* USER CODE END SPI1_Init 1 */
  hspi1.Instance = SPI1;
 8001ba2:	4811      	ldr	r0, [pc, #68]	; (8001be8 <MX_SPI1_Init+0x48>)
 8001ba4:	4c11      	ldr	r4, [pc, #68]	; (8001bec <MX_SPI1_Init+0x4c>)
  hspi1.Init.Mode = SPI_MODE_MASTER;
 8001ba6:	f44f 7282 	mov.w	r2, #260	; 0x104
 8001baa:	e9c0 4200 	strd	r4, r2, [r0]
  hspi1.Init.Direction = SPI_DIRECTION_2LINES;
  hspi1.Init.DataSize = SPI_DATASIZE_16BIT;
  hspi1.Init.CLKPolarity = SPI_POLARITY_HIGH;
 8001bae:	2202      	movs	r2, #2
  hspi1.Init.Direction = SPI_DIRECTION_2LINES;
 8001bb0:	2300      	movs	r3, #0
  hspi1.Init.DataSize = SPI_DATASIZE_16BIT;
 8001bb2:	f44f 6170 	mov.w	r1, #3840	; 0xf00
  hspi1.Init.CLKPhase = SPI_PHASE_2EDGE;
 8001bb6:	2401      	movs	r4, #1
  hspi1.Init.CLKPolarity = SPI_POLARITY_HIGH;
 8001bb8:	6102      	str	r2, [r0, #16]
  hspi1.Init.NSS = SPI_NSS_SOFT;
 8001bba:	f44f 7200 	mov.w	r2, #512	; 0x200
  hspi1.Init.DataSize = SPI_DATASIZE_16BIT;
 8001bbe:	e9c0 3102 	strd	r3, r1, [r0, #8]
  hspi1.Init.NSS = SPI_NSS_SOFT;
 8001bc2:	e9c0 4205 	strd	r4, r2, [r0, #20]
  hspi1.Init.BaudRatePrescaler = SPI_BAUDRATEPRESCALER_8;
 8001bc6:	2110      	movs	r1, #16
  hspi1.Init.FirstBit = SPI_FIRSTBIT_MSB;
  hspi1.Init.TIMode = SPI_TIMODE_DISABLE;
  hspi1.Init.CRCCalculation = SPI_CRCCALCULATION_DISABLE;
  hspi1.Init.CRCPolynomial = 7;
 8001bc8:	2207      	movs	r2, #7
  hspi1.Init.FirstBit = SPI_FIRSTBIT_MSB;
 8001bca:	e9c0 1307 	strd	r1, r3, [r0, #28]
  hspi1.Init.CRCCalculation = SPI_CRCCALCULATION_DISABLE;
 8001bce:	e9c0 3309 	strd	r3, r3, [r0, #36]	; 0x24
  hspi1.Init.CRCLength = SPI_CRC_LENGTH_DATASIZE;
 8001bd2:	e9c0 230b 	strd	r2, r3, [r0, #44]	; 0x2c
  hspi1.Init.NSSPMode = SPI_NSS_PULSE_DISABLE;
 8001bd6:	6343      	str	r3, [r0, #52]	; 0x34
  if (HAL_SPI_Init(&hspi1) != HAL_OK)
 8001bd8:	f002 ff78 	bl	8004acc <HAL_SPI_Init>
 8001bdc:	b900      	cbnz	r0, 8001be0 <MX_SPI1_Init+0x40>
  }
  /* USER CODE BEGIN SPI1_Init 2 */

  /* USER CODE END SPI1_Init 2 */

}
 8001bde:	bd10      	pop	{r4, pc}
 8001be0:	e8bd 4010 	ldmia.w	sp!, {r4, lr}
    Error_Handler();
 8001be4:	f7ff bfda 	b.w	8001b9c <Error_Handler>
 8001be8:	200003f4 	.word	0x200003f4
 8001bec:	40013000 	.word	0x40013000

08001bf0 <HAL_SPI_MspInit>:

void HAL_SPI_MspInit(SPI_HandleTypeDef* spiHandle)
{
 8001bf0:	b510      	push	{r4, lr}

  GPIO_InitTypeDef GPIO_InitStruct = {0};
  if(spiHandle->Instance==SPI1)
 8001bf2:	4a1b      	ldr	r2, [pc, #108]	; (8001c60 <HAL_SPI_MspInit+0x70>)
 8001bf4:	6801      	ldr	r1, [r0, #0]
{
 8001bf6:	b088      	sub	sp, #32
  GPIO_InitTypeDef GPIO_InitStruct = {0};
 8001bf8:	2300      	movs	r3, #0
  if(spiHandle->Instance==SPI1)
 8001bfa:	4291      	cmp	r1, r2
  GPIO_InitTypeDef GPIO_InitStruct = {0};
 8001bfc:	e9cd 3302 	strd	r3, r3, [sp, #8]
 8001c00:	e9cd 3304 	strd	r3, r3, [sp, #16]
 8001c04:	9306      	str	r3, [sp, #24]
  if(spiHandle->Instance==SPI1)
 8001c06:	d001      	beq.n	8001c0c <HAL_SPI_MspInit+0x1c>

  /* USER CODE BEGIN SPI1_MspInit 1 */

  /* USER CODE END SPI1_MspInit 1 */
  }
}
 8001c08:	b008      	add	sp, #32
 8001c0a:	bd10      	pop	{r4, pc}
    __HAL_RCC_SPI1_CLK_ENABLE();
 8001c0c:	f103 4380 	add.w	r3, r3, #1073741824	; 0x40000000
 8001c10:	f503 3304 	add.w	r3, r3, #135168	; 0x21000
    GPIO_InitStruct.Pin = GPIO_PIN_3|GPIO_PIN_4|GPIO_PIN_5;
 8001c14:	ed9f 7b10 	vldr	d7, [pc, #64]	; 8001c58 <HAL_SPI_MspInit+0x68>
    __HAL_RCC_SPI1_CLK_ENABLE();
 8001c18:	699a      	ldr	r2, [r3, #24]
    HAL_GPIO_Init(GPIOB, &GPIO_InitStruct);
 8001c1a:	4812      	ldr	r0, [pc, #72]	; (8001c64 <HAL_SPI_MspInit+0x74>)
    __HAL_RCC_SPI1_CLK_ENABLE();
 8001c1c:	f442 5280 	orr.w	r2, r2, #4096	; 0x1000
 8001c20:	619a      	str	r2, [r3, #24]
 8001c22:	699a      	ldr	r2, [r3, #24]
 8001c24:	f402 5280 	and.w	r2, r2, #4096	; 0x1000
 8001c28:	9200      	str	r2, [sp, #0]
 8001c2a:	9a00      	ldr	r2, [sp, #0]
    __HAL_RCC_GPIOB_CLK_ENABLE();
 8001c2c:	695a      	ldr	r2, [r3, #20]
 8001c2e:	f442 2280 	orr.w	r2, r2, #262144	; 0x40000
 8001c32:	615a      	str	r2, [r3, #20]
 8001c34:	695b      	ldr	r3, [r3, #20]
 8001c36:	f403 2380 	and.w	r3, r3, #262144	; 0x40000
 8001c3a:	9301      	str	r3, [sp, #4]
    GPIO_InitStruct.Speed = GPIO_SPEED_FREQ_HIGH;
 8001c3c:	2203      	movs	r2, #3
    GPIO_InitStruct.Alternate = GPIO_AF5_SPI1;
 8001c3e:	2305      	movs	r3, #5
    HAL_GPIO_Init(GPIOB, &GPIO_InitStruct);
 8001c40:	a902      	add	r1, sp, #8
    GPIO_InitStruct.Pin = GPIO_PIN_3|GPIO_PIN_4|GPIO_PIN_5;
 8001c42:	ed8d 7b02 	vstr	d7, [sp, #8]
    GPIO_InitStruct.Alternate = GPIO_AF5_SPI1;
 8001c46:	e9cd 2305 	strd	r2, r3, [sp, #20]
    __HAL_RCC_GPIOB_CLK_ENABLE();
 8001c4a:	9c01      	ldr	r4, [sp, #4]
    HAL_GPIO_Init(GPIOB, &GPIO_InitStruct);
 8001c4c:	f002 f8f0 	bl	8003e30 <HAL_GPIO_Init>
}
 8001c50:	b008      	add	sp, #32
 8001c52:	bd10      	pop	{r4, pc}
 8001c54:	f3af 8000 	nop.w
 8001c58:	00000038 	.word	0x00000038
 8001c5c:	00000002 	.word	0x00000002
 8001c60:	40013000 	.word	0x40013000
 8001c64:	48000400 	.word	0x48000400

08001c68 <updateMA702_M0>:
  }
}

/* USER CODE BEGIN 1 */
inline void updateMA702_M0(void){
  HAL_GPIO_WritePin(GPIOB, GPIO_PIN_6, GPIO_PIN_RESET);
 8001c68:	2200      	movs	r2, #0
 8001c6a:	2140      	movs	r1, #64	; 0x40
inline void updateMA702_M0(void){
 8001c6c:	b510      	push	{r4, lr}
  HAL_GPIO_WritePin(GPIOB, GPIO_PIN_6, GPIO_PIN_RESET);
 8001c6e:	481e      	ldr	r0, [pc, #120]	; (8001ce8 <updateMA702_M0+0x80>)
 8001c70:	f002 f9ce 	bl	8004010 <HAL_GPIO_WritePin>

  ma702_0.enc_raw = hspi1.Instance->DR;
 8001c74:	4a1d      	ldr	r2, [pc, #116]	; (8001cec <updateMA702_M0+0x84>)
 8001c76:	6812      	ldr	r2, [r2, #0]
  hspi1.Instance->DR = 0;
 8001c78:	2300      	movs	r3, #0
  ma702_0.enc_raw = hspi1.Instance->DR;
 8001c7a:	68d1      	ldr	r1, [r2, #12]
  hspi1.Instance->DR = 0;
 8001c7c:	60d3      	str	r3, [r2, #12]
  while (__HAL_SPI_GET_FLAG(&hspi1, SPI_FLAG_RXNE) == RESET)
 8001c7e:	6893      	ldr	r3, [r2, #8]
 8001c80:	07db      	lsls	r3, r3, #31
 8001c82:	d5fc      	bpl.n	8001c7e <updateMA702_M0+0x16>
  {
  }
  ma702_0.enc_raw = hspi1.Instance->DR & 0xFFFC;
 8001c84:	68d2      	ldr	r2, [r2, #12]

  ma702_0.enc_elec = 5461 - (ma702_0.enc_raw % 5461);
 8001c86:	4b1a      	ldr	r3, [pc, #104]	; (8001cf0 <updateMA702_M0+0x88>)
  ma702_0.enc_raw = hspi1.Instance->DR & 0xFFFC;
 8001c88:	4c1a      	ldr	r4, [pc, #104]	; (8001cf4 <updateMA702_M0+0x8c>)
 8001c8a:	f64f 71fc 	movw	r1, #65532	; 0xfffc
 8001c8e:	400a      	ands	r2, r1
  ma702_0.enc_elec = 5461 - (ma702_0.enc_raw % 5461);
 8001c90:	fb83 1302 	smull	r1, r3, r3, r2
 8001c94:	4413      	add	r3, r2
 8001c96:	f241 5155 	movw	r1, #5461	; 0x1555
 8001c9a:	131b      	asrs	r3, r3, #12
 8001c9c:	fb01 2313 	mls	r3, r1, r3, r2
 8001ca0:	1acb      	subs	r3, r1, r3
  ma702_0.output_radian = (float)ma702_0.enc_elec / 5461 * 2 * M_PI;
 8001ca2:	ee07 3a90 	vmov	s15, r3
 8001ca6:	eeb8 7ae7 	vcvt.f32.s32	s14, s15
 8001caa:	eddf 7a13 	vldr	s15, [pc, #76]	; 8001cf8 <updateMA702_M0+0x90>
 8001cae:	ee67 7a27 	vmul.f32	s15, s14, s15
  ma702_0.enc_elec = 5461 - (ma702_0.enc_raw % 5461);
 8001cb2:	e9c4 2301 	strd	r2, r3, [r4, #4]
  ma702_0.output_radian = (float)ma702_0.enc_elec / 5461 * 2 * M_PI;
 8001cb6:	ee17 0a90 	vmov	r0, s15
 8001cba:	f7fe fc45 	bl	8000548 <__aeabi_f2d>
 8001cbe:	a308      	add	r3, pc, #32	; (adr r3, 8001ce0 <updateMA702_M0+0x78>)
 8001cc0:	e9d3 2300 	ldrd	r2, r3, [r3]
 8001cc4:	f7fe fc98 	bl	80005f8 <__aeabi_dmul>
 8001cc8:	f7fe ff8e 	bl	8000be8 <__aeabi_d2f>
 8001ccc:	4603      	mov	r3, r0
 8001cce:	6023      	str	r3, [r4, #0]

  HAL_GPIO_WritePin(GPIOB, GPIO_PIN_6, GPIO_PIN_SET);
 8001cd0:	4805      	ldr	r0, [pc, #20]	; (8001ce8 <updateMA702_M0+0x80>)
}
 8001cd2:	e8bd 4010 	ldmia.w	sp!, {r4, lr}
  HAL_GPIO_WritePin(GPIOB, GPIO_PIN_6, GPIO_PIN_SET);
 8001cd6:	2201      	movs	r2, #1
 8001cd8:	2140      	movs	r1, #64	; 0x40
 8001cda:	f002 b999 	b.w	8004010 <HAL_GPIO_WritePin>
 8001cde:	bf00      	nop
 8001ce0:	54442d18 	.word	0x54442d18
 8001ce4:	400921fb 	.word	0x400921fb
 8001ce8:	48000400 	.word	0x48000400
 8001cec:	200003f4 	.word	0x200003f4
 8001cf0:	c003000d 	.word	0xc003000d
 8001cf4:	20000458 	.word	0x20000458
 8001cf8:	39c00300 	.word	0x39c00300
 8001cfc:	00000000 	.word	0x00000000

08001d00 <updateMA702_M1>:


inline void updateMA702_M1(void)
{
  HAL_GPIO_WritePin(GPIOB, GPIO_PIN_7, GPIO_PIN_RESET);
 8001d00:	2200      	movs	r2, #0
 8001d02:	2180      	movs	r1, #128	; 0x80
{
 8001d04:	b510      	push	{r4, lr}
  HAL_GPIO_WritePin(GPIOB, GPIO_PIN_7, GPIO_PIN_RESET);
 8001d06:	481e      	ldr	r0, [pc, #120]	; (8001d80 <updateMA702_M1+0x80>)
 8001d08:	f002 f982 	bl	8004010 <HAL_GPIO_WritePin>

  ma702_1.enc_raw = hspi1.Instance->DR;
 8001d0c:	4a1d      	ldr	r2, [pc, #116]	; (8001d84 <updateMA702_M1+0x84>)
 8001d0e:	6812      	ldr	r2, [r2, #0]
  hspi1.Instance->DR = 0;
 8001d10:	2300      	movs	r3, #0
  ma702_1.enc_raw = hspi1.Instance->DR;
 8001d12:	68d1      	ldr	r1, [r2, #12]
  hspi1.Instance->DR = 0;
 8001d14:	60d3      	str	r3, [r2, #12]
  while (__HAL_SPI_GET_FLAG(&hspi1, SPI_FLAG_RXNE) == RESET)
 8001d16:	6893      	ldr	r3, [r2, #8]
 8001d18:	07db      	lsls	r3, r3, #31
 8001d1a:	d5fc      	bpl.n	8001d16 <updateMA702_M1+0x16>
  {
  }
  ma702_1.enc_raw = hspi1.Instance->DR & 0xFFFC;
 8001d1c:	68d2      	ldr	r2, [r2, #12]

  ma702_1.enc_elec = 5461 - (ma702_1.enc_raw % 5461);
 8001d1e:	4b1a      	ldr	r3, [pc, #104]	; (8001d88 <updateMA702_M1+0x88>)
  ma702_1.enc_raw = hspi1.Instance->DR & 0xFFFC;
 8001d20:	4c1a      	ldr	r4, [pc, #104]	; (8001d8c <updateMA702_M1+0x8c>)
 8001d22:	f64f 71fc 	movw	r1, #65532	; 0xfffc
 8001d26:	400a      	ands	r2, r1
  ma702_1.enc_elec = 5461 - (ma702_1.enc_raw % 5461);
 8001d28:	fb83 1302 	smull	r1, r3, r3, r2
 8001d2c:	4413      	add	r3, r2
 8001d2e:	f241 5155 	movw	r1, #5461	; 0x1555
 8001d32:	131b      	asrs	r3, r3, #12
 8001d34:	fb01 2313 	mls	r3, r1, r3, r2
 8001d38:	1acb      	subs	r3, r1, r3
  ma702_1.output_radian = (float)ma702_1.enc_elec / 5461 * 2 * M_PI;
 8001d3a:	ee07 3a90 	vmov	s15, r3
 8001d3e:	eeb8 7ae7 	vcvt.f32.s32	s14, s15
 8001d42:	eddf 7a13 	vldr	s15, [pc, #76]	; 8001d90 <updateMA702_M1+0x90>
 8001d46:	ee67 7a27 	vmul.f32	s15, s14, s15
  ma702_1.enc_elec = 5461 - (ma702_1.enc_raw % 5461);
 8001d4a:	e9c4 2301 	strd	r2, r3, [r4, #4]
  ma702_1.output_radian = (float)ma702_1.enc_elec / 5461 * 2 * M_PI;
 8001d4e:	ee17 0a90 	vmov	r0, s15
 8001d52:	f7fe fbf9 	bl	8000548 <__aeabi_f2d>
 8001d56:	a308      	add	r3, pc, #32	; (adr r3, 8001d78 <updateMA702_M1+0x78>)
 8001d58:	e9d3 2300 	ldrd	r2, r3, [r3]
 8001d5c:	f7fe fc4c 	bl	80005f8 <__aeabi_dmul>
 8001d60:	f7fe ff42 	bl	8000be8 <__aeabi_d2f>
 8001d64:	4603      	mov	r3, r0
 8001d66:	6023      	str	r3, [r4, #0]

  HAL_GPIO_WritePin(GPIOB, GPIO_PIN_7, GPIO_PIN_SET);
 8001d68:	4805      	ldr	r0, [pc, #20]	; (8001d80 <updateMA702_M1+0x80>)
}
 8001d6a:	e8bd 4010 	ldmia.w	sp!, {r4, lr}
  HAL_GPIO_WritePin(GPIOB, GPIO_PIN_7, GPIO_PIN_SET);
 8001d6e:	2201      	movs	r2, #1
 8001d70:	2180      	movs	r1, #128	; 0x80
 8001d72:	f002 b94d 	b.w	8004010 <HAL_GPIO_WritePin>
 8001d76:	bf00      	nop
 8001d78:	54442d18 	.word	0x54442d18
 8001d7c:	400921fb 	.word	0x400921fb
 8001d80:	48000400 	.word	0x48000400
 8001d84:	200003f4 	.word	0x200003f4
 8001d88:	c003000d 	.word	0xc003000d
 8001d8c:	20000464 	.word	0x20000464
 8001d90:	39c00300 	.word	0x39c00300

08001d94 <getRadianM702_M0>:

float getRadianM702_M0(void){
	return ma702_0.output_radian;
 8001d94:	4b01      	ldr	r3, [pc, #4]	; (8001d9c <getRadianM702_M0+0x8>)
}
 8001d96:	ed93 0a00 	vldr	s0, [r3]
 8001d9a:	4770      	bx	lr
 8001d9c:	20000458 	.word	0x20000458

08001da0 <getRadianM702_M1>:

float getRadianM702_M1(void){
	return ma702_1.output_radian;
 8001da0:	4b01      	ldr	r3, [pc, #4]	; (8001da8 <getRadianM702_M1+0x8>)
}
 8001da2:	ed93 0a00 	vldr	s0, [r3]
 8001da6:	4770      	bx	lr
 8001da8:	20000464 	.word	0x20000464

08001dac <getRawM702_M0>:
int getRawM702_M0(void){
	return ma702_0.enc_raw;
 8001dac:	4b01      	ldr	r3, [pc, #4]	; (8001db4 <getRawM702_M0+0x8>)
}
 8001dae:	6858      	ldr	r0, [r3, #4]
 8001db0:	4770      	bx	lr
 8001db2:	bf00      	nop
 8001db4:	20000458 	.word	0x20000458

08001db8 <getRawM702_M1>:
int getRawM702_M1(void){
	return ma702_1.enc_raw;
 8001db8:	4b01      	ldr	r3, [pc, #4]	; (8001dc0 <getRawM702_M1+0x8>)
}
 8001dba:	6858      	ldr	r0, [r3, #4]
 8001dbc:	4770      	bx	lr
 8001dbe:	bf00      	nop
 8001dc0:	20000464 	.word	0x20000464

08001dc4 <HAL_MspInit>:
{
  /* USER CODE BEGIN MspInit 0 */

  /* USER CODE END MspInit 0 */

  __HAL_RCC_SYSCFG_CLK_ENABLE();
 8001dc4:	4b0a      	ldr	r3, [pc, #40]	; (8001df0 <HAL_MspInit+0x2c>)
 8001dc6:	699a      	ldr	r2, [r3, #24]
 8001dc8:	f042 0201 	orr.w	r2, r2, #1
 8001dcc:	619a      	str	r2, [r3, #24]
 8001dce:	699a      	ldr	r2, [r3, #24]
{
 8001dd0:	b082      	sub	sp, #8
  __HAL_RCC_SYSCFG_CLK_ENABLE();
 8001dd2:	f002 0201 	and.w	r2, r2, #1
 8001dd6:	9200      	str	r2, [sp, #0]
 8001dd8:	9a00      	ldr	r2, [sp, #0]
  __HAL_RCC_PWR_CLK_ENABLE();
 8001dda:	69da      	ldr	r2, [r3, #28]
 8001ddc:	f042 5280 	orr.w	r2, r2, #268435456	; 0x10000000
 8001de0:	61da      	str	r2, [r3, #28]
 8001de2:	69db      	ldr	r3, [r3, #28]
 8001de4:	f003 5380 	and.w	r3, r3, #268435456	; 0x10000000
 8001de8:	9301      	str	r3, [sp, #4]
 8001dea:	9b01      	ldr	r3, [sp, #4]
  /* System interrupt init*/

  /* USER CODE BEGIN MspInit 1 */

  /* USER CODE END MspInit 1 */
}
 8001dec:	b002      	add	sp, #8
 8001dee:	4770      	bx	lr
 8001df0:	40021000 	.word	0x40021000

08001df4 <NMI_Handler>:
{
  /* USER CODE BEGIN NonMaskableInt_IRQn 0 */

  /* USER CODE END NonMaskableInt_IRQn 0 */
  /* USER CODE BEGIN NonMaskableInt_IRQn 1 */
  while (1)
 8001df4:	e7fe      	b.n	8001df4 <NMI_Handler>
 8001df6:	bf00      	nop

08001df8 <HardFault_Handler>:
void HardFault_Handler(void)
{
  /* USER CODE BEGIN HardFault_IRQn 0 */

  /* USER CODE END HardFault_IRQn 0 */
  while (1)
 8001df8:	e7fe      	b.n	8001df8 <HardFault_Handler>
 8001dfa:	bf00      	nop

08001dfc <MemManage_Handler>:
void MemManage_Handler(void)
{
  /* USER CODE BEGIN MemoryManagement_IRQn 0 */

  /* USER CODE END MemoryManagement_IRQn 0 */
  while (1)
 8001dfc:	e7fe      	b.n	8001dfc <MemManage_Handler>
 8001dfe:	bf00      	nop

08001e00 <BusFault_Handler>:
void BusFault_Handler(void)
{
  /* USER CODE BEGIN BusFault_IRQn 0 */

  /* USER CODE END BusFault_IRQn 0 */
  while (1)
 8001e00:	e7fe      	b.n	8001e00 <BusFault_Handler>
 8001e02:	bf00      	nop

08001e04 <UsageFault_Handler>:
void UsageFault_Handler(void)
{
  /* USER CODE BEGIN UsageFault_IRQn 0 */

  /* USER CODE END UsageFault_IRQn 0 */
  while (1)
 8001e04:	e7fe      	b.n	8001e04 <UsageFault_Handler>
 8001e06:	bf00      	nop

08001e08 <SVC_Handler>:

  /* USER CODE END SVCall_IRQn 0 */
  /* USER CODE BEGIN SVCall_IRQn 1 */

  /* USER CODE END SVCall_IRQn 1 */
}
 8001e08:	4770      	bx	lr
 8001e0a:	bf00      	nop

08001e0c <DebugMon_Handler>:
 8001e0c:	4770      	bx	lr
 8001e0e:	bf00      	nop

08001e10 <PendSV_Handler>:
 8001e10:	4770      	bx	lr
 8001e12:	bf00      	nop

08001e14 <SysTick_Handler>:
void SysTick_Handler(void)
{
  /* USER CODE BEGIN SysTick_IRQn 0 */

  /* USER CODE END SysTick_IRQn 0 */
  HAL_IncTick();
 8001e14:	f000 bc20 	b.w	8002658 <HAL_IncTick>

08001e18 <DMA1_Channel1_IRQHandler>:
void DMA1_Channel1_IRQHandler(void)
{
  /* USER CODE BEGIN DMA1_Channel1_IRQn 0 */

  /* USER CODE END DMA1_Channel1_IRQn 0 */
  HAL_DMA_IRQHandler(&hdma_adc1);
 8001e18:	4801      	ldr	r0, [pc, #4]	; (8001e20 <DMA1_Channel1_IRQHandler+0x8>)
 8001e1a:	f001 bfbf 	b.w	8003d9c <HAL_DMA_IRQHandler>
 8001e1e:	bf00      	nop
 8001e20:	200002f0 	.word	0x200002f0

08001e24 <USB_HP_CAN_TX_IRQHandler>:
void USB_HP_CAN_TX_IRQHandler(void)
{
  /* USER CODE BEGIN USB_HP_CAN_TX_IRQn 0 */

  /* USER CODE END USB_HP_CAN_TX_IRQn 0 */
  HAL_CAN_IRQHandler(&hcan);
 8001e24:	4801      	ldr	r0, [pc, #4]	; (8001e2c <USB_HP_CAN_TX_IRQHandler+0x8>)
 8001e26:	f001 bd8f 	b.w	8003948 <HAL_CAN_IRQHandler>
 8001e2a:	bf00      	nop
 8001e2c:	20000334 	.word	0x20000334

08001e30 <USB_LP_CAN_RX0_IRQHandler>:
 8001e30:	4801      	ldr	r0, [pc, #4]	; (8001e38 <USB_LP_CAN_RX0_IRQHandler+0x8>)
 8001e32:	f001 bd89 	b.w	8003948 <HAL_CAN_IRQHandler>
 8001e36:	bf00      	nop
 8001e38:	20000334 	.word	0x20000334

08001e3c <CAN_RX1_IRQHandler>:
 8001e3c:	4801      	ldr	r0, [pc, #4]	; (8001e44 <CAN_RX1_IRQHandler+0x8>)
 8001e3e:	f001 bd83 	b.w	8003948 <HAL_CAN_IRQHandler>
 8001e42:	bf00      	nop
 8001e44:	20000334 	.word	0x20000334

08001e48 <CAN_SCE_IRQHandler>:
 8001e48:	4801      	ldr	r0, [pc, #4]	; (8001e50 <CAN_SCE_IRQHandler+0x8>)
 8001e4a:	f001 bd7d 	b.w	8003948 <HAL_CAN_IRQHandler>
 8001e4e:	bf00      	nop
 8001e50:	20000334 	.word	0x20000334

08001e54 <TIM1_UP_TIM16_IRQHandler>:
void TIM1_UP_TIM16_IRQHandler(void)
{
  /* USER CODE BEGIN TIM1_UP_TIM16_IRQn 0 */

  /* USER CODE END TIM1_UP_TIM16_IRQn 0 */
  HAL_TIM_IRQHandler(&htim1);
 8001e54:	4801      	ldr	r0, [pc, #4]	; (8001e5c <TIM1_UP_TIM16_IRQHandler+0x8>)
 8001e56:	f003 b8a7 	b.w	8004fa8 <HAL_TIM_IRQHandler>
 8001e5a:	bf00      	nop
 8001e5c:	20000474 	.word	0x20000474

08001e60 <USART1_IRQHandler>:
void USART1_IRQHandler(void)
{
  /* USER CODE BEGIN USART1_IRQn 0 */

  /* USER CODE END USART1_IRQn 0 */
  HAL_UART_IRQHandler(&huart1);
 8001e60:	4801      	ldr	r0, [pc, #4]	; (8001e68 <USART1_IRQHandler+0x8>)
 8001e62:	f003 bc4d 	b.w	8005700 <HAL_UART_IRQHandler>
 8001e66:	bf00      	nop
 8001e68:	2000150c 	.word	0x2000150c

08001e6c <TIM8_UP_IRQHandler>:
void TIM8_UP_IRQHandler(void)
{
  /* USER CODE BEGIN TIM8_UP_IRQn 0 */

  /* USER CODE END TIM8_UP_IRQn 0 */
  HAL_TIM_IRQHandler(&htim8);
 8001e6c:	4801      	ldr	r0, [pc, #4]	; (8001e74 <TIM8_UP_IRQHandler+0x8>)
 8001e6e:	f003 b89b 	b.w	8004fa8 <HAL_TIM_IRQHandler>
 8001e72:	bf00      	nop
 8001e74:	200004c0 	.word	0x200004c0

08001e78 <_getpid>:
 8001e78:	2001      	movs	r0, #1
 8001e7a:	4770      	bx	lr

08001e7c <_kill>:
 8001e7c:	b508      	push	{r3, lr}
 8001e7e:	f005 f99d 	bl	80071bc <__errno>
 8001e82:	2316      	movs	r3, #22
 8001e84:	6003      	str	r3, [r0, #0]
 8001e86:	f04f 30ff 	mov.w	r0, #4294967295
 8001e8a:	bd08      	pop	{r3, pc}

08001e8c <_exit>:
 8001e8c:	b508      	push	{r3, lr}
 8001e8e:	f005 f995 	bl	80071bc <__errno>
 8001e92:	2316      	movs	r3, #22
 8001e94:	6003      	str	r3, [r0, #0]
 8001e96:	e7fe      	b.n	8001e96 <_exit+0xa>

08001e98 <_read>:
 8001e98:	b570      	push	{r4, r5, r6, lr}
 8001e9a:	1e16      	subs	r6, r2, #0
 8001e9c:	dd07      	ble.n	8001eae <_read+0x16>
 8001e9e:	460c      	mov	r4, r1
 8001ea0:	198d      	adds	r5, r1, r6
 8001ea2:	f3af 8000 	nop.w
 8001ea6:	f804 0b01 	strb.w	r0, [r4], #1
 8001eaa:	42a5      	cmp	r5, r4
 8001eac:	d1f9      	bne.n	8001ea2 <_read+0xa>
 8001eae:	4630      	mov	r0, r6
 8001eb0:	bd70      	pop	{r4, r5, r6, pc}
 8001eb2:	bf00      	nop

08001eb4 <_write>:
 8001eb4:	b570      	push	{r4, r5, r6, lr}
 8001eb6:	1e16      	subs	r6, r2, #0
 8001eb8:	dd07      	ble.n	8001eca <_write+0x16>
 8001eba:	460c      	mov	r4, r1
 8001ebc:	198d      	adds	r5, r1, r6
 8001ebe:	f814 0b01 	ldrb.w	r0, [r4], #1
 8001ec2:	f7ff fa3d 	bl	8001340 <__io_putchar>
 8001ec6:	42ac      	cmp	r4, r5
 8001ec8:	d1f9      	bne.n	8001ebe <_write+0xa>
 8001eca:	4630      	mov	r0, r6
 8001ecc:	bd70      	pop	{r4, r5, r6, pc}
 8001ece:	bf00      	nop

08001ed0 <_close>:
 8001ed0:	f04f 30ff 	mov.w	r0, #4294967295
 8001ed4:	4770      	bx	lr
 8001ed6:	bf00      	nop

08001ed8 <_fstat>:
 8001ed8:	f44f 5300 	mov.w	r3, #8192	; 0x2000
 8001edc:	604b      	str	r3, [r1, #4]
 8001ede:	2000      	movs	r0, #0
 8001ee0:	4770      	bx	lr
 8001ee2:	bf00      	nop

08001ee4 <_isatty>:
 8001ee4:	2001      	movs	r0, #1
 8001ee6:	4770      	bx	lr

08001ee8 <_lseek>:
 8001ee8:	2000      	movs	r0, #0
 8001eea:	4770      	bx	lr

08001eec <_sbrk>:
 8001eec:	b510      	push	{r4, lr}
 8001eee:	4c0c      	ldr	r4, [pc, #48]	; (8001f20 <_sbrk+0x34>)
 8001ef0:	4b0c      	ldr	r3, [pc, #48]	; (8001f24 <_sbrk+0x38>)
 8001ef2:	490d      	ldr	r1, [pc, #52]	; (8001f28 <_sbrk+0x3c>)
 8001ef4:	6822      	ldr	r2, [r4, #0]
 8001ef6:	1a59      	subs	r1, r3, r1
 8001ef8:	b12a      	cbz	r2, 8001f06 <_sbrk+0x1a>
 8001efa:	4410      	add	r0, r2
 8001efc:	4288      	cmp	r0, r1
 8001efe:	d807      	bhi.n	8001f10 <_sbrk+0x24>
 8001f00:	6020      	str	r0, [r4, #0]
 8001f02:	4610      	mov	r0, r2
 8001f04:	bd10      	pop	{r4, pc}
 8001f06:	4a09      	ldr	r2, [pc, #36]	; (8001f2c <_sbrk+0x40>)
 8001f08:	6022      	str	r2, [r4, #0]
 8001f0a:	4410      	add	r0, r2
 8001f0c:	4288      	cmp	r0, r1
 8001f0e:	d9f7      	bls.n	8001f00 <_sbrk+0x14>
 8001f10:	f005 f954 	bl	80071bc <__errno>
 8001f14:	230c      	movs	r3, #12
 8001f16:	f04f 32ff 	mov.w	r2, #4294967295
 8001f1a:	6003      	str	r3, [r0, #0]
 8001f1c:	4610      	mov	r0, r2
 8001f1e:	bd10      	pop	{r4, pc}
 8001f20:	20000470 	.word	0x20000470
 8001f24:	20008000 	.word	0x20008000
 8001f28:	00000400 	.word	0x00000400
 8001f2c:	200015a8 	.word	0x200015a8

08001f30 <SystemInit>:
  */
void SystemInit(void)
{
/* FPU settings --------------------------------------------------------------*/
#if (__FPU_PRESENT == 1) && (__FPU_USED == 1)
  SCB->CPACR |= ((3UL << 10*2)|(3UL << 11*2));  /* set CP10 and CP11 Full Access */
 8001f30:	4a03      	ldr	r2, [pc, #12]	; (8001f40 <SystemInit+0x10>)
 8001f32:	f8d2 3088 	ldr.w	r3, [r2, #136]	; 0x88
 8001f36:	f443 0370 	orr.w	r3, r3, #15728640	; 0xf00000
 8001f3a:	f8c2 3088 	str.w	r3, [r2, #136]	; 0x88

  /* Configure the Vector Table location -------------------------------------*/
#if defined(USER_VECT_TAB_ADDRESS)
  SCB->VTOR = VECT_TAB_BASE_ADDRESS | VECT_TAB_OFFSET; /* Vector Table Relocation in Internal SRAM */
#endif /* USER_VECT_TAB_ADDRESS */
}
 8001f3e:	4770      	bx	lr
 8001f40:	e000ed00 	.word	0xe000ed00

08001f44 <HAL_TIM_PWM_MspInit>:
  HAL_TIM_MspPostInit(&htim8);

}

void HAL_TIM_PWM_MspInit(TIM_HandleTypeDef* tim_pwmHandle)
{
 8001f44:	b500      	push	{lr}

  if(tim_pwmHandle->Instance==TIM1)
 8001f46:	4a1a      	ldr	r2, [pc, #104]	; (8001fb0 <HAL_TIM_PWM_MspInit+0x6c>)
 8001f48:	6803      	ldr	r3, [r0, #0]
 8001f4a:	4293      	cmp	r3, r2
{
 8001f4c:	b083      	sub	sp, #12
  if(tim_pwmHandle->Instance==TIM1)
 8001f4e:	d005      	beq.n	8001f5c <HAL_TIM_PWM_MspInit+0x18>
    HAL_NVIC_EnableIRQ(TIM1_UP_TIM16_IRQn);
  /* USER CODE BEGIN TIM1_MspInit 1 */

  /* USER CODE END TIM1_MspInit 1 */
  }
  else if(tim_pwmHandle->Instance==TIM8)
 8001f50:	4a18      	ldr	r2, [pc, #96]	; (8001fb4 <HAL_TIM_PWM_MspInit+0x70>)
 8001f52:	4293      	cmp	r3, r2
 8001f54:	d017      	beq.n	8001f86 <HAL_TIM_PWM_MspInit+0x42>
    HAL_NVIC_EnableIRQ(TIM8_UP_IRQn);
  /* USER CODE BEGIN TIM8_MspInit 1 */

  /* USER CODE END TIM8_MspInit 1 */
  }
}
 8001f56:	b003      	add	sp, #12
 8001f58:	f85d fb04 	ldr.w	pc, [sp], #4
    __HAL_RCC_TIM1_CLK_ENABLE();
 8001f5c:	4b16      	ldr	r3, [pc, #88]	; (8001fb8 <HAL_TIM_PWM_MspInit+0x74>)
 8001f5e:	6999      	ldr	r1, [r3, #24]
 8001f60:	f441 6100 	orr.w	r1, r1, #2048	; 0x800
 8001f64:	6199      	str	r1, [r3, #24]
 8001f66:	699b      	ldr	r3, [r3, #24]
    HAL_NVIC_SetPriority(TIM1_UP_TIM16_IRQn, 0, 0);
 8001f68:	2200      	movs	r2, #0
    __HAL_RCC_TIM1_CLK_ENABLE();
 8001f6a:	f403 6300 	and.w	r3, r3, #2048	; 0x800
 8001f6e:	9300      	str	r3, [sp, #0]
    HAL_NVIC_SetPriority(TIM1_UP_TIM16_IRQn, 0, 0);
 8001f70:	2019      	movs	r0, #25
 8001f72:	4611      	mov	r1, r2
    __HAL_RCC_TIM1_CLK_ENABLE();
 8001f74:	9b00      	ldr	r3, [sp, #0]
    HAL_NVIC_SetPriority(TIM1_UP_TIM16_IRQn, 0, 0);
 8001f76:	f001 fe23 	bl	8003bc0 <HAL_NVIC_SetPriority>
    HAL_NVIC_EnableIRQ(TIM1_UP_TIM16_IRQn);
 8001f7a:	2019      	movs	r0, #25
}
 8001f7c:	b003      	add	sp, #12
 8001f7e:	f85d eb04 	ldr.w	lr, [sp], #4
    HAL_NVIC_EnableIRQ(TIM8_UP_IRQn);
 8001f82:	f001 be5b 	b.w	8003c3c <HAL_NVIC_EnableIRQ>
    __HAL_RCC_TIM8_CLK_ENABLE();
 8001f86:	4b0c      	ldr	r3, [pc, #48]	; (8001fb8 <HAL_TIM_PWM_MspInit+0x74>)
 8001f88:	6999      	ldr	r1, [r3, #24]
 8001f8a:	f441 5100 	orr.w	r1, r1, #8192	; 0x2000
 8001f8e:	6199      	str	r1, [r3, #24]
 8001f90:	699b      	ldr	r3, [r3, #24]
    HAL_NVIC_SetPriority(TIM8_UP_IRQn, 0, 0);
 8001f92:	2200      	movs	r2, #0
    __HAL_RCC_TIM8_CLK_ENABLE();
 8001f94:	f403 5300 	and.w	r3, r3, #8192	; 0x2000
 8001f98:	9301      	str	r3, [sp, #4]
    HAL_NVIC_SetPriority(TIM8_UP_IRQn, 0, 0);
 8001f9a:	202c      	movs	r0, #44	; 0x2c
 8001f9c:	4611      	mov	r1, r2
    __HAL_RCC_TIM8_CLK_ENABLE();
 8001f9e:	9b01      	ldr	r3, [sp, #4]
    HAL_NVIC_SetPriority(TIM8_UP_IRQn, 0, 0);
 8001fa0:	f001 fe0e 	bl	8003bc0 <HAL_NVIC_SetPriority>
    HAL_NVIC_EnableIRQ(TIM8_UP_IRQn);
 8001fa4:	202c      	movs	r0, #44	; 0x2c
}
 8001fa6:	b003      	add	sp, #12
 8001fa8:	f85d eb04 	ldr.w	lr, [sp], #4
    HAL_NVIC_EnableIRQ(TIM8_UP_IRQn);
 8001fac:	f001 be46 	b.w	8003c3c <HAL_NVIC_EnableIRQ>
 8001fb0:	40012c00 	.word	0x40012c00
 8001fb4:	40013400 	.word	0x40013400
 8001fb8:	40021000 	.word	0x40021000
 8001fbc:	00000000 	.word	0x00000000

08001fc0 <HAL_TIM_MspPostInit>:
void HAL_TIM_MspPostInit(TIM_HandleTypeDef* timHandle)
{
 8001fc0:	b510      	push	{r4, lr}

  GPIO_InitTypeDef GPIO_InitStruct = {0};
  if(timHandle->Instance==TIM1)
 8001fc2:	6802      	ldr	r2, [r0, #0]
 8001fc4:	492e      	ldr	r1, [pc, #184]	; (8002080 <HAL_TIM_MspPostInit+0xc0>)
{
 8001fc6:	b08a      	sub	sp, #40	; 0x28
  GPIO_InitTypeDef GPIO_InitStruct = {0};
 8001fc8:	2300      	movs	r3, #0
  if(timHandle->Instance==TIM1)
 8001fca:	428a      	cmp	r2, r1
  GPIO_InitTypeDef GPIO_InitStruct = {0};
 8001fcc:	e9cd 3304 	strd	r3, r3, [sp, #16]
 8001fd0:	e9cd 3306 	strd	r3, r3, [sp, #24]
 8001fd4:	9308      	str	r3, [sp, #32]
  if(timHandle->Instance==TIM1)
 8001fd6:	d004      	beq.n	8001fe2 <HAL_TIM_MspPostInit+0x22>

  /* USER CODE BEGIN TIM1_MspPostInit 1 */

  /* USER CODE END TIM1_MspPostInit 1 */
  }
  else if(timHandle->Instance==TIM8)
 8001fd8:	4b2a      	ldr	r3, [pc, #168]	; (8002084 <HAL_TIM_MspPostInit+0xc4>)
 8001fda:	429a      	cmp	r2, r3
 8001fdc:	d032      	beq.n	8002044 <HAL_TIM_MspPostInit+0x84>
  /* USER CODE BEGIN TIM8_MspPostInit 1 */

  /* USER CODE END TIM8_MspPostInit 1 */
  }

}
 8001fde:	b00a      	add	sp, #40	; 0x28
 8001fe0:	bd10      	pop	{r4, pc}
    __HAL_RCC_GPIOA_CLK_ENABLE();
 8001fe2:	f103 4380 	add.w	r3, r3, #1073741824	; 0x40000000
 8001fe6:	f503 3304 	add.w	r3, r3, #135168	; 0x21000
    GPIO_InitStruct.Alternate = GPIO_AF6_TIM1;
 8001fea:	2406      	movs	r4, #6
    __HAL_RCC_GPIOA_CLK_ENABLE();
 8001fec:	695a      	ldr	r2, [r3, #20]
 8001fee:	f442 3200 	orr.w	r2, r2, #131072	; 0x20000
 8001ff2:	615a      	str	r2, [r3, #20]
 8001ff4:	695a      	ldr	r2, [r3, #20]
 8001ff6:	f402 3200 	and.w	r2, r2, #131072	; 0x20000
 8001ffa:	9201      	str	r2, [sp, #4]
 8001ffc:	9a01      	ldr	r2, [sp, #4]
    __HAL_RCC_GPIOB_CLK_ENABLE();
 8001ffe:	695a      	ldr	r2, [r3, #20]
 8002000:	f442 2280 	orr.w	r2, r2, #262144	; 0x40000
 8002004:	615a      	str	r2, [r3, #20]
 8002006:	695b      	ldr	r3, [r3, #20]
    GPIO_InitStruct.Alternate = GPIO_AF6_TIM1;
 8002008:	9408      	str	r4, [sp, #32]
    __HAL_RCC_GPIOB_CLK_ENABLE();
 800200a:	f403 2380 	and.w	r3, r3, #262144	; 0x40000
 800200e:	9302      	str	r3, [sp, #8]
    HAL_GPIO_Init(GPIOA, &GPIO_InitStruct);
 8002010:	a904      	add	r1, sp, #16
    GPIO_InitStruct.Pin = GPIO_PIN_7|GPIO_PIN_8|GPIO_PIN_9|GPIO_PIN_10;
 8002012:	f44f 62f0 	mov.w	r2, #1920	; 0x780
 8002016:	2302      	movs	r3, #2
    HAL_GPIO_Init(GPIOA, &GPIO_InitStruct);
 8002018:	f04f 4090 	mov.w	r0, #1207959552	; 0x48000000
    GPIO_InitStruct.Pin = GPIO_PIN_7|GPIO_PIN_8|GPIO_PIN_9|GPIO_PIN_10;
 800201c:	e9cd 2304 	strd	r2, r3, [sp, #16]
    __HAL_RCC_GPIOB_CLK_ENABLE();
 8002020:	9b02      	ldr	r3, [sp, #8]
    HAL_GPIO_Init(GPIOA, &GPIO_InitStruct);
 8002022:	f001 ff05 	bl	8003e30 <HAL_GPIO_Init>
    GPIO_InitStruct.Pin = GPIO_PIN_0|GPIO_PIN_1;
 8002026:	2203      	movs	r2, #3
 8002028:	2302      	movs	r3, #2
 800202a:	e9cd 2304 	strd	r2, r3, [sp, #16]
    HAL_GPIO_Init(GPIOB, &GPIO_InitStruct);
 800202e:	4816      	ldr	r0, [pc, #88]	; (8002088 <HAL_TIM_MspPostInit+0xc8>)
    GPIO_InitStruct.Alternate = GPIO_AF6_TIM1;
 8002030:	9408      	str	r4, [sp, #32]
    GPIO_InitStruct.Pin = GPIO_PIN_0|GPIO_PIN_1;
 8002032:	2200      	movs	r2, #0
 8002034:	2300      	movs	r3, #0
    HAL_GPIO_Init(GPIOB, &GPIO_InitStruct);
 8002036:	a904      	add	r1, sp, #16
    GPIO_InitStruct.Pin = GPIO_PIN_0|GPIO_PIN_1;
 8002038:	e9cd 2306 	strd	r2, r3, [sp, #24]
    HAL_GPIO_Init(GPIOB, &GPIO_InitStruct);
 800203c:	f001 fef8 	bl	8003e30 <HAL_GPIO_Init>
}
 8002040:	b00a      	add	sp, #40	; 0x28
 8002042:	bd10      	pop	{r4, pc}
    __HAL_RCC_GPIOC_CLK_ENABLE();
 8002044:	f503 435c 	add.w	r3, r3, #56320	; 0xdc00
    GPIO_InitStruct.Pin = GPIO_PIN_6|GPIO_PIN_7|GPIO_PIN_8|GPIO_PIN_10
 8002048:	ed9f 7b0b 	vldr	d7, [pc, #44]	; 8002078 <HAL_TIM_MspPostInit+0xb8>
    __HAL_RCC_GPIOC_CLK_ENABLE();
 800204c:	695a      	ldr	r2, [r3, #20]
    HAL_GPIO_Init(GPIOC, &GPIO_InitStruct);
 800204e:	480f      	ldr	r0, [pc, #60]	; (800208c <HAL_TIM_MspPostInit+0xcc>)
    __HAL_RCC_GPIOC_CLK_ENABLE();
 8002050:	f442 2200 	orr.w	r2, r2, #524288	; 0x80000
 8002054:	615a      	str	r2, [r3, #20]
 8002056:	695b      	ldr	r3, [r3, #20]
 8002058:	f403 2300 	and.w	r3, r3, #524288	; 0x80000
 800205c:	9303      	str	r3, [sp, #12]
    HAL_GPIO_Init(GPIOC, &GPIO_InitStruct);
 800205e:	a904      	add	r1, sp, #16
    GPIO_InitStruct.Alternate = GPIO_AF4_TIM8;
 8002060:	2304      	movs	r3, #4
    GPIO_InitStruct.Pin = GPIO_PIN_6|GPIO_PIN_7|GPIO_PIN_8|GPIO_PIN_10
 8002062:	ed8d 7b04 	vstr	d7, [sp, #16]
    __HAL_RCC_GPIOC_CLK_ENABLE();
 8002066:	9a03      	ldr	r2, [sp, #12]
    GPIO_InitStruct.Alternate = GPIO_AF4_TIM8;
 8002068:	9308      	str	r3, [sp, #32]
    HAL_GPIO_Init(GPIOC, &GPIO_InitStruct);
 800206a:	f001 fee1 	bl	8003e30 <HAL_GPIO_Init>
}
 800206e:	b00a      	add	sp, #40	; 0x28
 8002070:	bd10      	pop	{r4, pc}
 8002072:	bf00      	nop
 8002074:	f3af 8000 	nop.w
 8002078:	00001dc0 	.word	0x00001dc0
 800207c:	00000002 	.word	0x00000002
 8002080:	40012c00 	.word	0x40012c00
 8002084:	40013400 	.word	0x40013400
 8002088:	48000400 	.word	0x48000400
 800208c:	48000800 	.word	0x48000800

08002090 <MX_TIM1_Init>:
{
 8002090:	b510      	push	{r4, lr}
  TIM_MasterConfigTypeDef sMasterConfig = {0};
 8002092:	2400      	movs	r4, #0
{
 8002094:	b098      	sub	sp, #96	; 0x60
  TIM_BreakDeadTimeConfigTypeDef sBreakDeadTimeConfig = {0};
 8002096:	222c      	movs	r2, #44	; 0x2c
 8002098:	4621      	mov	r1, r4
 800209a:	a80c      	add	r0, sp, #48	; 0x30
  TIM_MasterConfigTypeDef sMasterConfig = {0};
 800209c:	e9cd 4401 	strd	r4, r4, [sp, #4]
  TIM_OC_InitTypeDef sConfigOC = {0};
 80020a0:	e9cd 4405 	strd	r4, r4, [sp, #20]
 80020a4:	e9cd 4407 	strd	r4, r4, [sp, #28]
 80020a8:	e9cd 4409 	strd	r4, r4, [sp, #36]	; 0x24
  TIM_MasterConfigTypeDef sMasterConfig = {0};
 80020ac:	9400      	str	r4, [sp, #0]
  TIM_OC_InitTypeDef sConfigOC = {0};
 80020ae:	9404      	str	r4, [sp, #16]
  TIM_BreakDeadTimeConfigTypeDef sBreakDeadTimeConfig = {0};
 80020b0:	f005 f8ae 	bl	8007210 <memset>
  htim1.Instance = TIM1;
 80020b4:	483c      	ldr	r0, [pc, #240]	; (80021a8 <MX_TIM1_Init+0x118>)
  htim1.Init.Prescaler = 1;
 80020b6:	4a3d      	ldr	r2, [pc, #244]	; (80021ac <MX_TIM1_Init+0x11c>)
  htim1.Init.AutoReloadPreload = TIM_AUTORELOAD_PRELOAD_DISABLE;
 80020b8:	6184      	str	r4, [r0, #24]
  htim1.Init.Prescaler = 1;
 80020ba:	2301      	movs	r3, #1
 80020bc:	e9c0 2300 	strd	r2, r3, [r0]
  htim1.Init.Period = 1400;
 80020c0:	f44f 63af 	mov.w	r3, #1400	; 0x578
 80020c4:	e9c0 4302 	strd	r4, r3, [r0, #8]
  htim1.Init.RepetitionCounter = 0;
 80020c8:	e9c0 4404 	strd	r4, r4, [r0, #16]
  if (HAL_TIM_PWM_Init(&htim1) != HAL_OK)
 80020cc:	f002 fe4a 	bl	8004d64 <HAL_TIM_PWM_Init>
 80020d0:	2800      	cmp	r0, #0
 80020d2:	d147      	bne.n	8002164 <MX_TIM1_Init+0xd4>
  sMasterConfig.MasterOutputTrigger = TIM_TRGO_RESET;
 80020d4:	2300      	movs	r3, #0
 80020d6:	2200      	movs	r2, #0
 80020d8:	e9cd 2300 	strd	r2, r3, [sp]
  if (HAL_TIMEx_MasterConfigSynchronization(&htim1, &sMasterConfig) != HAL_OK)
 80020dc:	4832      	ldr	r0, [pc, #200]	; (80021a8 <MX_TIM1_Init+0x118>)
  sMasterConfig.MasterSlaveMode = TIM_MASTERSLAVEMODE_DISABLE;
 80020de:	2300      	movs	r3, #0
  if (HAL_TIMEx_MasterConfigSynchronization(&htim1, &sMasterConfig) != HAL_OK)
 80020e0:	4669      	mov	r1, sp
  sMasterConfig.MasterSlaveMode = TIM_MASTERSLAVEMODE_DISABLE;
 80020e2:	9302      	str	r3, [sp, #8]
  if (HAL_TIMEx_MasterConfigSynchronization(&htim1, &sMasterConfig) != HAL_OK)
 80020e4:	f003 f9f0 	bl	80054c8 <HAL_TIMEx_MasterConfigSynchronization>
 80020e8:	2800      	cmp	r0, #0
 80020ea:	d14e      	bne.n	800218a <MX_TIM1_Init+0xfa>
  sConfigOC.OCMode = TIM_OCMODE_PWM1;
 80020ec:	2060      	movs	r0, #96	; 0x60
 80020ee:	2100      	movs	r1, #0
 80020f0:	e9cd 0104 	strd	r0, r1, [sp, #16]
 80020f4:	2000      	movs	r0, #0
 80020f6:	2100      	movs	r1, #0
 80020f8:	e9cd 0106 	strd	r0, r1, [sp, #24]
 80020fc:	e9cd 0108 	strd	r0, r1, [sp, #32]
  sConfigOC.OCNIdleState = TIM_OCNIDLESTATE_RESET;
 8002100:	2200      	movs	r2, #0
  if (HAL_TIM_PWM_ConfigChannel(&htim1, &sConfigOC, TIM_CHANNEL_1) != HAL_OK)
 8002102:	4829      	ldr	r0, [pc, #164]	; (80021a8 <MX_TIM1_Init+0x118>)
  sConfigOC.OCNIdleState = TIM_OCNIDLESTATE_RESET;
 8002104:	920a      	str	r2, [sp, #40]	; 0x28
  if (HAL_TIM_PWM_ConfigChannel(&htim1, &sConfigOC, TIM_CHANNEL_1) != HAL_OK)
 8002106:	a904      	add	r1, sp, #16
 8002108:	f003 f846 	bl	8005198 <HAL_TIM_PWM_ConfigChannel>
 800210c:	2800      	cmp	r0, #0
 800210e:	d139      	bne.n	8002184 <MX_TIM1_Init+0xf4>
  if (HAL_TIM_PWM_ConfigChannel(&htim1, &sConfigOC, TIM_CHANNEL_2) != HAL_OK)
 8002110:	4825      	ldr	r0, [pc, #148]	; (80021a8 <MX_TIM1_Init+0x118>)
 8002112:	2204      	movs	r2, #4
 8002114:	a904      	add	r1, sp, #16
 8002116:	f003 f83f 	bl	8005198 <HAL_TIM_PWM_ConfigChannel>
 800211a:	bb80      	cbnz	r0, 800217e <MX_TIM1_Init+0xee>
  if (HAL_TIM_PWM_ConfigChannel(&htim1, &sConfigOC, TIM_CHANNEL_3) != HAL_OK)
 800211c:	4822      	ldr	r0, [pc, #136]	; (80021a8 <MX_TIM1_Init+0x118>)
 800211e:	2208      	movs	r2, #8
 8002120:	a904      	add	r1, sp, #16
 8002122:	f003 f839 	bl	8005198 <HAL_TIM_PWM_ConfigChannel>
 8002126:	bb38      	cbnz	r0, 8002178 <MX_TIM1_Init+0xe8>
  sBreakDeadTimeConfig.OffStateRunMode = TIM_OSSR_DISABLE;
 8002128:	ed9f 7b19 	vldr	d7, [pc, #100]	; 8002190 <MX_TIM1_Init+0x100>
 800212c:	ed8d 7b0e 	vstr	d7, [sp, #56]	; 0x38
 8002130:	ed9f 7b19 	vldr	d7, [pc, #100]	; 8002198 <MX_TIM1_Init+0x108>
 8002134:	ed8d 7b10 	vstr	d7, [sp, #64]	; 0x40
 8002138:	ed9f 7b19 	vldr	d7, [pc, #100]	; 80021a0 <MX_TIM1_Init+0x110>
 800213c:	2200      	movs	r2, #0
 800213e:	2300      	movs	r3, #0
  sBreakDeadTimeConfig.AutomaticOutput = TIM_AUTOMATICOUTPUT_DISABLE;
 8002140:	2400      	movs	r4, #0
  if (HAL_TIMEx_ConfigBreakDeadTime(&htim1, &sBreakDeadTimeConfig) != HAL_OK)
 8002142:	4819      	ldr	r0, [pc, #100]	; (80021a8 <MX_TIM1_Init+0x118>)
  sBreakDeadTimeConfig.AutomaticOutput = TIM_AUTOMATICOUTPUT_DISABLE;
 8002144:	9416      	str	r4, [sp, #88]	; 0x58
  if (HAL_TIMEx_ConfigBreakDeadTime(&htim1, &sBreakDeadTimeConfig) != HAL_OK)
 8002146:	a90c      	add	r1, sp, #48	; 0x30
  sBreakDeadTimeConfig.OffStateRunMode = TIM_OSSR_DISABLE;
 8002148:	e9cd 230c 	strd	r2, r3, [sp, #48]	; 0x30
 800214c:	ed8d 7b14 	vstr	d7, [sp, #80]	; 0x50
 8002150:	e9cd 2312 	strd	r2, r3, [sp, #72]	; 0x48
  if (HAL_TIMEx_ConfigBreakDeadTime(&htim1, &sBreakDeadTimeConfig) != HAL_OK)
 8002154:	f003 f9fe 	bl	8005554 <HAL_TIMEx_ConfigBreakDeadTime>
 8002158:	b938      	cbnz	r0, 800216a <MX_TIM1_Init+0xda>
  HAL_TIM_MspPostInit(&htim1);
 800215a:	4813      	ldr	r0, [pc, #76]	; (80021a8 <MX_TIM1_Init+0x118>)
 800215c:	f7ff ff30 	bl	8001fc0 <HAL_TIM_MspPostInit>
}
 8002160:	b018      	add	sp, #96	; 0x60
 8002162:	bd10      	pop	{r4, pc}
    Error_Handler();
 8002164:	f7ff fd1a 	bl	8001b9c <Error_Handler>
 8002168:	e7b4      	b.n	80020d4 <MX_TIM1_Init+0x44>
    Error_Handler();
 800216a:	f7ff fd17 	bl	8001b9c <Error_Handler>
  HAL_TIM_MspPostInit(&htim1);
 800216e:	480e      	ldr	r0, [pc, #56]	; (80021a8 <MX_TIM1_Init+0x118>)
 8002170:	f7ff ff26 	bl	8001fc0 <HAL_TIM_MspPostInit>
}
 8002174:	b018      	add	sp, #96	; 0x60
 8002176:	bd10      	pop	{r4, pc}
    Error_Handler();
 8002178:	f7ff fd10 	bl	8001b9c <Error_Handler>
 800217c:	e7d4      	b.n	8002128 <MX_TIM1_Init+0x98>
    Error_Handler();
 800217e:	f7ff fd0d 	bl	8001b9c <Error_Handler>
 8002182:	e7cb      	b.n	800211c <MX_TIM1_Init+0x8c>
    Error_Handler();
 8002184:	f7ff fd0a 	bl	8001b9c <Error_Handler>
 8002188:	e7c2      	b.n	8002110 <MX_TIM1_Init+0x80>
    Error_Handler();
 800218a:	f7ff fd07 	bl	8001b9c <Error_Handler>
 800218e:	e7ad      	b.n	80020ec <MX_TIM1_Init+0x5c>
 8002190:	00000000 	.word	0x00000000
 8002194:	0000000a 	.word	0x0000000a
 8002198:	00000000 	.word	0x00000000
 800219c:	00002000 	.word	0x00002000
 80021a0:	02000000 	.word	0x02000000
 80021a4:	00000000 	.word	0x00000000
 80021a8:	20000474 	.word	0x20000474
 80021ac:	40012c00 	.word	0x40012c00

080021b0 <MX_TIM8_Init>:
{
 80021b0:	b510      	push	{r4, lr}
  TIM_MasterConfigTypeDef sMasterConfig = {0};
 80021b2:	2400      	movs	r4, #0
{
 80021b4:	b098      	sub	sp, #96	; 0x60
  TIM_BreakDeadTimeConfigTypeDef sBreakDeadTimeConfig = {0};
 80021b6:	222c      	movs	r2, #44	; 0x2c
 80021b8:	4621      	mov	r1, r4
 80021ba:	a80c      	add	r0, sp, #48	; 0x30
  TIM_MasterConfigTypeDef sMasterConfig = {0};
 80021bc:	e9cd 4401 	strd	r4, r4, [sp, #4]
  TIM_OC_InitTypeDef sConfigOC = {0};
 80021c0:	e9cd 4405 	strd	r4, r4, [sp, #20]
 80021c4:	e9cd 4407 	strd	r4, r4, [sp, #28]
 80021c8:	e9cd 4409 	strd	r4, r4, [sp, #36]	; 0x24
  TIM_MasterConfigTypeDef sMasterConfig = {0};
 80021cc:	9400      	str	r4, [sp, #0]
  TIM_OC_InitTypeDef sConfigOC = {0};
 80021ce:	9404      	str	r4, [sp, #16]
  TIM_BreakDeadTimeConfigTypeDef sBreakDeadTimeConfig = {0};
 80021d0:	f005 f81e 	bl	8007210 <memset>
  htim8.Instance = TIM8;
 80021d4:	4842      	ldr	r0, [pc, #264]	; (80022e0 <MX_TIM8_Init+0x130>)
  htim8.Init.Prescaler = 1;
 80021d6:	4a43      	ldr	r2, [pc, #268]	; (80022e4 <MX_TIM8_Init+0x134>)
  htim8.Init.AutoReloadPreload = TIM_AUTORELOAD_PRELOAD_DISABLE;
 80021d8:	6184      	str	r4, [r0, #24]
  htim8.Init.Prescaler = 1;
 80021da:	2301      	movs	r3, #1
 80021dc:	e9c0 2300 	strd	r2, r3, [r0]
  htim8.Init.Period = 1400;
 80021e0:	f44f 63af 	mov.w	r3, #1400	; 0x578
 80021e4:	e9c0 4302 	strd	r4, r3, [r0, #8]
  htim8.Init.RepetitionCounter = 0;
 80021e8:	e9c0 4404 	strd	r4, r4, [r0, #16]
  if (HAL_TIM_PWM_Init(&htim8) != HAL_OK)
 80021ec:	f002 fdba 	bl	8004d64 <HAL_TIM_PWM_Init>
 80021f0:	2800      	cmp	r0, #0
 80021f2:	d149      	bne.n	8002288 <MX_TIM8_Init+0xd8>
  sMasterConfig.MasterOutputTrigger = TIM_TRGO_RESET;
 80021f4:	2300      	movs	r3, #0
 80021f6:	2200      	movs	r2, #0
 80021f8:	e9cd 2300 	strd	r2, r3, [sp]
  if (HAL_TIMEx_MasterConfigSynchronization(&htim8, &sMasterConfig) != HAL_OK)
 80021fc:	4838      	ldr	r0, [pc, #224]	; (80022e0 <MX_TIM8_Init+0x130>)
  sMasterConfig.MasterSlaveMode = TIM_MASTERSLAVEMODE_DISABLE;
 80021fe:	2300      	movs	r3, #0
  if (HAL_TIMEx_MasterConfigSynchronization(&htim8, &sMasterConfig) != HAL_OK)
 8002200:	4669      	mov	r1, sp
  sMasterConfig.MasterSlaveMode = TIM_MASTERSLAVEMODE_DISABLE;
 8002202:	9302      	str	r3, [sp, #8]
  if (HAL_TIMEx_MasterConfigSynchronization(&htim8, &sMasterConfig) != HAL_OK)
 8002204:	f003 f960 	bl	80054c8 <HAL_TIMEx_MasterConfigSynchronization>
 8002208:	2800      	cmp	r0, #0
 800220a:	d150      	bne.n	80022ae <MX_TIM8_Init+0xfe>
  sConfigOC.OCMode = TIM_OCMODE_PWM1;
 800220c:	2060      	movs	r0, #96	; 0x60
 800220e:	2100      	movs	r1, #0
 8002210:	e9cd 0104 	strd	r0, r1, [sp, #16]
 8002214:	2000      	movs	r0, #0
 8002216:	2100      	movs	r1, #0
 8002218:	e9cd 0106 	strd	r0, r1, [sp, #24]
 800221c:	e9cd 0108 	strd	r0, r1, [sp, #32]
  sConfigOC.OCNIdleState = TIM_OCNIDLESTATE_RESET;
 8002220:	2200      	movs	r2, #0
  if (HAL_TIM_PWM_ConfigChannel(&htim8, &sConfigOC, TIM_CHANNEL_1) != HAL_OK)
 8002222:	482f      	ldr	r0, [pc, #188]	; (80022e0 <MX_TIM8_Init+0x130>)
  sConfigOC.OCNIdleState = TIM_OCNIDLESTATE_RESET;
 8002224:	920a      	str	r2, [sp, #40]	; 0x28
  if (HAL_TIM_PWM_ConfigChannel(&htim8, &sConfigOC, TIM_CHANNEL_1) != HAL_OK)
 8002226:	a904      	add	r1, sp, #16
 8002228:	f002 ffb6 	bl	8005198 <HAL_TIM_PWM_ConfigChannel>
 800222c:	2800      	cmp	r0, #0
 800222e:	d13b      	bne.n	80022a8 <MX_TIM8_Init+0xf8>
  if (HAL_TIM_PWM_ConfigChannel(&htim8, &sConfigOC, TIM_CHANNEL_2) != HAL_OK)
 8002230:	482b      	ldr	r0, [pc, #172]	; (80022e0 <MX_TIM8_Init+0x130>)
 8002232:	2204      	movs	r2, #4
 8002234:	a904      	add	r1, sp, #16
 8002236:	f002 ffaf 	bl	8005198 <HAL_TIM_PWM_ConfigChannel>
 800223a:	bb90      	cbnz	r0, 80022a2 <MX_TIM8_Init+0xf2>
  if (HAL_TIM_PWM_ConfigChannel(&htim8, &sConfigOC, TIM_CHANNEL_3) != HAL_OK)
 800223c:	4828      	ldr	r0, [pc, #160]	; (80022e0 <MX_TIM8_Init+0x130>)
 800223e:	2208      	movs	r2, #8
 8002240:	a904      	add	r1, sp, #16
 8002242:	f002 ffa9 	bl	8005198 <HAL_TIM_PWM_ConfigChannel>
 8002246:	bb48      	cbnz	r0, 800229c <MX_TIM8_Init+0xec>
  sBreakDeadTimeConfig.OffStateRunMode = TIM_OSSR_DISABLE;
 8002248:	ed9f 7b1b 	vldr	d7, [pc, #108]	; 80022b8 <MX_TIM8_Init+0x108>
 800224c:	ed8d 7b0c 	vstr	d7, [sp, #48]	; 0x30
 8002250:	ed9f 7b1b 	vldr	d7, [pc, #108]	; 80022c0 <MX_TIM8_Init+0x110>
 8002254:	ed8d 7b0e 	vstr	d7, [sp, #56]	; 0x38
 8002258:	ed9f 7b1b 	vldr	d7, [pc, #108]	; 80022c8 <MX_TIM8_Init+0x118>
 800225c:	ed8d 7b10 	vstr	d7, [sp, #64]	; 0x40
 8002260:	ed9f 7b1b 	vldr	d7, [pc, #108]	; 80022d0 <MX_TIM8_Init+0x120>
 8002264:	ed8d 7b12 	vstr	d7, [sp, #72]	; 0x48
 8002268:	ed9f 7b1b 	vldr	d7, [pc, #108]	; 80022d8 <MX_TIM8_Init+0x128>
  sBreakDeadTimeConfig.AutomaticOutput = TIM_AUTOMATICOUTPUT_DISABLE;
 800226c:	2300      	movs	r3, #0
  if (HAL_TIMEx_ConfigBreakDeadTime(&htim8, &sBreakDeadTimeConfig) != HAL_OK)
 800226e:	481c      	ldr	r0, [pc, #112]	; (80022e0 <MX_TIM8_Init+0x130>)
  sBreakDeadTimeConfig.AutomaticOutput = TIM_AUTOMATICOUTPUT_DISABLE;
 8002270:	9316      	str	r3, [sp, #88]	; 0x58
  if (HAL_TIMEx_ConfigBreakDeadTime(&htim8, &sBreakDeadTimeConfig) != HAL_OK)
 8002272:	a90c      	add	r1, sp, #48	; 0x30
  sBreakDeadTimeConfig.OffStateRunMode = TIM_OSSR_DISABLE;
 8002274:	ed8d 7b14 	vstr	d7, [sp, #80]	; 0x50
  if (HAL_TIMEx_ConfigBreakDeadTime(&htim8, &sBreakDeadTimeConfig) != HAL_OK)
 8002278:	f003 f96c 	bl	8005554 <HAL_TIMEx_ConfigBreakDeadTime>
 800227c:	b938      	cbnz	r0, 800228e <MX_TIM8_Init+0xde>
  HAL_TIM_MspPostInit(&htim8);
 800227e:	4818      	ldr	r0, [pc, #96]	; (80022e0 <MX_TIM8_Init+0x130>)
 8002280:	f7ff fe9e 	bl	8001fc0 <HAL_TIM_MspPostInit>
}
 8002284:	b018      	add	sp, #96	; 0x60
 8002286:	bd10      	pop	{r4, pc}
    Error_Handler();
 8002288:	f7ff fc88 	bl	8001b9c <Error_Handler>
 800228c:	e7b2      	b.n	80021f4 <MX_TIM8_Init+0x44>
    Error_Handler();
 800228e:	f7ff fc85 	bl	8001b9c <Error_Handler>
  HAL_TIM_MspPostInit(&htim8);
 8002292:	4813      	ldr	r0, [pc, #76]	; (80022e0 <MX_TIM8_Init+0x130>)
 8002294:	f7ff fe94 	bl	8001fc0 <HAL_TIM_MspPostInit>
}
 8002298:	b018      	add	sp, #96	; 0x60
 800229a:	bd10      	pop	{r4, pc}
    Error_Handler();
 800229c:	f7ff fc7e 	bl	8001b9c <Error_Handler>
 80022a0:	e7d2      	b.n	8002248 <MX_TIM8_Init+0x98>
    Error_Handler();
 80022a2:	f7ff fc7b 	bl	8001b9c <Error_Handler>
 80022a6:	e7c9      	b.n	800223c <MX_TIM8_Init+0x8c>
    Error_Handler();
 80022a8:	f7ff fc78 	bl	8001b9c <Error_Handler>
 80022ac:	e7c0      	b.n	8002230 <MX_TIM8_Init+0x80>
    Error_Handler();
 80022ae:	f7ff fc75 	bl	8001b9c <Error_Handler>
 80022b2:	e7ab      	b.n	800220c <MX_TIM8_Init+0x5c>
 80022b4:	f3af 8000 	nop.w
	...
 80022c4:	0000000a 	.word	0x0000000a
 80022c8:	00000000 	.word	0x00000000
 80022cc:	00002000 	.word	0x00002000
 80022d0:	00000004 	.word	0x00000004
 80022d4:	00000000 	.word	0x00000000
 80022d8:	02000000 	.word	0x02000000
 80022dc:	00000004 	.word	0x00000004
 80022e0:	200004c0 	.word	0x200004c0
 80022e4:	40013400 	.word	0x40013400

080022e8 <initFirstSin>:
  }
}

/* USER CODE BEGIN 1 */
float rad_to_sin_cnv_array[1024] = {0};
void initFirstSin(void){
 80022e8:	b5f8      	push	{r3, r4, r5, r6, r7, lr}
  for (int i = 0; i < 1024; i++)
  {
    float temp_rad = (float)i / 256 * M_PI * 2;
    rad_to_sin_cnv_array[i] = sin(temp_rad);
 80022ea:	4d19      	ldr	r5, [pc, #100]	; (8002350 <initFirstSin+0x68>)
 80022ec:	2300      	movs	r3, #0
    float temp_rad = (float)i / 256 * M_PI * 2;
 80022ee:	a716      	add	r7, pc, #88	; (adr r7, 8002348 <initFirstSin+0x60>)
 80022f0:	e9d7 6700 	ldrd	r6, r7, [r7]
void initFirstSin(void){
 80022f4:	ed2d 8b02 	vpush	{d8}
    rad_to_sin_cnv_array[i] = sin(temp_rad);
 80022f8:	f845 3b04 	str.w	r3, [r5], #4
    float temp_rad = (float)i / 256 * M_PI * 2;
 80022fc:	ed9f 8a15 	vldr	s16, [pc, #84]	; 8002354 <initFirstSin+0x6c>
  for (int i = 0; i < 1024; i++)
 8002300:	2401      	movs	r4, #1
    float temp_rad = (float)i / 256 * M_PI * 2;
 8002302:	ee07 4a90 	vmov	s15, r4
 8002306:	eef8 7ae7 	vcvt.f32.s32	s15, s15
  for (int i = 0; i < 1024; i++)
 800230a:	3401      	adds	r4, #1
    float temp_rad = (float)i / 256 * M_PI * 2;
 800230c:	ee67 7a88 	vmul.f32	s15, s15, s16
 8002310:	ee17 0a90 	vmov	r0, s15
 8002314:	f7fe f918 	bl	8000548 <__aeabi_f2d>
 8002318:	4632      	mov	r2, r6
 800231a:	463b      	mov	r3, r7
 800231c:	f7fe f96c 	bl	80005f8 <__aeabi_dmul>
 8002320:	f7fe fc62 	bl	8000be8 <__aeabi_d2f>
    rad_to_sin_cnv_array[i] = sin(temp_rad);
 8002324:	f7fe f910 	bl	8000548 <__aeabi_f2d>
 8002328:	ec41 0b10 	vmov	d0, r0, r1
 800232c:	f003 fefc 	bl	8006128 <sin>
 8002330:	ec51 0b10 	vmov	r0, r1, d0
 8002334:	f7fe fc58 	bl	8000be8 <__aeabi_d2f>
  for (int i = 0; i < 1024; i++)
 8002338:	f5b4 6f80 	cmp.w	r4, #1024	; 0x400
    rad_to_sin_cnv_array[i] = sin(temp_rad);
 800233c:	f845 0b04 	str.w	r0, [r5], #4
  for (int i = 0; i < 1024; i++)
 8002340:	d1df      	bne.n	8002302 <initFirstSin+0x1a>
    // printf("rad %4.3f sin %4.3f\n",temp_rad,rad_to_sin_cnv_array[i]);
    // HAL_Delay(1);
  }
}
 8002342:	ecbd 8b02 	vpop	{d8}
 8002346:	bdf8      	pop	{r3, r4, r5, r6, r7, pc}
 8002348:	54442d18 	.word	0x54442d18
 800234c:	401921fb 	.word	0x401921fb
 8002350:	2000050c 	.word	0x2000050c
 8002354:	3b800000 	.word	0x3b800000

08002358 <setOutputRadianTIM1>:
float fast_sin(float rad)
{
  return rad_to_sin_cnv_array[(uint8_t)(rad / (M_PI * 2) * 256)];
}

void setOutputRadianTIM1(float out_rad, float output_voltage, float battery_voltage){
 8002358:	b508      	push	{r3, lr}
 800235a:	eef0 0ae0 	vabs.f32	s1, s1
  const int pwm_cnt_centor = 700;
  if (output_voltage < 0)
  {
    output_voltage = -output_voltage;
  }
  if (output_voltage > 24)
 800235e:	eef3 7a08 	vmov.f32	s15, #56	; 0x41c00000  24.0
 8002362:	eef4 0ae7 	vcmpe.f32	s1, s15
 8002366:	eef1 fa10 	vmrs	APSR_nzcv, fpscr
void setOutputRadianTIM1(float out_rad, float output_voltage, float battery_voltage){
 800236a:	ed2d 8b02 	vpush	{d8}
 800236e:	ee10 0a10 	vmov	r0, s0
  if (output_voltage > 24)
 8002372:	dc3c      	bgt.n	80023ee <setOutputRadianTIM1+0x96>
  {
    output_voltage = 0;
  }
  voltage_propotional_cnt = output_voltage / 24 * pwm_cnt_centor;
 8002374:	ed9f 8a24 	vldr	s16, [pc, #144]	; 8002408 <setOutputRadianTIM1+0xb0>
 8002378:	ee20 8a88 	vmul.f32	s16, s1, s16
 800237c:	eebd 8ac8 	vcvt.s32.f32	s16, s16

  uint16_t rad_to_cnt = (uint8_t)((out_rad + M_PI * 4) / (M_PI * 2) * 255);
  htim1.Instance->CCR1 = pwm_cnt_centor + voltage_propotional_cnt * rad_to_sin_cnv_array[rad_to_cnt];
 8002380:	eeb8 8ac8 	vcvt.f32.s32	s16, s16
  uint16_t rad_to_cnt = (uint8_t)((out_rad + M_PI * 4) / (M_PI * 2) * 255);
 8002384:	f7fe f8e0 	bl	8000548 <__aeabi_f2d>
 8002388:	a31b      	add	r3, pc, #108	; (adr r3, 80023f8 <setOutputRadianTIM1+0xa0>)
 800238a:	e9d3 2300 	ldrd	r2, r3, [r3]
 800238e:	f7fd ff7d 	bl	800028c <__adddf3>
 8002392:	a31b      	add	r3, pc, #108	; (adr r3, 8002400 <setOutputRadianTIM1+0xa8>)
 8002394:	e9d3 2300 	ldrd	r2, r3, [r3]
 8002398:	f7fe f92e 	bl	80005f8 <__aeabi_dmul>
 800239c:	f7fe fc04 	bl	8000ba8 <__aeabi_d2uiz>
  htim1.Instance->CCR1 = pwm_cnt_centor + voltage_propotional_cnt * rad_to_sin_cnv_array[rad_to_cnt];
 80023a0:	4b1a      	ldr	r3, [pc, #104]	; (800240c <setOutputRadianTIM1+0xb4>)
 80023a2:	eddf 7a1b 	vldr	s15, [pc, #108]	; 8002410 <setOutputRadianTIM1+0xb8>
 80023a6:	b2c0      	uxtb	r0, r0
 80023a8:	eb03 0180 	add.w	r1, r3, r0, lsl #2
 80023ac:	ed91 7a00 	vldr	s14, [r1]
  htim1.Instance->CCR2 = pwm_cnt_centor + voltage_propotional_cnt * rad_to_sin_cnv_array[85 + rad_to_cnt];
 80023b0:	edd1 5a55 	vldr	s11, [r1, #340]	; 0x154
  htim1.Instance->CCR3 = pwm_cnt_centor + voltage_propotional_cnt * rad_to_sin_cnv_array[170 + rad_to_cnt];
 80023b4:	ed91 6aaa 	vldr	s12, [r1, #680]	; 0x2a8
  htim1.Instance->CCR1 = pwm_cnt_centor + voltage_propotional_cnt * rad_to_sin_cnv_array[rad_to_cnt];
 80023b8:	4b16      	ldr	r3, [pc, #88]	; (8002414 <setOutputRadianTIM1+0xbc>)
 80023ba:	eef0 6a67 	vmov.f32	s13, s15
 80023be:	eee7 6a08 	vfma.f32	s13, s14, s16
 80023c2:	681b      	ldr	r3, [r3, #0]
  htim1.Instance->CCR2 = pwm_cnt_centor + voltage_propotional_cnt * rad_to_sin_cnv_array[85 + rad_to_cnt];
 80023c4:	eeb0 7a67 	vmov.f32	s14, s15
 80023c8:	eea5 7a88 	vfma.f32	s14, s11, s16
  htim1.Instance->CCR3 = pwm_cnt_centor + voltage_propotional_cnt * rad_to_sin_cnv_array[170 + rad_to_cnt];
 80023cc:	eee6 7a08 	vfma.f32	s15, s12, s16
}
 80023d0:	ecbd 8b02 	vpop	{d8}
  htim1.Instance->CCR1 = pwm_cnt_centor + voltage_propotional_cnt * rad_to_sin_cnv_array[rad_to_cnt];
 80023d4:	eefc 6ae6 	vcvt.u32.f32	s13, s13
  htim1.Instance->CCR2 = pwm_cnt_centor + voltage_propotional_cnt * rad_to_sin_cnv_array[85 + rad_to_cnt];
 80023d8:	eebc 7ac7 	vcvt.u32.f32	s14, s14
  htim1.Instance->CCR3 = pwm_cnt_centor + voltage_propotional_cnt * rad_to_sin_cnv_array[170 + rad_to_cnt];
 80023dc:	eefc 7ae7 	vcvt.u32.f32	s15, s15
  htim1.Instance->CCR1 = pwm_cnt_centor + voltage_propotional_cnt * rad_to_sin_cnv_array[rad_to_cnt];
 80023e0:	edc3 6a0d 	vstr	s13, [r3, #52]	; 0x34
  htim1.Instance->CCR2 = pwm_cnt_centor + voltage_propotional_cnt * rad_to_sin_cnv_array[85 + rad_to_cnt];
 80023e4:	ed83 7a0e 	vstr	s14, [r3, #56]	; 0x38
  htim1.Instance->CCR3 = pwm_cnt_centor + voltage_propotional_cnt * rad_to_sin_cnv_array[170 + rad_to_cnt];
 80023e8:	edc3 7a0f 	vstr	s15, [r3, #60]	; 0x3c
}
 80023ec:	bd08      	pop	{r3, pc}
 80023ee:	ed9f 8a0a 	vldr	s16, [pc, #40]	; 8002418 <setOutputRadianTIM1+0xc0>
 80023f2:	e7c7      	b.n	8002384 <setOutputRadianTIM1+0x2c>
 80023f4:	f3af 8000 	nop.w
 80023f8:	54442d18 	.word	0x54442d18
 80023fc:	402921fb 	.word	0x402921fb
 8002400:	3d5bfeba 	.word	0x3d5bfeba
 8002404:	40444ad1 	.word	0x40444ad1
 8002408:	41e95556 	.word	0x41e95556
 800240c:	2000050c 	.word	0x2000050c
 8002410:	442f0000 	.word	0x442f0000
 8002414:	20000474 	.word	0x20000474
	...

08002420 <setOutputRadianTIM8>:

void setOutputRadianTIM8(float out_rad, float output_voltage, float battery_voltage){
 8002420:	b508      	push	{r3, lr}
 8002422:	eef0 0ae0 	vabs.f32	s1, s1
  const int pwm_cnt_centor = 700;
  if (output_voltage < 0)
  {
    output_voltage = -output_voltage;
  }
  if (output_voltage > 24)
 8002426:	eef3 7a08 	vmov.f32	s15, #56	; 0x41c00000  24.0
 800242a:	eef4 0ae7 	vcmpe.f32	s1, s15
 800242e:	eef1 fa10 	vmrs	APSR_nzcv, fpscr
void setOutputRadianTIM8(float out_rad, float output_voltage, float battery_voltage){
 8002432:	ed2d 8b02 	vpush	{d8}
 8002436:	ee10 0a10 	vmov	r0, s0
  if (output_voltage > 24)
 800243a:	dc3c      	bgt.n	80024b6 <setOutputRadianTIM8+0x96>
  {
    output_voltage = 0;
  }
  voltage_propotional_cnt = output_voltage / 24 * pwm_cnt_centor;
 800243c:	ed9f 8a24 	vldr	s16, [pc, #144]	; 80024d0 <setOutputRadianTIM8+0xb0>
 8002440:	ee20 8a88 	vmul.f32	s16, s1, s16
 8002444:	eebd 8ac8 	vcvt.s32.f32	s16, s16

  uint16_t rad_to_cnt = (uint8_t)((out_rad + M_PI * 4) / (M_PI * 2) * 255);
  htim8.Instance->CCR1 = pwm_cnt_centor + voltage_propotional_cnt * rad_to_sin_cnv_array[rad_to_cnt];
 8002448:	eeb8 8ac8 	vcvt.f32.s32	s16, s16
  uint16_t rad_to_cnt = (uint8_t)((out_rad + M_PI * 4) / (M_PI * 2) * 255);
 800244c:	f7fe f87c 	bl	8000548 <__aeabi_f2d>
 8002450:	a31b      	add	r3, pc, #108	; (adr r3, 80024c0 <setOutputRadianTIM8+0xa0>)
 8002452:	e9d3 2300 	ldrd	r2, r3, [r3]
 8002456:	f7fd ff19 	bl	800028c <__adddf3>
 800245a:	a31b      	add	r3, pc, #108	; (adr r3, 80024c8 <setOutputRadianTIM8+0xa8>)
 800245c:	e9d3 2300 	ldrd	r2, r3, [r3]
 8002460:	f7fe f8ca 	bl	80005f8 <__aeabi_dmul>
 8002464:	f7fe fba0 	bl	8000ba8 <__aeabi_d2uiz>
  htim8.Instance->CCR1 = pwm_cnt_centor + voltage_propotional_cnt * rad_to_sin_cnv_array[rad_to_cnt];
 8002468:	4b1a      	ldr	r3, [pc, #104]	; (80024d4 <setOutputRadianTIM8+0xb4>)
 800246a:	eddf 7a1b 	vldr	s15, [pc, #108]	; 80024d8 <setOutputRadianTIM8+0xb8>
 800246e:	b2c0      	uxtb	r0, r0
 8002470:	eb03 0180 	add.w	r1, r3, r0, lsl #2
 8002474:	ed91 7a00 	vldr	s14, [r1]
  htim8.Instance->CCR2 = pwm_cnt_centor + voltage_propotional_cnt * rad_to_sin_cnv_array[85 + rad_to_cnt];
 8002478:	edd1 5a55 	vldr	s11, [r1, #340]	; 0x154
  htim8.Instance->CCR3 = pwm_cnt_centor + voltage_propotional_cnt * rad_to_sin_cnv_array[170 + rad_to_cnt];
 800247c:	ed91 6aaa 	vldr	s12, [r1, #680]	; 0x2a8
  htim8.Instance->CCR1 = pwm_cnt_centor + voltage_propotional_cnt * rad_to_sin_cnv_array[rad_to_cnt];
 8002480:	4b16      	ldr	r3, [pc, #88]	; (80024dc <setOutputRadianTIM8+0xbc>)
 8002482:	eef0 6a67 	vmov.f32	s13, s15
 8002486:	eee7 6a08 	vfma.f32	s13, s14, s16
 800248a:	681b      	ldr	r3, [r3, #0]
  htim8.Instance->CCR2 = pwm_cnt_centor + voltage_propotional_cnt * rad_to_sin_cnv_array[85 + rad_to_cnt];
 800248c:	eeb0 7a67 	vmov.f32	s14, s15
 8002490:	eea5 7a88 	vfma.f32	s14, s11, s16
  htim8.Instance->CCR3 = pwm_cnt_centor + voltage_propotional_cnt * rad_to_sin_cnv_array[170 + rad_to_cnt];
 8002494:	eee6 7a08 	vfma.f32	s15, s12, s16
}
 8002498:	ecbd 8b02 	vpop	{d8}
  htim8.Instance->CCR1 = pwm_cnt_centor + voltage_propotional_cnt * rad_to_sin_cnv_array[rad_to_cnt];
 800249c:	eefc 6ae6 	vcvt.u32.f32	s13, s13
  htim8.Instance->CCR2 = pwm_cnt_centor + voltage_propotional_cnt * rad_to_sin_cnv_array[85 + rad_to_cnt];
 80024a0:	eebc 7ac7 	vcvt.u32.f32	s14, s14
  htim8.Instance->CCR3 = pwm_cnt_centor + voltage_propotional_cnt * rad_to_sin_cnv_array[170 + rad_to_cnt];
 80024a4:	eefc 7ae7 	vcvt.u32.f32	s15, s15
  htim8.Instance->CCR1 = pwm_cnt_centor + voltage_propotional_cnt * rad_to_sin_cnv_array[rad_to_cnt];
 80024a8:	edc3 6a0d 	vstr	s13, [r3, #52]	; 0x34
  htim8.Instance->CCR2 = pwm_cnt_centor + voltage_propotional_cnt * rad_to_sin_cnv_array[85 + rad_to_cnt];
 80024ac:	ed83 7a0e 	vstr	s14, [r3, #56]	; 0x38
  htim8.Instance->CCR3 = pwm_cnt_centor + voltage_propotional_cnt * rad_to_sin_cnv_array[170 + rad_to_cnt];
 80024b0:	edc3 7a0f 	vstr	s15, [r3, #60]	; 0x3c
}
 80024b4:	bd08      	pop	{r3, pc}
 80024b6:	ed9f 8a0a 	vldr	s16, [pc, #40]	; 80024e0 <setOutputRadianTIM8+0xc0>
 80024ba:	e7c7      	b.n	800244c <setOutputRadianTIM8+0x2c>
 80024bc:	f3af 8000 	nop.w
 80024c0:	54442d18 	.word	0x54442d18
 80024c4:	402921fb 	.word	0x402921fb
 80024c8:	3d5bfeba 	.word	0x3d5bfeba
 80024cc:	40444ad1 	.word	0x40444ad1
 80024d0:	41e95556 	.word	0x41e95556
 80024d4:	2000050c 	.word	0x2000050c
 80024d8:	442f0000 	.word	0x442f0000
 80024dc:	200004c0 	.word	0x200004c0
 80024e0:	00000000 	.word	0x00000000

080024e4 <MX_USART1_UART_Init>:
UART_HandleTypeDef huart1;

/* USART1 init function */

void MX_USART1_UART_Init(void)
{
 80024e4:	b510      	push	{r4, lr}
  /* USER CODE END USART1_Init 0 */

  /* USER CODE BEGIN USART1_Init 1 */

  /* USER CODE END USART1_Init 1 */
  huart1.Instance = USART1;
 80024e6:	480b      	ldr	r0, [pc, #44]	; (8002514 <MX_USART1_UART_Init+0x30>)
 80024e8:	4c0b      	ldr	r4, [pc, #44]	; (8002518 <MX_USART1_UART_Init+0x34>)
  huart1.Init.BaudRate = 2000000;
 80024ea:	490c      	ldr	r1, [pc, #48]	; (800251c <MX_USART1_UART_Init+0x38>)
  huart1.Init.WordLength = UART_WORDLENGTH_8B;
 80024ec:	2300      	movs	r3, #0
  huart1.Init.StopBits = UART_STOPBITS_1;
  huart1.Init.Parity = UART_PARITY_NONE;
  huart1.Init.Mode = UART_MODE_TX_RX;
 80024ee:	220c      	movs	r2, #12
  huart1.Init.BaudRate = 2000000;
 80024f0:	e9c0 4100 	strd	r4, r1, [r0]
  huart1.Init.StopBits = UART_STOPBITS_1;
 80024f4:	e9c0 3302 	strd	r3, r3, [r0, #8]
  huart1.Init.Mode = UART_MODE_TX_RX;
 80024f8:	e9c0 3204 	strd	r3, r2, [r0, #16]
  huart1.Init.HwFlowCtl = UART_HWCONTROL_NONE;
  huart1.Init.OverSampling = UART_OVERSAMPLING_16;
 80024fc:	e9c0 3306 	strd	r3, r3, [r0, #24]
  huart1.Init.OneBitSampling = UART_ONE_BIT_SAMPLE_DISABLE;
  huart1.AdvancedInit.AdvFeatureInit = UART_ADVFEATURE_NO_INIT;
 8002500:	e9c0 3308 	strd	r3, r3, [r0, #32]
  if (HAL_UART_Init(&huart1) != HAL_OK)
 8002504:	f003 fda4 	bl	8006050 <HAL_UART_Init>
 8002508:	b900      	cbnz	r0, 800250c <MX_USART1_UART_Init+0x28>
  }
  /* USER CODE BEGIN USART1_Init 2 */

  /* USER CODE END USART1_Init 2 */

}
 800250a:	bd10      	pop	{r4, pc}
 800250c:	e8bd 4010 	ldmia.w	sp!, {r4, lr}
    Error_Handler();
 8002510:	f7ff bb44 	b.w	8001b9c <Error_Handler>
 8002514:	2000150c 	.word	0x2000150c
 8002518:	40013800 	.word	0x40013800
 800251c:	001e8480 	.word	0x001e8480

08002520 <HAL_UART_MspInit>:

void HAL_UART_MspInit(UART_HandleTypeDef* uartHandle)
{
 8002520:	b530      	push	{r4, r5, lr}

  GPIO_InitTypeDef GPIO_InitStruct = {0};
  if(uartHandle->Instance==USART1)
 8002522:	4b1b      	ldr	r3, [pc, #108]	; (8002590 <HAL_UART_MspInit+0x70>)
 8002524:	6802      	ldr	r2, [r0, #0]
{
 8002526:	b089      	sub	sp, #36	; 0x24
  GPIO_InitTypeDef GPIO_InitStruct = {0};
 8002528:	2400      	movs	r4, #0
  if(uartHandle->Instance==USART1)
 800252a:	429a      	cmp	r2, r3
  GPIO_InitTypeDef GPIO_InitStruct = {0};
 800252c:	e9cd 4402 	strd	r4, r4, [sp, #8]
 8002530:	e9cd 4404 	strd	r4, r4, [sp, #16]
 8002534:	9406      	str	r4, [sp, #24]
  if(uartHandle->Instance==USART1)
 8002536:	d001      	beq.n	800253c <HAL_UART_MspInit+0x1c>
    HAL_NVIC_EnableIRQ(USART1_IRQn);
  /* USER CODE BEGIN USART1_MspInit 1 */

  /* USER CODE END USART1_MspInit 1 */
  }
}
 8002538:	b009      	add	sp, #36	; 0x24
 800253a:	bd30      	pop	{r4, r5, pc}
    __HAL_RCC_USART1_CLK_ENABLE();
 800253c:	f503 4358 	add.w	r3, r3, #55296	; 0xd800
    HAL_GPIO_Init(GPIOC, &GPIO_InitStruct);
 8002540:	a902      	add	r1, sp, #8
    __HAL_RCC_USART1_CLK_ENABLE();
 8002542:	699a      	ldr	r2, [r3, #24]
    HAL_GPIO_Init(GPIOC, &GPIO_InitStruct);
 8002544:	4813      	ldr	r0, [pc, #76]	; (8002594 <HAL_UART_MspInit+0x74>)
    __HAL_RCC_USART1_CLK_ENABLE();
 8002546:	f442 4280 	orr.w	r2, r2, #16384	; 0x4000
 800254a:	619a      	str	r2, [r3, #24]
 800254c:	699a      	ldr	r2, [r3, #24]
 800254e:	f402 4280 	and.w	r2, r2, #16384	; 0x4000
 8002552:	9200      	str	r2, [sp, #0]
 8002554:	9a00      	ldr	r2, [sp, #0]
    __HAL_RCC_GPIOC_CLK_ENABLE();
 8002556:	695a      	ldr	r2, [r3, #20]
 8002558:	f442 2200 	orr.w	r2, r2, #524288	; 0x80000
 800255c:	615a      	str	r2, [r3, #20]
 800255e:	695b      	ldr	r3, [r3, #20]
 8002560:	f403 2300 	and.w	r3, r3, #524288	; 0x80000
 8002564:	9301      	str	r3, [sp, #4]
    GPIO_InitStruct.Pin = GPIO_PIN_4|GPIO_PIN_5;
 8002566:	2230      	movs	r2, #48	; 0x30
 8002568:	2302      	movs	r3, #2
 800256a:	e9cd 2302 	strd	r2, r3, [sp, #8]
    GPIO_InitStruct.Alternate = GPIO_AF7_USART1;
 800256e:	2307      	movs	r3, #7
    GPIO_InitStruct.Speed = GPIO_SPEED_FREQ_HIGH;
 8002570:	2203      	movs	r2, #3
    GPIO_InitStruct.Alternate = GPIO_AF7_USART1;
 8002572:	e9cd 2305 	strd	r2, r3, [sp, #20]
    __HAL_RCC_GPIOC_CLK_ENABLE();
 8002576:	9d01      	ldr	r5, [sp, #4]
    HAL_GPIO_Init(GPIOC, &GPIO_InitStruct);
 8002578:	f001 fc5a 	bl	8003e30 <HAL_GPIO_Init>
    HAL_NVIC_SetPriority(USART1_IRQn, 0, 0);
 800257c:	4622      	mov	r2, r4
 800257e:	4621      	mov	r1, r4
 8002580:	2025      	movs	r0, #37	; 0x25
 8002582:	f001 fb1d 	bl	8003bc0 <HAL_NVIC_SetPriority>
    HAL_NVIC_EnableIRQ(USART1_IRQn);
 8002586:	2025      	movs	r0, #37	; 0x25
 8002588:	f001 fb58 	bl	8003c3c <HAL_NVIC_EnableIRQ>
}
 800258c:	b009      	add	sp, #36	; 0x24
 800258e:	bd30      	pop	{r4, r5, pc}
 8002590:	40013800 	.word	0x40013800
 8002594:	48000800 	.word	0x48000800

08002598 <Reset_Handler>:
 8002598:	f8df d034 	ldr.w	sp, [pc, #52]	; 80025d0 <LoopForever+0x2>
 800259c:	480d      	ldr	r0, [pc, #52]	; (80025d4 <LoopForever+0x6>)
 800259e:	490e      	ldr	r1, [pc, #56]	; (80025d8 <LoopForever+0xa>)
 80025a0:	4a0e      	ldr	r2, [pc, #56]	; (80025dc <LoopForever+0xe>)
 80025a2:	2300      	movs	r3, #0
 80025a4:	e002      	b.n	80025ac <LoopCopyDataInit>

080025a6 <CopyDataInit>:
 80025a6:	58d4      	ldr	r4, [r2, r3]
 80025a8:	50c4      	str	r4, [r0, r3]
 80025aa:	3304      	adds	r3, #4

080025ac <LoopCopyDataInit>:
 80025ac:	18c4      	adds	r4, r0, r3
 80025ae:	428c      	cmp	r4, r1
 80025b0:	d3f9      	bcc.n	80025a6 <CopyDataInit>
 80025b2:	4a0b      	ldr	r2, [pc, #44]	; (80025e0 <LoopForever+0x12>)
 80025b4:	4c0b      	ldr	r4, [pc, #44]	; (80025e4 <LoopForever+0x16>)
 80025b6:	2300      	movs	r3, #0
 80025b8:	e001      	b.n	80025be <LoopFillZerobss>

080025ba <FillZerobss>:
 80025ba:	6013      	str	r3, [r2, #0]
 80025bc:	3204      	adds	r2, #4

080025be <LoopFillZerobss>:
 80025be:	42a2      	cmp	r2, r4
 80025c0:	d3fb      	bcc.n	80025ba <FillZerobss>
 80025c2:	f7ff fcb5 	bl	8001f30 <SystemInit>
 80025c6:	f004 fdff 	bl	80071c8 <__libc_init_array>
 80025ca:	f7ff f905 	bl	80017d8 <main>

080025ce <LoopForever>:
 80025ce:	e7fe      	b.n	80025ce <LoopForever>
 80025d0:	20008000 	.word	0x20008000
 80025d4:	20000000 	.word	0x20000000
 80025d8:	200001dc 	.word	0x200001dc
 80025dc:	0800a444 	.word	0x0800a444
 80025e0:	200001e0 	.word	0x200001e0
 80025e4:	200015a4 	.word	0x200015a4

080025e8 <ADC1_2_IRQHandler>:
 80025e8:	e7fe      	b.n	80025e8 <ADC1_2_IRQHandler>
	...

080025ec <HAL_InitTick>:
  *         implementation  in user file.
  * @param TickPriority Tick interrupt priority.
  * @retval HAL status
  */
__weak HAL_StatusTypeDef HAL_InitTick(uint32_t TickPriority)
{
 80025ec:	b538      	push	{r3, r4, r5, lr}
  /* Configure the SysTick to have interrupt in 1ms time basis*/
  if (HAL_SYSTICK_Config(SystemCoreClock / (1000U / uwTickFreq)) > 0U)
 80025ee:	4a0e      	ldr	r2, [pc, #56]	; (8002628 <HAL_InitTick+0x3c>)
 80025f0:	4b0e      	ldr	r3, [pc, #56]	; (800262c <HAL_InitTick+0x40>)
 80025f2:	7812      	ldrb	r2, [r2, #0]
 80025f4:	681b      	ldr	r3, [r3, #0]
{
 80025f6:	4605      	mov	r5, r0
  if (HAL_SYSTICK_Config(SystemCoreClock / (1000U / uwTickFreq)) > 0U)
 80025f8:	f44f 707a 	mov.w	r0, #1000	; 0x3e8
 80025fc:	fbb0 f0f2 	udiv	r0, r0, r2
 8002600:	fbb3 f0f0 	udiv	r0, r3, r0
 8002604:	f001 fb28 	bl	8003c58 <HAL_SYSTICK_Config>
 8002608:	b908      	cbnz	r0, 800260e <HAL_InitTick+0x22>
  {
    return HAL_ERROR;
  }

  /* Configure the SysTick IRQ priority */
  if (TickPriority < (1UL << __NVIC_PRIO_BITS))
 800260a:	2d0f      	cmp	r5, #15
 800260c:	d901      	bls.n	8002612 <HAL_InitTick+0x26>
    return HAL_ERROR;
 800260e:	2001      	movs	r0, #1
  {
    return HAL_ERROR;
  }
   /* Return function status */
  return HAL_OK;
}
 8002610:	bd38      	pop	{r3, r4, r5, pc}
 8002612:	4604      	mov	r4, r0
    HAL_NVIC_SetPriority(SysTick_IRQn, TickPriority, 0U);
 8002614:	4602      	mov	r2, r0
 8002616:	4629      	mov	r1, r5
 8002618:	f04f 30ff 	mov.w	r0, #4294967295
 800261c:	f001 fad0 	bl	8003bc0 <HAL_NVIC_SetPriority>
    uwTickPrio = TickPriority;
 8002620:	4b03      	ldr	r3, [pc, #12]	; (8002630 <HAL_InitTick+0x44>)
 8002622:	4620      	mov	r0, r4
 8002624:	601d      	str	r5, [r3, #0]
}
 8002626:	bd38      	pop	{r3, r4, r5, pc}
 8002628:	20000004 	.word	0x20000004
 800262c:	20000000 	.word	0x20000000
 8002630:	20000008 	.word	0x20000008

08002634 <HAL_Init>:
  __HAL_FLASH_PREFETCH_BUFFER_ENABLE();
 8002634:	4a07      	ldr	r2, [pc, #28]	; (8002654 <HAL_Init+0x20>)
{
 8002636:	b508      	push	{r3, lr}
  __HAL_FLASH_PREFETCH_BUFFER_ENABLE();
 8002638:	6813      	ldr	r3, [r2, #0]
 800263a:	f043 0310 	orr.w	r3, r3, #16
 800263e:	6013      	str	r3, [r2, #0]
  HAL_NVIC_SetPriorityGrouping(NVIC_PRIORITYGROUP_4);
 8002640:	2003      	movs	r0, #3
 8002642:	f001 faab 	bl	8003b9c <HAL_NVIC_SetPriorityGrouping>
  HAL_InitTick(TICK_INT_PRIORITY);
 8002646:	200f      	movs	r0, #15
 8002648:	f7ff ffd0 	bl	80025ec <HAL_InitTick>
  HAL_MspInit();
 800264c:	f7ff fbba 	bl	8001dc4 <HAL_MspInit>
}
 8002650:	2000      	movs	r0, #0
 8002652:	bd08      	pop	{r3, pc}
 8002654:	40022000 	.word	0x40022000

08002658 <HAL_IncTick>:
  *         implementations  in user file.
  * @retval None
  */
__weak void HAL_IncTick(void)
{
  uwTick += uwTickFreq;
 8002658:	4a03      	ldr	r2, [pc, #12]	; (8002668 <HAL_IncTick+0x10>)
 800265a:	4b04      	ldr	r3, [pc, #16]	; (800266c <HAL_IncTick+0x14>)
 800265c:	6811      	ldr	r1, [r2, #0]
 800265e:	781b      	ldrb	r3, [r3, #0]
 8002660:	440b      	add	r3, r1
 8002662:	6013      	str	r3, [r2, #0]
}
 8002664:	4770      	bx	lr
 8002666:	bf00      	nop
 8002668:	20001590 	.word	0x20001590
 800266c:	20000004 	.word	0x20000004

08002670 <HAL_GetTick>:
  *         implementations  in user file.
  * @retval tick value
  */
__weak uint32_t HAL_GetTick(void)
{
  return uwTick;  
 8002670:	4b01      	ldr	r3, [pc, #4]	; (8002678 <HAL_GetTick+0x8>)
 8002672:	6818      	ldr	r0, [r3, #0]
}
 8002674:	4770      	bx	lr
 8002676:	bf00      	nop
 8002678:	20001590 	.word	0x20001590

0800267c <HAL_Delay>:
  *         implementations  in user file.
  * @param  Delay specifies the delay time length, in milliseconds.
  * @retval None
  */
__weak void HAL_Delay(uint32_t Delay)
{
 800267c:	b538      	push	{r3, r4, r5, lr}
 800267e:	4604      	mov	r4, r0
  uint32_t tickstart = HAL_GetTick();
 8002680:	f7ff fff6 	bl	8002670 <HAL_GetTick>
  uint32_t wait = Delay;
  
  /* Add freq to guarantee minimum wait */
  if (wait < HAL_MAX_DELAY)
 8002684:	1c63      	adds	r3, r4, #1
  uint32_t tickstart = HAL_GetTick();
 8002686:	4605      	mov	r5, r0
  if (wait < HAL_MAX_DELAY)
 8002688:	d002      	beq.n	8002690 <HAL_Delay+0x14>
  {
    wait += (uint32_t)(uwTickFreq);
 800268a:	4b04      	ldr	r3, [pc, #16]	; (800269c <HAL_Delay+0x20>)
 800268c:	781b      	ldrb	r3, [r3, #0]
 800268e:	441c      	add	r4, r3
  }
  
  while((HAL_GetTick() - tickstart) < wait)
 8002690:	f7ff ffee 	bl	8002670 <HAL_GetTick>
 8002694:	1b43      	subs	r3, r0, r5
 8002696:	42a3      	cmp	r3, r4
 8002698:	d3fa      	bcc.n	8002690 <HAL_Delay+0x14>
  {
  }
}
 800269a:	bd38      	pop	{r3, r4, r5, pc}
 800269c:	20000004 	.word	0x20000004

080026a0 <ADC_Disable>:
  uint32_t tickstart = 0U;
  
  /* Verification if ADC is not already disabled:                             */
  /* Note: forbidden to disable ADC (set bit ADC_CR_ADDIS) if ADC is already  */
  /* disabled.                                                                */
  if (ADC_IS_ENABLE(hadc) != RESET )
 80026a0:	6802      	ldr	r2, [r0, #0]
{
 80026a2:	b538      	push	{r3, r4, r5, lr}
  if (ADC_IS_ENABLE(hadc) != RESET )
 80026a4:	6893      	ldr	r3, [r2, #8]
 80026a6:	f003 0303 	and.w	r3, r3, #3
 80026aa:	2b01      	cmp	r3, #1
 80026ac:	d001      	beq.n	80026b2 <ADC_Disable+0x12>
      }
    }
  }
  
  /* Return HAL status */
  return HAL_OK;
 80026ae:	2000      	movs	r0, #0
}
 80026b0:	bd38      	pop	{r3, r4, r5, pc}
  if (ADC_IS_ENABLE(hadc) != RESET )
 80026b2:	6811      	ldr	r1, [r2, #0]
 80026b4:	07cc      	lsls	r4, r1, #31
 80026b6:	d5fa      	bpl.n	80026ae <ADC_Disable+0xe>
    if (ADC_DISABLING_CONDITIONS(hadc) != RESET)
 80026b8:	6891      	ldr	r1, [r2, #8]
 80026ba:	f001 010d 	and.w	r1, r1, #13
 80026be:	2901      	cmp	r1, #1
 80026c0:	4604      	mov	r4, r0
 80026c2:	d009      	beq.n	80026d8 <ADC_Disable+0x38>
      SET_BIT(hadc->State, HAL_ADC_STATE_ERROR_INTERNAL);
 80026c4:	6c02      	ldr	r2, [r0, #64]	; 0x40
 80026c6:	f042 0210 	orr.w	r2, r2, #16
 80026ca:	6422      	str	r2, [r4, #64]	; 0x40
      return HAL_ERROR;
 80026cc:	4618      	mov	r0, r3
      SET_BIT(hadc->ErrorCode, HAL_ADC_ERROR_INTERNAL);
 80026ce:	6c63      	ldr	r3, [r4, #68]	; 0x44
 80026d0:	f043 0301 	orr.w	r3, r3, #1
 80026d4:	6463      	str	r3, [r4, #68]	; 0x44
}
 80026d6:	bd38      	pop	{r3, r4, r5, pc}
      __HAL_ADC_DISABLE(hadc);
 80026d8:	6893      	ldr	r3, [r2, #8]
 80026da:	2103      	movs	r1, #3
 80026dc:	f043 0302 	orr.w	r3, r3, #2
 80026e0:	6093      	str	r3, [r2, #8]
 80026e2:	6011      	str	r1, [r2, #0]
    tickstart = HAL_GetTick();
 80026e4:	f7ff ffc4 	bl	8002670 <HAL_GetTick>
    while(HAL_IS_BIT_SET(hadc->Instance->CR, ADC_CR_ADEN))
 80026e8:	6823      	ldr	r3, [r4, #0]
 80026ea:	689b      	ldr	r3, [r3, #8]
 80026ec:	07d9      	lsls	r1, r3, #31
    tickstart = HAL_GetTick();
 80026ee:	4605      	mov	r5, r0
    while(HAL_IS_BIT_SET(hadc->Instance->CR, ADC_CR_ADEN))
 80026f0:	d403      	bmi.n	80026fa <ADC_Disable+0x5a>
 80026f2:	e7dc      	b.n	80026ae <ADC_Disable+0xe>
 80026f4:	689b      	ldr	r3, [r3, #8]
 80026f6:	07db      	lsls	r3, r3, #31
 80026f8:	d5d9      	bpl.n	80026ae <ADC_Disable+0xe>
      if((HAL_GetTick() - tickstart) > ADC_DISABLE_TIMEOUT)
 80026fa:	f7ff ffb9 	bl	8002670 <HAL_GetTick>
 80026fe:	1b40      	subs	r0, r0, r5
 8002700:	2802      	cmp	r0, #2
        if(HAL_IS_BIT_SET(hadc->Instance->CR, ADC_CR_ADEN))
 8002702:	6823      	ldr	r3, [r4, #0]
      if((HAL_GetTick() - tickstart) > ADC_DISABLE_TIMEOUT)
 8002704:	d9f6      	bls.n	80026f4 <ADC_Disable+0x54>
        if(HAL_IS_BIT_SET(hadc->Instance->CR, ADC_CR_ADEN))
 8002706:	689a      	ldr	r2, [r3, #8]
 8002708:	07d2      	lsls	r2, r2, #31
 800270a:	d5f3      	bpl.n	80026f4 <ADC_Disable+0x54>
          SET_BIT(hadc->State, HAL_ADC_STATE_ERROR_INTERNAL);
 800270c:	6c23      	ldr	r3, [r4, #64]	; 0x40
 800270e:	f043 0310 	orr.w	r3, r3, #16
 8002712:	6423      	str	r3, [r4, #64]	; 0x40
          SET_BIT(hadc->ErrorCode, HAL_ADC_ERROR_INTERNAL);
 8002714:	6c63      	ldr	r3, [r4, #68]	; 0x44
          return HAL_ERROR;
 8002716:	2001      	movs	r0, #1
          SET_BIT(hadc->ErrorCode, HAL_ADC_ERROR_INTERNAL);
 8002718:	4303      	orrs	r3, r0
 800271a:	6463      	str	r3, [r4, #68]	; 0x44
}
 800271c:	bd38      	pop	{r3, r4, r5, pc}
 800271e:	bf00      	nop

08002720 <ADC_Enable>:
  if (ADC_IS_ENABLE(hadc) == RESET)
 8002720:	6802      	ldr	r2, [r0, #0]
{
 8002722:	b538      	push	{r3, r4, r5, lr}
  if (ADC_IS_ENABLE(hadc) == RESET)
 8002724:	6893      	ldr	r3, [r2, #8]
 8002726:	f003 0303 	and.w	r3, r3, #3
 800272a:	2b01      	cmp	r3, #1
{
 800272c:	4604      	mov	r4, r0
  if (ADC_IS_ENABLE(hadc) == RESET)
 800272e:	d025      	beq.n	800277c <ADC_Enable+0x5c>
    if (ADC_ENABLING_CONDITIONS(hadc) == RESET)
 8002730:	6891      	ldr	r1, [r2, #8]
 8002732:	4b15      	ldr	r3, [pc, #84]	; (8002788 <ADC_Enable+0x68>)
 8002734:	4219      	tst	r1, r3
 8002736:	d008      	beq.n	800274a <ADC_Enable+0x2a>
          SET_BIT(hadc->State, HAL_ADC_STATE_ERROR_INTERNAL);
 8002738:	6c23      	ldr	r3, [r4, #64]	; 0x40
 800273a:	f043 0310 	orr.w	r3, r3, #16
 800273e:	6423      	str	r3, [r4, #64]	; 0x40
          SET_BIT(hadc->ErrorCode, HAL_ADC_ERROR_INTERNAL);
 8002740:	6c63      	ldr	r3, [r4, #68]	; 0x44
          return HAL_ERROR;
 8002742:	2001      	movs	r0, #1
          SET_BIT(hadc->ErrorCode, HAL_ADC_ERROR_INTERNAL);
 8002744:	4303      	orrs	r3, r0
 8002746:	6463      	str	r3, [r4, #68]	; 0x44
}
 8002748:	bd38      	pop	{r3, r4, r5, pc}
    __HAL_ADC_ENABLE(hadc);
 800274a:	6893      	ldr	r3, [r2, #8]
 800274c:	f043 0301 	orr.w	r3, r3, #1
 8002750:	6093      	str	r3, [r2, #8]
    tickstart = HAL_GetTick();  
 8002752:	f7ff ff8d 	bl	8002670 <HAL_GetTick>
    while(__HAL_ADC_GET_FLAG(hadc, ADC_FLAG_RDY) == RESET)
 8002756:	6823      	ldr	r3, [r4, #0]
    tickstart = HAL_GetTick();  
 8002758:	4605      	mov	r5, r0
    while(__HAL_ADC_GET_FLAG(hadc, ADC_FLAG_RDY) == RESET)
 800275a:	681b      	ldr	r3, [r3, #0]
 800275c:	07d9      	lsls	r1, r3, #31
 800275e:	d40b      	bmi.n	8002778 <ADC_Enable+0x58>
      if((HAL_GetTick() - tickstart) > ADC_ENABLE_TIMEOUT)
 8002760:	f7ff ff86 	bl	8002670 <HAL_GetTick>
 8002764:	1b43      	subs	r3, r0, r5
 8002766:	2b02      	cmp	r3, #2
        if(__HAL_ADC_GET_FLAG(hadc, ADC_FLAG_RDY) == RESET)
 8002768:	6823      	ldr	r3, [r4, #0]
      if((HAL_GetTick() - tickstart) > ADC_ENABLE_TIMEOUT)
 800276a:	d9f6      	bls.n	800275a <ADC_Enable+0x3a>
        if(__HAL_ADC_GET_FLAG(hadc, ADC_FLAG_RDY) == RESET)
 800276c:	681a      	ldr	r2, [r3, #0]
 800276e:	07d2      	lsls	r2, r2, #31
 8002770:	d5e2      	bpl.n	8002738 <ADC_Enable+0x18>
    while(__HAL_ADC_GET_FLAG(hadc, ADC_FLAG_RDY) == RESET)
 8002772:	681b      	ldr	r3, [r3, #0]
 8002774:	07d9      	lsls	r1, r3, #31
 8002776:	d5f3      	bpl.n	8002760 <ADC_Enable+0x40>
  return HAL_OK;
 8002778:	2000      	movs	r0, #0
}
 800277a:	bd38      	pop	{r3, r4, r5, pc}
  if (ADC_IS_ENABLE(hadc) == RESET)
 800277c:	6813      	ldr	r3, [r2, #0]
 800277e:	07d8      	lsls	r0, r3, #31
 8002780:	d5d6      	bpl.n	8002730 <ADC_Enable+0x10>
  return HAL_OK;
 8002782:	2000      	movs	r0, #0
 8002784:	e7f9      	b.n	800277a <ADC_Enable+0x5a>
 8002786:	bf00      	nop
 8002788:	8000003f 	.word	0x8000003f

0800278c <HAL_ADC_Init>:
{
 800278c:	b530      	push	{r4, r5, lr}
 800278e:	b083      	sub	sp, #12
  __IO uint32_t wait_loop_index = 0U;
 8002790:	2300      	movs	r3, #0
 8002792:	9301      	str	r3, [sp, #4]
  if(hadc == NULL)
 8002794:	2800      	cmp	r0, #0
 8002796:	f000 809c 	beq.w	80028d2 <HAL_ADC_Init+0x146>
  if (HAL_IS_BIT_CLR(hadc->State, HAL_ADC_STATE_ERROR_INTERNAL))
 800279a:	6c03      	ldr	r3, [r0, #64]	; 0x40
 800279c:	f013 0310 	ands.w	r3, r3, #16
 80027a0:	4604      	mov	r4, r0
 80027a2:	d118      	bne.n	80027d6 <HAL_ADC_Init+0x4a>
    if (hadc->State == HAL_ADC_STATE_RESET)
 80027a4:	6c05      	ldr	r5, [r0, #64]	; 0x40
 80027a6:	2d00      	cmp	r5, #0
 80027a8:	f000 8096 	beq.w	80028d8 <HAL_ADC_Init+0x14c>
    if (HAL_IS_BIT_CLR(hadc->Instance->CR, ADC_CR_ADVREGEN_0) ||
 80027ac:	6822      	ldr	r2, [r4, #0]
 80027ae:	6891      	ldr	r1, [r2, #8]
 80027b0:	00c9      	lsls	r1, r1, #3
 80027b2:	f140 8082 	bpl.w	80028ba <HAL_ADC_Init+0x12e>
        HAL_IS_BIT_SET(hadc->Instance->CR, ADC_CR_ADVREGEN_1)   )
 80027b6:	6891      	ldr	r1, [r2, #8]
    if (HAL_IS_BIT_CLR(hadc->Instance->CR, ADC_CR_ADVREGEN_0) ||
 80027b8:	008d      	lsls	r5, r1, #2
 80027ba:	d47e      	bmi.n	80028ba <HAL_ADC_Init+0x12e>
  if (HAL_IS_BIT_CLR(hadc->State, HAL_ADC_STATE_ERROR_INTERNAL) &&
 80027bc:	6c21      	ldr	r1, [r4, #64]	; 0x40
 80027be:	06c8      	lsls	r0, r1, #27
 80027c0:	d400      	bmi.n	80027c4 <HAL_ADC_Init+0x38>
 80027c2:	b163      	cbz	r3, 80027de <HAL_ADC_Init+0x52>
    ADC_STATE_CLR_SET(hadc->State,
 80027c4:	6c23      	ldr	r3, [r4, #64]	; 0x40
 80027c6:	f023 0312 	bic.w	r3, r3, #18
    tmp_hal_status = HAL_ERROR; 
 80027ca:	2001      	movs	r0, #1
    ADC_STATE_CLR_SET(hadc->State,
 80027cc:	f043 0310 	orr.w	r3, r3, #16
 80027d0:	6423      	str	r3, [r4, #64]	; 0x40
}
 80027d2:	b003      	add	sp, #12
 80027d4:	bd30      	pop	{r4, r5, pc}
  if (HAL_IS_BIT_CLR(hadc->State, HAL_ADC_STATE_ERROR_INTERNAL) &&
 80027d6:	6c03      	ldr	r3, [r0, #64]	; 0x40
 80027d8:	06da      	lsls	r2, r3, #27
 80027da:	d4f3      	bmi.n	80027c4 <HAL_ADC_Init+0x38>
      (ADC_IS_CONVERSION_ONGOING_REGULAR(hadc) == RESET)          )
 80027dc:	6802      	ldr	r2, [r0, #0]
 80027de:	6890      	ldr	r0, [r2, #8]
      (tmp_hal_status == HAL_OK)                                &&
 80027e0:	f010 0004 	ands.w	r0, r0, #4
 80027e4:	d1ee      	bne.n	80027c4 <HAL_ADC_Init+0x38>
    ADC_STATE_CLR_SET(hadc->State,
 80027e6:	6c21      	ldr	r1, [r4, #64]	; 0x40
 80027e8:	f421 7181 	bic.w	r1, r1, #258	; 0x102
 80027ec:	f041 0102 	orr.w	r1, r1, #2
    tmpADC_Common = ADC_COMMON_REGISTER(hadc);
 80027f0:	f1b2 4fa0 	cmp.w	r2, #1342177280	; 0x50000000
    ADC_STATE_CLR_SET(hadc->State,
 80027f4:	6421      	str	r1, [r4, #64]	; 0x40
    tmpADC_Common = ADC_COMMON_REGISTER(hadc);
 80027f6:	f000 80d9 	beq.w	80029ac <HAL_ADC_Init+0x220>
 80027fa:	4b7d      	ldr	r3, [pc, #500]	; (80029f0 <HAL_ADC_Init+0x264>)
 80027fc:	429a      	cmp	r2, r3
 80027fe:	f000 80dd 	beq.w	80029bc <HAL_ADC_Init+0x230>
    ADC_COMMON_ADC_OTHER(hadc, &tmphadcSharingSameCommonRegister);
 8002802:	497c      	ldr	r1, [pc, #496]	; (80029f4 <HAL_ADC_Init+0x268>)
 8002804:	428a      	cmp	r2, r1
 8002806:	d074      	beq.n	80028f2 <HAL_ADC_Init+0x166>
 8002808:	4b7b      	ldr	r3, [pc, #492]	; (80029f8 <HAL_ADC_Init+0x26c>)
 800280a:	429a      	cmp	r2, r3
 800280c:	d072      	beq.n	80028f4 <HAL_ADC_Init+0x168>
    if ((ADC_IS_ENABLE(hadc) == RESET)                                   &&
 800280e:	6893      	ldr	r3, [r2, #8]
 8002810:	f003 0303 	and.w	r3, r3, #3
 8002814:	2b01      	cmp	r3, #1
 8002816:	f000 80e3 	beq.w	80029e0 <HAL_ADC_Init+0x254>
    tmpADC_Common = ADC_COMMON_REGISTER(hadc);
 800281a:	4d78      	ldr	r5, [pc, #480]	; (80029fc <HAL_ADC_Init+0x270>)
      MODIFY_REG(tmpADC_Common->CCR       ,
 800281c:	68ab      	ldr	r3, [r5, #8]
 800281e:	6861      	ldr	r1, [r4, #4]
 8002820:	f423 3340 	bic.w	r3, r3, #196608	; 0x30000
 8002824:	430b      	orrs	r3, r1
 8002826:	60ab      	str	r3, [r5, #8]
    SET_BIT(tmpCFGR, ADC_CFGR_CONTINUOUS((uint32_t)hadc->Init.ContinuousConvMode) |
 8002828:	6b63      	ldr	r3, [r4, #52]	; 0x34
 800282a:	68e1      	ldr	r1, [r4, #12]
 800282c:	7e65      	ldrb	r5, [r4, #25]
 800282e:	2b01      	cmp	r3, #1
 8002830:	68a3      	ldr	r3, [r4, #8]
 8002832:	ea43 0301 	orr.w	r3, r3, r1
    if (hadc->Init.DiscontinuousConvMode == ENABLE)
 8002836:	f894 1020 	ldrb.w	r1, [r4, #32]
    SET_BIT(tmpCFGR, ADC_CFGR_CONTINUOUS((uint32_t)hadc->Init.ContinuousConvMode) |
 800283a:	bf18      	it	ne
 800283c:	f44f 5080 	movne.w	r0, #4096	; 0x1000
 8002840:	ea43 3345 	orr.w	r3, r3, r5, lsl #13
    if (hadc->Init.DiscontinuousConvMode == ENABLE)
 8002844:	2901      	cmp	r1, #1
    SET_BIT(tmpCFGR, ADC_CFGR_CONTINUOUS((uint32_t)hadc->Init.ContinuousConvMode) |
 8002846:	ea43 0300 	orr.w	r3, r3, r0
    if (hadc->Init.DiscontinuousConvMode == ENABLE)
 800284a:	f000 8093 	beq.w	8002974 <HAL_ADC_Init+0x1e8>
    if (hadc->Init.ExternalTrigConv != ADC_SOFTWARE_START)
 800284e:	6aa1      	ldr	r1, [r4, #40]	; 0x28
 8002850:	2901      	cmp	r1, #1
 8002852:	d00b      	beq.n	800286c <HAL_ADC_Init+0xe0>
      SET_BIT(tmpCFGR, ADC_CFGR_EXTSEL_SET(hadc, hadc->Init.ExternalTrigConv) |
 8002854:	4867      	ldr	r0, [pc, #412]	; (80029f4 <HAL_ADC_Init+0x268>)
 8002856:	4282      	cmp	r2, r0
 8002858:	f000 809c 	beq.w	8002994 <HAL_ADC_Init+0x208>
 800285c:	f500 7080 	add.w	r0, r0, #256	; 0x100
 8002860:	4282      	cmp	r2, r0
 8002862:	f000 8097 	beq.w	8002994 <HAL_ADC_Init+0x208>
 8002866:	6ae0      	ldr	r0, [r4, #44]	; 0x2c
 8002868:	4303      	orrs	r3, r0
 800286a:	430b      	orrs	r3, r1
    if (ADC_IS_CONVERSION_ONGOING_REGULAR_INJECTED(hadc) == RESET)
 800286c:	6891      	ldr	r1, [r2, #8]
 800286e:	f011 0f0c 	tst.w	r1, #12
 8002872:	d10c      	bne.n	800288e <HAL_ADC_Init+0x102>
      CLEAR_BIT(hadc->Instance->CFGR, ADC_CFGR_AUTDLY |
 8002874:	68d1      	ldr	r1, [r2, #12]
 8002876:	f421 4180 	bic.w	r1, r1, #16384	; 0x4000
 800287a:	f021 0102 	bic.w	r1, r1, #2
 800287e:	60d1      	str	r1, [r2, #12]
      SET_BIT(tmpCFGR, ADC_CFGR_AUTOWAIT((uint32_t)hadc->Init.LowPowerAutoWait) |
 8002880:	f894 1030 	ldrb.w	r1, [r4, #48]	; 0x30
 8002884:	7e20      	ldrb	r0, [r4, #24]
 8002886:	0049      	lsls	r1, r1, #1
 8002888:	ea41 3180 	orr.w	r1, r1, r0, lsl #14
 800288c:	430b      	orrs	r3, r1
    MODIFY_REG(hadc->Instance->CFGR,
 800288e:	68d0      	ldr	r0, [r2, #12]
 8002890:	495b      	ldr	r1, [pc, #364]	; (8002a00 <HAL_ADC_Init+0x274>)
 8002892:	4001      	ands	r1, r0
    if (hadc->Init.ScanConvMode == ADC_SCAN_ENABLE)
 8002894:	6920      	ldr	r0, [r4, #16]
    MODIFY_REG(hadc->Instance->CFGR,
 8002896:	430b      	orrs	r3, r1
    if (hadc->Init.ScanConvMode == ADC_SCAN_ENABLE)
 8002898:	2801      	cmp	r0, #1
    MODIFY_REG(hadc->Instance->CFGR,
 800289a:	60d3      	str	r3, [r2, #12]
    if (hadc->Init.ScanConvMode == ADC_SCAN_ENABLE)
 800289c:	d072      	beq.n	8002984 <HAL_ADC_Init+0x1f8>
      CLEAR_BIT(hadc->Instance->SQR1, ADC_SQR1_L);
 800289e:	6b13      	ldr	r3, [r2, #48]	; 0x30
 80028a0:	f023 030f 	bic.w	r3, r3, #15
 80028a4:	6313      	str	r3, [r2, #48]	; 0x30
    ADC_CLEAR_ERRORCODE(hadc);
 80028a6:	2000      	movs	r0, #0
 80028a8:	6460      	str	r0, [r4, #68]	; 0x44
    ADC_STATE_CLR_SET(hadc->State,
 80028aa:	6c23      	ldr	r3, [r4, #64]	; 0x40
 80028ac:	f023 0303 	bic.w	r3, r3, #3
 80028b0:	f043 0301 	orr.w	r3, r3, #1
 80028b4:	6423      	str	r3, [r4, #64]	; 0x40
}
 80028b6:	b003      	add	sp, #12
 80028b8:	bd30      	pop	{r4, r5, pc}
      ADC_STATE_CLR_SET(hadc->State,
 80028ba:	6c23      	ldr	r3, [r4, #64]	; 0x40
 80028bc:	f023 0312 	bic.w	r3, r3, #18
 80028c0:	f043 0310 	orr.w	r3, r3, #16
 80028c4:	6423      	str	r3, [r4, #64]	; 0x40
      SET_BIT(hadc->ErrorCode, HAL_ADC_ERROR_INTERNAL);
 80028c6:	6c63      	ldr	r3, [r4, #68]	; 0x44
 80028c8:	f043 0301 	orr.w	r3, r3, #1
 80028cc:	6463      	str	r3, [r4, #68]	; 0x44
  if (HAL_IS_BIT_CLR(hadc->State, HAL_ADC_STATE_ERROR_INTERNAL) &&
 80028ce:	6c23      	ldr	r3, [r4, #64]	; 0x40
 80028d0:	e778      	b.n	80027c4 <HAL_ADC_Init+0x38>
    return HAL_ERROR;
 80028d2:	2001      	movs	r0, #1
}
 80028d4:	b003      	add	sp, #12
 80028d6:	bd30      	pop	{r4, r5, pc}
      hadc->InjectionConfig.ContextQueue = 0U;
 80028d8:	e9c0 5512 	strd	r5, r5, [r0, #72]	; 0x48
      ADC_CLEAR_ERRORCODE(hadc);
 80028dc:	6445      	str	r5, [r0, #68]	; 0x44
      hadc->Lock = HAL_UNLOCKED;
 80028de:	f880 503c 	strb.w	r5, [r0, #60]	; 0x3c
    HAL_ADC_MspInit(hadc);
 80028e2:	f7fe fb49 	bl	8000f78 <HAL_ADC_MspInit>
      if (HAL_IS_BIT_CLR(hadc->Instance->CR, ADC_CR_ADVREGEN_0))
 80028e6:	6822      	ldr	r2, [r4, #0]
 80028e8:	6893      	ldr	r3, [r2, #8]
 80028ea:	00db      	lsls	r3, r3, #3
 80028ec:	d511      	bpl.n	8002912 <HAL_ADC_Init+0x186>
  HAL_StatusTypeDef tmp_hal_status = HAL_OK;
 80028ee:	462b      	mov	r3, r5
 80028f0:	e75d      	b.n	80027ae <HAL_ADC_Init+0x22>
 80028f2:	4941      	ldr	r1, [pc, #260]	; (80029f8 <HAL_ADC_Init+0x26c>)
    tmpADC_Common = ADC_COMMON_REGISTER(hadc);
 80028f4:	4d41      	ldr	r5, [pc, #260]	; (80029fc <HAL_ADC_Init+0x270>)
    if ((ADC_IS_ENABLE(hadc) == RESET)                                   &&
 80028f6:	6893      	ldr	r3, [r2, #8]
 80028f8:	f003 0303 	and.w	r3, r3, #3
 80028fc:	2b01      	cmp	r3, #1
 80028fe:	d058      	beq.n	80029b2 <HAL_ADC_Init+0x226>
         (ADC_IS_ENABLE(&tmphadcSharingSameCommonRegister) == RESET)   )   )
 8002900:	688b      	ldr	r3, [r1, #8]
 8002902:	f003 0303 	and.w	r3, r3, #3
 8002906:	2b01      	cmp	r3, #1
 8002908:	d188      	bne.n	800281c <HAL_ADC_Init+0x90>
 800290a:	680b      	ldr	r3, [r1, #0]
 800290c:	07db      	lsls	r3, r3, #31
 800290e:	d48b      	bmi.n	8002828 <HAL_ADC_Init+0x9c>
 8002910:	e784      	b.n	800281c <HAL_ADC_Init+0x90>
        tmp_hal_status = ADC_Disable(hadc);
 8002912:	4620      	mov	r0, r4
 8002914:	f7ff fec4 	bl	80026a0 <ADC_Disable>
        if (HAL_IS_BIT_CLR(hadc->State, HAL_ADC_STATE_ERROR_INTERNAL) &&
 8002918:	6c22      	ldr	r2, [r4, #64]	; 0x40
        tmp_hal_status = ADC_Disable(hadc);
 800291a:	4603      	mov	r3, r0
        if (HAL_IS_BIT_CLR(hadc->State, HAL_ADC_STATE_ERROR_INTERNAL) &&
 800291c:	06d0      	lsls	r0, r2, #27
 800291e:	f53f af45 	bmi.w	80027ac <HAL_ADC_Init+0x20>
 8002922:	2b00      	cmp	r3, #0
 8002924:	f47f af42 	bne.w	80027ac <HAL_ADC_Init+0x20>
          ADC_STATE_CLR_SET(hadc->State,
 8002928:	6c21      	ldr	r1, [r4, #64]	; 0x40
          CLEAR_BIT(hadc->Instance->CR, (ADC_CR_ADVREGEN_1 | ADC_CR_ADVREGEN_0));
 800292a:	6822      	ldr	r2, [r4, #0]
          ADC_STATE_CLR_SET(hadc->State,
 800292c:	f421 5188 	bic.w	r1, r1, #4352	; 0x1100
 8002930:	f021 0102 	bic.w	r1, r1, #2
 8002934:	f041 0102 	orr.w	r1, r1, #2
 8002938:	6421      	str	r1, [r4, #64]	; 0x40
          CLEAR_BIT(hadc->Instance->CR, (ADC_CR_ADVREGEN_1 | ADC_CR_ADVREGEN_0));
 800293a:	6890      	ldr	r0, [r2, #8]
          wait_loop_index = (ADC_STAB_DELAY_US * (SystemCoreClock / 1000000U));
 800293c:	4931      	ldr	r1, [pc, #196]	; (8002a04 <HAL_ADC_Init+0x278>)
          CLEAR_BIT(hadc->Instance->CR, (ADC_CR_ADVREGEN_1 | ADC_CR_ADVREGEN_0));
 800293e:	f020 5040 	bic.w	r0, r0, #805306368	; 0x30000000
 8002942:	6090      	str	r0, [r2, #8]
          SET_BIT(hadc->Instance->CR, ADC_CR_ADVREGEN_0);
 8002944:	6890      	ldr	r0, [r2, #8]
          wait_loop_index = (ADC_STAB_DELAY_US * (SystemCoreClock / 1000000U));
 8002946:	6809      	ldr	r1, [r1, #0]
          SET_BIT(hadc->Instance->CR, ADC_CR_ADVREGEN_0);
 8002948:	f040 5080 	orr.w	r0, r0, #268435456	; 0x10000000
 800294c:	6090      	str	r0, [r2, #8]
          wait_loop_index = (ADC_STAB_DELAY_US * (SystemCoreClock / 1000000U));
 800294e:	482e      	ldr	r0, [pc, #184]	; (8002a08 <HAL_ADC_Init+0x27c>)
 8002950:	fba0 0101 	umull	r0, r1, r0, r1
 8002954:	0c89      	lsrs	r1, r1, #18
 8002956:	eb01 0181 	add.w	r1, r1, r1, lsl #2
 800295a:	0049      	lsls	r1, r1, #1
 800295c:	9101      	str	r1, [sp, #4]
          while(wait_loop_index != 0U)
 800295e:	9901      	ldr	r1, [sp, #4]
 8002960:	2900      	cmp	r1, #0
 8002962:	f43f af24 	beq.w	80027ae <HAL_ADC_Init+0x22>
            wait_loop_index--;
 8002966:	9901      	ldr	r1, [sp, #4]
 8002968:	3901      	subs	r1, #1
 800296a:	9101      	str	r1, [sp, #4]
          while(wait_loop_index != 0U)
 800296c:	9901      	ldr	r1, [sp, #4]
 800296e:	2900      	cmp	r1, #0
 8002970:	d1f9      	bne.n	8002966 <HAL_ADC_Init+0x1da>
 8002972:	e71c      	b.n	80027ae <HAL_ADC_Init+0x22>
      if (hadc->Init.ContinuousConvMode == DISABLE)
 8002974:	bb35      	cbnz	r5, 80029c4 <HAL_ADC_Init+0x238>
        SET_BIT(tmpCFGR, ADC_CFGR_DISCEN                                            |
 8002976:	6a61      	ldr	r1, [r4, #36]	; 0x24
 8002978:	3901      	subs	r1, #1
 800297a:	ea43 4341 	orr.w	r3, r3, r1, lsl #17
 800297e:	f443 3380 	orr.w	r3, r3, #65536	; 0x10000
 8002982:	e764      	b.n	800284e <HAL_ADC_Init+0xc2>
      MODIFY_REG(hadc->Instance->SQR1                     ,
 8002984:	6b11      	ldr	r1, [r2, #48]	; 0x30
 8002986:	69e3      	ldr	r3, [r4, #28]
 8002988:	f021 010f 	bic.w	r1, r1, #15
 800298c:	3b01      	subs	r3, #1
 800298e:	430b      	orrs	r3, r1
 8002990:	6313      	str	r3, [r2, #48]	; 0x30
 8002992:	e788      	b.n	80028a6 <HAL_ADC_Init+0x11a>
      SET_BIT(tmpCFGR, ADC_CFGR_EXTSEL_SET(hadc, hadc->Init.ExternalTrigConv) |
 8002994:	f5b1 7f30 	cmp.w	r1, #704	; 0x2c0
 8002998:	d01f      	beq.n	80029da <HAL_ADC_Init+0x24e>
 800299a:	f5b1 7f80 	cmp.w	r1, #256	; 0x100
 800299e:	d024      	beq.n	80029ea <HAL_ADC_Init+0x25e>
 80029a0:	f5b1 7fe0 	cmp.w	r1, #448	; 0x1c0
 80029a4:	bf08      	it	eq
 80029a6:	f44f 7180 	moveq.w	r1, #256	; 0x100
 80029aa:	e75c      	b.n	8002866 <HAL_ADC_Init+0xda>
 80029ac:	4910      	ldr	r1, [pc, #64]	; (80029f0 <HAL_ADC_Init+0x264>)
    tmpADC_Common = ADC_COMMON_REGISTER(hadc);
 80029ae:	4d17      	ldr	r5, [pc, #92]	; (8002a0c <HAL_ADC_Init+0x280>)
 80029b0:	e7a1      	b.n	80028f6 <HAL_ADC_Init+0x16a>
    if ((ADC_IS_ENABLE(hadc) == RESET)                                   &&
 80029b2:	6813      	ldr	r3, [r2, #0]
 80029b4:	07db      	lsls	r3, r3, #31
 80029b6:	f53f af37 	bmi.w	8002828 <HAL_ADC_Init+0x9c>
 80029ba:	e7a1      	b.n	8002900 <HAL_ADC_Init+0x174>
    tmpADC_Common = ADC_COMMON_REGISTER(hadc);
 80029bc:	4d13      	ldr	r5, [pc, #76]	; (8002a0c <HAL_ADC_Init+0x280>)
 80029be:	f04f 41a0 	mov.w	r1, #1342177280	; 0x50000000
 80029c2:	e798      	b.n	80028f6 <HAL_ADC_Init+0x16a>
        ADC_STATE_CLR_SET(hadc->State,
 80029c4:	6c21      	ldr	r1, [r4, #64]	; 0x40
 80029c6:	f021 0122 	bic.w	r1, r1, #34	; 0x22
 80029ca:	f041 0120 	orr.w	r1, r1, #32
 80029ce:	6421      	str	r1, [r4, #64]	; 0x40
        SET_BIT(hadc->ErrorCode, HAL_ADC_ERROR_INTERNAL);
 80029d0:	6c61      	ldr	r1, [r4, #68]	; 0x44
 80029d2:	f041 0101 	orr.w	r1, r1, #1
 80029d6:	6461      	str	r1, [r4, #68]	; 0x44
 80029d8:	e739      	b.n	800284e <HAL_ADC_Init+0xc2>
      SET_BIT(tmpCFGR, ADC_CFGR_EXTSEL_SET(hadc, hadc->Init.ExternalTrigConv) |
 80029da:	f44f 71e0 	mov.w	r1, #448	; 0x1c0
 80029de:	e742      	b.n	8002866 <HAL_ADC_Init+0xda>
    if ((ADC_IS_ENABLE(hadc) == RESET)                                   &&
 80029e0:	6813      	ldr	r3, [r2, #0]
 80029e2:	07d9      	lsls	r1, r3, #31
 80029e4:	f53f af20 	bmi.w	8002828 <HAL_ADC_Init+0x9c>
 80029e8:	e717      	b.n	800281a <HAL_ADC_Init+0x8e>
      SET_BIT(tmpCFGR, ADC_CFGR_EXTSEL_SET(hadc, hadc->Init.ExternalTrigConv) |
 80029ea:	f44f 7130 	mov.w	r1, #704	; 0x2c0
 80029ee:	e73a      	b.n	8002866 <HAL_ADC_Init+0xda>
 80029f0:	50000100 	.word	0x50000100
 80029f4:	50000400 	.word	0x50000400
 80029f8:	50000500 	.word	0x50000500
 80029fc:	50000700 	.word	0x50000700
 8002a00:	fff0c007 	.word	0xfff0c007
 8002a04:	20000000 	.word	0x20000000
 8002a08:	431bde83 	.word	0x431bde83
 8002a0c:	50000300 	.word	0x50000300

08002a10 <HAL_ADC_Start>:
{
 8002a10:	b538      	push	{r3, r4, r5, lr}
  if (ADC_IS_CONVERSION_ONGOING_REGULAR(hadc) == RESET)
 8002a12:	6803      	ldr	r3, [r0, #0]
 8002a14:	689d      	ldr	r5, [r3, #8]
 8002a16:	f015 0504 	ands.w	r5, r5, #4
 8002a1a:	d12c      	bne.n	8002a76 <HAL_ADC_Start+0x66>
    __HAL_LOCK(hadc);
 8002a1c:	f890 303c 	ldrb.w	r3, [r0, #60]	; 0x3c
 8002a20:	2b01      	cmp	r3, #1
 8002a22:	4604      	mov	r4, r0
 8002a24:	d027      	beq.n	8002a76 <HAL_ADC_Start+0x66>
 8002a26:	2301      	movs	r3, #1
 8002a28:	f880 303c 	strb.w	r3, [r0, #60]	; 0x3c
    tmp_hal_status = ADC_Enable(hadc);
 8002a2c:	f7ff fe78 	bl	8002720 <ADC_Enable>
    if (tmp_hal_status == HAL_OK)
 8002a30:	b9f0      	cbnz	r0, 8002a70 <HAL_ADC_Start+0x60>
      ADC_STATE_CLR_SET(hadc->State,
 8002a32:	6c22      	ldr	r2, [r4, #64]	; 0x40
      if (ADC_NONMULTIMODE_OR_MULTIMODEMASTER(hadc))
 8002a34:	6823      	ldr	r3, [r4, #0]
      ADC_STATE_CLR_SET(hadc->State,
 8002a36:	f422 6270 	bic.w	r2, r2, #3840	; 0xf00
 8002a3a:	f022 0201 	bic.w	r2, r2, #1
 8002a3e:	f442 7280 	orr.w	r2, r2, #256	; 0x100
      if (ADC_NONMULTIMODE_OR_MULTIMODEMASTER(hadc))
 8002a42:	f1b3 4fa0 	cmp.w	r3, #1342177280	; 0x50000000
      ADC_STATE_CLR_SET(hadc->State,
 8002a46:	6422      	str	r2, [r4, #64]	; 0x40
      if (ADC_NONMULTIMODE_OR_MULTIMODEMASTER(hadc))
 8002a48:	d017      	beq.n	8002a7a <HAL_ADC_Start+0x6a>
 8002a4a:	4a3a      	ldr	r2, [pc, #232]	; (8002b34 <HAL_ADC_Start+0x124>)
 8002a4c:	4293      	cmp	r3, r2
 8002a4e:	d068      	beq.n	8002b22 <HAL_ADC_Start+0x112>
 8002a50:	f502 62c0 	add.w	r2, r2, #1536	; 0x600
 8002a54:	6892      	ldr	r2, [r2, #8]
 8002a56:	06d5      	lsls	r5, r2, #27
 8002a58:	d011      	beq.n	8002a7e <HAL_ADC_Start+0x6e>
 8002a5a:	4937      	ldr	r1, [pc, #220]	; (8002b38 <HAL_ADC_Start+0x128>)
 8002a5c:	428b      	cmp	r3, r1
 8002a5e:	d00e      	beq.n	8002a7e <HAL_ADC_Start+0x6e>
        SET_BIT(hadc->State, HAL_ADC_STATE_MULTIMODE_SLAVE);
 8002a60:	6c22      	ldr	r2, [r4, #64]	; 0x40
 8002a62:	f442 1280 	orr.w	r2, r2, #1048576	; 0x100000
 8002a66:	6422      	str	r2, [r4, #64]	; 0x40
        if (ADC_MULTIMODE_AUTO_INJECTED(hadc))
 8002a68:	68ca      	ldr	r2, [r1, #12]
 8002a6a:	0192      	lsls	r2, r2, #6
 8002a6c:	d514      	bpl.n	8002a98 <HAL_ADC_Start+0x88>
 8002a6e:	e00d      	b.n	8002a8c <HAL_ADC_Start+0x7c>
      __HAL_UNLOCK(hadc);
 8002a70:	f884 503c 	strb.w	r5, [r4, #60]	; 0x3c
}
 8002a74:	bd38      	pop	{r3, r4, r5, pc}
    tmp_hal_status = HAL_BUSY;
 8002a76:	2002      	movs	r0, #2
}
 8002a78:	bd38      	pop	{r3, r4, r5, pc}
      if (ADC_NONMULTIMODE_OR_MULTIMODEMASTER(hadc))
 8002a7a:	4a30      	ldr	r2, [pc, #192]	; (8002b3c <HAL_ADC_Start+0x12c>)
 8002a7c:	6892      	ldr	r2, [r2, #8]
        CLEAR_BIT(hadc->State, HAL_ADC_STATE_MULTIMODE_SLAVE);
 8002a7e:	6c22      	ldr	r2, [r4, #64]	; 0x40
 8002a80:	f422 1280 	bic.w	r2, r2, #1048576	; 0x100000
 8002a84:	6422      	str	r2, [r4, #64]	; 0x40
        if (READ_BIT(hadc->Instance->CFGR, ADC_CFGR_JAUTO) != RESET)
 8002a86:	68da      	ldr	r2, [r3, #12]
 8002a88:	0191      	lsls	r1, r2, #6
 8002a8a:	d505      	bpl.n	8002a98 <HAL_ADC_Start+0x88>
          ADC_STATE_CLR_SET(hadc->State, HAL_ADC_STATE_INJ_EOC, HAL_ADC_STATE_INJ_BUSY);
 8002a8c:	6c22      	ldr	r2, [r4, #64]	; 0x40
 8002a8e:	f422 5240 	bic.w	r2, r2, #12288	; 0x3000
 8002a92:	f442 5280 	orr.w	r2, r2, #4096	; 0x1000
 8002a96:	6422      	str	r2, [r4, #64]	; 0x40
      if (HAL_IS_BIT_SET(hadc->State, HAL_ADC_STATE_INJ_BUSY))
 8002a98:	6c22      	ldr	r2, [r4, #64]	; 0x40
 8002a9a:	f412 5280 	ands.w	r2, r2, #4096	; 0x1000
        CLEAR_BIT(hadc->ErrorCode, (HAL_ADC_ERROR_OVR | HAL_ADC_ERROR_DMA));         
 8002a9e:	bf1c      	itt	ne
 8002aa0:	6c62      	ldrne	r2, [r4, #68]	; 0x44
 8002aa2:	f022 0206 	bicne.w	r2, r2, #6
        ADC_CLEAR_ERRORCODE(hadc);
 8002aa6:	6462      	str	r2, [r4, #68]	; 0x44
      __HAL_UNLOCK(hadc);
 8002aa8:	2100      	movs	r1, #0
      __HAL_ADC_CLEAR_FLAG(hadc, (ADC_FLAG_EOC | ADC_FLAG_EOS | ADC_FLAG_OVR));
 8002aaa:	221c      	movs	r2, #28
      if (ADC_NONMULTIMODE_REG_OR_MULTIMODEMASTER(hadc))
 8002aac:	f1b3 4fa0 	cmp.w	r3, #1342177280	; 0x50000000
      __HAL_UNLOCK(hadc);
 8002ab0:	f884 103c 	strb.w	r1, [r4, #60]	; 0x3c
      __HAL_ADC_CLEAR_FLAG(hadc, (ADC_FLAG_EOC | ADC_FLAG_EOS | ADC_FLAG_OVR));
 8002ab4:	601a      	str	r2, [r3, #0]
      if (ADC_NONMULTIMODE_REG_OR_MULTIMODEMASTER(hadc))
 8002ab6:	d01a      	beq.n	8002aee <HAL_ADC_Start+0xde>
 8002ab8:	4a1e      	ldr	r2, [pc, #120]	; (8002b34 <HAL_ADC_Start+0x124>)
 8002aba:	4293      	cmp	r3, r2
 8002abc:	d022      	beq.n	8002b04 <HAL_ADC_Start+0xf4>
 8002abe:	f8d2 1608 	ldr.w	r1, [r2, #1544]	; 0x608
 8002ac2:	06cd      	lsls	r5, r1, #27
 8002ac4:	f502 62c0 	add.w	r2, r2, #1536	; 0x600
 8002ac8:	d00c      	beq.n	8002ae4 <HAL_ADC_Start+0xd4>
 8002aca:	6891      	ldr	r1, [r2, #8]
 8002acc:	f001 011f 	and.w	r1, r1, #31
 8002ad0:	2905      	cmp	r1, #5
 8002ad2:	d007      	beq.n	8002ae4 <HAL_ADC_Start+0xd4>
 8002ad4:	6892      	ldr	r2, [r2, #8]
 8002ad6:	f002 021f 	and.w	r2, r2, #31
 8002ada:	2a09      	cmp	r2, #9
 8002adc:	d002      	beq.n	8002ae4 <HAL_ADC_Start+0xd4>
 8002ade:	4a16      	ldr	r2, [pc, #88]	; (8002b38 <HAL_ADC_Start+0x128>)
 8002ae0:	4293      	cmp	r3, r2
 8002ae2:	d1c7      	bne.n	8002a74 <HAL_ADC_Start+0x64>
        SET_BIT(hadc->Instance->CR, ADC_CR_ADSTART);
 8002ae4:	689a      	ldr	r2, [r3, #8]
 8002ae6:	f042 0204 	orr.w	r2, r2, #4
 8002aea:	609a      	str	r2, [r3, #8]
}
 8002aec:	bd38      	pop	{r3, r4, r5, pc}
      if (ADC_NONMULTIMODE_REG_OR_MULTIMODEMASTER(hadc))
 8002aee:	4a13      	ldr	r2, [pc, #76]	; (8002b3c <HAL_ADC_Start+0x12c>)
 8002af0:	6891      	ldr	r1, [r2, #8]
 8002af2:	06cc      	lsls	r4, r1, #27
 8002af4:	d0f6      	beq.n	8002ae4 <HAL_ADC_Start+0xd4>
 8002af6:	6891      	ldr	r1, [r2, #8]
 8002af8:	f001 011f 	and.w	r1, r1, #31
 8002afc:	2905      	cmp	r1, #5
 8002afe:	d0f1      	beq.n	8002ae4 <HAL_ADC_Start+0xd4>
 8002b00:	6892      	ldr	r2, [r2, #8]
 8002b02:	e7ef      	b.n	8002ae4 <HAL_ADC_Start+0xd4>
 8002b04:	4a0d      	ldr	r2, [pc, #52]	; (8002b3c <HAL_ADC_Start+0x12c>)
 8002b06:	6891      	ldr	r1, [r2, #8]
 8002b08:	06c9      	lsls	r1, r1, #27
 8002b0a:	d0eb      	beq.n	8002ae4 <HAL_ADC_Start+0xd4>
 8002b0c:	6891      	ldr	r1, [r2, #8]
 8002b0e:	f001 011f 	and.w	r1, r1, #31
 8002b12:	2905      	cmp	r1, #5
 8002b14:	d0e6      	beq.n	8002ae4 <HAL_ADC_Start+0xd4>
 8002b16:	6892      	ldr	r2, [r2, #8]
 8002b18:	f002 021f 	and.w	r2, r2, #31
 8002b1c:	2a09      	cmp	r2, #9
 8002b1e:	d0e1      	beq.n	8002ae4 <HAL_ADC_Start+0xd4>
}
 8002b20:	bd38      	pop	{r3, r4, r5, pc}
      if (ADC_NONMULTIMODE_OR_MULTIMODEMASTER(hadc))
 8002b22:	4a06      	ldr	r2, [pc, #24]	; (8002b3c <HAL_ADC_Start+0x12c>)
 8002b24:	6892      	ldr	r2, [r2, #8]
 8002b26:	06d2      	lsls	r2, r2, #27
 8002b28:	d0a9      	beq.n	8002a7e <HAL_ADC_Start+0x6e>
        SET_BIT(hadc->State, HAL_ADC_STATE_MULTIMODE_SLAVE);
 8002b2a:	6c22      	ldr	r2, [r4, #64]	; 0x40
        if (ADC_MULTIMODE_AUTO_INJECTED(hadc))
 8002b2c:	f04f 41a0 	mov.w	r1, #1342177280	; 0x50000000
 8002b30:	e797      	b.n	8002a62 <HAL_ADC_Start+0x52>
 8002b32:	bf00      	nop
 8002b34:	50000100 	.word	0x50000100
 8002b38:	50000400 	.word	0x50000400
 8002b3c:	50000300 	.word	0x50000300

08002b40 <HAL_ADCEx_InjectedGetValue>:
  switch(InjectedRank)
 8002b40:	2903      	cmp	r1, #3
 8002b42:	d007      	beq.n	8002b54 <HAL_ADCEx_InjectedGetValue+0x14>
 8002b44:	2904      	cmp	r1, #4
 8002b46:	d00d      	beq.n	8002b64 <HAL_ADCEx_InjectedGetValue+0x24>
 8002b48:	2902      	cmp	r1, #2
 8002b4a:	d007      	beq.n	8002b5c <HAL_ADCEx_InjectedGetValue+0x1c>
      tmp_jdr = hadc->Instance->JDR1;
 8002b4c:	6803      	ldr	r3, [r0, #0]
 8002b4e:	f8d3 0080 	ldr.w	r0, [r3, #128]	; 0x80
}
 8002b52:	4770      	bx	lr
      tmp_jdr = hadc->Instance->JDR3;
 8002b54:	6803      	ldr	r3, [r0, #0]
 8002b56:	f8d3 0088 	ldr.w	r0, [r3, #136]	; 0x88
      break;
 8002b5a:	4770      	bx	lr
      tmp_jdr = hadc->Instance->JDR2;
 8002b5c:	6803      	ldr	r3, [r0, #0]
 8002b5e:	f8d3 0084 	ldr.w	r0, [r3, #132]	; 0x84
      break;
 8002b62:	4770      	bx	lr
      tmp_jdr = hadc->Instance->JDR4;
 8002b64:	6803      	ldr	r3, [r0, #0]
 8002b66:	f8d3 008c 	ldr.w	r0, [r3, #140]	; 0x8c
      break;
 8002b6a:	4770      	bx	lr

08002b6c <HAL_ADC_ConfigChannel>:
{
 8002b6c:	b5f0      	push	{r4, r5, r6, r7, lr}
  __HAL_LOCK(hadc);
 8002b6e:	f890 203c 	ldrb.w	r2, [r0, #60]	; 0x3c
  if (sConfig->SingleDiff != ADC_DIFFERENTIAL_ENDED)
 8002b72:	68cc      	ldr	r4, [r1, #12]
{
 8002b74:	b083      	sub	sp, #12
 8002b76:	4603      	mov	r3, r0
  __HAL_LOCK(hadc);
 8002b78:	2a01      	cmp	r2, #1
  __IO uint32_t wait_loop_index = 0U;
 8002b7a:	f04f 0000 	mov.w	r0, #0
 8002b7e:	9001      	str	r0, [sp, #4]
  __HAL_LOCK(hadc);
 8002b80:	f000 8106 	beq.w	8002d90 <HAL_ADC_ConfigChannel+0x224>
  if (ADC_IS_CONVERSION_ONGOING_REGULAR(hadc) == RESET)
 8002b84:	681a      	ldr	r2, [r3, #0]
  __HAL_LOCK(hadc);
 8002b86:	2001      	movs	r0, #1
 8002b88:	f883 003c 	strb.w	r0, [r3, #60]	; 0x3c
  if (ADC_IS_CONVERSION_ONGOING_REGULAR(hadc) == RESET)
 8002b8c:	6895      	ldr	r5, [r2, #8]
 8002b8e:	076d      	lsls	r5, r5, #29
 8002b90:	d43a      	bmi.n	8002c08 <HAL_ADC_ConfigChannel+0x9c>
    if (sConfig->Rank < 5U)
 8002b92:	6848      	ldr	r0, [r1, #4]
 8002b94:	2804      	cmp	r0, #4
 8002b96:	f200 808b 	bhi.w	8002cb0 <HAL_ADC_ConfigChannel+0x144>
      MODIFY_REG(hadc->Instance->SQR1,
 8002b9a:	eb00 0040 	add.w	r0, r0, r0, lsl #1
 8002b9e:	6b16      	ldr	r6, [r2, #48]	; 0x30
 8002ba0:	680d      	ldr	r5, [r1, #0]
 8002ba2:	0040      	lsls	r0, r0, #1
 8002ba4:	f04f 0c1f 	mov.w	ip, #31
 8002ba8:	fa0c fc00 	lsl.w	ip, ip, r0
 8002bac:	ea26 0c0c 	bic.w	ip, r6, ip
 8002bb0:	fa05 f000 	lsl.w	r0, r5, r0
 8002bb4:	ea4c 0000 	orr.w	r0, ip, r0
 8002bb8:	6310      	str	r0, [r2, #48]	; 0x30
  if (ADC_IS_CONVERSION_ONGOING_REGULAR_INJECTED(hadc) == RESET)
 8002bba:	6890      	ldr	r0, [r2, #8]
 8002bbc:	f010 0f0c 	tst.w	r0, #12
 8002bc0:	d134      	bne.n	8002c2c <HAL_ADC_ConfigChannel+0xc0>
    if (sConfig->Channel >= ADC_CHANNEL_10)
 8002bc2:	2d09      	cmp	r5, #9
 8002bc4:	f200 808b 	bhi.w	8002cde <HAL_ADC_ConfigChannel+0x172>
      MODIFY_REG(hadc->Instance->SMPR1                             ,
 8002bc8:	6950      	ldr	r0, [r2, #20]
 8002bca:	688e      	ldr	r6, [r1, #8]
 8002bcc:	eb05 0e45 	add.w	lr, r5, r5, lsl #1
 8002bd0:	f04f 0c07 	mov.w	ip, #7
 8002bd4:	fa0c fc0e 	lsl.w	ip, ip, lr
 8002bd8:	fa06 f60e 	lsl.w	r6, r6, lr
 8002bdc:	ea20 000c 	bic.w	r0, r0, ip
 8002be0:	4330      	orrs	r0, r6
 8002be2:	6150      	str	r0, [r2, #20]
    tmpOffsetShifted = ADC_OFFSET_SHIFT_RESOLUTION(hadc, sConfig->Offset);
 8002be4:	68d0      	ldr	r0, [r2, #12]
    switch (sConfig->OffsetNumber)
 8002be6:	690e      	ldr	r6, [r1, #16]
    tmpOffsetShifted = ADC_OFFSET_SHIFT_RESOLUTION(hadc, sConfig->Offset);
 8002be8:	694f      	ldr	r7, [r1, #20]
 8002bea:	f3c0 00c1 	ubfx	r0, r0, #3, #2
 8002bee:	0040      	lsls	r0, r0, #1
    switch (sConfig->OffsetNumber)
 8002bf0:	3e01      	subs	r6, #1
    tmpOffsetShifted = ADC_OFFSET_SHIFT_RESOLUTION(hadc, sConfig->Offset);
 8002bf2:	fa07 f000 	lsl.w	r0, r7, r0
    switch (sConfig->OffsetNumber)
 8002bf6:	2e03      	cmp	r6, #3
 8002bf8:	f200 8146 	bhi.w	8002e88 <HAL_ADC_ConfigChannel+0x31c>
 8002bfc:	e8df f016 	tbh	[pc, r6, lsl #1]
 8002c00:	0108000d 	.word	0x0108000d
 8002c04:	00f400fe 	.word	0x00f400fe
    SET_BIT(hadc->State, HAL_ADC_STATE_ERROR_CONFIG);
 8002c08:	6c1a      	ldr	r2, [r3, #64]	; 0x40
 8002c0a:	f042 0220 	orr.w	r2, r2, #32
 8002c0e:	641a      	str	r2, [r3, #64]	; 0x40
  __HAL_UNLOCK(hadc);
 8002c10:	2200      	movs	r2, #0
 8002c12:	f883 203c 	strb.w	r2, [r3, #60]	; 0x3c
}
 8002c16:	b003      	add	sp, #12
 8002c18:	bdf0      	pop	{r4, r5, r6, r7, pc}
      MODIFY_REG(hadc->Instance->OFR1               ,
 8002c1a:	6e17      	ldr	r7, [r2, #96]	; 0x60
 8002c1c:	4ea9      	ldr	r6, [pc, #676]	; (8002ec4 <HAL_ADC_ConfigChannel+0x358>)
 8002c1e:	403e      	ands	r6, r7
 8002c20:	ea46 6685 	orr.w	r6, r6, r5, lsl #26
 8002c24:	4330      	orrs	r0, r6
 8002c26:	f040 4000 	orr.w	r0, r0, #2147483648	; 0x80000000
 8002c2a:	6610      	str	r0, [r2, #96]	; 0x60
  if (ADC_IS_ENABLE(hadc) == RESET)
 8002c2c:	6890      	ldr	r0, [r2, #8]
 8002c2e:	f000 0003 	and.w	r0, r0, #3
 8002c32:	2801      	cmp	r0, #1
 8002c34:	f000 80a7 	beq.w	8002d86 <HAL_ADC_ConfigChannel+0x21a>
    if (sConfig->SingleDiff != ADC_DIFFERENTIAL_ENDED)
 8002c38:	2c01      	cmp	r4, #1
 8002c3a:	f000 80ac 	beq.w	8002d96 <HAL_ADC_ConfigChannel+0x22a>
      CLEAR_BIT(hadc->Instance->DIFSEL, ADC_DIFSEL_CHANNEL(sConfig->Channel));
 8002c3e:	f8d2 10b0 	ldr.w	r1, [r2, #176]	; 0xb0
 8002c42:	2001      	movs	r0, #1
 8002c44:	40a8      	lsls	r0, r5
 8002c46:	ea21 0100 	bic.w	r1, r1, r0
 8002c4a:	f8c2 10b0 	str.w	r1, [r2, #176]	; 0xb0
    tmpADC_Common = ADC_COMMON_REGISTER(hadc);
 8002c4e:	f1b2 4fa0 	cmp.w	r2, #1342177280	; 0x50000000
 8002c52:	d078      	beq.n	8002d46 <HAL_ADC_ConfigChannel+0x1da>
 8002c54:	499c      	ldr	r1, [pc, #624]	; (8002ec8 <HAL_ADC_ConfigChannel+0x35c>)
 8002c56:	428a      	cmp	r2, r1
 8002c58:	d075      	beq.n	8002d46 <HAL_ADC_ConfigChannel+0x1da>
    if (( (sConfig->Channel == ADC_CHANNEL_TEMPSENSOR) &&
 8002c5a:	2d10      	cmp	r5, #16
    tmpADC_Common = ADC_COMMON_REGISTER(hadc);
 8002c5c:	f501 61c0 	add.w	r1, r1, #1536	; 0x600
    if (( (sConfig->Channel == ADC_CHANNEL_TEMPSENSOR) &&
 8002c60:	d074      	beq.n	8002d4c <HAL_ADC_ConfigChannel+0x1e0>
          (HAL_IS_BIT_CLR(tmpADC_Common->CCR, ADC_CCR_TSEN))            ) ||
 8002c62:	2d11      	cmp	r5, #17
 8002c64:	f040 80ac 	bne.w	8002dc0 <HAL_ADC_ConfigChannel+0x254>
          (HAL_IS_BIT_CLR(tmpADC_Common->CCR, ADC_CCR_VBATEN))          ) ||
 8002c68:	6888      	ldr	r0, [r1, #8]
        ( (sConfig->Channel == ADC_CHANNEL_VBAT)       &&
 8002c6a:	01c4      	lsls	r4, r0, #7
 8002c6c:	d471      	bmi.n	8002d52 <HAL_ADC_ConfigChannel+0x1e6>
      ADC_COMMON_ADC_OTHER(hadc, &tmphadcSharingSameCommonRegister);
 8002c6e:	f1b2 4fa0 	cmp.w	r2, #1342177280	; 0x50000000
 8002c72:	d070      	beq.n	8002d56 <HAL_ADC_ConfigChannel+0x1ea>
 8002c74:	4894      	ldr	r0, [pc, #592]	; (8002ec8 <HAL_ADC_ConfigChannel+0x35c>)
 8002c76:	4282      	cmp	r2, r0
 8002c78:	f000 80dd 	beq.w	8002e36 <HAL_ADC_ConfigChannel+0x2ca>
 8002c7c:	4c93      	ldr	r4, [pc, #588]	; (8002ecc <HAL_ADC_ConfigChannel+0x360>)
 8002c7e:	42a2      	cmp	r2, r4
 8002c80:	f000 80fc 	beq.w	8002e7c <HAL_ADC_ConfigChannel+0x310>
 8002c84:	f500 6080 	add.w	r0, r0, #1024	; 0x400
 8002c88:	4282      	cmp	r2, r0
 8002c8a:	d065      	beq.n	8002d58 <HAL_ADC_ConfigChannel+0x1ec>
      if ((ADC_IS_ENABLE(hadc) == RESET)                                    &&
 8002c8c:	6890      	ldr	r0, [r2, #8]
 8002c8e:	f000 0003 	and.w	r0, r0, #3
 8002c92:	2801      	cmp	r0, #1
 8002c94:	f000 80f4 	beq.w	8002e80 <HAL_ADC_ConfigChannel+0x314>
        if ((sConfig->Channel == ADC_CHANNEL_TEMPSENSOR) && (hadc->Instance == ADC1))
 8002c98:	2d10      	cmp	r5, #16
 8002c9a:	d05a      	beq.n	8002d52 <HAL_ADC_ConfigChannel+0x1e6>
        else if ((sConfig->Channel == ADC_CHANNEL_VBAT) && (hadc->Instance == ADC1))
 8002c9c:	2d11      	cmp	r5, #17
 8002c9e:	d058      	beq.n	8002d52 <HAL_ADC_ConfigChannel+0x1e6>
        else if (sConfig->Channel == ADC_CHANNEL_VREFINT)
 8002ca0:	2d12      	cmp	r5, #18
 8002ca2:	d156      	bne.n	8002d52 <HAL_ADC_ConfigChannel+0x1e6>
          SET_BIT(tmpADC_Common->CCR, ADC_CCR_VREFEN);
 8002ca4:	688a      	ldr	r2, [r1, #8]
 8002ca6:	f442 0280 	orr.w	r2, r2, #4194304	; 0x400000
  HAL_StatusTypeDef tmp_hal_status = HAL_OK;
 8002caa:	2000      	movs	r0, #0
          SET_BIT(tmpADC_Common->CCR, ADC_CCR_VREFEN);
 8002cac:	608a      	str	r2, [r1, #8]
 8002cae:	e7af      	b.n	8002c10 <HAL_ADC_ConfigChannel+0xa4>
    else if (sConfig->Rank < 10U)
 8002cb0:	2809      	cmp	r0, #9
 8002cb2:	d925      	bls.n	8002d00 <HAL_ADC_ConfigChannel+0x194>
    else if (sConfig->Rank < 15U)
 8002cb4:	280e      	cmp	r0, #14
      MODIFY_REG(hadc->Instance->SQR3                        ,
 8002cb6:	eb00 0040 	add.w	r0, r0, r0, lsl #1
 8002cba:	ea4f 0040 	mov.w	r0, r0, lsl #1
    else if (sConfig->Rank < 15U)
 8002cbe:	f200 8085 	bhi.w	8002dcc <HAL_ADC_ConfigChannel+0x260>
      MODIFY_REG(hadc->Instance->SQR3                        ,
 8002cc2:	6b96      	ldr	r6, [r2, #56]	; 0x38
 8002cc4:	680d      	ldr	r5, [r1, #0]
 8002cc6:	383c      	subs	r0, #60	; 0x3c
 8002cc8:	f04f 0c1f 	mov.w	ip, #31
 8002ccc:	fa0c fc00 	lsl.w	ip, ip, r0
 8002cd0:	ea26 060c 	bic.w	r6, r6, ip
 8002cd4:	fa05 f000 	lsl.w	r0, r5, r0
 8002cd8:	4330      	orrs	r0, r6
 8002cda:	6390      	str	r0, [r2, #56]	; 0x38
 8002cdc:	e76d      	b.n	8002bba <HAL_ADC_ConfigChannel+0x4e>
      MODIFY_REG(hadc->Instance->SMPR2                             ,
 8002cde:	688f      	ldr	r7, [r1, #8]
 8002ce0:	6990      	ldr	r0, [r2, #24]
 8002ce2:	eb05 0645 	add.w	r6, r5, r5, lsl #1
 8002ce6:	3e1e      	subs	r6, #30
 8002ce8:	f04f 0e07 	mov.w	lr, #7
 8002cec:	fa07 fc06 	lsl.w	ip, r7, r6
 8002cf0:	fa0e f606 	lsl.w	r6, lr, r6
 8002cf4:	ea20 0006 	bic.w	r0, r0, r6
 8002cf8:	ea40 000c 	orr.w	r0, r0, ip
 8002cfc:	6190      	str	r0, [r2, #24]
 8002cfe:	e771      	b.n	8002be4 <HAL_ADC_ConfigChannel+0x78>
      MODIFY_REG(hadc->Instance->SQR2,
 8002d00:	eb00 0040 	add.w	r0, r0, r0, lsl #1
 8002d04:	0040      	lsls	r0, r0, #1
 8002d06:	6b56      	ldr	r6, [r2, #52]	; 0x34
 8002d08:	680d      	ldr	r5, [r1, #0]
 8002d0a:	381e      	subs	r0, #30
 8002d0c:	f04f 0c1f 	mov.w	ip, #31
 8002d10:	fa0c fc00 	lsl.w	ip, ip, r0
 8002d14:	ea26 060c 	bic.w	r6, r6, ip
 8002d18:	fa05 f000 	lsl.w	r0, r5, r0
 8002d1c:	4330      	orrs	r0, r6
 8002d1e:	6350      	str	r0, [r2, #52]	; 0x34
 8002d20:	e74b      	b.n	8002bba <HAL_ADC_ConfigChannel+0x4e>
        MODIFY_REG(hadc->Instance->SMPR1,
 8002d22:	1c6c      	adds	r4, r5, #1
 8002d24:	688e      	ldr	r6, [r1, #8]
 8002d26:	6950      	ldr	r0, [r2, #20]
 8002d28:	eb04 0444 	add.w	r4, r4, r4, lsl #1
 8002d2c:	2107      	movs	r1, #7
 8002d2e:	40a1      	lsls	r1, r4
 8002d30:	40a6      	lsls	r6, r4
 8002d32:	ea20 0101 	bic.w	r1, r0, r1
 8002d36:	4331      	orrs	r1, r6
    tmpADC_Common = ADC_COMMON_REGISTER(hadc);
 8002d38:	f1b2 4fa0 	cmp.w	r2, #1342177280	; 0x50000000
        MODIFY_REG(hadc->Instance->SMPR1,
 8002d3c:	6151      	str	r1, [r2, #20]
    tmpADC_Common = ADC_COMMON_REGISTER(hadc);
 8002d3e:	d008      	beq.n	8002d52 <HAL_ADC_ConfigChannel+0x1e6>
 8002d40:	4961      	ldr	r1, [pc, #388]	; (8002ec8 <HAL_ADC_ConfigChannel+0x35c>)
 8002d42:	428a      	cmp	r2, r1
 8002d44:	d105      	bne.n	8002d52 <HAL_ADC_ConfigChannel+0x1e6>
    if (( (sConfig->Channel == ADC_CHANNEL_TEMPSENSOR) &&
 8002d46:	2d10      	cmp	r5, #16
    tmpADC_Common = ADC_COMMON_REGISTER(hadc);
 8002d48:	4961      	ldr	r1, [pc, #388]	; (8002ed0 <HAL_ADC_ConfigChannel+0x364>)
    if (( (sConfig->Channel == ADC_CHANNEL_TEMPSENSOR) &&
 8002d4a:	d18a      	bne.n	8002c62 <HAL_ADC_ConfigChannel+0xf6>
          (HAL_IS_BIT_CLR(tmpADC_Common->CCR, ADC_CCR_TSEN))            ) ||
 8002d4c:	6888      	ldr	r0, [r1, #8]
    if (( (sConfig->Channel == ADC_CHANNEL_TEMPSENSOR) &&
 8002d4e:	0206      	lsls	r6, r0, #8
 8002d50:	d58d      	bpl.n	8002c6e <HAL_ADC_ConfigChannel+0x102>
  HAL_StatusTypeDef tmp_hal_status = HAL_OK;
 8002d52:	2000      	movs	r0, #0
 8002d54:	e75c      	b.n	8002c10 <HAL_ADC_ConfigChannel+0xa4>
 8002d56:	4c5c      	ldr	r4, [pc, #368]	; (8002ec8 <HAL_ADC_ConfigChannel+0x35c>)
      if ((ADC_IS_ENABLE(hadc) == RESET)                                    &&
 8002d58:	6890      	ldr	r0, [r2, #8]
 8002d5a:	f000 0003 	and.w	r0, r0, #3
 8002d5e:	2801      	cmp	r0, #1
 8002d60:	d060      	beq.n	8002e24 <HAL_ADC_ConfigChannel+0x2b8>
            (ADC_IS_ENABLE(&tmphadcSharingSameCommonRegister) == RESET)   )   )
 8002d62:	68a0      	ldr	r0, [r4, #8]
 8002d64:	f000 0003 	and.w	r0, r0, #3
 8002d68:	2801      	cmp	r0, #1
 8002d6a:	d067      	beq.n	8002e3c <HAL_ADC_ConfigChannel+0x2d0>
        if ((sConfig->Channel == ADC_CHANNEL_TEMPSENSOR) && (hadc->Instance == ADC1))
 8002d6c:	2d10      	cmp	r5, #16
 8002d6e:	d069      	beq.n	8002e44 <HAL_ADC_ConfigChannel+0x2d8>
        else if ((sConfig->Channel == ADC_CHANNEL_VBAT) && (hadc->Instance == ADC1))
 8002d70:	2d11      	cmp	r5, #17
 8002d72:	d195      	bne.n	8002ca0 <HAL_ADC_ConfigChannel+0x134>
 8002d74:	f1b2 4fa0 	cmp.w	r2, #1342177280	; 0x50000000
 8002d78:	d1eb      	bne.n	8002d52 <HAL_ADC_ConfigChannel+0x1e6>
          SET_BIT(tmpADC_Common->CCR, ADC_CCR_VBATEN);
 8002d7a:	688a      	ldr	r2, [r1, #8]
 8002d7c:	f042 7280 	orr.w	r2, r2, #16777216	; 0x1000000
  HAL_StatusTypeDef tmp_hal_status = HAL_OK;
 8002d80:	2000      	movs	r0, #0
          SET_BIT(tmpADC_Common->CCR, ADC_CCR_VBATEN);
 8002d82:	608a      	str	r2, [r1, #8]
 8002d84:	e744      	b.n	8002c10 <HAL_ADC_ConfigChannel+0xa4>
  if (ADC_IS_ENABLE(hadc) == RESET)
 8002d86:	6810      	ldr	r0, [r2, #0]
 8002d88:	07c7      	lsls	r7, r0, #31
 8002d8a:	f57f af55 	bpl.w	8002c38 <HAL_ADC_ConfigChannel+0xcc>
 8002d8e:	e7e0      	b.n	8002d52 <HAL_ADC_ConfigChannel+0x1e6>
  __HAL_LOCK(hadc);
 8002d90:	2002      	movs	r0, #2
}
 8002d92:	b003      	add	sp, #12
 8002d94:	bdf0      	pop	{r4, r5, r6, r7, pc}
      SET_BIT(hadc->Instance->DIFSEL, ADC_DIFSEL_CHANNEL(sConfig->Channel));
 8002d96:	f8d2 00b0 	ldr.w	r0, [r2, #176]	; 0xb0
 8002d9a:	40ac      	lsls	r4, r5
 8002d9c:	4304      	orrs	r4, r0
      if (sConfig->Channel >= ADC_CHANNEL_10)
 8002d9e:	2d09      	cmp	r5, #9
      SET_BIT(hadc->Instance->DIFSEL, ADC_DIFSEL_CHANNEL(sConfig->Channel));
 8002da0:	f8c2 40b0 	str.w	r4, [r2, #176]	; 0xb0
      if (sConfig->Channel >= ADC_CHANNEL_10)
 8002da4:	d9bd      	bls.n	8002d22 <HAL_ADC_ConfigChannel+0x1b6>
        MODIFY_REG(hadc->Instance->SMPR2,
 8002da6:	eb05 0445 	add.w	r4, r5, r5, lsl #1
 8002daa:	688e      	ldr	r6, [r1, #8]
 8002dac:	6990      	ldr	r0, [r2, #24]
 8002dae:	3c1b      	subs	r4, #27
 8002db0:	2107      	movs	r1, #7
 8002db2:	40a1      	lsls	r1, r4
 8002db4:	40a6      	lsls	r6, r4
 8002db6:	ea20 0101 	bic.w	r1, r0, r1
 8002dba:	4331      	orrs	r1, r6
 8002dbc:	6191      	str	r1, [r2, #24]
 8002dbe:	e746      	b.n	8002c4e <HAL_ADC_ConfigChannel+0xe2>
          (HAL_IS_BIT_CLR(tmpADC_Common->CCR, ADC_CCR_VBATEN))          ) ||
 8002dc0:	2d12      	cmp	r5, #18
 8002dc2:	d1c6      	bne.n	8002d52 <HAL_ADC_ConfigChannel+0x1e6>
          (HAL_IS_BIT_CLR(tmpADC_Common->CCR, ADC_CCR_VREFEN)))
 8002dc4:	6888      	ldr	r0, [r1, #8]
        ( (sConfig->Channel == ADC_CHANNEL_VREFINT)    &&
 8002dc6:	0240      	lsls	r0, r0, #9
 8002dc8:	d4c3      	bmi.n	8002d52 <HAL_ADC_ConfigChannel+0x1e6>
 8002dca:	e750      	b.n	8002c6e <HAL_ADC_ConfigChannel+0x102>
      MODIFY_REG(hadc->Instance->SQR4                        ,
 8002dcc:	6bd6      	ldr	r6, [r2, #60]	; 0x3c
 8002dce:	680d      	ldr	r5, [r1, #0]
 8002dd0:	385a      	subs	r0, #90	; 0x5a
 8002dd2:	f04f 0c1f 	mov.w	ip, #31
 8002dd6:	fa0c fc00 	lsl.w	ip, ip, r0
 8002dda:	ea26 060c 	bic.w	r6, r6, ip
 8002dde:	fa05 f000 	lsl.w	r0, r5, r0
 8002de2:	4330      	orrs	r0, r6
 8002de4:	63d0      	str	r0, [r2, #60]	; 0x3c
 8002de6:	e6e8      	b.n	8002bba <HAL_ADC_ConfigChannel+0x4e>
      MODIFY_REG(hadc->Instance->OFR4               ,
 8002de8:	6ed7      	ldr	r7, [r2, #108]	; 0x6c
 8002dea:	4e36      	ldr	r6, [pc, #216]	; (8002ec4 <HAL_ADC_ConfigChannel+0x358>)
 8002dec:	403e      	ands	r6, r7
 8002dee:	ea46 6685 	orr.w	r6, r6, r5, lsl #26
 8002df2:	4330      	orrs	r0, r6
 8002df4:	f040 4000 	orr.w	r0, r0, #2147483648	; 0x80000000
 8002df8:	66d0      	str	r0, [r2, #108]	; 0x6c
      break;
 8002dfa:	e717      	b.n	8002c2c <HAL_ADC_ConfigChannel+0xc0>
      MODIFY_REG(hadc->Instance->OFR3               ,
 8002dfc:	6e97      	ldr	r7, [r2, #104]	; 0x68
 8002dfe:	4e31      	ldr	r6, [pc, #196]	; (8002ec4 <HAL_ADC_ConfigChannel+0x358>)
 8002e00:	403e      	ands	r6, r7
 8002e02:	ea46 6685 	orr.w	r6, r6, r5, lsl #26
 8002e06:	4330      	orrs	r0, r6
 8002e08:	f040 4000 	orr.w	r0, r0, #2147483648	; 0x80000000
 8002e0c:	6690      	str	r0, [r2, #104]	; 0x68
      break;
 8002e0e:	e70d      	b.n	8002c2c <HAL_ADC_ConfigChannel+0xc0>
      MODIFY_REG(hadc->Instance->OFR2               ,
 8002e10:	6e57      	ldr	r7, [r2, #100]	; 0x64
 8002e12:	4e2c      	ldr	r6, [pc, #176]	; (8002ec4 <HAL_ADC_ConfigChannel+0x358>)
 8002e14:	403e      	ands	r6, r7
 8002e16:	ea46 6685 	orr.w	r6, r6, r5, lsl #26
 8002e1a:	4330      	orrs	r0, r6
 8002e1c:	f040 4000 	orr.w	r0, r0, #2147483648	; 0x80000000
 8002e20:	6650      	str	r0, [r2, #100]	; 0x64
      break;
 8002e22:	e703      	b.n	8002c2c <HAL_ADC_ConfigChannel+0xc0>
      if ((ADC_IS_ENABLE(hadc) == RESET)                                    &&
 8002e24:	6810      	ldr	r0, [r2, #0]
 8002e26:	07c6      	lsls	r6, r0, #31
 8002e28:	d59b      	bpl.n	8002d62 <HAL_ADC_ConfigChannel+0x1f6>
        SET_BIT(hadc->State, HAL_ADC_STATE_ERROR_CONFIG);
 8002e2a:	6c1a      	ldr	r2, [r3, #64]	; 0x40
 8002e2c:	f042 0220 	orr.w	r2, r2, #32
        tmp_hal_status = HAL_ERROR;
 8002e30:	2001      	movs	r0, #1
        SET_BIT(hadc->State, HAL_ADC_STATE_ERROR_CONFIG);
 8002e32:	641a      	str	r2, [r3, #64]	; 0x40
        tmp_hal_status = HAL_ERROR;
 8002e34:	e6ec      	b.n	8002c10 <HAL_ADC_ConfigChannel+0xa4>
 8002e36:	f04f 44a0 	mov.w	r4, #1342177280	; 0x50000000
 8002e3a:	e78d      	b.n	8002d58 <HAL_ADC_ConfigChannel+0x1ec>
            (ADC_IS_ENABLE(&tmphadcSharingSameCommonRegister) == RESET)   )   )
 8002e3c:	6820      	ldr	r0, [r4, #0]
 8002e3e:	07c0      	lsls	r0, r0, #31
 8002e40:	d4f3      	bmi.n	8002e2a <HAL_ADC_ConfigChannel+0x2be>
 8002e42:	e793      	b.n	8002d6c <HAL_ADC_ConfigChannel+0x200>
        if ((sConfig->Channel == ADC_CHANNEL_TEMPSENSOR) && (hadc->Instance == ADC1))
 8002e44:	f1b2 4fa0 	cmp.w	r2, #1342177280	; 0x50000000
 8002e48:	d183      	bne.n	8002d52 <HAL_ADC_ConfigChannel+0x1e6>
          wait_loop_index = (ADC_TEMPSENSOR_DELAY_US * (SystemCoreClock / 1000000U));
 8002e4a:	4a22      	ldr	r2, [pc, #136]	; (8002ed4 <HAL_ADC_ConfigChannel+0x368>)
 8002e4c:	4c22      	ldr	r4, [pc, #136]	; (8002ed8 <HAL_ADC_ConfigChannel+0x36c>)
 8002e4e:	6812      	ldr	r2, [r2, #0]
          SET_BIT(tmpADC_Common->CCR, ADC_CCR_TSEN);
 8002e50:	6888      	ldr	r0, [r1, #8]
          wait_loop_index = (ADC_TEMPSENSOR_DELAY_US * (SystemCoreClock / 1000000U));
 8002e52:	fba4 4202 	umull	r4, r2, r4, r2
 8002e56:	0c92      	lsrs	r2, r2, #18
 8002e58:	eb02 0282 	add.w	r2, r2, r2, lsl #2
 8002e5c:	0052      	lsls	r2, r2, #1
          SET_BIT(tmpADC_Common->CCR, ADC_CCR_TSEN);
 8002e5e:	f440 0000 	orr.w	r0, r0, #8388608	; 0x800000
 8002e62:	6088      	str	r0, [r1, #8]
          wait_loop_index = (ADC_TEMPSENSOR_DELAY_US * (SystemCoreClock / 1000000U));
 8002e64:	9201      	str	r2, [sp, #4]
          while(wait_loop_index != 0U)
 8002e66:	9a01      	ldr	r2, [sp, #4]
 8002e68:	2a00      	cmp	r2, #0
 8002e6a:	f43f af72 	beq.w	8002d52 <HAL_ADC_ConfigChannel+0x1e6>
            wait_loop_index--;
 8002e6e:	9a01      	ldr	r2, [sp, #4]
 8002e70:	3a01      	subs	r2, #1
 8002e72:	9201      	str	r2, [sp, #4]
          while(wait_loop_index != 0U)
 8002e74:	9a01      	ldr	r2, [sp, #4]
 8002e76:	2a00      	cmp	r2, #0
 8002e78:	d1f9      	bne.n	8002e6e <HAL_ADC_ConfigChannel+0x302>
 8002e7a:	e76a      	b.n	8002d52 <HAL_ADC_ConfigChannel+0x1e6>
 8002e7c:	4c17      	ldr	r4, [pc, #92]	; (8002edc <HAL_ADC_ConfigChannel+0x370>)
 8002e7e:	e76b      	b.n	8002d58 <HAL_ADC_ConfigChannel+0x1ec>
      if ((ADC_IS_ENABLE(hadc) == RESET)                                    &&
 8002e80:	6812      	ldr	r2, [r2, #0]
 8002e82:	07d7      	lsls	r7, r2, #31
 8002e84:	d4d1      	bmi.n	8002e2a <HAL_ADC_ConfigChannel+0x2be>
 8002e86:	e707      	b.n	8002c98 <HAL_ADC_ConfigChannel+0x12c>
      if (((hadc->Instance->OFR1) & ADC_OFR1_OFFSET1_CH) == ADC_OFR_CHANNEL(sConfig->Channel))
 8002e88:	6e10      	ldr	r0, [r2, #96]	; 0x60
 8002e8a:	f000 40f8 	and.w	r0, r0, #2080374784	; 0x7c000000
 8002e8e:	ebb0 6f85 	cmp.w	r0, r5, lsl #26
 8002e92:	ea4f 6685 	mov.w	r6, r5, lsl #26
 8002e96:	d023      	beq.n	8002ee0 <HAL_ADC_ConfigChannel+0x374>
      if (((hadc->Instance->OFR2) & ADC_OFR2_OFFSET2_CH) == ADC_OFR_CHANNEL(sConfig->Channel))
 8002e98:	6e50      	ldr	r0, [r2, #100]	; 0x64
 8002e9a:	f000 40f8 	and.w	r0, r0, #2080374784	; 0x7c000000
 8002e9e:	4286      	cmp	r6, r0
 8002ea0:	d023      	beq.n	8002eea <HAL_ADC_ConfigChannel+0x37e>
      if (((hadc->Instance->OFR3) & ADC_OFR3_OFFSET3_CH) == ADC_OFR_CHANNEL(sConfig->Channel))
 8002ea2:	6e90      	ldr	r0, [r2, #104]	; 0x68
 8002ea4:	f000 40f8 	and.w	r0, r0, #2080374784	; 0x7c000000
 8002ea8:	4286      	cmp	r6, r0
 8002eaa:	d023      	beq.n	8002ef4 <HAL_ADC_ConfigChannel+0x388>
      if (((hadc->Instance->OFR4) & ADC_OFR4_OFFSET4_CH) == ADC_OFR_CHANNEL(sConfig->Channel))
 8002eac:	6ed0      	ldr	r0, [r2, #108]	; 0x6c
 8002eae:	f000 40f8 	and.w	r0, r0, #2080374784	; 0x7c000000
 8002eb2:	4286      	cmp	r6, r0
 8002eb4:	f47f aeba 	bne.w	8002c2c <HAL_ADC_ConfigChannel+0xc0>
        CLEAR_BIT(hadc->Instance->OFR4, ADC_OFR4_OFFSET4_EN);
 8002eb8:	6ed0      	ldr	r0, [r2, #108]	; 0x6c
 8002eba:	f020 4000 	bic.w	r0, r0, #2147483648	; 0x80000000
 8002ebe:	66d0      	str	r0, [r2, #108]	; 0x6c
 8002ec0:	e6b4      	b.n	8002c2c <HAL_ADC_ConfigChannel+0xc0>
 8002ec2:	bf00      	nop
 8002ec4:	83fff000 	.word	0x83fff000
 8002ec8:	50000100 	.word	0x50000100
 8002ecc:	50000400 	.word	0x50000400
 8002ed0:	50000300 	.word	0x50000300
 8002ed4:	20000000 	.word	0x20000000
 8002ed8:	431bde83 	.word	0x431bde83
 8002edc:	50000500 	.word	0x50000500
        CLEAR_BIT(hadc->Instance->OFR1, ADC_OFR1_OFFSET1_EN);
 8002ee0:	6e10      	ldr	r0, [r2, #96]	; 0x60
 8002ee2:	f020 4000 	bic.w	r0, r0, #2147483648	; 0x80000000
 8002ee6:	6610      	str	r0, [r2, #96]	; 0x60
 8002ee8:	e7d6      	b.n	8002e98 <HAL_ADC_ConfigChannel+0x32c>
        CLEAR_BIT(hadc->Instance->OFR2, ADC_OFR2_OFFSET2_EN); 
 8002eea:	6e50      	ldr	r0, [r2, #100]	; 0x64
 8002eec:	f020 4000 	bic.w	r0, r0, #2147483648	; 0x80000000
 8002ef0:	6650      	str	r0, [r2, #100]	; 0x64
 8002ef2:	e7d6      	b.n	8002ea2 <HAL_ADC_ConfigChannel+0x336>
        CLEAR_BIT(hadc->Instance->OFR3, ADC_OFR3_OFFSET3_EN);
 8002ef4:	6e90      	ldr	r0, [r2, #104]	; 0x68
 8002ef6:	f020 4000 	bic.w	r0, r0, #2147483648	; 0x80000000
 8002efa:	6690      	str	r0, [r2, #104]	; 0x68
 8002efc:	e7d6      	b.n	8002eac <HAL_ADC_ConfigChannel+0x340>
 8002efe:	bf00      	nop

08002f00 <HAL_ADCEx_InjectedConfigChannel>:
{
 8002f00:	b5f0      	push	{r4, r5, r6, r7, lr}
  __HAL_LOCK(hadc);
 8002f02:	f890 303c 	ldrb.w	r3, [r0, #60]	; 0x3c
  if(hadc->Init.ScanConvMode != ADC_SCAN_DISABLE)
 8002f06:	6905      	ldr	r5, [r0, #16]
  if (sConfigInjected->InjectedSingleDiff != ADC_DIFFERENTIAL_ENDED)
 8002f08:	68cc      	ldr	r4, [r1, #12]
{
 8002f0a:	b083      	sub	sp, #12
  __IO uint32_t wait_loop_index = 0U;
 8002f0c:	2200      	movs	r2, #0
  __HAL_LOCK(hadc);
 8002f0e:	2b01      	cmp	r3, #1
  __IO uint32_t wait_loop_index = 0U;
 8002f10:	9201      	str	r2, [sp, #4]
  __HAL_LOCK(hadc);
 8002f12:	f000 81ac 	beq.w	800326e <HAL_ADCEx_InjectedConfigChannel+0x36e>
 8002f16:	2301      	movs	r3, #1
 8002f18:	f880 303c 	strb.w	r3, [r0, #60]	; 0x3c
  if ((hadc->Init.ScanConvMode == ADC_SCAN_DISABLE)  ||
 8002f1c:	b365      	cbz	r5, 8002f78 <HAL_ADCEx_InjectedConfigChannel+0x78>
      (sConfigInjected->InjectedNbrOfConversion == 1U)  )
 8002f1e:	698f      	ldr	r7, [r1, #24]
  if ((hadc->Init.ScanConvMode == ADC_SCAN_DISABLE)  ||
 8002f20:	429f      	cmp	r7, r3
 8002f22:	d029      	beq.n	8002f78 <HAL_ADCEx_InjectedConfigChannel+0x78>
    if (hadc->InjectionConfig.ChannelCount == 0U)
 8002f24:	6cc5      	ldr	r5, [r0, #76]	; 0x4c
 8002f26:	2d00      	cmp	r5, #0
 8002f28:	f040 812b 	bne.w	8003182 <HAL_ADCEx_InjectedConfigChannel+0x282>
      if (sConfigInjected->ExternalTrigInjecConv != ADC_INJECTED_SOFTWARE_START)
 8002f2c:	6a0d      	ldr	r5, [r1, #32]
      hadc->InjectionConfig.ChannelCount = sConfigInjected->InjectedNbrOfConversion;
 8002f2e:	64c7      	str	r7, [r0, #76]	; 0x4c
      if (sConfigInjected->ExternalTrigInjecConv != ADC_INJECTED_SOFTWARE_START)
 8002f30:	2d01      	cmp	r5, #1
 8002f32:	f000 81f1 	beq.w	8003318 <HAL_ADCEx_InjectedConfigChannel+0x418>
        SET_BIT(hadc->InjectionConfig.ContextQueue, (sConfigInjected->InjectedNbrOfConversion - 1U)           |
 8002f36:	6803      	ldr	r3, [r0, #0]
 8002f38:	4aab      	ldr	r2, [pc, #684]	; (80031e8 <HAL_ADCEx_InjectedConfigChannel+0x2e8>)
 8002f3a:	4293      	cmp	r3, r2
 8002f3c:	f107 37ff 	add.w	r7, r7, #4294967295
 8002f40:	f000 81e2 	beq.w	8003308 <HAL_ADCEx_InjectedConfigChannel+0x408>
 8002f44:	f502 7280 	add.w	r2, r2, #256	; 0x100
 8002f48:	4293      	cmp	r3, r2
 8002f4a:	f000 81dd 	beq.w	8003308 <HAL_ADCEx_InjectedConfigChannel+0x408>
 8002f4e:	6a4a      	ldr	r2, [r1, #36]	; 0x24
 8002f50:	433a      	orrs	r2, r7
 8002f52:	432a      	orrs	r2, r5
      MODIFY_REG(hadc->InjectionConfig.ContextQueue                                          ,
 8002f54:	684d      	ldr	r5, [r1, #4]
 8002f56:	680e      	ldr	r6, [r1, #0]
      hadc->InjectionConfig.ChannelCount --;
 8002f58:	64c7      	str	r7, [r0, #76]	; 0x4c
      MODIFY_REG(hadc->InjectionConfig.ContextQueue                                          ,
 8002f5a:	eb05 0545 	add.w	r5, r5, r5, lsl #1
 8002f5e:	006d      	lsls	r5, r5, #1
 8002f60:	3502      	adds	r5, #2
 8002f62:	271f      	movs	r7, #31
 8002f64:	40ae      	lsls	r6, r5
 8002f66:	fa07 f505 	lsl.w	r5, r7, r5
 8002f6a:	ea22 0205 	bic.w	r2, r2, r5
 8002f6e:	4332      	orrs	r2, r6
 8002f70:	6482      	str	r2, [r0, #72]	; 0x48
  HAL_StatusTypeDef tmp_hal_status = HAL_OK;
 8002f72:	f04f 0c00 	mov.w	ip, #0
 8002f76:	e00a      	b.n	8002f8e <HAL_ADCEx_InjectedConfigChannel+0x8e>
    if (sConfigInjected->InjectedRank == ADC_INJECTED_RANK_1)
 8002f78:	684b      	ldr	r3, [r1, #4]
 8002f7a:	2b01      	cmp	r3, #1
 8002f7c:	f000 80e5 	beq.w	800314a <HAL_ADCEx_InjectedConfigChannel+0x24a>
      SET_BIT(hadc->State, HAL_ADC_STATE_ERROR_CONFIG);
 8002f80:	6c02      	ldr	r2, [r0, #64]	; 0x40
        SET_BIT(hadc->InjectionConfig.ContextQueue, (sConfigInjected->InjectedNbrOfConversion - 1U)           |
 8002f82:	6803      	ldr	r3, [r0, #0]
      SET_BIT(hadc->State, HAL_ADC_STATE_ERROR_CONFIG);
 8002f84:	f042 0220 	orr.w	r2, r2, #32
 8002f88:	6402      	str	r2, [r0, #64]	; 0x40
      tmp_hal_status = HAL_ERROR;
 8002f8a:	f04f 0c01 	mov.w	ip, #1
  if (ADC_IS_CONVERSION_ONGOING_INJECTED(hadc) == RESET)
 8002f8e:	689a      	ldr	r2, [r3, #8]
 8002f90:	0712      	lsls	r2, r2, #28
 8002f92:	d40d      	bmi.n	8002fb0 <HAL_ADCEx_InjectedConfigChannel+0xb0>
    if (sConfigInjected->AutoInjectedConv == DISABLE)
 8002f94:	7f4a      	ldrb	r2, [r1, #29]
 8002f96:	2a00      	cmp	r2, #0
 8002f98:	f040 80c0 	bne.w	800311c <HAL_ADCEx_InjectedConfigChannel+0x21c>
      MODIFY_REG(hadc->Instance->CFGR                                                            ,
 8002f9c:	7f0a      	ldrb	r2, [r1, #28]
 8002f9e:	68dd      	ldr	r5, [r3, #12]
 8002fa0:	7f8e      	ldrb	r6, [r1, #30]
 8002fa2:	0512      	lsls	r2, r2, #20
 8002fa4:	f425 1540 	bic.w	r5, r5, #3145728	; 0x300000
 8002fa8:	ea42 5246 	orr.w	r2, r2, r6, lsl #21
 8002fac:	432a      	orrs	r2, r5
 8002fae:	60da      	str	r2, [r3, #12]
  if (ADC_IS_CONVERSION_ONGOING_REGULAR_INJECTED(hadc) == RESET)
 8002fb0:	689a      	ldr	r2, [r3, #8]
 8002fb2:	f012 0f0c 	tst.w	r2, #12
 8002fb6:	d13a      	bne.n	800302e <HAL_ADCEx_InjectedConfigChannel+0x12e>
    if (sConfigInjected->ExternalTrigInjecConv == ADC_INJECTED_SOFTWARE_START)
 8002fb8:	6a0a      	ldr	r2, [r1, #32]
 8002fba:	2a01      	cmp	r2, #1
      MODIFY_REG(hadc->Instance->CFGR                                              ,
 8002fbc:	68da      	ldr	r2, [r3, #12]
 8002fbe:	f022 7200 	bic.w	r2, r2, #33554432	; 0x2000000
    if (sConfigInjected->ExternalTrigInjecConv == ADC_INJECTED_SOFTWARE_START)
 8002fc2:	f000 814f 	beq.w	8003264 <HAL_ADCEx_InjectedConfigChannel+0x364>
      CLEAR_BIT(hadc->Instance->CFGR, ADC_CFGR_JAUTO);
 8002fc6:	60da      	str	r2, [r3, #12]
      if (sConfigInjected->AutoInjectedConv == ENABLE)
 8002fc8:	7f4a      	ldrb	r2, [r1, #29]
 8002fca:	2a01      	cmp	r2, #1
 8002fcc:	f000 812c 	beq.w	8003228 <HAL_ADCEx_InjectedConfigChannel+0x328>
    if (sConfigInjected->InjectedChannel >= ADC_CHANNEL_10)
 8002fd0:	680e      	ldr	r6, [r1, #0]
 8002fd2:	2e09      	cmp	r6, #9
 8002fd4:	f240 8094 	bls.w	8003100 <HAL_ADCEx_InjectedConfigChannel+0x200>
      MODIFY_REG(hadc->Instance->SMPR2                                                             ,
 8002fd8:	688d      	ldr	r5, [r1, #8]
 8002fda:	699a      	ldr	r2, [r3, #24]
 8002fdc:	eb06 0e46 	add.w	lr, r6, r6, lsl #1
 8002fe0:	f1ae 0e1e 	sub.w	lr, lr, #30
 8002fe4:	2707      	movs	r7, #7
 8002fe6:	fa05 f50e 	lsl.w	r5, r5, lr
 8002fea:	fa07 fe0e 	lsl.w	lr, r7, lr
 8002fee:	ea22 020e 	bic.w	r2, r2, lr
 8002ff2:	432a      	orrs	r2, r5
 8002ff4:	619a      	str	r2, [r3, #24]
    tmpOffsetShifted = ADC_OFFSET_SHIFT_RESOLUTION(hadc, sConfigInjected->InjectedOffset);
 8002ff6:	68da      	ldr	r2, [r3, #12]
    switch (sConfigInjected->InjectedOffsetNumber)
 8002ff8:	690d      	ldr	r5, [r1, #16]
    tmpOffsetShifted = ADC_OFFSET_SHIFT_RESOLUTION(hadc, sConfigInjected->InjectedOffset);
 8002ffa:	f3c2 0ec1 	ubfx	lr, r2, #3, #2
 8002ffe:	694a      	ldr	r2, [r1, #20]
 8003000:	ea4f 0e4e 	mov.w	lr, lr, lsl #1
    switch (sConfigInjected->InjectedOffsetNumber)
 8003004:	3d01      	subs	r5, #1
    tmpOffsetShifted = ADC_OFFSET_SHIFT_RESOLUTION(hadc, sConfigInjected->InjectedOffset);
 8003006:	fa02 f20e 	lsl.w	r2, r2, lr
    switch (sConfigInjected->InjectedOffsetNumber)
 800300a:	2d03      	cmp	r5, #3
 800300c:	f200 8190 	bhi.w	8003330 <HAL_ADCEx_InjectedConfigChannel+0x430>
 8003010:	e8df f015 	tbh	[pc, r5, lsl #1]
 8003014:	01000004 	.word	0x01000004
 8003018:	00e000f6 	.word	0x00e000f6
      MODIFY_REG(hadc->Instance->OFR1                               ,
 800301c:	ea42 6286 	orr.w	r2, r2, r6, lsl #26
 8003020:	4d72      	ldr	r5, [pc, #456]	; (80031ec <HAL_ADCEx_InjectedConfigChannel+0x2ec>)
 8003022:	6e1e      	ldr	r6, [r3, #96]	; 0x60
 8003024:	4035      	ands	r5, r6
 8003026:	432a      	orrs	r2, r5
 8003028:	f042 4200 	orr.w	r2, r2, #2147483648	; 0x80000000
 800302c:	661a      	str	r2, [r3, #96]	; 0x60
  if (ADC_IS_ENABLE(hadc) == RESET)
 800302e:	689a      	ldr	r2, [r3, #8]
 8003030:	f002 0203 	and.w	r2, r2, #3
 8003034:	2a01      	cmp	r2, #1
 8003036:	d041      	beq.n	80030bc <HAL_ADCEx_InjectedConfigChannel+0x1bc>
    if (sConfigInjected->InjectedSingleDiff != ADC_DIFFERENTIAL_ENDED)
 8003038:	2c01      	cmp	r4, #1
      CLEAR_BIT(hadc->Instance->DIFSEL, ADC_DIFSEL_CHANNEL(sConfigInjected->InjectedChannel));
 800303a:	680a      	ldr	r2, [r1, #0]
    if (sConfigInjected->InjectedSingleDiff != ADC_DIFFERENTIAL_ENDED)
 800303c:	d044      	beq.n	80030c8 <HAL_ADCEx_InjectedConfigChannel+0x1c8>
      CLEAR_BIT(hadc->Instance->DIFSEL, ADC_DIFSEL_CHANNEL(sConfigInjected->InjectedChannel));
 800303e:	f8d3 10b0 	ldr.w	r1, [r3, #176]	; 0xb0
 8003042:	2401      	movs	r4, #1
 8003044:	4094      	lsls	r4, r2
 8003046:	ea21 0104 	bic.w	r1, r1, r4
 800304a:	f8c3 10b0 	str.w	r1, [r3, #176]	; 0xb0
    tmpADC_Common = ADC_COMMON_REGISTER(hadc);
 800304e:	f1b3 4fa0 	cmp.w	r3, #1342177280	; 0x50000000
 8003052:	d02c      	beq.n	80030ae <HAL_ADCEx_InjectedConfigChannel+0x1ae>
 8003054:	4966      	ldr	r1, [pc, #408]	; (80031f0 <HAL_ADCEx_InjectedConfigChannel+0x2f0>)
 8003056:	428b      	cmp	r3, r1
 8003058:	d029      	beq.n	80030ae <HAL_ADCEx_InjectedConfigChannel+0x1ae>
    if (( (sConfigInjected->InjectedChannel == ADC_CHANNEL_TEMPSENSOR) &&
 800305a:	2a10      	cmp	r2, #16
    tmpADC_Common = ADC_COMMON_REGISTER(hadc);
 800305c:	4965      	ldr	r1, [pc, #404]	; (80031f4 <HAL_ADCEx_InjectedConfigChannel+0x2f4>)
    if (( (sConfigInjected->InjectedChannel == ADC_CHANNEL_TEMPSENSOR) &&
 800305e:	d029      	beq.n	80030b4 <HAL_ADCEx_InjectedConfigChannel+0x1b4>
          (HAL_IS_BIT_CLR(tmpADC_Common->CCR, ADC_CCR_TSEN))            ) ||
 8003060:	2a11      	cmp	r2, #17
 8003062:	d16c      	bne.n	800313e <HAL_ADCEx_InjectedConfigChannel+0x23e>
          (HAL_IS_BIT_CLR(tmpADC_Common->CCR, ADC_CCR_VBATEN))          ) ||
 8003064:	688c      	ldr	r4, [r1, #8]
        ( (sConfigInjected->InjectedChannel == ADC_CHANNEL_VBAT)       &&
 8003066:	01e5      	lsls	r5, r4, #7
 8003068:	d41b      	bmi.n	80030a2 <HAL_ADCEx_InjectedConfigChannel+0x1a2>
      ADC_COMMON_ADC_OTHER(hadc, &tmphadcSharingSameCommonRegister);
 800306a:	f1b3 4fa0 	cmp.w	r3, #1342177280	; 0x50000000
 800306e:	f000 8103 	beq.w	8003278 <HAL_ADCEx_InjectedConfigChannel+0x378>
 8003072:	4c5f      	ldr	r4, [pc, #380]	; (80031f0 <HAL_ADCEx_InjectedConfigChannel+0x2f0>)
 8003074:	42a3      	cmp	r3, r4
 8003076:	f000 80dd 	beq.w	8003234 <HAL_ADCEx_InjectedConfigChannel+0x334>
 800307a:	4d5b      	ldr	r5, [pc, #364]	; (80031e8 <HAL_ADCEx_InjectedConfigChannel+0x2e8>)
 800307c:	42ab      	cmp	r3, r5
 800307e:	f000 814f 	beq.w	8003320 <HAL_ADCEx_InjectedConfigChannel+0x420>
 8003082:	f504 6480 	add.w	r4, r4, #1024	; 0x400
 8003086:	42a3      	cmp	r3, r4
 8003088:	f000 80d6 	beq.w	8003238 <HAL_ADCEx_InjectedConfigChannel+0x338>
      if ((ADC_IS_ENABLE(hadc) == RESET)                                    &&
 800308c:	689c      	ldr	r4, [r3, #8]
 800308e:	f004 0403 	and.w	r4, r4, #3
 8003092:	2c01      	cmp	r4, #1
 8003094:	f000 8132 	beq.w	80032fc <HAL_ADCEx_InjectedConfigChannel+0x3fc>
        if ((sConfigInjected->InjectedChannel == ADC_CHANNEL_TEMPSENSOR) && (hadc->Instance == ADC1))
 8003098:	2a10      	cmp	r2, #16
 800309a:	d002      	beq.n	80030a2 <HAL_ADCEx_InjectedConfigChannel+0x1a2>
        else if ((sConfigInjected->InjectedChannel == ADC_CHANNEL_VBAT) && (hadc->Instance == ADC1))
 800309c:	2a11      	cmp	r2, #17
 800309e:	f040 80d9 	bne.w	8003254 <HAL_ADCEx_InjectedConfigChannel+0x354>
  __HAL_UNLOCK(hadc);
 80030a2:	2300      	movs	r3, #0
 80030a4:	f880 303c 	strb.w	r3, [r0, #60]	; 0x3c
}
 80030a8:	4660      	mov	r0, ip
 80030aa:	b003      	add	sp, #12
 80030ac:	bdf0      	pop	{r4, r5, r6, r7, pc}
    if (( (sConfigInjected->InjectedChannel == ADC_CHANNEL_TEMPSENSOR) &&
 80030ae:	2a10      	cmp	r2, #16
    tmpADC_Common = ADC_COMMON_REGISTER(hadc);
 80030b0:	4951      	ldr	r1, [pc, #324]	; (80031f8 <HAL_ADCEx_InjectedConfigChannel+0x2f8>)
    if (( (sConfigInjected->InjectedChannel == ADC_CHANNEL_TEMPSENSOR) &&
 80030b2:	d1d5      	bne.n	8003060 <HAL_ADCEx_InjectedConfigChannel+0x160>
          (HAL_IS_BIT_CLR(tmpADC_Common->CCR, ADC_CCR_TSEN))            ) ||
 80030b4:	688c      	ldr	r4, [r1, #8]
    if (( (sConfigInjected->InjectedChannel == ADC_CHANNEL_TEMPSENSOR) &&
 80030b6:	0226      	lsls	r6, r4, #8
 80030b8:	d5d7      	bpl.n	800306a <HAL_ADCEx_InjectedConfigChannel+0x16a>
 80030ba:	e7f2      	b.n	80030a2 <HAL_ADCEx_InjectedConfigChannel+0x1a2>
  if (ADC_IS_ENABLE(hadc) == RESET)
 80030bc:	681a      	ldr	r2, [r3, #0]
 80030be:	07d7      	lsls	r7, r2, #31
 80030c0:	d4ef      	bmi.n	80030a2 <HAL_ADCEx_InjectedConfigChannel+0x1a2>
    if (sConfigInjected->InjectedSingleDiff != ADC_DIFFERENTIAL_ENDED)
 80030c2:	2c01      	cmp	r4, #1
      CLEAR_BIT(hadc->Instance->DIFSEL, ADC_DIFSEL_CHANNEL(sConfigInjected->InjectedChannel));
 80030c4:	680a      	ldr	r2, [r1, #0]
    if (sConfigInjected->InjectedSingleDiff != ADC_DIFFERENTIAL_ENDED)
 80030c6:	d1ba      	bne.n	800303e <HAL_ADCEx_InjectedConfigChannel+0x13e>
      SET_BIT(hadc->Instance->DIFSEL, ADC_DIFSEL_CHANNEL(sConfigInjected->InjectedChannel));
 80030c8:	f8d3 50b0 	ldr.w	r5, [r3, #176]	; 0xb0
 80030cc:	4094      	lsls	r4, r2
 80030ce:	432c      	orrs	r4, r5
      if (sConfigInjected->InjectedChannel >= ADC_CHANNEL_10)
 80030d0:	2a09      	cmp	r2, #9
        MODIFY_REG(hadc->Instance->SMPR2,
 80030d2:	688d      	ldr	r5, [r1, #8]
      SET_BIT(hadc->Instance->DIFSEL, ADC_DIFSEL_CHANNEL(sConfigInjected->InjectedChannel));
 80030d4:	f8c3 40b0 	str.w	r4, [r3, #176]	; 0xb0
      if (sConfigInjected->InjectedChannel >= ADC_CHANNEL_10)
 80030d8:	d86f      	bhi.n	80031ba <HAL_ADCEx_InjectedConfigChannel+0x2ba>
        MODIFY_REG(hadc->Instance->SMPR1,
 80030da:	1c54      	adds	r4, r2, #1
 80030dc:	6959      	ldr	r1, [r3, #20]
 80030de:	eb04 0444 	add.w	r4, r4, r4, lsl #1
 80030e2:	2607      	movs	r6, #7
 80030e4:	40a5      	lsls	r5, r4
 80030e6:	fa06 f404 	lsl.w	r4, r6, r4
 80030ea:	ea21 0104 	bic.w	r1, r1, r4
 80030ee:	4329      	orrs	r1, r5
    tmpADC_Common = ADC_COMMON_REGISTER(hadc);
 80030f0:	f1b3 4fa0 	cmp.w	r3, #1342177280	; 0x50000000
        MODIFY_REG(hadc->Instance->SMPR1,
 80030f4:	6159      	str	r1, [r3, #20]
    tmpADC_Common = ADC_COMMON_REGISTER(hadc);
 80030f6:	d0d4      	beq.n	80030a2 <HAL_ADCEx_InjectedConfigChannel+0x1a2>
 80030f8:	493d      	ldr	r1, [pc, #244]	; (80031f0 <HAL_ADCEx_InjectedConfigChannel+0x2f0>)
 80030fa:	428b      	cmp	r3, r1
 80030fc:	d1ad      	bne.n	800305a <HAL_ADCEx_InjectedConfigChannel+0x15a>
 80030fe:	e7d0      	b.n	80030a2 <HAL_ADCEx_InjectedConfigChannel+0x1a2>
      MODIFY_REG(hadc->Instance->SMPR1                                                             ,
 8003100:	695a      	ldr	r2, [r3, #20]
 8003102:	688d      	ldr	r5, [r1, #8]
 8003104:	eb06 0746 	add.w	r7, r6, r6, lsl #1
 8003108:	f04f 0e07 	mov.w	lr, #7
 800310c:	fa0e fe07 	lsl.w	lr, lr, r7
 8003110:	40bd      	lsls	r5, r7
 8003112:	ea22 020e 	bic.w	r2, r2, lr
 8003116:	432a      	orrs	r2, r5
 8003118:	615a      	str	r2, [r3, #20]
 800311a:	e76c      	b.n	8002ff6 <HAL_ADCEx_InjectedConfigChannel+0xf6>
      MODIFY_REG(hadc->Instance->CFGR                                                ,
 800311c:	68da      	ldr	r2, [r3, #12]
 800311e:	7f8d      	ldrb	r5, [r1, #30]
 8003120:	f422 1240 	bic.w	r2, r2, #3145728	; 0x300000
 8003124:	ea42 5245 	orr.w	r2, r2, r5, lsl #21
 8003128:	60da      	str	r2, [r3, #12]
      if (sConfigInjected->InjectedDiscontinuousConvMode == ENABLE)
 800312a:	7f0a      	ldrb	r2, [r1, #28]
 800312c:	2a01      	cmp	r2, #1
 800312e:	f47f af3f 	bne.w	8002fb0 <HAL_ADCEx_InjectedConfigChannel+0xb0>
        tmp_hal_status = HAL_ERROR;
 8003132:	4694      	mov	ip, r2
        SET_BIT(hadc->State, HAL_ADC_STATE_ERROR_CONFIG);
 8003134:	6c02      	ldr	r2, [r0, #64]	; 0x40
 8003136:	f042 0220 	orr.w	r2, r2, #32
 800313a:	6402      	str	r2, [r0, #64]	; 0x40
        tmp_hal_status = HAL_ERROR;
 800313c:	e738      	b.n	8002fb0 <HAL_ADCEx_InjectedConfigChannel+0xb0>
          (HAL_IS_BIT_CLR(tmpADC_Common->CCR, ADC_CCR_VBATEN))          ) ||
 800313e:	2a12      	cmp	r2, #18
 8003140:	d1af      	bne.n	80030a2 <HAL_ADCEx_InjectedConfigChannel+0x1a2>
          (HAL_IS_BIT_CLR(tmpADC_Common->CCR, ADC_CCR_VREFEN)))
 8003142:	688c      	ldr	r4, [r1, #8]
        ( (sConfigInjected->InjectedChannel == ADC_CHANNEL_VREFINT)    &&
 8003144:	0264      	lsls	r4, r4, #9
 8003146:	d4ac      	bmi.n	80030a2 <HAL_ADCEx_InjectedConfigChannel+0x1a2>
 8003148:	e78f      	b.n	800306a <HAL_ADCEx_InjectedConfigChannel+0x16a>
      if (sConfigInjected->ExternalTrigInjecConv != ADC_INJECTED_SOFTWARE_START)
 800314a:	6a0d      	ldr	r5, [r1, #32]
 800314c:	2d01      	cmp	r5, #1
 800314e:	f000 809f 	beq.w	8003290 <HAL_ADCEx_InjectedConfigChannel+0x390>
        SET_BIT(tmp_JSQR_ContextQueueBeingBuilt, ADC_JSQR_RK(sConfigInjected->InjectedChannel, ADC_INJECTED_RANK_1) |
 8003152:	680b      	ldr	r3, [r1, #0]
 8003154:	4e24      	ldr	r6, [pc, #144]	; (80031e8 <HAL_ADCEx_InjectedConfigChannel+0x2e8>)
 8003156:	021a      	lsls	r2, r3, #8
 8003158:	6803      	ldr	r3, [r0, #0]
 800315a:	42b3      	cmp	r3, r6
 800315c:	f000 809c 	beq.w	8003298 <HAL_ADCEx_InjectedConfigChannel+0x398>
 8003160:	f506 7680 	add.w	r6, r6, #256	; 0x100
 8003164:	42b3      	cmp	r3, r6
 8003166:	f000 8097 	beq.w	8003298 <HAL_ADCEx_InjectedConfigChannel+0x398>
 800316a:	6a4e      	ldr	r6, [r1, #36]	; 0x24
 800316c:	4332      	orrs	r2, r6
 800316e:	432a      	orrs	r2, r5
      MODIFY_REG(hadc->Instance->JSQR           ,
 8003170:	6cdd      	ldr	r5, [r3, #76]	; 0x4c
 8003172:	4e22      	ldr	r6, [pc, #136]	; (80031fc <HAL_ADCEx_InjectedConfigChannel+0x2fc>)
 8003174:	4035      	ands	r5, r6
 8003176:	4315      	orrs	r5, r2
 8003178:	64dd      	str	r5, [r3, #76]	; 0x4c
      hadc->InjectionConfig.ContextQueue = tmp_JSQR_ContextQueueBeingBuilt;
 800317a:	6482      	str	r2, [r0, #72]	; 0x48
  HAL_StatusTypeDef tmp_hal_status = HAL_OK;
 800317c:	f04f 0c00 	mov.w	ip, #0
 8003180:	e705      	b.n	8002f8e <HAL_ADCEx_InjectedConfigChannel+0x8e>
      MODIFY_REG(hadc->InjectionConfig.ContextQueue                                          ,
 8003182:	684b      	ldr	r3, [r1, #4]
 8003184:	6c86      	ldr	r6, [r0, #72]	; 0x48
 8003186:	eb03 0343 	add.w	r3, r3, r3, lsl #1
      hadc->InjectionConfig.ChannelCount --;
 800318a:	1e6f      	subs	r7, r5, #1
      MODIFY_REG(hadc->InjectionConfig.ContextQueue                                          ,
 800318c:	005b      	lsls	r3, r3, #1
 800318e:	680d      	ldr	r5, [r1, #0]
      hadc->InjectionConfig.ChannelCount --;
 8003190:	64c7      	str	r7, [r0, #76]	; 0x4c
      MODIFY_REG(hadc->InjectionConfig.ContextQueue                                          ,
 8003192:	3302      	adds	r3, #2
 8003194:	fa05 fc03 	lsl.w	ip, r5, r3
 8003198:	251f      	movs	r5, #31
 800319a:	409d      	lsls	r5, r3
 800319c:	ea26 0505 	bic.w	r5, r6, r5
 80031a0:	ea45 050c 	orr.w	r5, r5, ip
        SET_BIT(hadc->InjectionConfig.ContextQueue, (sConfigInjected->InjectedNbrOfConversion - 1U)           |
 80031a4:	6803      	ldr	r3, [r0, #0]
      MODIFY_REG(hadc->InjectionConfig.ContextQueue                                          ,
 80031a6:	6485      	str	r5, [r0, #72]	; 0x48
      if (hadc->InjectionConfig.ChannelCount == 0U)
 80031a8:	2f00      	cmp	r7, #0
 80031aa:	d1e7      	bne.n	800317c <HAL_ADCEx_InjectedConfigChannel+0x27c>
        MODIFY_REG(hadc->Instance->JSQR              ,
 80031ac:	6cda      	ldr	r2, [r3, #76]	; 0x4c
 80031ae:	4e13      	ldr	r6, [pc, #76]	; (80031fc <HAL_ADCEx_InjectedConfigChannel+0x2fc>)
 80031b0:	4032      	ands	r2, r6
 80031b2:	4315      	orrs	r5, r2
  HAL_StatusTypeDef tmp_hal_status = HAL_OK;
 80031b4:	46bc      	mov	ip, r7
        MODIFY_REG(hadc->Instance->JSQR              ,
 80031b6:	64dd      	str	r5, [r3, #76]	; 0x4c
 80031b8:	e6e9      	b.n	8002f8e <HAL_ADCEx_InjectedConfigChannel+0x8e>
        MODIFY_REG(hadc->Instance->SMPR2,
 80031ba:	eb02 0442 	add.w	r4, r2, r2, lsl #1
 80031be:	6999      	ldr	r1, [r3, #24]
 80031c0:	3c1b      	subs	r4, #27
 80031c2:	2607      	movs	r6, #7
 80031c4:	40a5      	lsls	r5, r4
 80031c6:	fa06 f404 	lsl.w	r4, r6, r4
 80031ca:	ea21 0104 	bic.w	r1, r1, r4
 80031ce:	4329      	orrs	r1, r5
 80031d0:	6199      	str	r1, [r3, #24]
 80031d2:	e73c      	b.n	800304e <HAL_ADCEx_InjectedConfigChannel+0x14e>
      MODIFY_REG(hadc->Instance->OFR4                               ,
 80031d4:	ea42 6286 	orr.w	r2, r2, r6, lsl #26
 80031d8:	4d04      	ldr	r5, [pc, #16]	; (80031ec <HAL_ADCEx_InjectedConfigChannel+0x2ec>)
 80031da:	6ede      	ldr	r6, [r3, #108]	; 0x6c
 80031dc:	4035      	ands	r5, r6
 80031de:	432a      	orrs	r2, r5
 80031e0:	f042 4200 	orr.w	r2, r2, #2147483648	; 0x80000000
 80031e4:	66da      	str	r2, [r3, #108]	; 0x6c
      break;
 80031e6:	e722      	b.n	800302e <HAL_ADCEx_InjectedConfigChannel+0x12e>
 80031e8:	50000400 	.word	0x50000400
 80031ec:	83fff000 	.word	0x83fff000
 80031f0:	50000100 	.word	0x50000100
 80031f4:	50000700 	.word	0x50000700
 80031f8:	50000300 	.word	0x50000300
 80031fc:	82082000 	.word	0x82082000
      MODIFY_REG(hadc->Instance->OFR3                               ,
 8003200:	ea42 6286 	orr.w	r2, r2, r6, lsl #26
 8003204:	4d60      	ldr	r5, [pc, #384]	; (8003388 <HAL_ADCEx_InjectedConfigChannel+0x488>)
 8003206:	6e9e      	ldr	r6, [r3, #104]	; 0x68
 8003208:	4035      	ands	r5, r6
 800320a:	432a      	orrs	r2, r5
 800320c:	f042 4200 	orr.w	r2, r2, #2147483648	; 0x80000000
 8003210:	669a      	str	r2, [r3, #104]	; 0x68
      break;
 8003212:	e70c      	b.n	800302e <HAL_ADCEx_InjectedConfigChannel+0x12e>
      MODIFY_REG(hadc->Instance->OFR2                               ,
 8003214:	ea42 6286 	orr.w	r2, r2, r6, lsl #26
 8003218:	4d5b      	ldr	r5, [pc, #364]	; (8003388 <HAL_ADCEx_InjectedConfigChannel+0x488>)
 800321a:	6e5e      	ldr	r6, [r3, #100]	; 0x64
 800321c:	4035      	ands	r5, r6
 800321e:	432a      	orrs	r2, r5
 8003220:	f042 4200 	orr.w	r2, r2, #2147483648	; 0x80000000
 8003224:	665a      	str	r2, [r3, #100]	; 0x64
      break;
 8003226:	e702      	b.n	800302e <HAL_ADCEx_InjectedConfigChannel+0x12e>
        tmp_hal_status = HAL_ERROR;
 8003228:	4694      	mov	ip, r2
        SET_BIT(hadc->State, HAL_ADC_STATE_ERROR_CONFIG);
 800322a:	6c02      	ldr	r2, [r0, #64]	; 0x40
 800322c:	f042 0220 	orr.w	r2, r2, #32
 8003230:	6402      	str	r2, [r0, #64]	; 0x40
        tmp_hal_status = HAL_ERROR;
 8003232:	e6cd      	b.n	8002fd0 <HAL_ADCEx_InjectedConfigChannel+0xd0>
 8003234:	f04f 45a0 	mov.w	r5, #1342177280	; 0x50000000
      if ((ADC_IS_ENABLE(hadc) == RESET)                                    &&
 8003238:	689c      	ldr	r4, [r3, #8]
 800323a:	f004 0403 	and.w	r4, r4, #3
 800323e:	2c01      	cmp	r4, #1
 8003240:	d01c      	beq.n	800327c <HAL_ADCEx_InjectedConfigChannel+0x37c>
            (ADC_IS_ENABLE(&tmphadcSharingSameCommonRegister) == RESET)   )   )
 8003242:	68ac      	ldr	r4, [r5, #8]
 8003244:	f004 0403 	and.w	r4, r4, #3
 8003248:	2c01      	cmp	r4, #1
 800324a:	d02d      	beq.n	80032a8 <HAL_ADCEx_InjectedConfigChannel+0x3a8>
        if ((sConfigInjected->InjectedChannel == ADC_CHANNEL_TEMPSENSOR) && (hadc->Instance == ADC1))
 800324c:	2a10      	cmp	r2, #16
 800324e:	d02f      	beq.n	80032b0 <HAL_ADCEx_InjectedConfigChannel+0x3b0>
        else if ((sConfigInjected->InjectedChannel == ADC_CHANNEL_VBAT) && (hadc->Instance == ADC1))
 8003250:	2a11      	cmp	r2, #17
 8003252:	d04a      	beq.n	80032ea <HAL_ADCEx_InjectedConfigChannel+0x3ea>
        else if (sConfigInjected->InjectedChannel == ADC_CHANNEL_VREFINT)
 8003254:	2a12      	cmp	r2, #18
 8003256:	f47f af24 	bne.w	80030a2 <HAL_ADCEx_InjectedConfigChannel+0x1a2>
          SET_BIT(tmpADC_Common->CCR, ADC_CCR_VREFEN);
 800325a:	688b      	ldr	r3, [r1, #8]
 800325c:	f443 0380 	orr.w	r3, r3, #4194304	; 0x400000
 8003260:	608b      	str	r3, [r1, #8]
 8003262:	e71e      	b.n	80030a2 <HAL_ADCEx_InjectedConfigChannel+0x1a2>
      MODIFY_REG(hadc->Instance->CFGR                                              ,
 8003264:	7f4d      	ldrb	r5, [r1, #29]
 8003266:	ea42 6245 	orr.w	r2, r2, r5, lsl #25
 800326a:	60da      	str	r2, [r3, #12]
 800326c:	e6b0      	b.n	8002fd0 <HAL_ADCEx_InjectedConfigChannel+0xd0>
  __HAL_LOCK(hadc);
 800326e:	f04f 0c02 	mov.w	ip, #2
}
 8003272:	4660      	mov	r0, ip
 8003274:	b003      	add	sp, #12
 8003276:	bdf0      	pop	{r4, r5, r6, r7, pc}
 8003278:	4d44      	ldr	r5, [pc, #272]	; (800338c <HAL_ADCEx_InjectedConfigChannel+0x48c>)
 800327a:	e7dd      	b.n	8003238 <HAL_ADCEx_InjectedConfigChannel+0x338>
      if ((ADC_IS_ENABLE(hadc) == RESET)                                    &&
 800327c:	681c      	ldr	r4, [r3, #0]
 800327e:	07e6      	lsls	r6, r4, #31
 8003280:	d5df      	bpl.n	8003242 <HAL_ADCEx_InjectedConfigChannel+0x342>
        SET_BIT(hadc->State, HAL_ADC_STATE_ERROR_CONFIG);
 8003282:	6c03      	ldr	r3, [r0, #64]	; 0x40
 8003284:	f043 0320 	orr.w	r3, r3, #32
        tmp_hal_status = HAL_ERROR;
 8003288:	f04f 0c01 	mov.w	ip, #1
        SET_BIT(hadc->State, HAL_ADC_STATE_ERROR_CONFIG);
 800328c:	6403      	str	r3, [r0, #64]	; 0x40
        tmp_hal_status = HAL_ERROR;
 800328e:	e708      	b.n	80030a2 <HAL_ADCEx_InjectedConfigChannel+0x1a2>
        SET_BIT(tmp_JSQR_ContextQueueBeingBuilt, ADC_JSQR_RK(sConfigInjected->InjectedChannel, ADC_INJECTED_RANK_1) );
 8003290:	680a      	ldr	r2, [r1, #0]
        SET_BIT(hadc->InjectionConfig.ContextQueue, (sConfigInjected->InjectedNbrOfConversion - 1U)           |
 8003292:	6803      	ldr	r3, [r0, #0]
        SET_BIT(tmp_JSQR_ContextQueueBeingBuilt, ADC_JSQR_RK(sConfigInjected->InjectedChannel, ADC_INJECTED_RANK_1) );
 8003294:	0212      	lsls	r2, r2, #8
 8003296:	e76b      	b.n	8003170 <HAL_ADCEx_InjectedConfigChannel+0x270>
        SET_BIT(tmp_JSQR_ContextQueueBeingBuilt, ADC_JSQR_RK(sConfigInjected->InjectedChannel, ADC_INJECTED_RANK_1) |
 8003298:	2d08      	cmp	r5, #8
 800329a:	d033      	beq.n	8003304 <HAL_ADCEx_InjectedConfigChannel+0x404>
 800329c:	2d14      	cmp	r5, #20
 800329e:	d043      	beq.n	8003328 <HAL_ADCEx_InjectedConfigChannel+0x428>
 80032a0:	2d1c      	cmp	r5, #28
 80032a2:	bf08      	it	eq
 80032a4:	2510      	moveq	r5, #16
 80032a6:	e760      	b.n	800316a <HAL_ADCEx_InjectedConfigChannel+0x26a>
            (ADC_IS_ENABLE(&tmphadcSharingSameCommonRegister) == RESET)   )   )
 80032a8:	682c      	ldr	r4, [r5, #0]
 80032aa:	07e4      	lsls	r4, r4, #31
 80032ac:	d4e9      	bmi.n	8003282 <HAL_ADCEx_InjectedConfigChannel+0x382>
 80032ae:	e7cd      	b.n	800324c <HAL_ADCEx_InjectedConfigChannel+0x34c>
        if ((sConfigInjected->InjectedChannel == ADC_CHANNEL_TEMPSENSOR) && (hadc->Instance == ADC1))
 80032b0:	f1b3 4fa0 	cmp.w	r3, #1342177280	; 0x50000000
 80032b4:	f47f aef5 	bne.w	80030a2 <HAL_ADCEx_InjectedConfigChannel+0x1a2>
          wait_loop_index = (ADC_TEMPSENSOR_DELAY_US * (SystemCoreClock / 1000000U));
 80032b8:	4b35      	ldr	r3, [pc, #212]	; (8003390 <HAL_ADCEx_InjectedConfigChannel+0x490>)
 80032ba:	4c36      	ldr	r4, [pc, #216]	; (8003394 <HAL_ADCEx_InjectedConfigChannel+0x494>)
 80032bc:	681b      	ldr	r3, [r3, #0]
          SET_BIT(tmpADC_Common->CCR, ADC_CCR_TSEN);
 80032be:	688a      	ldr	r2, [r1, #8]
          wait_loop_index = (ADC_TEMPSENSOR_DELAY_US * (SystemCoreClock / 1000000U));
 80032c0:	fba4 4303 	umull	r4, r3, r4, r3
 80032c4:	0c9b      	lsrs	r3, r3, #18
 80032c6:	eb03 0383 	add.w	r3, r3, r3, lsl #2
 80032ca:	005b      	lsls	r3, r3, #1
          SET_BIT(tmpADC_Common->CCR, ADC_CCR_TSEN);
 80032cc:	f442 0200 	orr.w	r2, r2, #8388608	; 0x800000
 80032d0:	608a      	str	r2, [r1, #8]
          wait_loop_index = (ADC_TEMPSENSOR_DELAY_US * (SystemCoreClock / 1000000U));
 80032d2:	9301      	str	r3, [sp, #4]
          while(wait_loop_index != 0U)
 80032d4:	9b01      	ldr	r3, [sp, #4]
 80032d6:	2b00      	cmp	r3, #0
 80032d8:	f43f aee3 	beq.w	80030a2 <HAL_ADCEx_InjectedConfigChannel+0x1a2>
            wait_loop_index--;
 80032dc:	9b01      	ldr	r3, [sp, #4]
 80032de:	3b01      	subs	r3, #1
 80032e0:	9301      	str	r3, [sp, #4]
          while(wait_loop_index != 0U)
 80032e2:	9b01      	ldr	r3, [sp, #4]
 80032e4:	2b00      	cmp	r3, #0
 80032e6:	d1f9      	bne.n	80032dc <HAL_ADCEx_InjectedConfigChannel+0x3dc>
 80032e8:	e6db      	b.n	80030a2 <HAL_ADCEx_InjectedConfigChannel+0x1a2>
        else if ((sConfigInjected->InjectedChannel == ADC_CHANNEL_VBAT) && (hadc->Instance == ADC1))
 80032ea:	f1b3 4fa0 	cmp.w	r3, #1342177280	; 0x50000000
 80032ee:	f47f aed8 	bne.w	80030a2 <HAL_ADCEx_InjectedConfigChannel+0x1a2>
          SET_BIT(tmpADC_Common->CCR, ADC_CCR_VBATEN);
 80032f2:	688b      	ldr	r3, [r1, #8]
 80032f4:	f043 7380 	orr.w	r3, r3, #16777216	; 0x1000000
 80032f8:	608b      	str	r3, [r1, #8]
 80032fa:	e6d2      	b.n	80030a2 <HAL_ADCEx_InjectedConfigChannel+0x1a2>
      if ((ADC_IS_ENABLE(hadc) == RESET)                                    &&
 80032fc:	681b      	ldr	r3, [r3, #0]
 80032fe:	07df      	lsls	r7, r3, #31
 8003300:	d4bf      	bmi.n	8003282 <HAL_ADCEx_InjectedConfigChannel+0x382>
 8003302:	e6c9      	b.n	8003098 <HAL_ADCEx_InjectedConfigChannel+0x198>
        SET_BIT(tmp_JSQR_ContextQueueBeingBuilt, ADC_JSQR_RK(sConfigInjected->InjectedChannel, ADC_INJECTED_RANK_1) |
 8003304:	2534      	movs	r5, #52	; 0x34
 8003306:	e730      	b.n	800316a <HAL_ADCEx_InjectedConfigChannel+0x26a>
        SET_BIT(hadc->InjectionConfig.ContextQueue, (sConfigInjected->InjectedNbrOfConversion - 1U)           |
 8003308:	2d08      	cmp	r5, #8
 800330a:	d00b      	beq.n	8003324 <HAL_ADCEx_InjectedConfigChannel+0x424>
 800330c:	2d14      	cmp	r5, #20
 800330e:	d00d      	beq.n	800332c <HAL_ADCEx_InjectedConfigChannel+0x42c>
 8003310:	2d1c      	cmp	r5, #28
 8003312:	bf08      	it	eq
 8003314:	2510      	moveq	r5, #16
 8003316:	e61a      	b.n	8002f4e <HAL_ADCEx_InjectedConfigChannel+0x4e>
        SET_BIT(hadc->InjectionConfig.ContextQueue, (sConfigInjected->InjectedNbrOfConversion - 1U) );        
 8003318:	1e7a      	subs	r2, r7, #1
        SET_BIT(hadc->InjectionConfig.ContextQueue, (sConfigInjected->InjectedNbrOfConversion - 1U)           |
 800331a:	6803      	ldr	r3, [r0, #0]
 800331c:	4617      	mov	r7, r2
 800331e:	e619      	b.n	8002f54 <HAL_ADCEx_InjectedConfigChannel+0x54>
 8003320:	4d1d      	ldr	r5, [pc, #116]	; (8003398 <HAL_ADCEx_InjectedConfigChannel+0x498>)
 8003322:	e789      	b.n	8003238 <HAL_ADCEx_InjectedConfigChannel+0x338>
 8003324:	2534      	movs	r5, #52	; 0x34
 8003326:	e612      	b.n	8002f4e <HAL_ADCEx_InjectedConfigChannel+0x4e>
        SET_BIT(tmp_JSQR_ContextQueueBeingBuilt, ADC_JSQR_RK(sConfigInjected->InjectedChannel, ADC_INJECTED_RANK_1) |
 8003328:	251c      	movs	r5, #28
 800332a:	e71e      	b.n	800316a <HAL_ADCEx_InjectedConfigChannel+0x26a>
        SET_BIT(hadc->InjectionConfig.ContextQueue, (sConfigInjected->InjectedNbrOfConversion - 1U)           |
 800332c:	251c      	movs	r5, #28
 800332e:	e60e      	b.n	8002f4e <HAL_ADCEx_InjectedConfigChannel+0x4e>
      if (((hadc->Instance->OFR1) & ADC_OFR1_OFFSET1_CH) == ADC_OFR_CHANNEL(sConfigInjected->InjectedChannel))
 8003330:	6e1a      	ldr	r2, [r3, #96]	; 0x60
 8003332:	f002 42f8 	and.w	r2, r2, #2080374784	; 0x7c000000
 8003336:	ebb2 6f86 	cmp.w	r2, r6, lsl #26
 800333a:	ea4f 6586 	mov.w	r5, r6, lsl #26
 800333e:	d014      	beq.n	800336a <HAL_ADCEx_InjectedConfigChannel+0x46a>
      if (((hadc->Instance->OFR2) & ADC_OFR2_OFFSET2_CH) == ADC_OFR_CHANNEL(sConfigInjected->InjectedChannel))
 8003340:	6e5a      	ldr	r2, [r3, #100]	; 0x64
 8003342:	f002 42f8 	and.w	r2, r2, #2080374784	; 0x7c000000
 8003346:	4295      	cmp	r5, r2
 8003348:	d014      	beq.n	8003374 <HAL_ADCEx_InjectedConfigChannel+0x474>
      if (((hadc->Instance->OFR3) & ADC_OFR3_OFFSET3_CH) == ADC_OFR_CHANNEL(sConfigInjected->InjectedChannel))
 800334a:	6e9a      	ldr	r2, [r3, #104]	; 0x68
 800334c:	f002 42f8 	and.w	r2, r2, #2080374784	; 0x7c000000
 8003350:	4295      	cmp	r5, r2
 8003352:	d014      	beq.n	800337e <HAL_ADCEx_InjectedConfigChannel+0x47e>
      if (((hadc->Instance->OFR4) & ADC_OFR4_OFFSET4_CH) == ADC_OFR_CHANNEL(sConfigInjected->InjectedChannel))
 8003354:	6eda      	ldr	r2, [r3, #108]	; 0x6c
 8003356:	f002 42f8 	and.w	r2, r2, #2080374784	; 0x7c000000
 800335a:	4295      	cmp	r5, r2
 800335c:	f47f ae67 	bne.w	800302e <HAL_ADCEx_InjectedConfigChannel+0x12e>
        CLEAR_BIT(hadc->Instance->OFR4, ADC_OFR4_OFFSET4_EN);
 8003360:	6eda      	ldr	r2, [r3, #108]	; 0x6c
 8003362:	f022 4200 	bic.w	r2, r2, #2147483648	; 0x80000000
 8003366:	66da      	str	r2, [r3, #108]	; 0x6c
 8003368:	e661      	b.n	800302e <HAL_ADCEx_InjectedConfigChannel+0x12e>
        CLEAR_BIT(hadc->Instance->OFR1, ADC_OFR1_OFFSET1_EN);
 800336a:	6e1a      	ldr	r2, [r3, #96]	; 0x60
 800336c:	f022 4200 	bic.w	r2, r2, #2147483648	; 0x80000000
 8003370:	661a      	str	r2, [r3, #96]	; 0x60
 8003372:	e7e5      	b.n	8003340 <HAL_ADCEx_InjectedConfigChannel+0x440>
        CLEAR_BIT(hadc->Instance->OFR2, ADC_OFR2_OFFSET2_EN); 
 8003374:	6e5a      	ldr	r2, [r3, #100]	; 0x64
 8003376:	f022 4200 	bic.w	r2, r2, #2147483648	; 0x80000000
 800337a:	665a      	str	r2, [r3, #100]	; 0x64
 800337c:	e7e5      	b.n	800334a <HAL_ADCEx_InjectedConfigChannel+0x44a>
        CLEAR_BIT(hadc->Instance->OFR3, ADC_OFR3_OFFSET3_EN);
 800337e:	6e9a      	ldr	r2, [r3, #104]	; 0x68
 8003380:	f022 4200 	bic.w	r2, r2, #2147483648	; 0x80000000
 8003384:	669a      	str	r2, [r3, #104]	; 0x68
 8003386:	e7e5      	b.n	8003354 <HAL_ADCEx_InjectedConfigChannel+0x454>
 8003388:	83fff000 	.word	0x83fff000
 800338c:	50000100 	.word	0x50000100
 8003390:	20000000 	.word	0x20000000
 8003394:	431bde83 	.word	0x431bde83
 8003398:	50000500 	.word	0x50000500

0800339c <HAL_ADCEx_MultiModeConfigChannel>:
  ADC_COMMON_ADC_OTHER(hadc, &tmphadcSharingSameCommonRegister);
 800339c:	6803      	ldr	r3, [r0, #0]
 800339e:	4a45      	ldr	r2, [pc, #276]	; (80034b4 <HAL_ADCEx_MultiModeConfigChannel+0x118>)
 80033a0:	f1b3 4fa0 	cmp.w	r3, #1342177280	; 0x50000000
{
 80033a4:	b4f0      	push	{r4, r5, r6, r7}
  if(multimode->Mode != ADC_MODE_INDEPENDENT)
 80033a6:	680d      	ldr	r5, [r1, #0]
  ADC_COMMON_ADC_OTHER(hadc, &tmphadcSharingSameCommonRegister);
 80033a8:	d00e      	beq.n	80033c8 <HAL_ADCEx_MultiModeConfigChannel+0x2c>
 80033aa:	4293      	cmp	r3, r2
 80033ac:	d00a      	beq.n	80033c4 <HAL_ADCEx_MultiModeConfigChannel+0x28>
 80033ae:	f502 7240 	add.w	r2, r2, #768	; 0x300
 80033b2:	4293      	cmp	r3, r2
 80033b4:	d04b      	beq.n	800344e <HAL_ADCEx_MultiModeConfigChannel+0xb2>
 80033b6:	4c40      	ldr	r4, [pc, #256]	; (80034b8 <HAL_ADCEx_MultiModeConfigChannel+0x11c>)
 80033b8:	42a3      	cmp	r3, r4
 80033ba:	d005      	beq.n	80033c8 <HAL_ADCEx_MultiModeConfigChannel+0x2c>
    return HAL_ERROR;
 80033bc:	2201      	movs	r2, #1
} 
 80033be:	4610      	mov	r0, r2
 80033c0:	bcf0      	pop	{r4, r5, r6, r7}
 80033c2:	4770      	bx	lr
 80033c4:	f04f 42a0 	mov.w	r2, #1342177280	; 0x50000000
  __HAL_LOCK(hadc);
 80033c8:	f890 c03c 	ldrb.w	ip, [r0, #60]	; 0x3c
 80033cc:	f1bc 0f01 	cmp.w	ip, #1
 80033d0:	d043      	beq.n	800345a <HAL_ADCEx_MultiModeConfigChannel+0xbe>
 80033d2:	2401      	movs	r4, #1
 80033d4:	f880 403c 	strb.w	r4, [r0, #60]	; 0x3c
  if ( (ADC_IS_CONVERSION_ONGOING_REGULAR(hadc) == RESET) 
 80033d8:	689c      	ldr	r4, [r3, #8]
 80033da:	0766      	lsls	r6, r4, #29
 80033dc:	d50a      	bpl.n	80033f4 <HAL_ADCEx_MultiModeConfigChannel+0x58>
    SET_BIT(hadc->State, HAL_ADC_STATE_ERROR_CONFIG);
 80033de:	6c03      	ldr	r3, [r0, #64]	; 0x40
 80033e0:	f043 0320 	orr.w	r3, r3, #32
    tmp_hal_status = HAL_ERROR;
 80033e4:	2201      	movs	r2, #1
    SET_BIT(hadc->State, HAL_ADC_STATE_ERROR_CONFIG);
 80033e6:	6403      	str	r3, [r0, #64]	; 0x40
  __HAL_UNLOCK(hadc);
 80033e8:	2300      	movs	r3, #0
 80033ea:	f880 303c 	strb.w	r3, [r0, #60]	; 0x3c
} 
 80033ee:	bcf0      	pop	{r4, r5, r6, r7}
 80033f0:	4610      	mov	r0, r2
 80033f2:	4770      	bx	lr
    && (ADC_IS_CONVERSION_ONGOING_REGULAR(&tmphadcSharingSameCommonRegister) == RESET) )
 80033f4:	6894      	ldr	r4, [r2, #8]
 80033f6:	0764      	lsls	r4, r4, #29
 80033f8:	d4f1      	bmi.n	80033de <HAL_ADCEx_MultiModeConfigChannel+0x42>
    tmpADC_Common = ADC_COMMON_REGISTER(hadc);
 80033fa:	f1b3 4fa0 	cmp.w	r3, #1342177280	; 0x50000000
 80033fe:	d046      	beq.n	800348e <HAL_ADCEx_MultiModeConfigChannel+0xf2>
 8003400:	4f2c      	ldr	r7, [pc, #176]	; (80034b4 <HAL_ADCEx_MultiModeConfigChannel+0x118>)
 8003402:	4e2e      	ldr	r6, [pc, #184]	; (80034bc <HAL_ADCEx_MultiModeConfigChannel+0x120>)
 8003404:	4c2e      	ldr	r4, [pc, #184]	; (80034c0 <HAL_ADCEx_MultiModeConfigChannel+0x124>)
 8003406:	42bb      	cmp	r3, r7
 8003408:	bf08      	it	eq
 800340a:	4634      	moveq	r4, r6
    if(multimode->Mode != ADC_MODE_INDEPENDENT)
 800340c:	b34d      	cbz	r5, 8003462 <HAL_ADCEx_MultiModeConfigChannel+0xc6>
      MODIFY_REG(tmpADC_Common->CCR                                          ,
 800340e:	68a6      	ldr	r6, [r4, #8]
 8003410:	684f      	ldr	r7, [r1, #4]
 8003412:	f426 4c60 	bic.w	ip, r6, #57344	; 0xe000
 8003416:	f890 6030 	ldrb.w	r6, [r0, #48]	; 0x30
 800341a:	ea47 3646 	orr.w	r6, r7, r6, lsl #13
 800341e:	ea46 060c 	orr.w	r6, r6, ip
 8003422:	60a6      	str	r6, [r4, #8]
      if ((ADC_IS_ENABLE(hadc) == RESET)                              &&
 8003424:	689e      	ldr	r6, [r3, #8]
 8003426:	f006 0603 	and.w	r6, r6, #3
 800342a:	2e01      	cmp	r6, #1
 800342c:	d03d      	beq.n	80034aa <HAL_ADCEx_MultiModeConfigChannel+0x10e>
          (ADC_IS_ENABLE(&tmphadcSharingSameCommonRegister) == RESET)   )
 800342e:	6893      	ldr	r3, [r2, #8]
 8003430:	f003 0303 	and.w	r3, r3, #3
 8003434:	2b01      	cmp	r3, #1
 8003436:	d030      	beq.n	800349a <HAL_ADCEx_MultiModeConfigChannel+0xfe>
        MODIFY_REG(tmpADC_Common->CCR                                          ,
 8003438:	68a2      	ldr	r2, [r4, #8]
 800343a:	688b      	ldr	r3, [r1, #8]
 800343c:	f422 6271 	bic.w	r2, r2, #3856	; 0xf10
 8003440:	431d      	orrs	r5, r3
 8003442:	f022 020f 	bic.w	r2, r2, #15
 8003446:	4315      	orrs	r5, r2
 8003448:	60a5      	str	r5, [r4, #8]
  HAL_StatusTypeDef tmp_hal_status = HAL_OK;
 800344a:	2200      	movs	r2, #0
 800344c:	e7cc      	b.n	80033e8 <HAL_ADCEx_MultiModeConfigChannel+0x4c>
  __HAL_LOCK(hadc);
 800344e:	f890 c03c 	ldrb.w	ip, [r0, #60]	; 0x3c
 8003452:	4a19      	ldr	r2, [pc, #100]	; (80034b8 <HAL_ADCEx_MultiModeConfigChannel+0x11c>)
 8003454:	f1bc 0f01 	cmp.w	ip, #1
 8003458:	d1bb      	bne.n	80033d2 <HAL_ADCEx_MultiModeConfigChannel+0x36>
 800345a:	2202      	movs	r2, #2
} 
 800345c:	4610      	mov	r0, r2
 800345e:	bcf0      	pop	{r4, r5, r6, r7}
 8003460:	4770      	bx	lr
      CLEAR_BIT(tmpADC_Common->CCR, ADC_CCR_MDMA | ADC_CCR_DMACFG);
 8003462:	68a1      	ldr	r1, [r4, #8]
 8003464:	f421 4160 	bic.w	r1, r1, #57344	; 0xe000
 8003468:	60a1      	str	r1, [r4, #8]
      if ((ADC_IS_ENABLE(hadc) == RESET)                              &&
 800346a:	6899      	ldr	r1, [r3, #8]
 800346c:	f001 0103 	and.w	r1, r1, #3
 8003470:	2901      	cmp	r1, #1
 8003472:	d016      	beq.n	80034a2 <HAL_ADCEx_MultiModeConfigChannel+0x106>
          (ADC_IS_ENABLE(&tmphadcSharingSameCommonRegister) == RESET)   )
 8003474:	6893      	ldr	r3, [r2, #8]
 8003476:	f003 0303 	and.w	r3, r3, #3
 800347a:	2b01      	cmp	r3, #1
 800347c:	d009      	beq.n	8003492 <HAL_ADCEx_MultiModeConfigChannel+0xf6>
        CLEAR_BIT(tmpADC_Common->CCR, ADC_CCR_MULTI | ADC_CCR_DELAY);
 800347e:	68a3      	ldr	r3, [r4, #8]
 8003480:	f423 6371 	bic.w	r3, r3, #3856	; 0xf10
 8003484:	f023 030f 	bic.w	r3, r3, #15
  HAL_StatusTypeDef tmp_hal_status = HAL_OK;
 8003488:	2200      	movs	r2, #0
        CLEAR_BIT(tmpADC_Common->CCR, ADC_CCR_MULTI | ADC_CCR_DELAY);
 800348a:	60a3      	str	r3, [r4, #8]
 800348c:	e7ac      	b.n	80033e8 <HAL_ADCEx_MultiModeConfigChannel+0x4c>
    tmpADC_Common = ADC_COMMON_REGISTER(hadc);
 800348e:	4c0b      	ldr	r4, [pc, #44]	; (80034bc <HAL_ADCEx_MultiModeConfigChannel+0x120>)
 8003490:	e7bc      	b.n	800340c <HAL_ADCEx_MultiModeConfigChannel+0x70>
          (ADC_IS_ENABLE(&tmphadcSharingSameCommonRegister) == RESET)   )
 8003492:	6813      	ldr	r3, [r2, #0]
 8003494:	07db      	lsls	r3, r3, #31
 8003496:	d4d8      	bmi.n	800344a <HAL_ADCEx_MultiModeConfigChannel+0xae>
 8003498:	e7f1      	b.n	800347e <HAL_ADCEx_MultiModeConfigChannel+0xe2>
          (ADC_IS_ENABLE(&tmphadcSharingSameCommonRegister) == RESET)   )
 800349a:	6813      	ldr	r3, [r2, #0]
 800349c:	07de      	lsls	r6, r3, #31
 800349e:	d4d4      	bmi.n	800344a <HAL_ADCEx_MultiModeConfigChannel+0xae>
 80034a0:	e7ca      	b.n	8003438 <HAL_ADCEx_MultiModeConfigChannel+0x9c>
      if ((ADC_IS_ENABLE(hadc) == RESET)                              &&
 80034a2:	681b      	ldr	r3, [r3, #0]
 80034a4:	07d9      	lsls	r1, r3, #31
 80034a6:	d4d0      	bmi.n	800344a <HAL_ADCEx_MultiModeConfigChannel+0xae>
 80034a8:	e7e4      	b.n	8003474 <HAL_ADCEx_MultiModeConfigChannel+0xd8>
      if ((ADC_IS_ENABLE(hadc) == RESET)                              &&
 80034aa:	681b      	ldr	r3, [r3, #0]
 80034ac:	07df      	lsls	r7, r3, #31
 80034ae:	d5be      	bpl.n	800342e <HAL_ADCEx_MultiModeConfigChannel+0x92>
 80034b0:	e7cb      	b.n	800344a <HAL_ADCEx_MultiModeConfigChannel+0xae>
 80034b2:	bf00      	nop
 80034b4:	50000100 	.word	0x50000100
 80034b8:	50000500 	.word	0x50000500
 80034bc:	50000300 	.word	0x50000300
 80034c0:	50000700 	.word	0x50000700

080034c4 <HAL_CAN_Init>:
HAL_StatusTypeDef HAL_CAN_Init(CAN_HandleTypeDef *hcan)
{
  uint32_t tickstart;

  /* Check CAN handle */
  if (hcan == NULL)
 80034c4:	2800      	cmp	r0, #0
 80034c6:	d07b      	beq.n	80035c0 <HAL_CAN_Init+0xfc>
{
 80034c8:	b538      	push	{r3, r4, r5, lr}
    /* Init the low level hardware: CLOCK, NVIC */
    hcan->MspInitCallback(hcan);
  }

#else
  if (hcan->State == HAL_CAN_STATE_RESET)
 80034ca:	f890 3020 	ldrb.w	r3, [r0, #32]
 80034ce:	4604      	mov	r4, r0
 80034d0:	2b00      	cmp	r3, #0
 80034d2:	d072      	beq.n	80035ba <HAL_CAN_Init+0xf6>
    HAL_CAN_MspInit(hcan);
  }
#endif /* (USE_HAL_CAN_REGISTER_CALLBACKS) */

  /* Request initialisation */
  SET_BIT(hcan->Instance->MCR, CAN_MCR_INRQ);
 80034d4:	6822      	ldr	r2, [r4, #0]
 80034d6:	6813      	ldr	r3, [r2, #0]
 80034d8:	f043 0301 	orr.w	r3, r3, #1
 80034dc:	6013      	str	r3, [r2, #0]

  /* Get tick */
  tickstart = HAL_GetTick();
 80034de:	f7ff f8c7 	bl	8002670 <HAL_GetTick>
 80034e2:	4605      	mov	r5, r0

  /* Wait initialisation acknowledge */
  while ((hcan->Instance->MSR & CAN_MSR_INAK) == 0U)
 80034e4:	e004      	b.n	80034f0 <HAL_CAN_Init+0x2c>
  {
    if ((HAL_GetTick() - tickstart) > CAN_TIMEOUT_VALUE)
 80034e6:	f7ff f8c3 	bl	8002670 <HAL_GetTick>
 80034ea:	1b43      	subs	r3, r0, r5
 80034ec:	2b0a      	cmp	r3, #10
 80034ee:	d85b      	bhi.n	80035a8 <HAL_CAN_Init+0xe4>
  while ((hcan->Instance->MSR & CAN_MSR_INAK) == 0U)
 80034f0:	6823      	ldr	r3, [r4, #0]
 80034f2:	685a      	ldr	r2, [r3, #4]
 80034f4:	07d1      	lsls	r1, r2, #31
 80034f6:	d5f6      	bpl.n	80034e6 <HAL_CAN_Init+0x22>
      return HAL_ERROR;
    }
  }

  /* Exit from sleep mode */
  CLEAR_BIT(hcan->Instance->MCR, CAN_MCR_SLEEP);
 80034f8:	681a      	ldr	r2, [r3, #0]
 80034fa:	f022 0202 	bic.w	r2, r2, #2
 80034fe:	601a      	str	r2, [r3, #0]

  /* Get tick */
  tickstart = HAL_GetTick();
 8003500:	f7ff f8b6 	bl	8002670 <HAL_GetTick>
 8003504:	4605      	mov	r5, r0

  /* Check Sleep mode leave acknowledge */
  while ((hcan->Instance->MSR & CAN_MSR_SLAK) != 0U)
 8003506:	e004      	b.n	8003512 <HAL_CAN_Init+0x4e>
  {
    if ((HAL_GetTick() - tickstart) > CAN_TIMEOUT_VALUE)
 8003508:	f7ff f8b2 	bl	8002670 <HAL_GetTick>
 800350c:	1b40      	subs	r0, r0, r5
 800350e:	280a      	cmp	r0, #10
 8003510:	d84a      	bhi.n	80035a8 <HAL_CAN_Init+0xe4>
  while ((hcan->Instance->MSR & CAN_MSR_SLAK) != 0U)
 8003512:	6823      	ldr	r3, [r4, #0]
 8003514:	685a      	ldr	r2, [r3, #4]
 8003516:	0792      	lsls	r2, r2, #30
 8003518:	d4f6      	bmi.n	8003508 <HAL_CAN_Init+0x44>
      return HAL_ERROR;
    }
  }

  /* Set the time triggered communication mode */
  if (hcan->Init.TimeTriggeredMode == ENABLE)
 800351a:	7e22      	ldrb	r2, [r4, #24]
 800351c:	2a01      	cmp	r2, #1
  {
    SET_BIT(hcan->Instance->MCR, CAN_MCR_TTCM);
 800351e:	681a      	ldr	r2, [r3, #0]
 8003520:	bf0c      	ite	eq
 8003522:	f042 0280 	orreq.w	r2, r2, #128	; 0x80
  }
  else
  {
    CLEAR_BIT(hcan->Instance->MCR, CAN_MCR_TTCM);
 8003526:	f022 0280 	bicne.w	r2, r2, #128	; 0x80
 800352a:	601a      	str	r2, [r3, #0]
  }

  /* Set the automatic bus-off management */
  if (hcan->Init.AutoBusOff == ENABLE)
 800352c:	7e62      	ldrb	r2, [r4, #25]
 800352e:	2a01      	cmp	r2, #1
  {
    SET_BIT(hcan->Instance->MCR, CAN_MCR_ABOM);
 8003530:	681a      	ldr	r2, [r3, #0]
 8003532:	bf0c      	ite	eq
 8003534:	f042 0240 	orreq.w	r2, r2, #64	; 0x40
  }
  else
  {
    CLEAR_BIT(hcan->Instance->MCR, CAN_MCR_ABOM);
 8003538:	f022 0240 	bicne.w	r2, r2, #64	; 0x40
 800353c:	601a      	str	r2, [r3, #0]
  }

  /* Set the automatic wake-up mode */
  if (hcan->Init.AutoWakeUp == ENABLE)
 800353e:	7ea2      	ldrb	r2, [r4, #26]
 8003540:	2a01      	cmp	r2, #1
  {
    SET_BIT(hcan->Instance->MCR, CAN_MCR_AWUM);
 8003542:	681a      	ldr	r2, [r3, #0]
 8003544:	bf0c      	ite	eq
 8003546:	f042 0220 	orreq.w	r2, r2, #32
  }
  else
  {
    CLEAR_BIT(hcan->Instance->MCR, CAN_MCR_AWUM);
 800354a:	f022 0220 	bicne.w	r2, r2, #32
 800354e:	601a      	str	r2, [r3, #0]
  }

  /* Set the automatic retransmission */
  if (hcan->Init.AutoRetransmission == ENABLE)
 8003550:	7ee2      	ldrb	r2, [r4, #27]
 8003552:	2a01      	cmp	r2, #1
  {
    CLEAR_BIT(hcan->Instance->MCR, CAN_MCR_NART);
 8003554:	681a      	ldr	r2, [r3, #0]
 8003556:	bf0c      	ite	eq
 8003558:	f022 0210 	biceq.w	r2, r2, #16
  }
  else
  {
    SET_BIT(hcan->Instance->MCR, CAN_MCR_NART);
 800355c:	f042 0210 	orrne.w	r2, r2, #16
 8003560:	601a      	str	r2, [r3, #0]
  }

  /* Set the receive FIFO locked mode */
  if (hcan->Init.ReceiveFifoLocked == ENABLE)
 8003562:	7f22      	ldrb	r2, [r4, #28]
 8003564:	2a01      	cmp	r2, #1
  {
    SET_BIT(hcan->Instance->MCR, CAN_MCR_RFLM);
 8003566:	681a      	ldr	r2, [r3, #0]
 8003568:	bf0c      	ite	eq
 800356a:	f042 0208 	orreq.w	r2, r2, #8
  }
  else
  {
    CLEAR_BIT(hcan->Instance->MCR, CAN_MCR_RFLM);
 800356e:	f022 0208 	bicne.w	r2, r2, #8
 8003572:	601a      	str	r2, [r3, #0]
  }

  /* Set the transmit FIFO priority */
  if (hcan->Init.TransmitFifoPriority == ENABLE)
 8003574:	7f62      	ldrb	r2, [r4, #29]
 8003576:	2a01      	cmp	r2, #1
  {
    SET_BIT(hcan->Instance->MCR, CAN_MCR_TXFP);
 8003578:	681a      	ldr	r2, [r3, #0]
 800357a:	bf0c      	ite	eq
 800357c:	f042 0204 	orreq.w	r2, r2, #4
  }
  else
  {
    CLEAR_BIT(hcan->Instance->MCR, CAN_MCR_TXFP);
 8003580:	f022 0204 	bicne.w	r2, r2, #4
 8003584:	601a      	str	r2, [r3, #0]
  }

  /* Set the bit timing register */
  WRITE_REG(hcan->Instance->BTR, (uint32_t)(hcan->Init.Mode           |
 8003586:	e9d4 2002 	ldrd	r2, r0, [r4, #8]
 800358a:	6921      	ldr	r1, [r4, #16]
 800358c:	4302      	orrs	r2, r0
 800358e:	430a      	orrs	r2, r1
 8003590:	6960      	ldr	r0, [r4, #20]
 8003592:	6861      	ldr	r1, [r4, #4]
 8003594:	4302      	orrs	r2, r0
 8003596:	3901      	subs	r1, #1
 8003598:	430a      	orrs	r2, r1
                                            hcan->Init.TimeSeg1       |
                                            hcan->Init.TimeSeg2       |
                                            (hcan->Init.Prescaler - 1U)));

  /* Initialize the error code */
  hcan->ErrorCode = HAL_CAN_ERROR_NONE;
 800359a:	2000      	movs	r0, #0

  /* Initialize the CAN state */
  hcan->State = HAL_CAN_STATE_READY;
 800359c:	2101      	movs	r1, #1
  WRITE_REG(hcan->Instance->BTR, (uint32_t)(hcan->Init.Mode           |
 800359e:	61da      	str	r2, [r3, #28]
  hcan->ErrorCode = HAL_CAN_ERROR_NONE;
 80035a0:	6260      	str	r0, [r4, #36]	; 0x24
  hcan->State = HAL_CAN_STATE_READY;
 80035a2:	f884 1020 	strb.w	r1, [r4, #32]

  /* Return function status */
  return HAL_OK;
}
 80035a6:	bd38      	pop	{r3, r4, r5, pc}
      hcan->ErrorCode |= HAL_CAN_ERROR_TIMEOUT;
 80035a8:	6a63      	ldr	r3, [r4, #36]	; 0x24
      hcan->State = HAL_CAN_STATE_ERROR;
 80035aa:	2205      	movs	r2, #5
      hcan->ErrorCode |= HAL_CAN_ERROR_TIMEOUT;
 80035ac:	f443 3300 	orr.w	r3, r3, #131072	; 0x20000
 80035b0:	6263      	str	r3, [r4, #36]	; 0x24
      hcan->State = HAL_CAN_STATE_ERROR;
 80035b2:	f884 2020 	strb.w	r2, [r4, #32]
      return HAL_ERROR;
 80035b6:	2001      	movs	r0, #1
}
 80035b8:	bd38      	pop	{r3, r4, r5, pc}
    HAL_CAN_MspInit(hcan);
 80035ba:	f7fd fdb9 	bl	8001130 <HAL_CAN_MspInit>
 80035be:	e789      	b.n	80034d4 <HAL_CAN_Init+0x10>
    return HAL_ERROR;
 80035c0:	2001      	movs	r0, #1
}
 80035c2:	4770      	bx	lr

080035c4 <HAL_CAN_ConfigFilter>:
  */
HAL_StatusTypeDef HAL_CAN_ConfigFilter(CAN_HandleTypeDef *hcan, CAN_FilterTypeDef *sFilterConfig)
{
  uint32_t filternbrbitpos;
  CAN_TypeDef *can_ip = hcan->Instance;
  HAL_CAN_StateTypeDef state = hcan->State;
 80035c4:	f890 2020 	ldrb.w	r2, [r0, #32]

  if ((state == HAL_CAN_STATE_READY) ||
 80035c8:	3a01      	subs	r2, #1
 80035ca:	2a01      	cmp	r2, #1
{
 80035cc:	4603      	mov	r3, r0
  if ((state == HAL_CAN_STATE_READY) ||
 80035ce:	d905      	bls.n	80035dc <HAL_CAN_ConfigFilter+0x18>
    return HAL_OK;
  }
  else
  {
    /* Update error code */
    hcan->ErrorCode |= HAL_CAN_ERROR_NOT_INITIALIZED;
 80035d0:	6a42      	ldr	r2, [r0, #36]	; 0x24
 80035d2:	f442 2280 	orr.w	r2, r2, #262144	; 0x40000

    return HAL_ERROR;
 80035d6:	2001      	movs	r0, #1
    hcan->ErrorCode |= HAL_CAN_ERROR_NOT_INITIALIZED;
 80035d8:	625a      	str	r2, [r3, #36]	; 0x24
  }
}
 80035da:	4770      	bx	lr
  CAN_TypeDef *can_ip = hcan->Instance;
 80035dc:	6803      	ldr	r3, [r0, #0]
    filternbrbitpos = (uint32_t)1 << (sFilterConfig->FilterBank & 0x1FU);
 80035de:	6948      	ldr	r0, [r1, #20]
{
 80035e0:	b470      	push	{r4, r5, r6}
    SET_BIT(can_ip->FMR, CAN_FMR_FINIT);
 80035e2:	f8d3 4200 	ldr.w	r4, [r3, #512]	; 0x200
 80035e6:	f044 0401 	orr.w	r4, r4, #1
 80035ea:	f8c3 4200 	str.w	r4, [r3, #512]	; 0x200
    CLEAR_BIT(can_ip->FA1R, filternbrbitpos);
 80035ee:	f8d3 421c 	ldr.w	r4, [r3, #540]	; 0x21c
    filternbrbitpos = (uint32_t)1 << (sFilterConfig->FilterBank & 0x1FU);
 80035f2:	2501      	movs	r5, #1
 80035f4:	f000 021f 	and.w	r2, r0, #31
 80035f8:	fa05 f202 	lsl.w	r2, r5, r2
    if (sFilterConfig->FilterScale == CAN_FILTERSCALE_16BIT)
 80035fc:	69cd      	ldr	r5, [r1, #28]
    CLEAR_BIT(can_ip->FA1R, filternbrbitpos);
 80035fe:	ea24 0402 	bic.w	r4, r4, r2
 8003602:	f8c3 421c 	str.w	r4, [r3, #540]	; 0x21c
 8003606:	43d4      	mvns	r4, r2
    if (sFilterConfig->FilterScale == CAN_FILTERSCALE_16BIT)
 8003608:	2d00      	cmp	r5, #0
 800360a:	d13d      	bne.n	8003688 <HAL_CAN_ConfigFilter+0xc4>
      CLEAR_BIT(can_ip->FS1R, filternbrbitpos);
 800360c:	f8d3 520c 	ldr.w	r5, [r3, #524]	; 0x20c
        ((0x0000FFFFU & (uint32_t)sFilterConfig->FilterMaskIdLow) << 16U) |
 8003610:	68ce      	ldr	r6, [r1, #12]
      CLEAR_BIT(can_ip->FS1R, filternbrbitpos);
 8003612:	4025      	ands	r5, r4
 8003614:	f8c3 520c 	str.w	r5, [r3, #524]	; 0x20c
        (0x0000FFFFU & (uint32_t)sFilterConfig->FilterIdLow);
 8003618:	888d      	ldrh	r5, [r1, #4]
 800361a:	eb03 00c0 	add.w	r0, r3, r0, lsl #3
        ((0x0000FFFFU & (uint32_t)sFilterConfig->FilterMaskIdLow) << 16U) |
 800361e:	ea45 4506 	orr.w	r5, r5, r6, lsl #16
      can_ip->sFilterRegister[sFilterConfig->FilterBank].FR1 =
 8003622:	f8c0 5240 	str.w	r5, [r0, #576]	; 0x240
        ((0x0000FFFFU & (uint32_t)sFilterConfig->FilterMaskIdHigh) << 16U) |
 8003626:	688e      	ldr	r6, [r1, #8]
        (0x0000FFFFU & (uint32_t)sFilterConfig->FilterIdHigh);
 8003628:	880d      	ldrh	r5, [r1, #0]
        ((0x0000FFFFU & (uint32_t)sFilterConfig->FilterMaskIdHigh) << 16U) |
 800362a:	ea45 4506 	orr.w	r5, r5, r6, lsl #16
      can_ip->sFilterRegister[sFilterConfig->FilterBank].FR2 =
 800362e:	f8c0 5244 	str.w	r5, [r0, #580]	; 0x244
    if (sFilterConfig->FilterMode == CAN_FILTERMODE_IDMASK)
 8003632:	6988      	ldr	r0, [r1, #24]
 8003634:	bb10      	cbnz	r0, 800367c <HAL_CAN_ConfigFilter+0xb8>
      CLEAR_BIT(can_ip->FM1R, filternbrbitpos);
 8003636:	f8d3 0204 	ldr.w	r0, [r3, #516]	; 0x204
 800363a:	4020      	ands	r0, r4
 800363c:	f8c3 0204 	str.w	r0, [r3, #516]	; 0x204
    if (sFilterConfig->FilterFIFOAssignment == CAN_FILTER_FIFO0)
 8003640:	6908      	ldr	r0, [r1, #16]
 8003642:	b9a8      	cbnz	r0, 8003670 <HAL_CAN_ConfigFilter+0xac>
      CLEAR_BIT(can_ip->FFA1R, filternbrbitpos);
 8003644:	f8d3 0214 	ldr.w	r0, [r3, #532]	; 0x214
 8003648:	4004      	ands	r4, r0
 800364a:	f8c3 4214 	str.w	r4, [r3, #532]	; 0x214
    if (sFilterConfig->FilterActivation == CAN_FILTER_ENABLE)
 800364e:	6a09      	ldr	r1, [r1, #32]
 8003650:	2901      	cmp	r1, #1
 8003652:	d104      	bne.n	800365e <HAL_CAN_ConfigFilter+0x9a>
      SET_BIT(can_ip->FA1R, filternbrbitpos);
 8003654:	f8d3 121c 	ldr.w	r1, [r3, #540]	; 0x21c
 8003658:	430a      	orrs	r2, r1
 800365a:	f8c3 221c 	str.w	r2, [r3, #540]	; 0x21c
    CLEAR_BIT(can_ip->FMR, CAN_FMR_FINIT);
 800365e:	f8d3 2200 	ldr.w	r2, [r3, #512]	; 0x200
 8003662:	f022 0201 	bic.w	r2, r2, #1
    return HAL_OK;
 8003666:	2000      	movs	r0, #0
}
 8003668:	bc70      	pop	{r4, r5, r6}
    CLEAR_BIT(can_ip->FMR, CAN_FMR_FINIT);
 800366a:	f8c3 2200 	str.w	r2, [r3, #512]	; 0x200
}
 800366e:	4770      	bx	lr
      SET_BIT(can_ip->FFA1R, filternbrbitpos);
 8003670:	f8d3 0214 	ldr.w	r0, [r3, #532]	; 0x214
 8003674:	4310      	orrs	r0, r2
 8003676:	f8c3 0214 	str.w	r0, [r3, #532]	; 0x214
 800367a:	e7e8      	b.n	800364e <HAL_CAN_ConfigFilter+0x8a>
      SET_BIT(can_ip->FM1R, filternbrbitpos);
 800367c:	f8d3 0204 	ldr.w	r0, [r3, #516]	; 0x204
 8003680:	4310      	orrs	r0, r2
 8003682:	f8c3 0204 	str.w	r0, [r3, #516]	; 0x204
 8003686:	e7db      	b.n	8003640 <HAL_CAN_ConfigFilter+0x7c>
    if (sFilterConfig->FilterScale == CAN_FILTERSCALE_32BIT)
 8003688:	2d01      	cmp	r5, #1
 800368a:	d1d2      	bne.n	8003632 <HAL_CAN_ConfigFilter+0x6e>
      SET_BIT(can_ip->FS1R, filternbrbitpos);
 800368c:	f8d3 520c 	ldr.w	r5, [r3, #524]	; 0x20c
        ((0x0000FFFFU & (uint32_t)sFilterConfig->FilterIdHigh) << 16U) |
 8003690:	680e      	ldr	r6, [r1, #0]
      SET_BIT(can_ip->FS1R, filternbrbitpos);
 8003692:	4315      	orrs	r5, r2
 8003694:	f8c3 520c 	str.w	r5, [r3, #524]	; 0x20c
        (0x0000FFFFU & (uint32_t)sFilterConfig->FilterIdLow);
 8003698:	888d      	ldrh	r5, [r1, #4]
 800369a:	eb03 00c0 	add.w	r0, r3, r0, lsl #3
        ((0x0000FFFFU & (uint32_t)sFilterConfig->FilterIdHigh) << 16U) |
 800369e:	ea45 4506 	orr.w	r5, r5, r6, lsl #16
      can_ip->sFilterRegister[sFilterConfig->FilterBank].FR1 =
 80036a2:	f8c0 5240 	str.w	r5, [r0, #576]	; 0x240
        ((0x0000FFFFU & (uint32_t)sFilterConfig->FilterMaskIdHigh) << 16U) |
 80036a6:	688e      	ldr	r6, [r1, #8]
        (0x0000FFFFU & (uint32_t)sFilterConfig->FilterMaskIdLow);
 80036a8:	898d      	ldrh	r5, [r1, #12]
        ((0x0000FFFFU & (uint32_t)sFilterConfig->FilterMaskIdHigh) << 16U) |
 80036aa:	ea45 4506 	orr.w	r5, r5, r6, lsl #16
      can_ip->sFilterRegister[sFilterConfig->FilterBank].FR2 =
 80036ae:	f8c0 5244 	str.w	r5, [r0, #580]	; 0x244
 80036b2:	e7be      	b.n	8003632 <HAL_CAN_ConfigFilter+0x6e>

080036b4 <HAL_CAN_Start>:
  * @param  hcan pointer to an CAN_HandleTypeDef structure that contains
  *         the configuration information for the specified CAN.
  * @retval HAL status
  */
HAL_StatusTypeDef HAL_CAN_Start(CAN_HandleTypeDef *hcan)
{
 80036b4:	b570      	push	{r4, r5, r6, lr}
  uint32_t tickstart;

  if (hcan->State == HAL_CAN_STATE_READY)
 80036b6:	f890 3020 	ldrb.w	r3, [r0, #32]
 80036ba:	2b01      	cmp	r3, #1
{
 80036bc:	4604      	mov	r4, r0
  if (hcan->State == HAL_CAN_STATE_READY)
 80036be:	d006      	beq.n	80036ce <HAL_CAN_Start+0x1a>
    return HAL_OK;
  }
  else
  {
    /* Update error code */
    hcan->ErrorCode |= HAL_CAN_ERROR_NOT_READY;
 80036c0:	6a43      	ldr	r3, [r0, #36]	; 0x24

    return HAL_ERROR;
 80036c2:	2601      	movs	r6, #1
    hcan->ErrorCode |= HAL_CAN_ERROR_NOT_READY;
 80036c4:	f443 2300 	orr.w	r3, r3, #524288	; 0x80000
 80036c8:	6243      	str	r3, [r0, #36]	; 0x24
  }
}
 80036ca:	4630      	mov	r0, r6
 80036cc:	bd70      	pop	{r4, r5, r6, pc}
    CLEAR_BIT(hcan->Instance->MCR, CAN_MCR_INRQ);
 80036ce:	6802      	ldr	r2, [r0, #0]
 80036d0:	b2de      	uxtb	r6, r3
    hcan->State = HAL_CAN_STATE_LISTENING;
 80036d2:	2302      	movs	r3, #2
 80036d4:	f880 3020 	strb.w	r3, [r0, #32]
    CLEAR_BIT(hcan->Instance->MCR, CAN_MCR_INRQ);
 80036d8:	6813      	ldr	r3, [r2, #0]
 80036da:	f023 0301 	bic.w	r3, r3, #1
 80036de:	6013      	str	r3, [r2, #0]
    tickstart = HAL_GetTick();
 80036e0:	f7fe ffc6 	bl	8002670 <HAL_GetTick>
 80036e4:	4605      	mov	r5, r0
    while ((hcan->Instance->MSR & CAN_MSR_INAK) != 0U)
 80036e6:	e004      	b.n	80036f2 <HAL_CAN_Start+0x3e>
      if ((HAL_GetTick() - tickstart) > CAN_TIMEOUT_VALUE)
 80036e8:	f7fe ffc2 	bl	8002670 <HAL_GetTick>
 80036ec:	1b43      	subs	r3, r0, r5
 80036ee:	2b0a      	cmp	r3, #10
 80036f0:	d808      	bhi.n	8003704 <HAL_CAN_Start+0x50>
    while ((hcan->Instance->MSR & CAN_MSR_INAK) != 0U)
 80036f2:	6823      	ldr	r3, [r4, #0]
 80036f4:	685b      	ldr	r3, [r3, #4]
 80036f6:	f013 0301 	ands.w	r3, r3, #1
 80036fa:	d1f5      	bne.n	80036e8 <HAL_CAN_Start+0x34>
    return HAL_OK;
 80036fc:	461e      	mov	r6, r3
    hcan->ErrorCode = HAL_CAN_ERROR_NONE;
 80036fe:	6263      	str	r3, [r4, #36]	; 0x24
}
 8003700:	4630      	mov	r0, r6
 8003702:	bd70      	pop	{r4, r5, r6, pc}
        hcan->ErrorCode |= HAL_CAN_ERROR_TIMEOUT;
 8003704:	6a63      	ldr	r3, [r4, #36]	; 0x24
        hcan->State = HAL_CAN_STATE_ERROR;
 8003706:	2205      	movs	r2, #5
        hcan->ErrorCode |= HAL_CAN_ERROR_TIMEOUT;
 8003708:	f443 3300 	orr.w	r3, r3, #131072	; 0x20000
 800370c:	6263      	str	r3, [r4, #36]	; 0x24
        hcan->State = HAL_CAN_STATE_ERROR;
 800370e:	f884 2020 	strb.w	r2, [r4, #32]
}
 8003712:	4630      	mov	r0, r6
 8003714:	bd70      	pop	{r4, r5, r6, pc}
 8003716:	bf00      	nop

08003718 <HAL_CAN_AddTxMessage>:
  *         the TxMailbox used to store the Tx message.
  *         This parameter can be a value of @arg CAN_Tx_Mailboxes.
  * @retval HAL status
  */
HAL_StatusTypeDef HAL_CAN_AddTxMessage(CAN_HandleTypeDef *hcan, CAN_TxHeaderTypeDef *pHeader, uint8_t aData[], uint32_t *pTxMailbox)
{
 8003718:	b430      	push	{r4, r5}
 800371a:	4684      	mov	ip, r0
  uint32_t transmitmailbox;
  HAL_CAN_StateTypeDef state = hcan->State;
 800371c:	f890 0020 	ldrb.w	r0, [r0, #32]
  uint32_t tsr = READ_REG(hcan->Instance->TSR);
 8003720:	f8dc 5000 	ldr.w	r5, [ip]
  {
    assert_param(IS_CAN_EXTID(pHeader->ExtId));
  }
  assert_param(IS_FUNCTIONAL_STATE(pHeader->TransmitGlobalTime));

  if ((state == HAL_CAN_STATE_READY) ||
 8003724:	3801      	subs	r0, #1
 8003726:	2801      	cmp	r0, #1
  uint32_t tsr = READ_REG(hcan->Instance->TSR);
 8003728:	68ac      	ldr	r4, [r5, #8]
  if ((state == HAL_CAN_STATE_READY) ||
 800372a:	d835      	bhi.n	8003798 <HAL_CAN_AddTxMessage+0x80>
      (state == HAL_CAN_STATE_LISTENING))
  {
    /* Check that all the Tx mailboxes are not full */
    if (((tsr & CAN_TSR_TME0) != 0U) ||
 800372c:	f014 5fe0 	tst.w	r4, #469762048	; 0x1c000000
 8003730:	d03b      	beq.n	80037aa <HAL_CAN_AddTxMessage+0x92>
        ((tsr & CAN_TSR_TME1) != 0U) ||
        ((tsr & CAN_TSR_TME2) != 0U))
    {
      /* Select an empty transmit mailbox */
      transmitmailbox = (tsr & CAN_TSR_CODE) >> CAN_TSR_CODE_Pos;
 8003732:	f3c4 6401 	ubfx	r4, r4, #24, #2

      /* Check transmit mailbox value */
      if (transmitmailbox > 2U)
 8003736:	2c03      	cmp	r4, #3
 8003738:	d049      	beq.n	80037ce <HAL_CAN_AddTxMessage+0xb6>

        return HAL_ERROR;
      }

      /* Store the Tx mailbox */
      *pTxMailbox = (uint32_t)1 << transmitmailbox;
 800373a:	2001      	movs	r0, #1
 800373c:	40a0      	lsls	r0, r4
 800373e:	6018      	str	r0, [r3, #0]

      /* Set up the Id */
      if (pHeader->IDE == CAN_ID_STD)
 8003740:	688b      	ldr	r3, [r1, #8]
 8003742:	2b00      	cmp	r3, #0
 8003744:	d03a      	beq.n	80037bc <HAL_CAN_AddTxMessage+0xa4>
                                                           pHeader->RTR);
      }
      else
      {
        hcan->Instance->sTxMailBox[transmitmailbox].TIR = ((pHeader->ExtId << CAN_TI0R_EXID_Pos) |
                                                           pHeader->IDE |
 8003746:	68c8      	ldr	r0, [r1, #12]
 8003748:	4303      	orrs	r3, r0
        hcan->Instance->sTxMailBox[transmitmailbox].TIR = ((pHeader->ExtId << CAN_TI0R_EXID_Pos) |
 800374a:	6848      	ldr	r0, [r1, #4]
                                                           pHeader->IDE |
 800374c:	ea43 03c0 	orr.w	r3, r3, r0, lsl #3
        hcan->Instance->sTxMailBox[transmitmailbox].TIR = ((pHeader->ExtId << CAN_TI0R_EXID_Pos) |
 8003750:	f104 0018 	add.w	r0, r4, #24
 8003754:	0100      	lsls	r0, r0, #4
 8003756:	502b      	str	r3, [r5, r0]
                                                           pHeader->RTR);
      }

      /* Set up the DLC */
      hcan->Instance->sTxMailBox[transmitmailbox].TDTR = (pHeader->DLC);
 8003758:	eb05 1c04 	add.w	ip, r5, r4, lsl #4
 800375c:	690b      	ldr	r3, [r1, #16]
 800375e:	f8cc 3184 	str.w	r3, [ip, #388]	; 0x184

      /* Set up the Transmit Global Time mode */
      if (pHeader->TransmitGlobalTime == ENABLE)
 8003762:	7d09      	ldrb	r1, [r1, #20]
 8003764:	2901      	cmp	r1, #1
 8003766:	ea4f 1304 	mov.w	r3, r4, lsl #4
 800376a:	d105      	bne.n	8003778 <HAL_CAN_AddTxMessage+0x60>
      {
        SET_BIT(hcan->Instance->sTxMailBox[transmitmailbox].TDTR, CAN_TDT0R_TGT);
 800376c:	f8dc 1184 	ldr.w	r1, [ip, #388]	; 0x184
 8003770:	f441 7180 	orr.w	r1, r1, #256	; 0x100
 8003774:	f8cc 1184 	str.w	r1, [ip, #388]	; 0x184
      }

      /* Set up the data field */
      WRITE_REG(hcan->Instance->sTxMailBox[transmitmailbox].TDHR,
 8003778:	442b      	add	r3, r5
 800377a:	6851      	ldr	r1, [r2, #4]
 800377c:	f8c3 118c 	str.w	r1, [r3, #396]	; 0x18c
                ((uint32_t)aData[7] << CAN_TDH0R_DATA7_Pos) |
                ((uint32_t)aData[6] << CAN_TDH0R_DATA6_Pos) |
                ((uint32_t)aData[5] << CAN_TDH0R_DATA5_Pos) |
                ((uint32_t)aData[4] << CAN_TDH0R_DATA4_Pos));
      WRITE_REG(hcan->Instance->sTxMailBox[transmitmailbox].TDLR,
 8003780:	6812      	ldr	r2, [r2, #0]
 8003782:	f8c3 2188 	str.w	r2, [r3, #392]	; 0x188
                ((uint32_t)aData[2] << CAN_TDL0R_DATA2_Pos) |
                ((uint32_t)aData[1] << CAN_TDL0R_DATA1_Pos) |
                ((uint32_t)aData[0] << CAN_TDL0R_DATA0_Pos));

      /* Request transmission */
      SET_BIT(hcan->Instance->sTxMailBox[transmitmailbox].TIR, CAN_TI0R_TXRQ);
 8003786:	f8dc 3180 	ldr.w	r3, [ip, #384]	; 0x180
 800378a:	f043 0301 	orr.w	r3, r3, #1

      /* Return function status */
      return HAL_OK;
 800378e:	2000      	movs	r0, #0
    /* Update error code */
    hcan->ErrorCode |= HAL_CAN_ERROR_NOT_INITIALIZED;

    return HAL_ERROR;
  }
}
 8003790:	bc30      	pop	{r4, r5}
      SET_BIT(hcan->Instance->sTxMailBox[transmitmailbox].TIR, CAN_TI0R_TXRQ);
 8003792:	f8cc 3180 	str.w	r3, [ip, #384]	; 0x180
}
 8003796:	4770      	bx	lr
    hcan->ErrorCode |= HAL_CAN_ERROR_NOT_INITIALIZED;
 8003798:	f8dc 3024 	ldr.w	r3, [ip, #36]	; 0x24
 800379c:	f443 2380 	orr.w	r3, r3, #262144	; 0x40000
    return HAL_ERROR;
 80037a0:	2001      	movs	r0, #1
}
 80037a2:	bc30      	pop	{r4, r5}
    hcan->ErrorCode |= HAL_CAN_ERROR_NOT_INITIALIZED;
 80037a4:	f8cc 3024 	str.w	r3, [ip, #36]	; 0x24
}
 80037a8:	4770      	bx	lr
      hcan->ErrorCode |= HAL_CAN_ERROR_PARAM;
 80037aa:	f8dc 3024 	ldr.w	r3, [ip, #36]	; 0x24
 80037ae:	f443 1300 	orr.w	r3, r3, #2097152	; 0x200000
      return HAL_ERROR;
 80037b2:	2001      	movs	r0, #1
}
 80037b4:	bc30      	pop	{r4, r5}
      hcan->ErrorCode |= HAL_CAN_ERROR_PARAM;
 80037b6:	f8cc 3024 	str.w	r3, [ip, #36]	; 0x24
}
 80037ba:	4770      	bx	lr
        hcan->Instance->sTxMailBox[transmitmailbox].TIR = ((pHeader->StdId << CAN_TI0R_STID_Pos) |
 80037bc:	68cb      	ldr	r3, [r1, #12]
 80037be:	6808      	ldr	r0, [r1, #0]
 80037c0:	ea43 5040 	orr.w	r0, r3, r0, lsl #21
 80037c4:	f104 0318 	add.w	r3, r4, #24
 80037c8:	011b      	lsls	r3, r3, #4
 80037ca:	50e8      	str	r0, [r5, r3]
 80037cc:	e7c4      	b.n	8003758 <HAL_CAN_AddTxMessage+0x40>
        hcan->ErrorCode |= HAL_CAN_ERROR_INTERNAL;
 80037ce:	f8dc 3024 	ldr.w	r3, [ip, #36]	; 0x24
 80037d2:	f443 0300 	orr.w	r3, r3, #8388608	; 0x800000
        return HAL_ERROR;
 80037d6:	2001      	movs	r0, #1
}
 80037d8:	bc30      	pop	{r4, r5}
        hcan->ErrorCode |= HAL_CAN_ERROR_INTERNAL;
 80037da:	f8cc 3024 	str.w	r3, [ip, #36]	; 0x24
}
 80037de:	4770      	bx	lr

080037e0 <HAL_CAN_GetRxMessage>:
  *         of the Rx frame will be stored.
  * @param  aData array where the payload of the Rx frame will be stored.
  * @retval HAL status
  */
HAL_StatusTypeDef HAL_CAN_GetRxMessage(CAN_HandleTypeDef *hcan, uint32_t RxFifo, CAN_RxHeaderTypeDef *pHeader, uint8_t aData[])
{
 80037e0:	b570      	push	{r4, r5, r6, lr}
  HAL_CAN_StateTypeDef state = hcan->State;
 80037e2:	f890 e020 	ldrb.w	lr, [r0, #32]

  assert_param(IS_CAN_RX_FIFO(RxFifo));

  if ((state == HAL_CAN_STATE_READY) ||
 80037e6:	f10e 3eff 	add.w	lr, lr, #4294967295
 80037ea:	f1be 0f01 	cmp.w	lr, #1
{
 80037ee:	4684      	mov	ip, r0
  if ((state == HAL_CAN_STATE_READY) ||
 80037f0:	d86d      	bhi.n	80038ce <HAL_CAN_GetRxMessage+0xee>
  {
    /* Check the Rx FIFO */
    if (RxFifo == CAN_RX_FIFO0) /* Rx element is assigned to Rx FIFO 0 */
    {
      /* Check that the Rx FIFO 0 is not empty */
      if ((hcan->Instance->RF0R & CAN_RF0R_FMP0) == 0U)
 80037f2:	6800      	ldr	r0, [r0, #0]
    if (RxFifo == CAN_RX_FIFO0) /* Rx element is assigned to Rx FIFO 0 */
 80037f4:	b951      	cbnz	r1, 800380c <HAL_CAN_GetRxMessage+0x2c>
      if ((hcan->Instance->RF0R & CAN_RF0R_FMP0) == 0U)
 80037f6:	68c4      	ldr	r4, [r0, #12]
 80037f8:	07a5      	lsls	r5, r4, #30
 80037fa:	d10a      	bne.n	8003812 <HAL_CAN_GetRxMessage+0x32>
    {
      /* Check that the Rx FIFO 1 is not empty */
      if ((hcan->Instance->RF1R & CAN_RF1R_FMP1) == 0U)
      {
        /* Update error code */
        hcan->ErrorCode |= HAL_CAN_ERROR_PARAM;
 80037fc:	f8dc 3024 	ldr.w	r3, [ip, #36]	; 0x24
 8003800:	f443 1300 	orr.w	r3, r3, #2097152	; 0x200000

        return HAL_ERROR;
 8003804:	2001      	movs	r0, #1
        hcan->ErrorCode |= HAL_CAN_ERROR_PARAM;
 8003806:	f8cc 3024 	str.w	r3, [ip, #36]	; 0x24
    /* Update error code */
    hcan->ErrorCode |= HAL_CAN_ERROR_NOT_INITIALIZED;

    return HAL_ERROR;
  }
}
 800380a:	bd70      	pop	{r4, r5, r6, pc}
      if ((hcan->Instance->RF1R & CAN_RF1R_FMP1) == 0U)
 800380c:	6904      	ldr	r4, [r0, #16]
 800380e:	07a4      	lsls	r4, r4, #30
 8003810:	d0f4      	beq.n	80037fc <HAL_CAN_GetRxMessage+0x1c>
    pHeader->IDE = CAN_RI0R_IDE & hcan->Instance->sFIFOMailBox[RxFifo].RIR;
 8003812:	eb00 1e01 	add.w	lr, r0, r1, lsl #4
 8003816:	010c      	lsls	r4, r1, #4
 8003818:	f8de 51b0 	ldr.w	r5, [lr, #432]	; 0x1b0
 800381c:	f005 0504 	and.w	r5, r5, #4
 8003820:	6095      	str	r5, [r2, #8]
    if (pHeader->IDE == CAN_ID_STD)
 8003822:	2d00      	cmp	r5, #0
 8003824:	d05a      	beq.n	80038dc <HAL_CAN_GetRxMessage+0xfc>
      pHeader->ExtId = ((CAN_RI0R_EXID | CAN_RI0R_STID) & hcan->Instance->sFIFOMailBox[RxFifo].RIR) >> CAN_RI0R_EXID_Pos;
 8003826:	f8de 51b0 	ldr.w	r5, [lr, #432]	; 0x1b0
 800382a:	08ed      	lsrs	r5, r5, #3
 800382c:	6055      	str	r5, [r2, #4]
    pHeader->RTR = (CAN_RI0R_RTR & hcan->Instance->sFIFOMailBox[RxFifo].RIR);
 800382e:	f8de 51b0 	ldr.w	r5, [lr, #432]	; 0x1b0
 8003832:	f005 0502 	and.w	r5, r5, #2
 8003836:	60d5      	str	r5, [r2, #12]
    pHeader->DLC = (CAN_RDT0R_DLC & hcan->Instance->sFIFOMailBox[RxFifo].RDTR) >> CAN_RDT0R_DLC_Pos;
 8003838:	f8de 51b4 	ldr.w	r5, [lr, #436]	; 0x1b4
    pHeader->FilterMatchIndex = (CAN_RDT0R_FMI & hcan->Instance->sFIFOMailBox[RxFifo].RDTR) >> CAN_RDT0R_FMI_Pos;
 800383c:	f8de 61b4 	ldr.w	r6, [lr, #436]	; 0x1b4
    pHeader->DLC = (CAN_RDT0R_DLC & hcan->Instance->sFIFOMailBox[RxFifo].RDTR) >> CAN_RDT0R_DLC_Pos;
 8003840:	f005 050f 	and.w	r5, r5, #15
 8003844:	6115      	str	r5, [r2, #16]
    aData[0] = (uint8_t)((CAN_RDL0R_DATA0 & hcan->Instance->sFIFOMailBox[RxFifo].RDLR) >> CAN_RDL0R_DATA0_Pos);
 8003846:	4420      	add	r0, r4
    pHeader->Timestamp = (CAN_RDT0R_TIME & hcan->Instance->sFIFOMailBox[RxFifo].RDTR) >> CAN_RDT0R_TIME_Pos;
 8003848:	f8de 51b4 	ldr.w	r5, [lr, #436]	; 0x1b4
    pHeader->FilterMatchIndex = (CAN_RDT0R_FMI & hcan->Instance->sFIFOMailBox[RxFifo].RDTR) >> CAN_RDT0R_FMI_Pos;
 800384c:	f3c6 2607 	ubfx	r6, r6, #8, #8
 8003850:	6196      	str	r6, [r2, #24]
    pHeader->Timestamp = (CAN_RDT0R_TIME & hcan->Instance->sFIFOMailBox[RxFifo].RDTR) >> CAN_RDT0R_TIME_Pos;
 8003852:	0c2d      	lsrs	r5, r5, #16
    aData[0] = (uint8_t)((CAN_RDL0R_DATA0 & hcan->Instance->sFIFOMailBox[RxFifo].RDLR) >> CAN_RDL0R_DATA0_Pos);
 8003854:	f8d0 61b8 	ldr.w	r6, [r0, #440]	; 0x1b8
    pHeader->Timestamp = (CAN_RDT0R_TIME & hcan->Instance->sFIFOMailBox[RxFifo].RDTR) >> CAN_RDT0R_TIME_Pos;
 8003858:	6155      	str	r5, [r2, #20]
    aData[0] = (uint8_t)((CAN_RDL0R_DATA0 & hcan->Instance->sFIFOMailBox[RxFifo].RDLR) >> CAN_RDL0R_DATA0_Pos);
 800385a:	701e      	strb	r6, [r3, #0]
    aData[1] = (uint8_t)((CAN_RDL0R_DATA1 & hcan->Instance->sFIFOMailBox[RxFifo].RDLR) >> CAN_RDL0R_DATA1_Pos);
 800385c:	f8dc 2000 	ldr.w	r2, [ip]
 8003860:	4422      	add	r2, r4
 8003862:	f8d2 21b8 	ldr.w	r2, [r2, #440]	; 0x1b8
 8003866:	0a12      	lsrs	r2, r2, #8
 8003868:	705a      	strb	r2, [r3, #1]
    aData[2] = (uint8_t)((CAN_RDL0R_DATA2 & hcan->Instance->sFIFOMailBox[RxFifo].RDLR) >> CAN_RDL0R_DATA2_Pos);
 800386a:	f8dc 2000 	ldr.w	r2, [ip]
 800386e:	4422      	add	r2, r4
 8003870:	f8d2 21b8 	ldr.w	r2, [r2, #440]	; 0x1b8
 8003874:	0c12      	lsrs	r2, r2, #16
 8003876:	709a      	strb	r2, [r3, #2]
    aData[3] = (uint8_t)((CAN_RDL0R_DATA3 & hcan->Instance->sFIFOMailBox[RxFifo].RDLR) >> CAN_RDL0R_DATA3_Pos);
 8003878:	f8dc 2000 	ldr.w	r2, [ip]
 800387c:	4422      	add	r2, r4
 800387e:	f8d2 21b8 	ldr.w	r2, [r2, #440]	; 0x1b8
 8003882:	0e12      	lsrs	r2, r2, #24
 8003884:	70da      	strb	r2, [r3, #3]
    aData[4] = (uint8_t)((CAN_RDH0R_DATA4 & hcan->Instance->sFIFOMailBox[RxFifo].RDHR) >> CAN_RDH0R_DATA4_Pos);
 8003886:	f8dc 2000 	ldr.w	r2, [ip]
 800388a:	4422      	add	r2, r4
 800388c:	f8d2 21bc 	ldr.w	r2, [r2, #444]	; 0x1bc
 8003890:	711a      	strb	r2, [r3, #4]
    aData[5] = (uint8_t)((CAN_RDH0R_DATA5 & hcan->Instance->sFIFOMailBox[RxFifo].RDHR) >> CAN_RDH0R_DATA5_Pos);
 8003892:	f8dc 2000 	ldr.w	r2, [ip]
 8003896:	4422      	add	r2, r4
 8003898:	f8d2 21bc 	ldr.w	r2, [r2, #444]	; 0x1bc
 800389c:	0a12      	lsrs	r2, r2, #8
 800389e:	715a      	strb	r2, [r3, #5]
    aData[6] = (uint8_t)((CAN_RDH0R_DATA6 & hcan->Instance->sFIFOMailBox[RxFifo].RDHR) >> CAN_RDH0R_DATA6_Pos);
 80038a0:	f8dc 2000 	ldr.w	r2, [ip]
 80038a4:	4422      	add	r2, r4
 80038a6:	f8d2 21bc 	ldr.w	r2, [r2, #444]	; 0x1bc
 80038aa:	0c12      	lsrs	r2, r2, #16
 80038ac:	719a      	strb	r2, [r3, #6]
    aData[7] = (uint8_t)((CAN_RDH0R_DATA7 & hcan->Instance->sFIFOMailBox[RxFifo].RDHR) >> CAN_RDH0R_DATA7_Pos);
 80038ae:	f8dc 2000 	ldr.w	r2, [ip]
 80038b2:	4422      	add	r2, r4
 80038b4:	f8d2 21bc 	ldr.w	r2, [r2, #444]	; 0x1bc
 80038b8:	0e12      	lsrs	r2, r2, #24
 80038ba:	71da      	strb	r2, [r3, #7]
      SET_BIT(hcan->Instance->RF0R, CAN_RF0R_RFOM0);
 80038bc:	f8dc 2000 	ldr.w	r2, [ip]
    if (RxFifo == CAN_RX_FIFO0) /* Rx element is assigned to Rx FIFO 0 */
 80038c0:	b989      	cbnz	r1, 80038e6 <HAL_CAN_GetRxMessage+0x106>
      SET_BIT(hcan->Instance->RF0R, CAN_RF0R_RFOM0);
 80038c2:	68d3      	ldr	r3, [r2, #12]
 80038c4:	f043 0320 	orr.w	r3, r3, #32
    return HAL_OK;
 80038c8:	4608      	mov	r0, r1
      SET_BIT(hcan->Instance->RF0R, CAN_RF0R_RFOM0);
 80038ca:	60d3      	str	r3, [r2, #12]
}
 80038cc:	bd70      	pop	{r4, r5, r6, pc}
    hcan->ErrorCode |= HAL_CAN_ERROR_NOT_INITIALIZED;
 80038ce:	6a43      	ldr	r3, [r0, #36]	; 0x24
 80038d0:	f443 2380 	orr.w	r3, r3, #262144	; 0x40000
    return HAL_ERROR;
 80038d4:	2001      	movs	r0, #1
    hcan->ErrorCode |= HAL_CAN_ERROR_NOT_INITIALIZED;
 80038d6:	f8cc 3024 	str.w	r3, [ip, #36]	; 0x24
}
 80038da:	bd70      	pop	{r4, r5, r6, pc}
      pHeader->StdId = (CAN_RI0R_STID & hcan->Instance->sFIFOMailBox[RxFifo].RIR) >> CAN_TI0R_STID_Pos;
 80038dc:	f8de 51b0 	ldr.w	r5, [lr, #432]	; 0x1b0
 80038e0:	0d6d      	lsrs	r5, r5, #21
 80038e2:	6015      	str	r5, [r2, #0]
 80038e4:	e7a3      	b.n	800382e <HAL_CAN_GetRxMessage+0x4e>
      SET_BIT(hcan->Instance->RF1R, CAN_RF1R_RFOM1);
 80038e6:	6913      	ldr	r3, [r2, #16]
 80038e8:	f043 0320 	orr.w	r3, r3, #32
    return HAL_OK;
 80038ec:	2000      	movs	r0, #0
      SET_BIT(hcan->Instance->RF1R, CAN_RF1R_RFOM1);
 80038ee:	6113      	str	r3, [r2, #16]
}
 80038f0:	bd70      	pop	{r4, r5, r6, pc}
 80038f2:	bf00      	nop

080038f4 <HAL_CAN_ActivateNotification>:
  *         This parameter can be any combination of @arg CAN_Interrupts.
  * @retval HAL status
  */
HAL_StatusTypeDef HAL_CAN_ActivateNotification(CAN_HandleTypeDef *hcan, uint32_t ActiveITs)
{
  HAL_CAN_StateTypeDef state = hcan->State;
 80038f4:	f890 2020 	ldrb.w	r2, [r0, #32]

  /* Check function parameters */
  assert_param(IS_CAN_IT(ActiveITs));

  if ((state == HAL_CAN_STATE_READY) ||
 80038f8:	3a01      	subs	r2, #1
 80038fa:	2a01      	cmp	r2, #1
{
 80038fc:	4603      	mov	r3, r0
  if ((state == HAL_CAN_STATE_READY) ||
 80038fe:	d905      	bls.n	800390c <HAL_CAN_ActivateNotification+0x18>
    return HAL_OK;
  }
  else
  {
    /* Update error code */
    hcan->ErrorCode |= HAL_CAN_ERROR_NOT_INITIALIZED;
 8003900:	6a42      	ldr	r2, [r0, #36]	; 0x24
 8003902:	f442 2280 	orr.w	r2, r2, #262144	; 0x40000

    return HAL_ERROR;
 8003906:	2001      	movs	r0, #1
    hcan->ErrorCode |= HAL_CAN_ERROR_NOT_INITIALIZED;
 8003908:	625a      	str	r2, [r3, #36]	; 0x24
  }
}
 800390a:	4770      	bx	lr
    __HAL_CAN_ENABLE_IT(hcan, ActiveITs);
 800390c:	6802      	ldr	r2, [r0, #0]
 800390e:	6953      	ldr	r3, [r2, #20]
 8003910:	4319      	orrs	r1, r3
    return HAL_OK;
 8003912:	2000      	movs	r0, #0
    __HAL_CAN_ENABLE_IT(hcan, ActiveITs);
 8003914:	6151      	str	r1, [r2, #20]
    return HAL_OK;
 8003916:	4770      	bx	lr

08003918 <HAL_CAN_TxMailbox0CompleteCallback>:
 8003918:	4770      	bx	lr
 800391a:	bf00      	nop

0800391c <HAL_CAN_TxMailbox1CompleteCallback>:
 800391c:	4770      	bx	lr
 800391e:	bf00      	nop

08003920 <HAL_CAN_TxMailbox2CompleteCallback>:
 8003920:	4770      	bx	lr
 8003922:	bf00      	nop

08003924 <HAL_CAN_TxMailbox0AbortCallback>:
 8003924:	4770      	bx	lr
 8003926:	bf00      	nop

08003928 <HAL_CAN_TxMailbox1AbortCallback>:
 8003928:	4770      	bx	lr
 800392a:	bf00      	nop

0800392c <HAL_CAN_TxMailbox2AbortCallback>:
 800392c:	4770      	bx	lr
 800392e:	bf00      	nop

08003930 <HAL_CAN_RxFifo0FullCallback>:
 8003930:	4770      	bx	lr
 8003932:	bf00      	nop

08003934 <HAL_CAN_RxFifo1MsgPendingCallback>:
 8003934:	4770      	bx	lr
 8003936:	bf00      	nop

08003938 <HAL_CAN_RxFifo1FullCallback>:
 8003938:	4770      	bx	lr
 800393a:	bf00      	nop

0800393c <HAL_CAN_SleepCallback>:
 800393c:	4770      	bx	lr
 800393e:	bf00      	nop

08003940 <HAL_CAN_WakeUpFromRxMsgCallback>:
 8003940:	4770      	bx	lr
 8003942:	bf00      	nop

08003944 <HAL_CAN_ErrorCallback>:
 8003944:	4770      	bx	lr
 8003946:	bf00      	nop

08003948 <HAL_CAN_IRQHandler>:
  * @param  hcan pointer to a CAN_HandleTypeDef structure that contains
  *         the configuration information for the specified CAN.
  * @retval None
  */
void HAL_CAN_IRQHandler(CAN_HandleTypeDef *hcan)
{
 8003948:	e92d 4ff8 	stmdb	sp!, {r3, r4, r5, r6, r7, r8, r9, sl, fp, lr}
  uint32_t errorcode = HAL_CAN_ERROR_NONE;
  uint32_t interrupts = READ_REG(hcan->Instance->IER);
 800394c:	6803      	ldr	r3, [r0, #0]
 800394e:	695c      	ldr	r4, [r3, #20]
  uint32_t msrflags = READ_REG(hcan->Instance->MSR);
 8003950:	f8d3 8004 	ldr.w	r8, [r3, #4]
  uint32_t tsrflags = READ_REG(hcan->Instance->TSR);
 8003954:	689f      	ldr	r7, [r3, #8]
  uint32_t rf0rflags = READ_REG(hcan->Instance->RF0R);
 8003956:	f8d3 b00c 	ldr.w	fp, [r3, #12]
  uint32_t rf1rflags = READ_REG(hcan->Instance->RF1R);
 800395a:	f8d3 a010 	ldr.w	sl, [r3, #16]
  uint32_t esrflags = READ_REG(hcan->Instance->ESR);
 800395e:	f8d3 9018 	ldr.w	r9, [r3, #24]

  /* Transmit Mailbox empty interrupt management *****************************/
  if ((interrupts & CAN_IT_TX_MAILBOX_EMPTY) != 0U)
 8003962:	f014 0601 	ands.w	r6, r4, #1
{
 8003966:	4605      	mov	r5, r0
  if ((interrupts & CAN_IT_TX_MAILBOX_EMPTY) != 0U)
 8003968:	d025      	beq.n	80039b6 <HAL_CAN_IRQHandler+0x6e>
  {
    /* Transmit Mailbox 0 management *****************************************/
    if ((tsrflags & CAN_TSR_RQCP0) != 0U)
 800396a:	f017 0601 	ands.w	r6, r7, #1
 800396e:	f040 808f 	bne.w	8003a90 <HAL_CAN_IRQHandler+0x148>
 8003972:	f44f 5200 	mov.w	r2, #8192	; 0x2000
 8003976:	f44f 4180 	mov.w	r1, #16384	; 0x4000
        }
      }
    }

    /* Transmit Mailbox 1 management *****************************************/
    if ((tsrflags & CAN_TSR_RQCP1) != 0U)
 800397a:	05f8      	lsls	r0, r7, #23
 800397c:	d50d      	bpl.n	800399a <HAL_CAN_IRQHandler+0x52>
    {
      /* Clear the Transmission Complete flag (and TXOK1,ALST1,TERR1 bits) */
      __HAL_CAN_CLEAR_FLAG(hcan, CAN_FLAG_RQCP1);
 800397e:	682b      	ldr	r3, [r5, #0]
 8003980:	f44f 7080 	mov.w	r0, #256	; 0x100
 8003984:	6098      	str	r0, [r3, #8]

      if ((tsrflags & CAN_TSR_TXOK1) != 0U)
 8003986:	05bb      	lsls	r3, r7, #22
 8003988:	f100 80be 	bmi.w	8003b08 <HAL_CAN_IRQHandler+0x1c0>
        HAL_CAN_TxMailbox1CompleteCallback(hcan);
#endif /* USE_HAL_CAN_REGISTER_CALLBACKS */
      }
      else
      {
        if ((tsrflags & CAN_TSR_ALST1) != 0U)
 800398c:	0578      	lsls	r0, r7, #21
 800398e:	f100 80e4 	bmi.w	8003b5a <HAL_CAN_IRQHandler+0x212>
        {
          /* Update error code */
          errorcode |= HAL_CAN_ERROR_TX_ALST1;
        }
        else if ((tsrflags & CAN_TSR_TERR1) != 0U)
 8003992:	053b      	lsls	r3, r7, #20
 8003994:	f140 80f0 	bpl.w	8003b78 <HAL_CAN_IRQHandler+0x230>
        {
          /* Update error code */
          errorcode |= HAL_CAN_ERROR_TX_TERR1;
 8003998:	460e      	mov	r6, r1
        }
      }
    }

    /* Transmit Mailbox 2 management *****************************************/
    if ((tsrflags & CAN_TSR_RQCP2) != 0U)
 800399a:	03f8      	lsls	r0, r7, #15
 800399c:	d50b      	bpl.n	80039b6 <HAL_CAN_IRQHandler+0x6e>
    {
      /* Clear the Transmission Complete flag (and TXOK2,ALST2,TERR2 bits) */
      __HAL_CAN_CLEAR_FLAG(hcan, CAN_FLAG_RQCP2);
 800399e:	682b      	ldr	r3, [r5, #0]
 80039a0:	f44f 3280 	mov.w	r2, #65536	; 0x10000

      if ((tsrflags & CAN_TSR_TXOK2) != 0U)
 80039a4:	03b9      	lsls	r1, r7, #14
      __HAL_CAN_CLEAR_FLAG(hcan, CAN_FLAG_RQCP2);
 80039a6:	609a      	str	r2, [r3, #8]
      if ((tsrflags & CAN_TSR_TXOK2) != 0U)
 80039a8:	f100 80ba 	bmi.w	8003b20 <HAL_CAN_IRQHandler+0x1d8>
        HAL_CAN_TxMailbox2CompleteCallback(hcan);
#endif /* USE_HAL_CAN_REGISTER_CALLBACKS */
      }
      else
      {
        if ((tsrflags & CAN_TSR_ALST2) != 0U)
 80039ac:	037a      	lsls	r2, r7, #13
 80039ae:	f140 80cf 	bpl.w	8003b50 <HAL_CAN_IRQHandler+0x208>
        {
          /* Update error code */
          errorcode |= HAL_CAN_ERROR_TX_ALST2;
 80039b2:	f446 4600 	orr.w	r6, r6, #32768	; 0x8000
      }
    }
  }

  /* Receive FIFO 0 overrun interrupt management *****************************/
  if ((interrupts & CAN_IT_RX_FIFO0_OVERRUN) != 0U)
 80039b6:	0727      	lsls	r7, r4, #28
 80039b8:	d502      	bpl.n	80039c0 <HAL_CAN_IRQHandler+0x78>
  {
    if ((rf0rflags & CAN_RF0R_FOVR0) != 0U)
 80039ba:	f01b 0f10 	tst.w	fp, #16
 80039be:	d161      	bne.n	8003a84 <HAL_CAN_IRQHandler+0x13c>
      __HAL_CAN_CLEAR_FLAG(hcan, CAN_FLAG_FOV0);
    }
  }

  /* Receive FIFO 0 full interrupt management ********************************/
  if ((interrupts & CAN_IT_RX_FIFO0_FULL) != 0U)
 80039c0:	0760      	lsls	r0, r4, #29
 80039c2:	d503      	bpl.n	80039cc <HAL_CAN_IRQHandler+0x84>
  {
    if ((rf0rflags & CAN_RF0R_FULL0) != 0U)
 80039c4:	f01b 0f08 	tst.w	fp, #8
 80039c8:	f040 808c 	bne.w	8003ae4 <HAL_CAN_IRQHandler+0x19c>
#endif /* USE_HAL_CAN_REGISTER_CALLBACKS */
    }
  }

  /* Receive FIFO 0 message pending interrupt management *********************/
  if ((interrupts & CAN_IT_RX_FIFO0_MSG_PENDING) != 0U)
 80039cc:	07a1      	lsls	r1, r4, #30
 80039ce:	d504      	bpl.n	80039da <HAL_CAN_IRQHandler+0x92>
  {
    /* Check if message is still pending */
    if ((hcan->Instance->RF0R & CAN_RF0R_FMP0) != 0U)
 80039d0:	682b      	ldr	r3, [r5, #0]
 80039d2:	68db      	ldr	r3, [r3, #12]
 80039d4:	079a      	lsls	r2, r3, #30
 80039d6:	f040 808c 	bne.w	8003af2 <HAL_CAN_IRQHandler+0x1aa>
#endif /* USE_HAL_CAN_REGISTER_CALLBACKS */
    }
  }

  /* Receive FIFO 1 overrun interrupt management *****************************/
  if ((interrupts & CAN_IT_RX_FIFO1_OVERRUN) != 0U)
 80039da:	0663      	lsls	r3, r4, #25
 80039dc:	d502      	bpl.n	80039e4 <HAL_CAN_IRQHandler+0x9c>
  {
    if ((rf1rflags & CAN_RF1R_FOVR1) != 0U)
 80039de:	f01a 0f10 	tst.w	sl, #16
 80039e2:	d149      	bne.n	8003a78 <HAL_CAN_IRQHandler+0x130>
      __HAL_CAN_CLEAR_FLAG(hcan, CAN_FLAG_FOV1);
    }
  }

  /* Receive FIFO 1 full interrupt management ********************************/
  if ((interrupts & CAN_IT_RX_FIFO1_FULL) != 0U)
 80039e4:	06a7      	lsls	r7, r4, #26
 80039e6:	d502      	bpl.n	80039ee <HAL_CAN_IRQHandler+0xa6>
  {
    if ((rf1rflags & CAN_RF1R_FULL1) != 0U)
 80039e8:	f01a 0f08 	tst.w	sl, #8
 80039ec:	d173      	bne.n	8003ad6 <HAL_CAN_IRQHandler+0x18e>
#endif /* USE_HAL_CAN_REGISTER_CALLBACKS */
    }
  }

  /* Receive FIFO 1 message pending interrupt management *********************/
  if ((interrupts & CAN_IT_RX_FIFO1_MSG_PENDING) != 0U)
 80039ee:	06e0      	lsls	r0, r4, #27
 80039f0:	d503      	bpl.n	80039fa <HAL_CAN_IRQHandler+0xb2>
  {
    /* Check if message is still pending */
    if ((hcan->Instance->RF1R & CAN_RF1R_FMP1) != 0U)
 80039f2:	682b      	ldr	r3, [r5, #0]
 80039f4:	691b      	ldr	r3, [r3, #16]
 80039f6:	0799      	lsls	r1, r3, #30
 80039f8:	d162      	bne.n	8003ac0 <HAL_CAN_IRQHandler+0x178>
#endif /* USE_HAL_CAN_REGISTER_CALLBACKS */
    }
  }

  /* Sleep interrupt management *********************************************/
  if ((interrupts & CAN_IT_SLEEP_ACK) != 0U)
 80039fa:	03a2      	lsls	r2, r4, #14
 80039fc:	d502      	bpl.n	8003a04 <HAL_CAN_IRQHandler+0xbc>
  {
    if ((msrflags & CAN_MSR_SLAKI) != 0U)
 80039fe:	f018 0f10 	tst.w	r8, #16
 8003a02:	d161      	bne.n	8003ac8 <HAL_CAN_IRQHandler+0x180>
#endif /* USE_HAL_CAN_REGISTER_CALLBACKS */
    }
  }

  /* WakeUp interrupt management *********************************************/
  if ((interrupts & CAN_IT_WAKEUP) != 0U)
 8003a04:	03e3      	lsls	r3, r4, #15
 8003a06:	d502      	bpl.n	8003a0e <HAL_CAN_IRQHandler+0xc6>
  {
    if ((msrflags & CAN_MSR_WKUI) != 0U)
 8003a08:	f018 0f08 	tst.w	r8, #8
 8003a0c:	d175      	bne.n	8003afa <HAL_CAN_IRQHandler+0x1b2>
#endif /* USE_HAL_CAN_REGISTER_CALLBACKS */
    }
  }

  /* Error interrupts management *********************************************/
  if ((interrupts & CAN_IT_ERROR) != 0U)
 8003a0e:	0427      	lsls	r7, r4, #16
 8003a10:	d505      	bpl.n	8003a1e <HAL_CAN_IRQHandler+0xd6>
  {
    if ((msrflags & CAN_MSR_ERRI) != 0U)
 8003a12:	f018 0f04 	tst.w	r8, #4
 8003a16:	d106      	bne.n	8003a26 <HAL_CAN_IRQHandler+0xde>
          default:
            break;
        }

        /* Clear Last error code Flag */
        CLEAR_BIT(hcan->Instance->ESR, CAN_ESR_LEC);
 8003a18:	682b      	ldr	r3, [r5, #0]
      }
    }

    /* Clear ERRI Flag */
    __HAL_CAN_CLEAR_FLAG(hcan, CAN_FLAG_ERRI);
 8003a1a:	2204      	movs	r2, #4
 8003a1c:	605a      	str	r2, [r3, #4]
  }

  /* Call the Error call Back in case of Errors */
  if (errorcode != HAL_CAN_ERROR_NONE)
 8003a1e:	2e00      	cmp	r6, #0
 8003a20:	d146      	bne.n	8003ab0 <HAL_CAN_IRQHandler+0x168>
#else
    /* Call weak (surcharged) callback */
    HAL_CAN_ErrorCallback(hcan);
#endif /* USE_HAL_CAN_REGISTER_CALLBACKS */
  }
}
 8003a22:	e8bd 8ff8 	ldmia.w	sp!, {r3, r4, r5, r6, r7, r8, r9, sl, fp, pc}
      if (((interrupts & CAN_IT_ERROR_WARNING) != 0U) &&
 8003a26:	05e0      	lsls	r0, r4, #23
 8003a28:	d504      	bpl.n	8003a34 <HAL_CAN_IRQHandler+0xec>
 8003a2a:	f019 0f01 	tst.w	r9, #1
        errorcode |= HAL_CAN_ERROR_EWG;
 8003a2e:	bf18      	it	ne
 8003a30:	f046 0601 	orrne.w	r6, r6, #1
      if (((interrupts & CAN_IT_ERROR_PASSIVE) != 0U) &&
 8003a34:	05a1      	lsls	r1, r4, #22
 8003a36:	d504      	bpl.n	8003a42 <HAL_CAN_IRQHandler+0xfa>
 8003a38:	f019 0f02 	tst.w	r9, #2
        errorcode |= HAL_CAN_ERROR_EPV;
 8003a3c:	bf18      	it	ne
 8003a3e:	f046 0602 	orrne.w	r6, r6, #2
      if (((interrupts & CAN_IT_BUSOFF) != 0U) &&
 8003a42:	0562      	lsls	r2, r4, #21
 8003a44:	d504      	bpl.n	8003a50 <HAL_CAN_IRQHandler+0x108>
 8003a46:	f019 0f04 	tst.w	r9, #4
        errorcode |= HAL_CAN_ERROR_BOF;
 8003a4a:	bf18      	it	ne
 8003a4c:	f046 0604 	orrne.w	r6, r6, #4
      if (((interrupts & CAN_IT_LAST_ERROR_CODE) != 0U) &&
 8003a50:	0523      	lsls	r3, r4, #20
 8003a52:	d5e1      	bpl.n	8003a18 <HAL_CAN_IRQHandler+0xd0>
 8003a54:	f019 0970 	ands.w	r9, r9, #112	; 0x70
 8003a58:	d0de      	beq.n	8003a18 <HAL_CAN_IRQHandler+0xd0>
        switch (esrflags & CAN_ESR_LEC)
 8003a5a:	f1b9 0f40 	cmp.w	r9, #64	; 0x40
 8003a5e:	f000 809a 	beq.w	8003b96 <HAL_CAN_IRQHandler+0x24e>
 8003a62:	d861      	bhi.n	8003b28 <HAL_CAN_IRQHandler+0x1e0>
 8003a64:	f1b9 0f20 	cmp.w	r9, #32
 8003a68:	f000 8083 	beq.w	8003b72 <HAL_CAN_IRQHandler+0x22a>
 8003a6c:	f1b9 0f30 	cmp.w	r9, #48	; 0x30
 8003a70:	d168      	bne.n	8003b44 <HAL_CAN_IRQHandler+0x1fc>
            errorcode |= HAL_CAN_ERROR_ACK;
 8003a72:	f046 0620 	orr.w	r6, r6, #32
            break;
 8003a76:	e05f      	b.n	8003b38 <HAL_CAN_IRQHandler+0x1f0>
      __HAL_CAN_CLEAR_FLAG(hcan, CAN_FLAG_FOV1);
 8003a78:	682b      	ldr	r3, [r5, #0]
 8003a7a:	2210      	movs	r2, #16
      errorcode |= HAL_CAN_ERROR_RX_FOV1;
 8003a7c:	f446 6680 	orr.w	r6, r6, #1024	; 0x400
      __HAL_CAN_CLEAR_FLAG(hcan, CAN_FLAG_FOV1);
 8003a80:	611a      	str	r2, [r3, #16]
 8003a82:	e7af      	b.n	80039e4 <HAL_CAN_IRQHandler+0x9c>
      __HAL_CAN_CLEAR_FLAG(hcan, CAN_FLAG_FOV0);
 8003a84:	682b      	ldr	r3, [r5, #0]
 8003a86:	2210      	movs	r2, #16
      errorcode |= HAL_CAN_ERROR_RX_FOV0;
 8003a88:	f446 7600 	orr.w	r6, r6, #512	; 0x200
      __HAL_CAN_CLEAR_FLAG(hcan, CAN_FLAG_FOV0);
 8003a8c:	60da      	str	r2, [r3, #12]
 8003a8e:	e797      	b.n	80039c0 <HAL_CAN_IRQHandler+0x78>
      __HAL_CAN_CLEAR_FLAG(hcan, CAN_FLAG_RQCP0);
 8003a90:	2201      	movs	r2, #1
 8003a92:	609a      	str	r2, [r3, #8]
      if ((tsrflags & CAN_TSR_TXOK0) != 0U)
 8003a94:	07bb      	lsls	r3, r7, #30
 8003a96:	d43b      	bmi.n	8003b10 <HAL_CAN_IRQHandler+0x1c8>
        if ((tsrflags & CAN_TSR_ALST0) != 0U)
 8003a98:	077e      	lsls	r6, r7, #29
 8003a9a:	d460      	bmi.n	8003b5e <HAL_CAN_IRQHandler+0x216>
        else if ((tsrflags & CAN_TSR_TERR0) != 0U)
 8003a9c:	f017 0608 	ands.w	r6, r7, #8
 8003aa0:	d06e      	beq.n	8003b80 <HAL_CAN_IRQHandler+0x238>
 8003aa2:	f44f 5240 	mov.w	r2, #12288	; 0x3000
 8003aa6:	f44f 41a0 	mov.w	r1, #20480	; 0x5000
          errorcode |= HAL_CAN_ERROR_TX_TERR0;
 8003aaa:	f44f 5680 	mov.w	r6, #4096	; 0x1000
 8003aae:	e764      	b.n	800397a <HAL_CAN_IRQHandler+0x32>
    hcan->ErrorCode |= errorcode;
 8003ab0:	6a6b      	ldr	r3, [r5, #36]	; 0x24
 8003ab2:	431e      	orrs	r6, r3
    HAL_CAN_ErrorCallback(hcan);
 8003ab4:	4628      	mov	r0, r5
    hcan->ErrorCode |= errorcode;
 8003ab6:	626e      	str	r6, [r5, #36]	; 0x24
    HAL_CAN_ErrorCallback(hcan);
 8003ab8:	f7ff ff44 	bl	8003944 <HAL_CAN_ErrorCallback>
}
 8003abc:	e8bd 8ff8 	ldmia.w	sp!, {r3, r4, r5, r6, r7, r8, r9, sl, fp, pc}
      HAL_CAN_RxFifo1MsgPendingCallback(hcan);
 8003ac0:	4628      	mov	r0, r5
 8003ac2:	f7ff ff37 	bl	8003934 <HAL_CAN_RxFifo1MsgPendingCallback>
 8003ac6:	e798      	b.n	80039fa <HAL_CAN_IRQHandler+0xb2>
      __HAL_CAN_CLEAR_FLAG(hcan, CAN_FLAG_SLAKI);
 8003ac8:	682b      	ldr	r3, [r5, #0]
 8003aca:	2210      	movs	r2, #16
 8003acc:	605a      	str	r2, [r3, #4]
      HAL_CAN_SleepCallback(hcan);
 8003ace:	4628      	mov	r0, r5
 8003ad0:	f7ff ff34 	bl	800393c <HAL_CAN_SleepCallback>
 8003ad4:	e796      	b.n	8003a04 <HAL_CAN_IRQHandler+0xbc>
      __HAL_CAN_CLEAR_FLAG(hcan, CAN_FLAG_FF1);
 8003ad6:	682b      	ldr	r3, [r5, #0]
 8003ad8:	2208      	movs	r2, #8
 8003ada:	611a      	str	r2, [r3, #16]
      HAL_CAN_RxFifo1FullCallback(hcan);
 8003adc:	4628      	mov	r0, r5
 8003ade:	f7ff ff2b 	bl	8003938 <HAL_CAN_RxFifo1FullCallback>
 8003ae2:	e784      	b.n	80039ee <HAL_CAN_IRQHandler+0xa6>
      __HAL_CAN_CLEAR_FLAG(hcan, CAN_FLAG_FF0);
 8003ae4:	682b      	ldr	r3, [r5, #0]
 8003ae6:	2208      	movs	r2, #8
 8003ae8:	60da      	str	r2, [r3, #12]
      HAL_CAN_RxFifo0FullCallback(hcan);
 8003aea:	4628      	mov	r0, r5
 8003aec:	f7ff ff20 	bl	8003930 <HAL_CAN_RxFifo0FullCallback>
 8003af0:	e76c      	b.n	80039cc <HAL_CAN_IRQHandler+0x84>
      HAL_CAN_RxFifo0MsgPendingCallback(hcan);
 8003af2:	4628      	mov	r0, r5
 8003af4:	f7fd fce8 	bl	80014c8 <HAL_CAN_RxFifo0MsgPendingCallback>
 8003af8:	e76f      	b.n	80039da <HAL_CAN_IRQHandler+0x92>
      __HAL_CAN_CLEAR_FLAG(hcan, CAN_FLAG_WKU);
 8003afa:	682b      	ldr	r3, [r5, #0]
 8003afc:	2208      	movs	r2, #8
 8003afe:	605a      	str	r2, [r3, #4]
      HAL_CAN_WakeUpFromRxMsgCallback(hcan);
 8003b00:	4628      	mov	r0, r5
 8003b02:	f7ff ff1d 	bl	8003940 <HAL_CAN_WakeUpFromRxMsgCallback>
 8003b06:	e782      	b.n	8003a0e <HAL_CAN_IRQHandler+0xc6>
        HAL_CAN_TxMailbox1CompleteCallback(hcan);
 8003b08:	4628      	mov	r0, r5
 8003b0a:	f7ff ff07 	bl	800391c <HAL_CAN_TxMailbox1CompleteCallback>
 8003b0e:	e744      	b.n	800399a <HAL_CAN_IRQHandler+0x52>
        HAL_CAN_TxMailbox0CompleteCallback(hcan);
 8003b10:	f7ff ff02 	bl	8003918 <HAL_CAN_TxMailbox0CompleteCallback>
  uint32_t errorcode = HAL_CAN_ERROR_NONE;
 8003b14:	2600      	movs	r6, #0
 8003b16:	f44f 5200 	mov.w	r2, #8192	; 0x2000
 8003b1a:	f44f 4180 	mov.w	r1, #16384	; 0x4000
 8003b1e:	e72c      	b.n	800397a <HAL_CAN_IRQHandler+0x32>
        HAL_CAN_TxMailbox2CompleteCallback(hcan);
 8003b20:	4628      	mov	r0, r5
 8003b22:	f7ff fefd 	bl	8003920 <HAL_CAN_TxMailbox2CompleteCallback>
 8003b26:	e746      	b.n	80039b6 <HAL_CAN_IRQHandler+0x6e>
        switch (esrflags & CAN_ESR_LEC)
 8003b28:	f1b9 0f50 	cmp.w	r9, #80	; 0x50
 8003b2c:	d01e      	beq.n	8003b6c <HAL_CAN_IRQHandler+0x224>
 8003b2e:	f1b9 0f60 	cmp.w	r9, #96	; 0x60
            errorcode |= HAL_CAN_ERROR_CRC;
 8003b32:	bf08      	it	eq
 8003b34:	f446 7680 	orreq.w	r6, r6, #256	; 0x100
        CLEAR_BIT(hcan->Instance->ESR, CAN_ESR_LEC);
 8003b38:	682b      	ldr	r3, [r5, #0]
 8003b3a:	699a      	ldr	r2, [r3, #24]
 8003b3c:	f022 0270 	bic.w	r2, r2, #112	; 0x70
 8003b40:	619a      	str	r2, [r3, #24]
 8003b42:	e76a      	b.n	8003a1a <HAL_CAN_IRQHandler+0xd2>
        switch (esrflags & CAN_ESR_LEC)
 8003b44:	f1b9 0f10 	cmp.w	r9, #16
 8003b48:	d1f6      	bne.n	8003b38 <HAL_CAN_IRQHandler+0x1f0>
            errorcode |= HAL_CAN_ERROR_STF;
 8003b4a:	f046 0608 	orr.w	r6, r6, #8
            break;
 8003b4e:	e7f3      	b.n	8003b38 <HAL_CAN_IRQHandler+0x1f0>
        else if ((tsrflags & CAN_TSR_TERR2) != 0U)
 8003b50:	033b      	lsls	r3, r7, #12
 8003b52:	d51c      	bpl.n	8003b8e <HAL_CAN_IRQHandler+0x246>
          errorcode |= HAL_CAN_ERROR_TX_TERR2;
 8003b54:	f446 3680 	orr.w	r6, r6, #65536	; 0x10000
 8003b58:	e72d      	b.n	80039b6 <HAL_CAN_IRQHandler+0x6e>
          errorcode |= HAL_CAN_ERROR_TX_ALST1;
 8003b5a:	4616      	mov	r6, r2
 8003b5c:	e71d      	b.n	800399a <HAL_CAN_IRQHandler+0x52>
 8003b5e:	f44f 5220 	mov.w	r2, #10240	; 0x2800
 8003b62:	f44f 4190 	mov.w	r1, #18432	; 0x4800
          errorcode |= HAL_CAN_ERROR_TX_ALST0;
 8003b66:	f44f 6600 	mov.w	r6, #2048	; 0x800
 8003b6a:	e706      	b.n	800397a <HAL_CAN_IRQHandler+0x32>
            errorcode |= HAL_CAN_ERROR_BD;
 8003b6c:	f046 0680 	orr.w	r6, r6, #128	; 0x80
            break;
 8003b70:	e7e2      	b.n	8003b38 <HAL_CAN_IRQHandler+0x1f0>
            errorcode |= HAL_CAN_ERROR_FOR;
 8003b72:	f046 0610 	orr.w	r6, r6, #16
            break;
 8003b76:	e7df      	b.n	8003b38 <HAL_CAN_IRQHandler+0x1f0>
          HAL_CAN_TxMailbox1AbortCallback(hcan);
 8003b78:	4628      	mov	r0, r5
 8003b7a:	f7ff fed5 	bl	8003928 <HAL_CAN_TxMailbox1AbortCallback>
 8003b7e:	e70c      	b.n	800399a <HAL_CAN_IRQHandler+0x52>
          HAL_CAN_TxMailbox0AbortCallback(hcan);
 8003b80:	f7ff fed0 	bl	8003924 <HAL_CAN_TxMailbox0AbortCallback>
 8003b84:	f44f 5200 	mov.w	r2, #8192	; 0x2000
 8003b88:	f44f 4180 	mov.w	r1, #16384	; 0x4000
 8003b8c:	e6f5      	b.n	800397a <HAL_CAN_IRQHandler+0x32>
          HAL_CAN_TxMailbox2AbortCallback(hcan);
 8003b8e:	4628      	mov	r0, r5
 8003b90:	f7ff fecc 	bl	800392c <HAL_CAN_TxMailbox2AbortCallback>
 8003b94:	e70f      	b.n	80039b6 <HAL_CAN_IRQHandler+0x6e>
            errorcode |= HAL_CAN_ERROR_BR;
 8003b96:	f046 0640 	orr.w	r6, r6, #64	; 0x40
            break;
 8003b9a:	e7cd      	b.n	8003b38 <HAL_CAN_IRQHandler+0x1f0>

08003b9c <HAL_NVIC_SetPriorityGrouping>:
__STATIC_INLINE void __NVIC_SetPriorityGrouping(uint32_t PriorityGroup)
{
  uint32_t reg_value;
  uint32_t PriorityGroupTmp = (PriorityGroup & (uint32_t)0x07UL);             /* only values 0..7 are used          */

  reg_value  =  SCB->AIRCR;                                                   /* read old register configuration    */
 8003b9c:	4907      	ldr	r1, [pc, #28]	; (8003bbc <HAL_NVIC_SetPriorityGrouping+0x20>)
 8003b9e:	68ca      	ldr	r2, [r1, #12]
  reg_value &= ~((uint32_t)(SCB_AIRCR_VECTKEY_Msk | SCB_AIRCR_PRIGROUP_Msk)); /* clear bits to change               */
  reg_value  =  (reg_value                                   |
                ((uint32_t)0x5FAUL << SCB_AIRCR_VECTKEY_Pos) |
                (PriorityGroupTmp << SCB_AIRCR_PRIGROUP_Pos)  );              /* Insert write key and priority group */
 8003ba0:	0203      	lsls	r3, r0, #8
  reg_value &= ~((uint32_t)(SCB_AIRCR_VECTKEY_Msk | SCB_AIRCR_PRIGROUP_Msk)); /* clear bits to change               */
 8003ba2:	f64f 00ff 	movw	r0, #63743	; 0xf8ff
                (PriorityGroupTmp << SCB_AIRCR_PRIGROUP_Pos)  );              /* Insert write key and priority group */
 8003ba6:	f403 63e0 	and.w	r3, r3, #1792	; 0x700
  reg_value &= ~((uint32_t)(SCB_AIRCR_VECTKEY_Msk | SCB_AIRCR_PRIGROUP_Msk)); /* clear bits to change               */
 8003baa:	4002      	ands	r2, r0
                ((uint32_t)0x5FAUL << SCB_AIRCR_VECTKEY_Pos) |
 8003bac:	4313      	orrs	r3, r2
  reg_value  =  (reg_value                                   |
 8003bae:	f043 63bf 	orr.w	r3, r3, #100139008	; 0x5f80000
 8003bb2:	f443 3300 	orr.w	r3, r3, #131072	; 0x20000
  SCB->AIRCR =  reg_value;
 8003bb6:	60cb      	str	r3, [r1, #12]
  /* Check the parameters */
  assert_param(IS_NVIC_PRIORITY_GROUP(PriorityGroup));

  /* Set the PRIGROUP[10:8] bits according to the PriorityGroup parameter value */
  NVIC_SetPriorityGrouping(PriorityGroup);
}
 8003bb8:	4770      	bx	lr
 8003bba:	bf00      	nop
 8003bbc:	e000ed00 	.word	0xe000ed00

08003bc0 <HAL_NVIC_SetPriority>:
  \details Reads the priority grouping field from the NVIC Interrupt Controller.
  \return                Priority grouping field (SCB->AIRCR [10:8] PRIGROUP field).
 */
__STATIC_INLINE uint32_t __NVIC_GetPriorityGrouping(void)
{
  return ((uint32_t)((SCB->AIRCR & SCB_AIRCR_PRIGROUP_Msk) >> SCB_AIRCR_PRIGROUP_Pos));
 8003bc0:	4b1c      	ldr	r3, [pc, #112]	; (8003c34 <HAL_NVIC_SetPriority+0x74>)
 8003bc2:	68db      	ldr	r3, [r3, #12]
 8003bc4:	f3c3 2302 	ubfx	r3, r3, #8, #3
  *         This parameter can be a value between 0 and 15 as described in the table CORTEX_NVIC_Priority_Table
  *         A lower priority value indicates a higher priority.
  * @retval None
  */
void HAL_NVIC_SetPriority(IRQn_Type IRQn, uint32_t PreemptPriority, uint32_t SubPriority)
{
 8003bc8:	b500      	push	{lr}
{
  uint32_t PriorityGroupTmp = (PriorityGroup & (uint32_t)0x07UL);   /* only values 0..7 are used          */
  uint32_t PreemptPriorityBits;
  uint32_t SubPriorityBits;

  PreemptPriorityBits = ((7UL - PriorityGroupTmp) > (uint32_t)(__NVIC_PRIO_BITS)) ? (uint32_t)(__NVIC_PRIO_BITS) : (uint32_t)(7UL - PriorityGroupTmp);
 8003bca:	f1c3 0e07 	rsb	lr, r3, #7
 8003bce:	f1be 0f04 	cmp.w	lr, #4
  SubPriorityBits     = ((PriorityGroupTmp + (uint32_t)(__NVIC_PRIO_BITS)) < (uint32_t)7UL) ? (uint32_t)0UL : (uint32_t)((PriorityGroupTmp - 7UL) + (uint32_t)(__NVIC_PRIO_BITS));
 8003bd2:	f103 0c04 	add.w	ip, r3, #4
  PreemptPriorityBits = ((7UL - PriorityGroupTmp) > (uint32_t)(__NVIC_PRIO_BITS)) ? (uint32_t)(__NVIC_PRIO_BITS) : (uint32_t)(7UL - PriorityGroupTmp);
 8003bd6:	bf28      	it	cs
 8003bd8:	f04f 0e04 	movcs.w	lr, #4
  SubPriorityBits     = ((PriorityGroupTmp + (uint32_t)(__NVIC_PRIO_BITS)) < (uint32_t)7UL) ? (uint32_t)0UL : (uint32_t)((PriorityGroupTmp - 7UL) + (uint32_t)(__NVIC_PRIO_BITS));
 8003bdc:	f1bc 0f06 	cmp.w	ip, #6
 8003be0:	d91b      	bls.n	8003c1a <HAL_NVIC_SetPriority+0x5a>
 8003be2:	3b03      	subs	r3, #3

  return (
           ((PreemptPriority & (uint32_t)((1UL << (PreemptPriorityBits)) - 1UL)) << SubPriorityBits) |
           ((SubPriority     & (uint32_t)((1UL << (SubPriorityBits    )) - 1UL)))
 8003be4:	f04f 3cff 	mov.w	ip, #4294967295
 8003be8:	fa0c fc03 	lsl.w	ip, ip, r3
 8003bec:	ea22 020c 	bic.w	r2, r2, ip
           ((PreemptPriority & (uint32_t)((1UL << (PreemptPriorityBits)) - 1UL)) << SubPriorityBits) |
 8003bf0:	f04f 3cff 	mov.w	ip, #4294967295
 8003bf4:	fa0c fc0e 	lsl.w	ip, ip, lr
 8003bf8:	ea21 010c 	bic.w	r1, r1, ip
 8003bfc:	4099      	lsls	r1, r3
  if ((int32_t)(IRQn) >= 0)
 8003bfe:	2800      	cmp	r0, #0
           ((PreemptPriority & (uint32_t)((1UL << (PreemptPriorityBits)) - 1UL)) << SubPriorityBits) |
 8003c00:	ea41 0102 	orr.w	r1, r1, r2
  if ((int32_t)(IRQn) >= 0)
 8003c04:	db0c      	blt.n	8003c20 <HAL_NVIC_SetPriority+0x60>
    NVIC->IP[((uint32_t)IRQn)]               = (uint8_t)((priority << (8U - __NVIC_PRIO_BITS)) & (uint32_t)0xFFUL);
 8003c06:	f100 4060 	add.w	r0, r0, #3758096384	; 0xe0000000
 8003c0a:	0109      	lsls	r1, r1, #4
 8003c0c:	f500 4061 	add.w	r0, r0, #57600	; 0xe100
 8003c10:	b2c9      	uxtb	r1, r1
 8003c12:	f880 1300 	strb.w	r1, [r0, #768]	; 0x300
  assert_param(IS_NVIC_PREEMPTION_PRIORITY(PreemptPriority));
  
  prioritygroup = NVIC_GetPriorityGrouping();
  
  NVIC_SetPriority(IRQn, NVIC_EncodePriority(prioritygroup, PreemptPriority, SubPriority));
}
 8003c16:	f85d fb04 	ldr.w	pc, [sp], #4
 8003c1a:	2200      	movs	r2, #0
  SubPriorityBits     = ((PriorityGroupTmp + (uint32_t)(__NVIC_PRIO_BITS)) < (uint32_t)7UL) ? (uint32_t)0UL : (uint32_t)((PriorityGroupTmp - 7UL) + (uint32_t)(__NVIC_PRIO_BITS));
 8003c1c:	4613      	mov	r3, r2
 8003c1e:	e7e7      	b.n	8003bf0 <HAL_NVIC_SetPriority+0x30>
    SCB->SHP[(((uint32_t)IRQn) & 0xFUL)-4UL] = (uint8_t)((priority << (8U - __NVIC_PRIO_BITS)) & (uint32_t)0xFFUL);
 8003c20:	4b05      	ldr	r3, [pc, #20]	; (8003c38 <HAL_NVIC_SetPriority+0x78>)
 8003c22:	f000 000f 	and.w	r0, r0, #15
 8003c26:	0109      	lsls	r1, r1, #4
 8003c28:	4403      	add	r3, r0
 8003c2a:	b2c9      	uxtb	r1, r1
 8003c2c:	7619      	strb	r1, [r3, #24]
 8003c2e:	f85d fb04 	ldr.w	pc, [sp], #4
 8003c32:	bf00      	nop
 8003c34:	e000ed00 	.word	0xe000ed00
 8003c38:	e000ecfc 	.word	0xe000ecfc

08003c3c <HAL_NVIC_EnableIRQ>:
  if ((int32_t)(IRQn) >= 0)
 8003c3c:	2800      	cmp	r0, #0
 8003c3e:	db08      	blt.n	8003c52 <HAL_NVIC_EnableIRQ+0x16>
    NVIC->ISER[(((uint32_t)IRQn) >> 5UL)] = (uint32_t)(1UL << (((uint32_t)IRQn) & 0x1FUL));
 8003c40:	0941      	lsrs	r1, r0, #5
 8003c42:	4a04      	ldr	r2, [pc, #16]	; (8003c54 <HAL_NVIC_EnableIRQ+0x18>)
 8003c44:	f000 001f 	and.w	r0, r0, #31
 8003c48:	2301      	movs	r3, #1
 8003c4a:	fa03 f000 	lsl.w	r0, r3, r0
 8003c4e:	f842 0021 	str.w	r0, [r2, r1, lsl #2]
  /* Check the parameters */
  assert_param(IS_NVIC_DEVICE_IRQ(IRQn));
  
  /* Enable interrupt */
  NVIC_EnableIRQ(IRQn);
}
 8003c52:	4770      	bx	lr
 8003c54:	e000e100 	.word	0xe000e100

08003c58 <HAL_SYSTICK_Config>:
           function <b>SysTick_Config</b> is not included. In this case, the file <b><i>device</i>.h</b>
           must contain a vendor-specific implementation of this function.
 */
__STATIC_INLINE uint32_t SysTick_Config(uint32_t ticks)
{
  if ((ticks - 1UL) > SysTick_LOAD_RELOAD_Msk)
 8003c58:	3801      	subs	r0, #1
 8003c5a:	f1b0 7f80 	cmp.w	r0, #16777216	; 0x1000000
 8003c5e:	d210      	bcs.n	8003c82 <HAL_SYSTICK_Config+0x2a>
  * @param  TicksNumb Specifies the ticks Number of ticks between two interrupts.
  * @retval status:  - 0  Function succeeded.
  *                  - 1  Function failed.
  */
uint32_t HAL_SYSTICK_Config(uint32_t TicksNumb)
{
 8003c60:	b410      	push	{r4}
  {
    return (1UL);                                                   /* Reload value impossible */
  }

  SysTick->LOAD  = (uint32_t)(ticks - 1UL);                         /* set reload register */
 8003c62:	f04f 23e0 	mov.w	r3, #3758153728	; 0xe000e000
    SCB->SHP[(((uint32_t)IRQn) & 0xFUL)-4UL] = (uint8_t)((priority << (8U - __NVIC_PRIO_BITS)) & (uint32_t)0xFFUL);
 8003c66:	4c08      	ldr	r4, [pc, #32]	; (8003c88 <HAL_SYSTICK_Config+0x30>)
  SysTick->LOAD  = (uint32_t)(ticks - 1UL);                         /* set reload register */
 8003c68:	6158      	str	r0, [r3, #20]
    SCB->SHP[(((uint32_t)IRQn) & 0xFUL)-4UL] = (uint8_t)((priority << (8U - __NVIC_PRIO_BITS)) & (uint32_t)0xFFUL);
 8003c6a:	f04f 0cf0 	mov.w	ip, #240	; 0xf0
 8003c6e:	f884 c023 	strb.w	ip, [r4, #35]	; 0x23
  NVIC_SetPriority (SysTick_IRQn, (1UL << __NVIC_PRIO_BITS) - 1UL); /* set Priority for Systick Interrupt */
  SysTick->VAL   = 0UL;                                             /* Load the SysTick Counter Value */
 8003c72:	2200      	movs	r2, #0
  SysTick->CTRL  = SysTick_CTRL_CLKSOURCE_Msk |
 8003c74:	2107      	movs	r1, #7
                   SysTick_CTRL_TICKINT_Msk   |
                   SysTick_CTRL_ENABLE_Msk;                         /* Enable SysTick IRQ and SysTick Timer */
  return (0UL);                                                     /* Function successful */
 8003c76:	4610      	mov	r0, r2
  SysTick->VAL   = 0UL;                                             /* Load the SysTick Counter Value */
 8003c78:	619a      	str	r2, [r3, #24]
   return SysTick_Config(TicksNumb);
}
 8003c7a:	f85d 4b04 	ldr.w	r4, [sp], #4
  SysTick->CTRL  = SysTick_CTRL_CLKSOURCE_Msk |
 8003c7e:	6119      	str	r1, [r3, #16]
 8003c80:	4770      	bx	lr
    return (1UL);                                                   /* Reload value impossible */
 8003c82:	2001      	movs	r0, #1
 8003c84:	4770      	bx	lr
 8003c86:	bf00      	nop
 8003c88:	e000ed00 	.word	0xe000ed00

08003c8c <HAL_DMA_Init>:
HAL_StatusTypeDef HAL_DMA_Init(DMA_HandleTypeDef *hdma)
{ 
  uint32_t tmp = 0U;
  
  /* Check the DMA handle allocation */
  if(NULL == hdma)
 8003c8c:	2800      	cmp	r0, #0
 8003c8e:	d035      	beq.n	8003cfc <HAL_DMA_Init+0x70>
  tmp &= ((uint32_t)~(DMA_CCR_PL    | DMA_CCR_MSIZE  | DMA_CCR_PSIZE  | \
                      DMA_CCR_MINC  | DMA_CCR_PINC   | DMA_CCR_CIRC   | \
                      DMA_CCR_DIR));
  
  /* Prepare the DMA Channel configuration */
  tmp |=  hdma->Init.Direction        |
 8003c90:	e9d0 3201 	ldrd	r3, r2, [r0, #4]
{ 
 8003c94:	b410      	push	{r4}
          hdma->Init.PeriphInc           | hdma->Init.MemInc           |
 8003c96:	68c4      	ldr	r4, [r0, #12]
  tmp = hdma->Instance->CCR;
 8003c98:	6801      	ldr	r1, [r0, #0]
  tmp |=  hdma->Init.Direction        |
 8003c9a:	4313      	orrs	r3, r2
          hdma->Init.PeriphInc           | hdma->Init.MemInc           |
 8003c9c:	6902      	ldr	r2, [r0, #16]
 8003c9e:	4323      	orrs	r3, r4
 8003ca0:	4313      	orrs	r3, r2
          hdma->Init.PeriphDataAlignment | hdma->Init.MemDataAlignment |
 8003ca2:	e9d0 4205 	ldrd	r4, r2, [r0, #20]
 8003ca6:	4323      	orrs	r3, r4
 8003ca8:	4313      	orrs	r3, r2
          hdma->Init.Mode                | hdma->Init.Priority;
 8003caa:	69c2      	ldr	r2, [r0, #28]
  */
static void DMA_CalcBaseAndBitshift(DMA_HandleTypeDef *hdma)
{
#if defined (DMA2)
  /* calculation of the channel index */
  if ((uint32_t)(hdma->Instance) < (uint32_t)(DMA2_Channel1))
 8003cac:	4c14      	ldr	r4, [pc, #80]	; (8003d00 <HAL_DMA_Init+0x74>)
          hdma->Init.Mode                | hdma->Init.Priority;
 8003cae:	4313      	orrs	r3, r2
  tmp = hdma->Instance->CCR;
 8003cb0:	680a      	ldr	r2, [r1, #0]
  tmp &= ((uint32_t)~(DMA_CCR_PL    | DMA_CCR_MSIZE  | DMA_CCR_PSIZE  | \
 8003cb2:	f422 527f 	bic.w	r2, r2, #16320	; 0x3fc0
 8003cb6:	f022 0230 	bic.w	r2, r2, #48	; 0x30
  tmp |=  hdma->Init.Direction        |
 8003cba:	4313      	orrs	r3, r2
  if ((uint32_t)(hdma->Instance) < (uint32_t)(DMA2_Channel1))
 8003cbc:	42a1      	cmp	r1, r4
  hdma->Instance->CCR = tmp;  
 8003cbe:	600b      	str	r3, [r1, #0]
  if ((uint32_t)(hdma->Instance) < (uint32_t)(DMA2_Channel1))
 8003cc0:	d912      	bls.n	8003ce8 <HAL_DMA_Init+0x5c>
    hdma->DmaBaseAddress = DMA1;
  }
  else 
  {
    /* DMA2 */
    hdma->ChannelIndex = (((uint32_t)hdma->Instance - (uint32_t)DMA2_Channel1) / ((uint32_t)DMA2_Channel2 - (uint32_t)DMA2_Channel1)) << 2U;
 8003cc2:	4b10      	ldr	r3, [pc, #64]	; (8003d04 <HAL_DMA_Init+0x78>)
 8003cc4:	4a10      	ldr	r2, [pc, #64]	; (8003d08 <HAL_DMA_Init+0x7c>)
    hdma->DmaBaseAddress = DMA2;
 8003cc6:	4c11      	ldr	r4, [pc, #68]	; (8003d0c <HAL_DMA_Init+0x80>)
    hdma->ChannelIndex = (((uint32_t)hdma->Instance - (uint32_t)DMA2_Channel1) / ((uint32_t)DMA2_Channel2 - (uint32_t)DMA2_Channel1)) << 2U;
 8003cc8:	440b      	add	r3, r1
 8003cca:	fba2 2303 	umull	r2, r3, r2, r3
 8003cce:	091b      	lsrs	r3, r3, #4
 8003cd0:	009b      	lsls	r3, r3, #2
  hdma->Lock = HAL_UNLOCKED;
 8003cd2:	f44f 7180 	mov.w	r1, #256	; 0x100
  hdma->ErrorCode = HAL_DMA_ERROR_NONE;
 8003cd6:	2200      	movs	r2, #0
  hdma->Lock = HAL_UNLOCKED;
 8003cd8:	8401      	strh	r1, [r0, #32]
 8003cda:	e9c0 430f 	strd	r4, r3, [r0, #60]	; 0x3c
  hdma->ErrorCode = HAL_DMA_ERROR_NONE;
 8003cde:	6382      	str	r2, [r0, #56]	; 0x38
}  
 8003ce0:	f85d 4b04 	ldr.w	r4, [sp], #4
  return HAL_OK;
 8003ce4:	4610      	mov	r0, r2
}  
 8003ce6:	4770      	bx	lr
    hdma->ChannelIndex = (((uint32_t)hdma->Instance - (uint32_t)DMA1_Channel1) / ((uint32_t)DMA1_Channel2 - (uint32_t)DMA1_Channel1)) << 2U;
 8003ce8:	4b09      	ldr	r3, [pc, #36]	; (8003d10 <HAL_DMA_Init+0x84>)
 8003cea:	4a07      	ldr	r2, [pc, #28]	; (8003d08 <HAL_DMA_Init+0x7c>)
 8003cec:	440b      	add	r3, r1
 8003cee:	fba2 2303 	umull	r2, r3, r2, r3
 8003cf2:	091b      	lsrs	r3, r3, #4
    hdma->DmaBaseAddress = DMA1;
 8003cf4:	f2a4 4407 	subw	r4, r4, #1031	; 0x407
    hdma->ChannelIndex = (((uint32_t)hdma->Instance - (uint32_t)DMA1_Channel1) / ((uint32_t)DMA1_Channel2 - (uint32_t)DMA1_Channel1)) << 2U;
 8003cf8:	009b      	lsls	r3, r3, #2
    hdma->DmaBaseAddress = DMA1;
 8003cfa:	e7ea      	b.n	8003cd2 <HAL_DMA_Init+0x46>
    return HAL_ERROR;
 8003cfc:	2001      	movs	r0, #1
}  
 8003cfe:	4770      	bx	lr
 8003d00:	40020407 	.word	0x40020407
 8003d04:	bffdfbf8 	.word	0xbffdfbf8
 8003d08:	cccccccd 	.word	0xcccccccd
 8003d0c:	40020400 	.word	0x40020400
 8003d10:	bffdfff8 	.word	0xbffdfff8

08003d14 <HAL_DMA_Abort>:
  if(hdma->State != HAL_DMA_STATE_BUSY)
 8003d14:	f890 2021 	ldrb.w	r2, [r0, #33]	; 0x21
 8003d18:	2a02      	cmp	r2, #2
{
 8003d1a:	4603      	mov	r3, r0
  if(hdma->State != HAL_DMA_STATE_BUSY)
 8003d1c:	d006      	beq.n	8003d2c <HAL_DMA_Abort+0x18>
    hdma->ErrorCode = HAL_DMA_ERROR_NO_XFER;
 8003d1e:	2104      	movs	r1, #4
    __HAL_UNLOCK(hdma);
 8003d20:	2200      	movs	r2, #0
    hdma->ErrorCode = HAL_DMA_ERROR_NO_XFER;
 8003d22:	6381      	str	r1, [r0, #56]	; 0x38
    __HAL_UNLOCK(hdma);
 8003d24:	f880 2020 	strb.w	r2, [r0, #32]
    return HAL_ERROR;
 8003d28:	2001      	movs	r0, #1
}
 8003d2a:	4770      	bx	lr
     hdma->Instance->CCR &= ~(DMA_IT_TC | DMA_IT_HT | DMA_IT_TE);
 8003d2c:	6802      	ldr	r2, [r0, #0]
 8003d2e:	6811      	ldr	r1, [r2, #0]
 8003d30:	f021 010e 	bic.w	r1, r1, #14
{
 8003d34:	b410      	push	{r4}
    hdma->DmaBaseAddress->IFCR = (DMA_FLAG_GL1 << hdma->ChannelIndex);
 8003d36:	6c04      	ldr	r4, [r0, #64]	; 0x40
 8003d38:	6bc0      	ldr	r0, [r0, #60]	; 0x3c
     hdma->Instance->CCR &= ~(DMA_IT_TC | DMA_IT_HT | DMA_IT_TE);
 8003d3a:	6011      	str	r1, [r2, #0]
    hdma->Instance->CCR &= ~DMA_CCR_EN;
 8003d3c:	6811      	ldr	r1, [r2, #0]
 8003d3e:	f021 0101 	bic.w	r1, r1, #1
 8003d42:	6011      	str	r1, [r2, #0]
    hdma->DmaBaseAddress->IFCR = (DMA_FLAG_GL1 << hdma->ChannelIndex);
 8003d44:	2201      	movs	r2, #1
 8003d46:	40a2      	lsls	r2, r4
  __HAL_UNLOCK(hdma);
 8003d48:	f44f 7180 	mov.w	r1, #256	; 0x100
    hdma->DmaBaseAddress->IFCR = (DMA_FLAG_GL1 << hdma->ChannelIndex);
 8003d4c:	6042      	str	r2, [r0, #4]
  __HAL_UNLOCK(hdma);
 8003d4e:	8419      	strh	r1, [r3, #32]
  return HAL_OK;
 8003d50:	2000      	movs	r0, #0
}
 8003d52:	f85d 4b04 	ldr.w	r4, [sp], #4
 8003d56:	4770      	bx	lr

08003d58 <HAL_DMA_Abort_IT>:
  if(HAL_DMA_STATE_BUSY != hdma->State)
 8003d58:	f890 2021 	ldrb.w	r2, [r0, #33]	; 0x21
 8003d5c:	2a02      	cmp	r2, #2
 8003d5e:	d003      	beq.n	8003d68 <HAL_DMA_Abort_IT+0x10>
    hdma->ErrorCode = HAL_DMA_ERROR_NO_XFER;
 8003d60:	2204      	movs	r2, #4
 8003d62:	6382      	str	r2, [r0, #56]	; 0x38
    status = HAL_ERROR;
 8003d64:	2001      	movs	r0, #1
}
 8003d66:	4770      	bx	lr
    hdma->Instance->CCR &= ~(DMA_IT_TC | DMA_IT_HT | DMA_IT_TE);
 8003d68:	6802      	ldr	r2, [r0, #0]
 8003d6a:	6811      	ldr	r1, [r2, #0]
 8003d6c:	f021 010e 	bic.w	r1, r1, #14
{  
 8003d70:	b510      	push	{r4, lr}
    hdma->DmaBaseAddress->IFCR = DMA_FLAG_GL1 << hdma->ChannelIndex;
 8003d72:	6bc4      	ldr	r4, [r0, #60]	; 0x3c
    hdma->Instance->CCR &= ~(DMA_IT_TC | DMA_IT_HT | DMA_IT_TE);
 8003d74:	6011      	str	r1, [r2, #0]
    hdma->Instance->CCR &= ~DMA_CCR_EN;
 8003d76:	6811      	ldr	r1, [r2, #0]
 8003d78:	f021 0101 	bic.w	r1, r1, #1
 8003d7c:	6011      	str	r1, [r2, #0]
    hdma->DmaBaseAddress->IFCR = DMA_FLAG_GL1 << hdma->ChannelIndex;
 8003d7e:	6c02      	ldr	r2, [r0, #64]	; 0x40
 8003d80:	2101      	movs	r1, #1
 8003d82:	4091      	lsls	r1, r2
    if(hdma->XferAbortCallback != NULL)
 8003d84:	6b42      	ldr	r2, [r0, #52]	; 0x34
    hdma->DmaBaseAddress->IFCR = DMA_FLAG_GL1 << hdma->ChannelIndex;
 8003d86:	6061      	str	r1, [r4, #4]
    __HAL_UNLOCK(hdma);
 8003d88:	f44f 7c80 	mov.w	ip, #256	; 0x100
 8003d8c:	f8a0 c020 	strh.w	ip, [r0, #32]
    if(hdma->XferAbortCallback != NULL)
 8003d90:	b112      	cbz	r2, 8003d98 <HAL_DMA_Abort_IT+0x40>
      hdma->XferAbortCallback(hdma);
 8003d92:	4790      	blx	r2
  HAL_StatusTypeDef status = HAL_OK;
 8003d94:	2000      	movs	r0, #0
}
 8003d96:	bd10      	pop	{r4, pc}
  HAL_StatusTypeDef status = HAL_OK;
 8003d98:	4610      	mov	r0, r2
}
 8003d9a:	bd10      	pop	{r4, pc}

08003d9c <HAL_DMA_IRQHandler>:
{
 8003d9c:	b470      	push	{r4, r5, r6}
	uint32_t flag_it = hdma->DmaBaseAddress->ISR;
 8003d9e:	6bc6      	ldr	r6, [r0, #60]	; 0x3c
  if ((RESET != (flag_it & (DMA_FLAG_HT1 << hdma->ChannelIndex))) && (RESET != (source_it & DMA_IT_HT)))
 8003da0:	6c02      	ldr	r2, [r0, #64]	; 0x40
	uint32_t flag_it = hdma->DmaBaseAddress->ISR;
 8003da2:	6831      	ldr	r1, [r6, #0]
  uint32_t source_it = hdma->Instance->CCR;
 8003da4:	6804      	ldr	r4, [r0, #0]
  if ((RESET != (flag_it & (DMA_FLAG_HT1 << hdma->ChannelIndex))) && (RESET != (source_it & DMA_IT_HT)))
 8003da6:	2304      	movs	r3, #4
 8003da8:	4093      	lsls	r3, r2
 8003daa:	420b      	tst	r3, r1
  uint32_t source_it = hdma->Instance->CCR;
 8003dac:	6825      	ldr	r5, [r4, #0]
  if ((RESET != (flag_it & (DMA_FLAG_HT1 << hdma->ChannelIndex))) && (RESET != (source_it & DMA_IT_HT)))
 8003dae:	d00e      	beq.n	8003dce <HAL_DMA_IRQHandler+0x32>
 8003db0:	f015 0f04 	tst.w	r5, #4
 8003db4:	d00b      	beq.n	8003dce <HAL_DMA_IRQHandler+0x32>
  	if((hdma->Instance->CCR & DMA_CCR_CIRC) == 0U)
 8003db6:	6822      	ldr	r2, [r4, #0]
 8003db8:	0692      	lsls	r2, r2, #26
 8003dba:	d403      	bmi.n	8003dc4 <HAL_DMA_IRQHandler+0x28>
  		hdma->Instance->CCR &= ~DMA_IT_HT;
 8003dbc:	6822      	ldr	r2, [r4, #0]
 8003dbe:	f022 0204 	bic.w	r2, r2, #4
 8003dc2:	6022      	str	r2, [r4, #0]
  	if(hdma->XferHalfCpltCallback != NULL)
 8003dc4:	6ac2      	ldr	r2, [r0, #44]	; 0x2c
  	hdma->DmaBaseAddress->IFCR = DMA_FLAG_HT1 << hdma->ChannelIndex;
 8003dc6:	6073      	str	r3, [r6, #4]
  	if(hdma->XferHalfCpltCallback != NULL)
 8003dc8:	b1ca      	cbz	r2, 8003dfe <HAL_DMA_IRQHandler+0x62>
}  
 8003dca:	bc70      	pop	{r4, r5, r6}
  		hdma->XferCpltCallback(hdma);
 8003dcc:	4710      	bx	r2
  else if ((RESET != (flag_it & (DMA_FLAG_TC1 << hdma->ChannelIndex))) && (RESET != (source_it & DMA_IT_TC)))
 8003dce:	2302      	movs	r3, #2
 8003dd0:	4093      	lsls	r3, r2
 8003dd2:	420b      	tst	r3, r1
 8003dd4:	d015      	beq.n	8003e02 <HAL_DMA_IRQHandler+0x66>
 8003dd6:	f015 0f02 	tst.w	r5, #2
 8003dda:	d012      	beq.n	8003e02 <HAL_DMA_IRQHandler+0x66>
  	if((hdma->Instance->CCR & DMA_CCR_CIRC) == 0U)
 8003ddc:	6822      	ldr	r2, [r4, #0]
 8003dde:	0692      	lsls	r2, r2, #26
 8003de0:	d406      	bmi.n	8003df0 <HAL_DMA_IRQHandler+0x54>
  		hdma->Instance->CCR &= ~(DMA_IT_TC | DMA_IT_TE);
 8003de2:	6822      	ldr	r2, [r4, #0]
 8003de4:	f022 020a 	bic.w	r2, r2, #10
 8003de8:	6022      	str	r2, [r4, #0]
  		hdma->State = HAL_DMA_STATE_READY;
 8003dea:	2201      	movs	r2, #1
 8003dec:	f880 2021 	strb.w	r2, [r0, #33]	; 0x21
  	if(hdma->XferCpltCallback != NULL)
 8003df0:	6a82      	ldr	r2, [r0, #40]	; 0x28
  	hdma->DmaBaseAddress->IFCR = DMA_FLAG_TC1 << hdma->ChannelIndex;
 8003df2:	6073      	str	r3, [r6, #4]
  	__HAL_UNLOCK(hdma);
 8003df4:	2100      	movs	r1, #0
 8003df6:	f880 1020 	strb.w	r1, [r0, #32]
  	if(hdma->XferCpltCallback != NULL)
 8003dfa:	2a00      	cmp	r2, #0
 8003dfc:	d1e5      	bne.n	8003dca <HAL_DMA_IRQHandler+0x2e>
}  
 8003dfe:	bc70      	pop	{r4, r5, r6}
 8003e00:	4770      	bx	lr
  else if (( RESET != (flag_it & (DMA_FLAG_TE1 << hdma->ChannelIndex))) && (RESET != (source_it & DMA_IT_TE)))
 8003e02:	2308      	movs	r3, #8
 8003e04:	4093      	lsls	r3, r2
 8003e06:	420b      	tst	r3, r1
 8003e08:	d0f9      	beq.n	8003dfe <HAL_DMA_IRQHandler+0x62>
 8003e0a:	072b      	lsls	r3, r5, #28
 8003e0c:	d5f7      	bpl.n	8003dfe <HAL_DMA_IRQHandler+0x62>
    hdma->Instance->CCR &= ~(DMA_IT_TC | DMA_IT_HT | DMA_IT_TE);
 8003e0e:	6823      	ldr	r3, [r4, #0]
    if(hdma->XferErrorCallback != NULL)
 8003e10:	6b01      	ldr	r1, [r0, #48]	; 0x30
    hdma->Instance->CCR &= ~(DMA_IT_TC | DMA_IT_HT | DMA_IT_TE);
 8003e12:	f023 030e 	bic.w	r3, r3, #14
 8003e16:	6023      	str	r3, [r4, #0]
    hdma->DmaBaseAddress->IFCR = DMA_FLAG_GL1 << hdma->ChannelIndex;
 8003e18:	2301      	movs	r3, #1
 8003e1a:	fa03 f202 	lsl.w	r2, r3, r2
    __HAL_UNLOCK(hdma); 
 8003e1e:	f44f 7480 	mov.w	r4, #256	; 0x100
    hdma->DmaBaseAddress->IFCR = DMA_FLAG_GL1 << hdma->ChannelIndex;
 8003e22:	6072      	str	r2, [r6, #4]
    __HAL_UNLOCK(hdma); 
 8003e24:	8404      	strh	r4, [r0, #32]
    hdma->ErrorCode = HAL_DMA_ERROR_TE;
 8003e26:	6383      	str	r3, [r0, #56]	; 0x38
    if(hdma->XferErrorCallback != NULL)
 8003e28:	2900      	cmp	r1, #0
 8003e2a:	d0e8      	beq.n	8003dfe <HAL_DMA_IRQHandler+0x62>
}  
 8003e2c:	bc70      	pop	{r4, r5, r6}
    	hdma->XferErrorCallback(hdma);
 8003e2e:	4708      	bx	r1

08003e30 <HAL_GPIO_Init>:
  * @param  GPIO_Init pointer to a GPIO_InitTypeDef structure that contains
  *         the configuration information for the specified GPIO peripheral.
  * @retval None
  */
void HAL_GPIO_Init(GPIO_TypeDef  *GPIOx, GPIO_InitTypeDef *GPIO_Init)
{
 8003e30:	e92d 4ff0 	stmdb	sp!, {r4, r5, r6, r7, r8, r9, sl, fp, lr}
  assert_param(IS_GPIO_ALL_INSTANCE(GPIOx));
  assert_param(IS_GPIO_PIN(GPIO_Init->Pin));
  assert_param(IS_GPIO_MODE(GPIO_Init->Mode));

  /* Configure the port pins */
  while (((GPIO_Init->Pin) >> position) != 0x00u)
 8003e34:	680c      	ldr	r4, [r1, #0]
{
 8003e36:	b085      	sub	sp, #20
  while (((GPIO_Init->Pin) >> position) != 0x00u)
 8003e38:	2c00      	cmp	r4, #0
 8003e3a:	d07e      	beq.n	8003f3a <HAL_GPIO_Init+0x10a>
 8003e3c:	f04f 0c00 	mov.w	ip, #0
      /*--------------------- EXTI Mode Configuration ------------------------*/
      /* Configure the External Interrupt or event for the current IO */
      if((GPIO_Init->Mode & EXTI_MODE) != 0x00u)
      {
        /* Enable SYSCFG Clock */
        __HAL_RCC_SYSCFG_CLK_ENABLE();
 8003e40:	f8df a1bc 	ldr.w	sl, [pc, #444]	; 8004000 <HAL_GPIO_Init+0x1d0>
  uint32_t position = 0x00u;
 8003e44:	4663      	mov	r3, ip
    iocurrent = (GPIO_Init->Pin) & (1uL << position);
 8003e46:	f04f 0b01 	mov.w	fp, #1

        temp = SYSCFG->EXTICR[position >> 2u];
        temp &= ~(0x0FuL << (4u * (position & 0x03u)));
        temp |= (GPIO_GET_INDEX(GPIOx) << (4u * (position & 0x03u)));
 8003e4a:	4689      	mov	r9, r1
    iocurrent = (GPIO_Init->Pin) & (1uL << position);
 8003e4c:	fa0b f503 	lsl.w	r5, fp, r3
    if (iocurrent != 0x00u)
 8003e50:	ea15 0804 	ands.w	r8, r5, r4
 8003e54:	d06b      	beq.n	8003f2e <HAL_GPIO_Init+0xfe>
      if(((GPIO_Init->Mode & GPIO_MODE) == MODE_OUTPUT) || ((GPIO_Init->Mode & GPIO_MODE) == MODE_AF))
 8003e56:	f8d9 7004 	ldr.w	r7, [r9, #4]
 8003e5a:	f007 0203 	and.w	r2, r7, #3
 8003e5e:	1e51      	subs	r1, r2, #1
 8003e60:	2901      	cmp	r1, #1
 8003e62:	d96d      	bls.n	8003f40 <HAL_GPIO_Init+0x110>
      if((GPIO_Init->Mode & GPIO_MODE) != MODE_ANALOG)
 8003e64:	2a03      	cmp	r2, #3
 8003e66:	f040 80ac 	bne.w	8003fc2 <HAL_GPIO_Init+0x192>
        temp &= ~(GPIO_OSPEEDER_OSPEEDR0 << (position * 2u));
 8003e6a:	fa02 f20c 	lsl.w	r2, r2, ip
 8003e6e:	43d1      	mvns	r1, r2
      temp = GPIOx->MODER;
 8003e70:	6805      	ldr	r5, [r0, #0]
      temp &= ~(GPIO_MODER_MODER0 << (position * 2u));
 8003e72:	4029      	ands	r1, r5
      temp |= ((GPIO_Init->Mode & GPIO_MODE) << (position * 2u));
 8003e74:	430a      	orrs	r2, r1
      if((GPIO_Init->Mode & EXTI_MODE) != 0x00u)
 8003e76:	f417 3f40 	tst.w	r7, #196608	; 0x30000
      GPIOx->MODER = temp;
 8003e7a:	6002      	str	r2, [r0, #0]
      if((GPIO_Init->Mode & EXTI_MODE) != 0x00u)
 8003e7c:	d057      	beq.n	8003f2e <HAL_GPIO_Init+0xfe>
        __HAL_RCC_SYSCFG_CLK_ENABLE();
 8003e7e:	f8da 2018 	ldr.w	r2, [sl, #24]
 8003e82:	f042 0201 	orr.w	r2, r2, #1
 8003e86:	f8ca 2018 	str.w	r2, [sl, #24]
 8003e8a:	f8da 2018 	ldr.w	r2, [sl, #24]
 8003e8e:	f002 0201 	and.w	r2, r2, #1
 8003e92:	9203      	str	r2, [sp, #12]
 8003e94:	9a03      	ldr	r2, [sp, #12]
        temp = SYSCFG->EXTICR[position >> 2u];
 8003e96:	f023 0203 	bic.w	r2, r3, #3
 8003e9a:	f102 4280 	add.w	r2, r2, #1073741824	; 0x40000000
 8003e9e:	f502 3280 	add.w	r2, r2, #65536	; 0x10000
        temp &= ~(0x0FuL << (4u * (position & 0x03u)));
 8003ea2:	f003 0103 	and.w	r1, r3, #3
        temp = SYSCFG->EXTICR[position >> 2u];
 8003ea6:	6895      	ldr	r5, [r2, #8]
        temp &= ~(0x0FuL << (4u * (position & 0x03u)));
 8003ea8:	0089      	lsls	r1, r1, #2
 8003eaa:	260f      	movs	r6, #15
 8003eac:	fa06 fe01 	lsl.w	lr, r6, r1
        temp |= (GPIO_GET_INDEX(GPIOx) << (4u * (position & 0x03u)));
 8003eb0:	f1b0 4f90 	cmp.w	r0, #1207959552	; 0x48000000
        temp &= ~(0x0FuL << (4u * (position & 0x03u)));
 8003eb4:	ea25 050e 	bic.w	r5, r5, lr
        temp |= (GPIO_GET_INDEX(GPIOx) << (4u * (position & 0x03u)));
 8003eb8:	d015      	beq.n	8003ee6 <HAL_GPIO_Init+0xb6>
 8003eba:	4e4c      	ldr	r6, [pc, #304]	; (8003fec <HAL_GPIO_Init+0x1bc>)
 8003ebc:	42b0      	cmp	r0, r6
 8003ebe:	f000 808b 	beq.w	8003fd8 <HAL_GPIO_Init+0x1a8>
 8003ec2:	4e4b      	ldr	r6, [pc, #300]	; (8003ff0 <HAL_GPIO_Init+0x1c0>)
 8003ec4:	42b0      	cmp	r0, r6
 8003ec6:	f000 808b 	beq.w	8003fe0 <HAL_GPIO_Init+0x1b0>
 8003eca:	4e4a      	ldr	r6, [pc, #296]	; (8003ff4 <HAL_GPIO_Init+0x1c4>)
 8003ecc:	42b0      	cmp	r0, r6
 8003ece:	d07d      	beq.n	8003fcc <HAL_GPIO_Init+0x19c>
 8003ed0:	4e49      	ldr	r6, [pc, #292]	; (8003ff8 <HAL_GPIO_Init+0x1c8>)
 8003ed2:	42b0      	cmp	r0, r6
 8003ed4:	bf0b      	itete	eq
 8003ed6:	f04f 0e04 	moveq.w	lr, #4
 8003eda:	2605      	movne	r6, #5
 8003edc:	fa0e f101 	lsleq.w	r1, lr, r1
 8003ee0:	fa06 f101 	lslne.w	r1, r6, r1
 8003ee4:	430d      	orrs	r5, r1
        SYSCFG->EXTICR[position >> 2u] = temp;
 8003ee6:	6095      	str	r5, [r2, #8]

        /* Clear EXTI line configuration */
        temp = EXTI->IMR;
 8003ee8:	4a44      	ldr	r2, [pc, #272]	; (8003ffc <HAL_GPIO_Init+0x1cc>)
        temp &= ~(iocurrent);
        if((GPIO_Init->Mode & EXTI_IT) != 0x00u)
        {
          temp |= iocurrent;
        }
        EXTI->IMR = temp;
 8003eea:	4944      	ldr	r1, [pc, #272]	; (8003ffc <HAL_GPIO_Init+0x1cc>)
        temp = EXTI->IMR;
 8003eec:	6812      	ldr	r2, [r2, #0]
        temp &= ~(iocurrent);
 8003eee:	ea6f 0508 	mvn.w	r5, r8
        if((GPIO_Init->Mode & EXTI_IT) != 0x00u)
 8003ef2:	03fe      	lsls	r6, r7, #15
        temp &= ~(iocurrent);
 8003ef4:	bf54      	ite	pl
 8003ef6:	402a      	andpl	r2, r5
          temp |= iocurrent;
 8003ef8:	ea48 0202 	orrmi.w	r2, r8, r2
        EXTI->IMR = temp;
 8003efc:	600a      	str	r2, [r1, #0]

        temp = EXTI->EMR;
 8003efe:	684a      	ldr	r2, [r1, #4]
        temp &= ~(iocurrent);
        if((GPIO_Init->Mode & EXTI_EVT) != 0x00u)
 8003f00:	03b9      	lsls	r1, r7, #14
        {
          temp |= iocurrent;
        }
        EXTI->EMR = temp;
 8003f02:	493e      	ldr	r1, [pc, #248]	; (8003ffc <HAL_GPIO_Init+0x1cc>)
        temp &= ~(iocurrent);
 8003f04:	bf54      	ite	pl
 8003f06:	402a      	andpl	r2, r5
          temp |= iocurrent;
 8003f08:	ea48 0202 	orrmi.w	r2, r8, r2
        EXTI->EMR = temp;
 8003f0c:	604a      	str	r2, [r1, #4]

        /* Clear Rising Falling edge configuration */
        temp = EXTI->RTSR;
 8003f0e:	6889      	ldr	r1, [r1, #8]
        temp &= ~(iocurrent);
        if((GPIO_Init->Mode & TRIGGER_RISING) != 0x00u)
        {
          temp |= iocurrent;
        }
        EXTI->RTSR = temp;
 8003f10:	4a3a      	ldr	r2, [pc, #232]	; (8003ffc <HAL_GPIO_Init+0x1cc>)
        if((GPIO_Init->Mode & TRIGGER_RISING) != 0x00u)
 8003f12:	02fe      	lsls	r6, r7, #11
        temp &= ~(iocurrent);
 8003f14:	bf54      	ite	pl
 8003f16:	4029      	andpl	r1, r5
          temp |= iocurrent;
 8003f18:	ea48 0101 	orrmi.w	r1, r8, r1
        EXTI->RTSR = temp;
 8003f1c:	6091      	str	r1, [r2, #8]

        temp = EXTI->FTSR;
 8003f1e:	68d2      	ldr	r2, [r2, #12]
        temp &= ~(iocurrent);
        if((GPIO_Init->Mode & TRIGGER_FALLING) != 0x00u)
 8003f20:	02b9      	lsls	r1, r7, #10
        {
          temp |= iocurrent;
        }
        EXTI->FTSR = temp;
 8003f22:	4936      	ldr	r1, [pc, #216]	; (8003ffc <HAL_GPIO_Init+0x1cc>)
        temp &= ~(iocurrent);
 8003f24:	bf54      	ite	pl
 8003f26:	402a      	andpl	r2, r5
          temp |= iocurrent;
 8003f28:	ea48 0202 	orrmi.w	r2, r8, r2
        EXTI->FTSR = temp;
 8003f2c:	60ca      	str	r2, [r1, #12]
      }
    }

    position++;
 8003f2e:	3301      	adds	r3, #1
  while (((GPIO_Init->Pin) >> position) != 0x00u)
 8003f30:	fa34 f203 	lsrs.w	r2, r4, r3
 8003f34:	f10c 0c02 	add.w	ip, ip, #2
 8003f38:	d188      	bne.n	8003e4c <HAL_GPIO_Init+0x1c>
  }
}
 8003f3a:	b005      	add	sp, #20
 8003f3c:	e8bd 8ff0 	ldmia.w	sp!, {r4, r5, r6, r7, r8, r9, sl, fp, pc}
        temp = GPIOx->OSPEEDR;
 8003f40:	6881      	ldr	r1, [r0, #8]
        temp |= (GPIO_Init->Speed << (position * 2u));
 8003f42:	f8d9 600c 	ldr.w	r6, [r9, #12]
        temp &= ~(GPIO_OSPEEDER_OSPEEDR0 << (position * 2u));
 8003f46:	f04f 0e03 	mov.w	lr, #3
 8003f4a:	fa0e fe0c 	lsl.w	lr, lr, ip
 8003f4e:	ea21 010e 	bic.w	r1, r1, lr
        temp |= (GPIO_Init->Speed << (position * 2u));
 8003f52:	fa06 f60c 	lsl.w	r6, r6, ip
 8003f56:	4331      	orrs	r1, r6
        GPIOx->OSPEEDR = temp;
 8003f58:	6081      	str	r1, [r0, #8]
        temp &= ~(GPIO_OSPEEDER_OSPEEDR0 << (position * 2u));
 8003f5a:	ea6f 010e 	mvn.w	r1, lr
        temp = GPIOx->OTYPER;
 8003f5e:	f8d0 e004 	ldr.w	lr, [r0, #4]
        temp &= ~(GPIO_OTYPER_OT_0 << position) ;
 8003f62:	ea2e 0e05 	bic.w	lr, lr, r5
        temp |= (((GPIO_Init->Mode & OUTPUT_TYPE) >> OUTPUT_TYPE_Pos) << position);
 8003f66:	f3c7 1500 	ubfx	r5, r7, #4, #1
 8003f6a:	409d      	lsls	r5, r3
 8003f6c:	ea45 050e 	orr.w	r5, r5, lr
        GPIOx->OTYPER = temp;
 8003f70:	6045      	str	r5, [r0, #4]
        temp = GPIOx->PUPDR;
 8003f72:	68c5      	ldr	r5, [r0, #12]
        temp &= ~(GPIO_PUPDR_PUPDR0 << (position * 2u));
 8003f74:	ea05 0e01 	and.w	lr, r5, r1
        temp |= ((GPIO_Init->Pull) << (position * 2u));
 8003f78:	f8d9 5008 	ldr.w	r5, [r9, #8]
 8003f7c:	fa05 f50c 	lsl.w	r5, r5, ip
 8003f80:	ea45 050e 	orr.w	r5, r5, lr
      if((GPIO_Init->Mode & GPIO_MODE) == MODE_AF)
 8003f84:	2a02      	cmp	r2, #2
        GPIOx->PUPDR = temp;
 8003f86:	60c5      	str	r5, [r0, #12]
      if((GPIO_Init->Mode & GPIO_MODE) == MODE_AF)
 8003f88:	fa02 f20c 	lsl.w	r2, r2, ip
 8003f8c:	f47f af70 	bne.w	8003e70 <HAL_GPIO_Init+0x40>
        temp = GPIOx->AFR[position >> 3u];
 8003f90:	08dd      	lsrs	r5, r3, #3
 8003f92:	eb00 0585 	add.w	r5, r0, r5, lsl #2
 8003f96:	9501      	str	r5, [sp, #4]
 8003f98:	6a2e      	ldr	r6, [r5, #32]
        temp |= ((GPIO_Init->Alternate) << ((position & 0x07u) * 4u));
 8003f9a:	f8d9 5010 	ldr.w	r5, [r9, #16]
        temp = GPIOx->AFR[position >> 3u];
 8003f9e:	9600      	str	r6, [sp, #0]
        temp &= ~(0xFu << ((position & 0x07u) * 4u));
 8003fa0:	f003 0e07 	and.w	lr, r3, #7
 8003fa4:	ea4f 0e8e 	mov.w	lr, lr, lsl #2
 8003fa8:	260f      	movs	r6, #15
        temp |= ((GPIO_Init->Alternate) << ((position & 0x07u) * 4u));
 8003faa:	fa05 f50e 	lsl.w	r5, r5, lr
        temp &= ~(0xFu << ((position & 0x07u) * 4u));
 8003fae:	fa06 fe0e 	lsl.w	lr, r6, lr
 8003fb2:	9e00      	ldr	r6, [sp, #0]
 8003fb4:	ea26 0e0e 	bic.w	lr, r6, lr
        GPIOx->AFR[position >> 3u] = temp;
 8003fb8:	9e01      	ldr	r6, [sp, #4]
        temp |= ((GPIO_Init->Alternate) << ((position & 0x07u) * 4u));
 8003fba:	ea45 050e 	orr.w	r5, r5, lr
        GPIOx->AFR[position >> 3u] = temp;
 8003fbe:	6235      	str	r5, [r6, #32]
 8003fc0:	e756      	b.n	8003e70 <HAL_GPIO_Init+0x40>
        temp &= ~(GPIO_OSPEEDER_OSPEEDR0 << (position * 2u));
 8003fc2:	2103      	movs	r1, #3
 8003fc4:	fa01 f10c 	lsl.w	r1, r1, ip
 8003fc8:	43c9      	mvns	r1, r1
 8003fca:	e7d2      	b.n	8003f72 <HAL_GPIO_Init+0x142>
        temp |= (GPIO_GET_INDEX(GPIOx) << (4u * (position & 0x03u)));
 8003fcc:	f04f 0e03 	mov.w	lr, #3
 8003fd0:	fa0e f101 	lsl.w	r1, lr, r1
 8003fd4:	430d      	orrs	r5, r1
 8003fd6:	e786      	b.n	8003ee6 <HAL_GPIO_Init+0xb6>
 8003fd8:	fa0b f101 	lsl.w	r1, fp, r1
 8003fdc:	430d      	orrs	r5, r1
 8003fde:	e782      	b.n	8003ee6 <HAL_GPIO_Init+0xb6>
 8003fe0:	f04f 0e02 	mov.w	lr, #2
 8003fe4:	fa0e f101 	lsl.w	r1, lr, r1
 8003fe8:	430d      	orrs	r5, r1
 8003fea:	e77c      	b.n	8003ee6 <HAL_GPIO_Init+0xb6>
 8003fec:	48000400 	.word	0x48000400
 8003ff0:	48000800 	.word	0x48000800
 8003ff4:	48000c00 	.word	0x48000c00
 8003ff8:	48001000 	.word	0x48001000
 8003ffc:	40010400 	.word	0x40010400
 8004000:	40021000 	.word	0x40021000

08004004 <HAL_GPIO_ReadPin>:
  GPIO_PinState bitstatus;

  /* Check the parameters */
  assert_param(IS_GPIO_PIN(GPIO_Pin));

  if((GPIOx->IDR & GPIO_Pin) != (uint32_t)GPIO_PIN_RESET)
 8004004:	6903      	ldr	r3, [r0, #16]
 8004006:	4219      	tst	r1, r3
  else
  {
    bitstatus = GPIO_PIN_RESET;
  }
  return bitstatus;
}
 8004008:	bf14      	ite	ne
 800400a:	2001      	movne	r0, #1
 800400c:	2000      	moveq	r0, #0
 800400e:	4770      	bx	lr

08004010 <HAL_GPIO_WritePin>:
{
  /* Check the parameters */
  assert_param(IS_GPIO_PIN(GPIO_Pin));
  assert_param(IS_GPIO_PIN_ACTION(PinState));

  if(PinState != GPIO_PIN_RESET)
 8004010:	b10a      	cbz	r2, 8004016 <HAL_GPIO_WritePin+0x6>
  {
    GPIOx->BSRR = (uint32_t)GPIO_Pin;
 8004012:	6181      	str	r1, [r0, #24]
 8004014:	4770      	bx	lr
  }
  else
  {
    GPIOx->BRR = (uint32_t)GPIO_Pin;
 8004016:	6281      	str	r1, [r0, #40]	; 0x28
  }
}
 8004018:	4770      	bx	lr
 800401a:	bf00      	nop

0800401c <HAL_RCC_OscConfig>:
#if defined(RCC_CFGR_PLLSRC_HSI_PREDIV)
  uint32_t pll_config2;
#endif /* RCC_CFGR_PLLSRC_HSI_PREDIV */

  /* Check Null pointer */
  if(RCC_OscInitStruct == NULL)
 800401c:	2800      	cmp	r0, #0
 800401e:	f000 828c 	beq.w	800453a <HAL_RCC_OscConfig+0x51e>
{
 8004022:	e92d 43f0 	stmdb	sp!, {r4, r5, r6, r7, r8, r9, lr}

  /* Check the parameters */
  assert_param(IS_RCC_OSCILLATORTYPE(RCC_OscInitStruct->OscillatorType));

  /*------------------------------- HSE Configuration ------------------------*/ 
  if(((RCC_OscInitStruct->OscillatorType) & RCC_OSCILLATORTYPE_HSE) == RCC_OSCILLATORTYPE_HSE)
 8004026:	6803      	ldr	r3, [r0, #0]
 8004028:	07d9      	lsls	r1, r3, #31
{
 800402a:	b083      	sub	sp, #12
 800402c:	4604      	mov	r4, r0
  if(((RCC_OscInitStruct->OscillatorType) & RCC_OSCILLATORTYPE_HSE) == RCC_OSCILLATORTYPE_HSE)
 800402e:	d54f      	bpl.n	80040d0 <HAL_RCC_OscConfig+0xb4>
  {
    /* Check the parameters */
    assert_param(IS_RCC_HSE(RCC_OscInitStruct->HSEState));

    /* When the HSE is used as system clock or clock source for PLL in these cases it is not allowed to be disabled */
    if((__HAL_RCC_GET_SYSCLK_SOURCE() == RCC_SYSCLKSOURCE_STATUS_HSE) 
 8004030:	49b4      	ldr	r1, [pc, #720]	; (8004304 <HAL_RCC_OscConfig+0x2e8>)
 8004032:	684a      	ldr	r2, [r1, #4]
 8004034:	f002 020c 	and.w	r2, r2, #12
 8004038:	2a04      	cmp	r2, #4
 800403a:	f000 816d 	beq.w	8004318 <HAL_RCC_OscConfig+0x2fc>
       || ((__HAL_RCC_GET_SYSCLK_SOURCE() == RCC_SYSCLKSOURCE_STATUS_PLLCLK) && (__HAL_RCC_GET_PLL_OSCSOURCE() == RCC_PLLSOURCE_HSE)))
 800403e:	684a      	ldr	r2, [r1, #4]
 8004040:	f002 020c 	and.w	r2, r2, #12
 8004044:	2a08      	cmp	r2, #8
 8004046:	f000 8163 	beq.w	8004310 <HAL_RCC_OscConfig+0x2f4>
      }
    }
    else
    {
      /* Set the new HSE configuration ---------------------------------------*/
      __HAL_RCC_HSE_CONFIG(RCC_OscInitStruct->HSEState);
 800404a:	6863      	ldr	r3, [r4, #4]
 800404c:	f5b3 3f80 	cmp.w	r3, #65536	; 0x10000
 8004050:	d017      	beq.n	8004082 <HAL_RCC_OscConfig+0x66>
 8004052:	2b00      	cmp	r3, #0
 8004054:	f000 819c 	beq.w	8004390 <HAL_RCC_OscConfig+0x374>
 8004058:	f5b3 2fa0 	cmp.w	r3, #327680	; 0x50000
 800405c:	f000 8258 	beq.w	8004510 <HAL_RCC_OscConfig+0x4f4>
 8004060:	4ba8      	ldr	r3, [pc, #672]	; (8004304 <HAL_RCC_OscConfig+0x2e8>)
 8004062:	681a      	ldr	r2, [r3, #0]
 8004064:	f422 3280 	bic.w	r2, r2, #65536	; 0x10000
 8004068:	601a      	str	r2, [r3, #0]
 800406a:	681a      	ldr	r2, [r3, #0]
 800406c:	f422 2280 	bic.w	r2, r2, #262144	; 0x40000
 8004070:	601a      	str	r2, [r3, #0]
      
#if defined(RCC_CFGR_PLLSRC_HSI_DIV2)
      /* Configure the HSE predivision factor --------------------------------*/
      __HAL_RCC_HSE_PREDIV_CONFIG(RCC_OscInitStruct->HSEPredivValue);
 8004072:	4aa4      	ldr	r2, [pc, #656]	; (8004304 <HAL_RCC_OscConfig+0x2e8>)
 8004074:	68a1      	ldr	r1, [r4, #8]
 8004076:	6ad3      	ldr	r3, [r2, #44]	; 0x2c
 8004078:	f023 030f 	bic.w	r3, r3, #15
 800407c:	430b      	orrs	r3, r1
 800407e:	62d3      	str	r3, [r2, #44]	; 0x2c
#endif /* RCC_CFGR_PLLSRC_HSI_DIV2 */

       /* Check the HSE State */
      if(RCC_OscInitStruct->HSEState != RCC_HSE_OFF)
 8004080:	e00a      	b.n	8004098 <HAL_RCC_OscConfig+0x7c>
      __HAL_RCC_HSE_CONFIG(RCC_OscInitStruct->HSEState);
 8004082:	4aa0      	ldr	r2, [pc, #640]	; (8004304 <HAL_RCC_OscConfig+0x2e8>)
 8004084:	6813      	ldr	r3, [r2, #0]
 8004086:	f443 3380 	orr.w	r3, r3, #65536	; 0x10000
 800408a:	6013      	str	r3, [r2, #0]
      __HAL_RCC_HSE_PREDIV_CONFIG(RCC_OscInitStruct->HSEPredivValue);
 800408c:	6ad3      	ldr	r3, [r2, #44]	; 0x2c
 800408e:	68a1      	ldr	r1, [r4, #8]
 8004090:	f023 030f 	bic.w	r3, r3, #15
 8004094:	430b      	orrs	r3, r1
 8004096:	62d3      	str	r3, [r2, #44]	; 0x2c
      {
        /* Get Start Tick */
        tickstart = HAL_GetTick();
 8004098:	f7fe faea 	bl	8002670 <HAL_GetTick>
        
        /* Wait till HSE is ready */
        while(__HAL_RCC_GET_FLAG(RCC_FLAG_HSERDY) == RESET)
 800409c:	4f99      	ldr	r7, [pc, #612]	; (8004304 <HAL_RCC_OscConfig+0x2e8>)
        tickstart = HAL_GetTick();
 800409e:	4605      	mov	r5, r0
  uint32_t result;

#if ((defined (__ARM_ARCH_7M__      ) && (__ARM_ARCH_7M__      == 1)) || \
     (defined (__ARM_ARCH_7EM__     ) && (__ARM_ARCH_7EM__     == 1)) || \
     (defined (__ARM_ARCH_8M_MAIN__ ) && (__ARM_ARCH_8M_MAIN__ == 1))    )
   __ASM volatile ("rbit %0, %1" : "=r" (result) : "r" (value) );
 80040a0:	f44f 3800 	mov.w	r8, #131072	; 0x20000
        while(__HAL_RCC_GET_FLAG(RCC_FLAG_HSERDY) == RESET)
 80040a4:	2601      	movs	r6, #1
 80040a6:	e005      	b.n	80040b4 <HAL_RCC_OscConfig+0x98>
        {
          if((HAL_GetTick() - tickstart ) > HSE_TIMEOUT_VALUE)
 80040a8:	f7fe fae2 	bl	8002670 <HAL_GetTick>
 80040ac:	1b40      	subs	r0, r0, r5
 80040ae:	2864      	cmp	r0, #100	; 0x64
 80040b0:	f200 816a 	bhi.w	8004388 <HAL_RCC_OscConfig+0x36c>
 80040b4:	fa98 f3a8 	rbit	r3, r8
        while(__HAL_RCC_GET_FLAG(RCC_FLAG_HSERDY) == RESET)
 80040b8:	683a      	ldr	r2, [r7, #0]
 80040ba:	fa98 f3a8 	rbit	r3, r8
 80040be:	fab3 f383 	clz	r3, r3
 80040c2:	f003 031f 	and.w	r3, r3, #31
 80040c6:	fa06 f303 	lsl.w	r3, r6, r3
 80040ca:	4213      	tst	r3, r2
 80040cc:	d0ec      	beq.n	80040a8 <HAL_RCC_OscConfig+0x8c>
        }
      }
    }
  }
  /*----------------------------- HSI Configuration --------------------------*/ 
  if(((RCC_OscInitStruct->OscillatorType) & RCC_OSCILLATORTYPE_HSI) == RCC_OSCILLATORTYPE_HSI)
 80040ce:	6823      	ldr	r3, [r4, #0]
 80040d0:	079f      	lsls	r7, r3, #30
 80040d2:	d541      	bpl.n	8004158 <HAL_RCC_OscConfig+0x13c>
    /* Check the parameters */
    assert_param(IS_RCC_HSI(RCC_OscInitStruct->HSIState));
    assert_param(IS_RCC_CALIBRATION_VALUE(RCC_OscInitStruct->HSICalibrationValue));
    
    /* Check if HSI is used as system clock or as PLL source when PLL is selected as system clock */ 
    if((__HAL_RCC_GET_SYSCLK_SOURCE() == RCC_SYSCLKSOURCE_STATUS_HSI) 
 80040d4:	4a8b      	ldr	r2, [pc, #556]	; (8004304 <HAL_RCC_OscConfig+0x2e8>)
 80040d6:	6851      	ldr	r1, [r2, #4]
 80040d8:	f011 0f0c 	tst.w	r1, #12
 80040dc:	f000 80c8 	beq.w	8004270 <HAL_RCC_OscConfig+0x254>
       || ((__HAL_RCC_GET_SYSCLK_SOURCE() == RCC_SYSCLKSOURCE_STATUS_PLLCLK) && (__HAL_RCC_GET_PLL_OSCSOURCE() == RCC_PLLSOURCE_HSI)))
 80040e0:	6851      	ldr	r1, [r2, #4]
 80040e2:	f001 010c 	and.w	r1, r1, #12
 80040e6:	2908      	cmp	r1, #8
 80040e8:	f000 80be 	beq.w	8004268 <HAL_RCC_OscConfig+0x24c>
      }
    }
    else
    {
      /* Check the HSI State */
      if(RCC_OscInitStruct->HSIState != RCC_HSI_OFF)
 80040ec:	6922      	ldr	r2, [r4, #16]
 80040ee:	2a00      	cmp	r2, #0
 80040f0:	f000 81ad 	beq.w	800444e <HAL_RCC_OscConfig+0x432>
 80040f4:	2501      	movs	r5, #1
 80040f6:	fa95 f3a5 	rbit	r3, r5
      {
       /* Enable the Internal High Speed oscillator (HSI). */
        __HAL_RCC_HSI_ENABLE();
 80040fa:	fab3 f383 	clz	r3, r3
 80040fe:	f103 5384 	add.w	r3, r3, #276824064	; 0x10800000
 8004102:	f503 1384 	add.w	r3, r3, #1081344	; 0x108000
 8004106:	009b      	lsls	r3, r3, #2
        
        /* Get Start Tick */
        tickstart = HAL_GetTick();
        
        /* Wait till HSI is ready */
        while(__HAL_RCC_GET_FLAG(RCC_FLAG_HSIRDY) == RESET)
 8004108:	4f7e      	ldr	r7, [pc, #504]	; (8004304 <HAL_RCC_OscConfig+0x2e8>)
        __HAL_RCC_HSI_ENABLE();
 800410a:	601d      	str	r5, [r3, #0]
        tickstart = HAL_GetTick();
 800410c:	f7fe fab0 	bl	8002670 <HAL_GetTick>
 8004110:	f04f 0802 	mov.w	r8, #2
 8004114:	4606      	mov	r6, r0
        while(__HAL_RCC_GET_FLAG(RCC_FLAG_HSIRDY) == RESET)
 8004116:	e005      	b.n	8004124 <HAL_RCC_OscConfig+0x108>
        {
          if((HAL_GetTick() - tickstart ) > HSI_TIMEOUT_VALUE)
 8004118:	f7fe faaa 	bl	8002670 <HAL_GetTick>
 800411c:	1b80      	subs	r0, r0, r6
 800411e:	2802      	cmp	r0, #2
 8004120:	f200 8132 	bhi.w	8004388 <HAL_RCC_OscConfig+0x36c>
 8004124:	fa98 f3a8 	rbit	r3, r8
        while(__HAL_RCC_GET_FLAG(RCC_FLAG_HSIRDY) == RESET)
 8004128:	683a      	ldr	r2, [r7, #0]
 800412a:	fa98 f3a8 	rbit	r3, r8
 800412e:	fab3 f383 	clz	r3, r3
 8004132:	f003 031f 	and.w	r3, r3, #31
 8004136:	fa05 f303 	lsl.w	r3, r5, r3
 800413a:	4213      	tst	r3, r2
 800413c:	d0ec      	beq.n	8004118 <HAL_RCC_OscConfig+0xfc>
            return HAL_TIMEOUT;
          }
        }
                
        /* Adjusts the Internal High Speed oscillator (HSI) calibration value.*/
        __HAL_RCC_HSI_CALIBRATIONVALUE_ADJUST(RCC_OscInitStruct->HSICalibrationValue);
 800413e:	6839      	ldr	r1, [r7, #0]
 8004140:	22f8      	movs	r2, #248	; 0xf8
 8004142:	fa92 f2a2 	rbit	r2, r2
 8004146:	6963      	ldr	r3, [r4, #20]
 8004148:	fab2 f282 	clz	r2, r2
 800414c:	4093      	lsls	r3, r2
 800414e:	f021 02f8 	bic.w	r2, r1, #248	; 0xf8
 8004152:	4313      	orrs	r3, r2
 8004154:	603b      	str	r3, [r7, #0]
        }
      }
    }
  }
  /*------------------------------ LSI Configuration -------------------------*/ 
  if(((RCC_OscInitStruct->OscillatorType) & RCC_OSCILLATORTYPE_LSI) == RCC_OSCILLATORTYPE_LSI)
 8004156:	6823      	ldr	r3, [r4, #0]
 8004158:	071d      	lsls	r5, r3, #28
 800415a:	d421      	bmi.n	80041a0 <HAL_RCC_OscConfig+0x184>
        }
      }
    }
  }
  /*------------------------------ LSE Configuration -------------------------*/ 
  if(((RCC_OscInitStruct->OscillatorType) & RCC_OSCILLATORTYPE_LSE) == RCC_OSCILLATORTYPE_LSE)
 800415c:	0758      	lsls	r0, r3, #29
 800415e:	d54c      	bpl.n	80041fa <HAL_RCC_OscConfig+0x1de>
    /* Check the parameters */
    assert_param(IS_RCC_LSE(RCC_OscInitStruct->LSEState));

    /* Update LSE configuration in Backup Domain control register    */
    /* Requires to enable write access to Backup Domain of necessary */
    if(__HAL_RCC_PWR_IS_CLK_DISABLED())
 8004160:	4b68      	ldr	r3, [pc, #416]	; (8004304 <HAL_RCC_OscConfig+0x2e8>)
 8004162:	69da      	ldr	r2, [r3, #28]
 8004164:	00d1      	lsls	r1, r2, #3
 8004166:	f140 80c1 	bpl.w	80042ec <HAL_RCC_OscConfig+0x2d0>
    FlagStatus       pwrclkchanged = RESET;
 800416a:	f04f 0800 	mov.w	r8, #0
    {
      __HAL_RCC_PWR_CLK_ENABLE();
      pwrclkchanged = SET;
    }
    
    if(HAL_IS_BIT_CLR(PWR->CR, PWR_CR_DBP))
 800416e:	4d66      	ldr	r5, [pc, #408]	; (8004308 <HAL_RCC_OscConfig+0x2ec>)
 8004170:	682b      	ldr	r3, [r5, #0]
 8004172:	05da      	lsls	r2, r3, #23
 8004174:	f140 80f8 	bpl.w	8004368 <HAL_RCC_OscConfig+0x34c>
        }
      }
    }

    /* Set the new LSE configuration -----------------------------------------*/
    __HAL_RCC_LSE_CONFIG(RCC_OscInitStruct->LSEState);
 8004178:	68e3      	ldr	r3, [r4, #12]
 800417a:	2b01      	cmp	r3, #1
 800417c:	f000 818d 	beq.w	800449a <HAL_RCC_OscConfig+0x47e>
 8004180:	2b00      	cmp	r3, #0
 8004182:	f000 812e 	beq.w	80043e2 <HAL_RCC_OscConfig+0x3c6>
 8004186:	2b05      	cmp	r3, #5
 8004188:	4b5e      	ldr	r3, [pc, #376]	; (8004304 <HAL_RCC_OscConfig+0x2e8>)
 800418a:	6a1a      	ldr	r2, [r3, #32]
 800418c:	f000 81cd 	beq.w	800452a <HAL_RCC_OscConfig+0x50e>
 8004190:	f022 0201 	bic.w	r2, r2, #1
 8004194:	621a      	str	r2, [r3, #32]
 8004196:	6a1a      	ldr	r2, [r3, #32]
 8004198:	f022 0204 	bic.w	r2, r2, #4
 800419c:	621a      	str	r2, [r3, #32]
 800419e:	e181      	b.n	80044a4 <HAL_RCC_OscConfig+0x488>
    if(RCC_OscInitStruct->LSIState != RCC_LSI_OFF)
 80041a0:	69a2      	ldr	r2, [r4, #24]
 80041a2:	2a00      	cmp	r2, #0
 80041a4:	d07b      	beq.n	800429e <HAL_RCC_OscConfig+0x282>
 80041a6:	2501      	movs	r5, #1
 80041a8:	fa95 f2a5 	rbit	r2, r5
      __HAL_RCC_LSI_ENABLE();
 80041ac:	4b57      	ldr	r3, [pc, #348]	; (800430c <HAL_RCC_OscConfig+0x2f0>)
      while(__HAL_RCC_GET_FLAG(RCC_FLAG_LSIRDY) == RESET)
 80041ae:	4f55      	ldr	r7, [pc, #340]	; (8004304 <HAL_RCC_OscConfig+0x2e8>)
      __HAL_RCC_LSI_ENABLE();
 80041b0:	fab2 f282 	clz	r2, r2
 80041b4:	4413      	add	r3, r2
 80041b6:	009b      	lsls	r3, r3, #2
 80041b8:	f04f 0802 	mov.w	r8, #2
 80041bc:	601d      	str	r5, [r3, #0]
      tickstart = HAL_GetTick();
 80041be:	f7fe fa57 	bl	8002670 <HAL_GetTick>
 80041c2:	4606      	mov	r6, r0
      while(__HAL_RCC_GET_FLAG(RCC_FLAG_LSIRDY) == RESET)
 80041c4:	e005      	b.n	80041d2 <HAL_RCC_OscConfig+0x1b6>
        if((HAL_GetTick() - tickstart ) > LSI_TIMEOUT_VALUE)
 80041c6:	f7fe fa53 	bl	8002670 <HAL_GetTick>
 80041ca:	1b80      	subs	r0, r0, r6
 80041cc:	2802      	cmp	r0, #2
 80041ce:	f200 80db 	bhi.w	8004388 <HAL_RCC_OscConfig+0x36c>
 80041d2:	fa98 f3a8 	rbit	r3, r8
 80041d6:	fa98 f3a8 	rbit	r3, r8
 80041da:	fa98 f3a8 	rbit	r3, r8
      while(__HAL_RCC_GET_FLAG(RCC_FLAG_LSIRDY) == RESET)
 80041de:	6a7a      	ldr	r2, [r7, #36]	; 0x24
 80041e0:	fa98 f3a8 	rbit	r3, r8
 80041e4:	fab3 f383 	clz	r3, r3
 80041e8:	f003 031f 	and.w	r3, r3, #31
 80041ec:	fa05 f303 	lsl.w	r3, r5, r3
 80041f0:	4213      	tst	r3, r2
 80041f2:	d0e8      	beq.n	80041c6 <HAL_RCC_OscConfig+0x1aa>
  if(((RCC_OscInitStruct->OscillatorType) & RCC_OSCILLATORTYPE_LSE) == RCC_OSCILLATORTYPE_LSE)
 80041f4:	6823      	ldr	r3, [r4, #0]
 80041f6:	0758      	lsls	r0, r3, #29
 80041f8:	d4b2      	bmi.n	8004160 <HAL_RCC_OscConfig+0x144>
  }

  /*-------------------------------- PLL Configuration -----------------------*/
  /* Check the parameters */
  assert_param(IS_RCC_PLL(RCC_OscInitStruct->PLL.PLLState));
  if ((RCC_OscInitStruct->PLL.PLLState) != RCC_PLL_NONE)
 80041fa:	69e0      	ldr	r0, [r4, #28]
 80041fc:	b380      	cbz	r0, 8004260 <HAL_RCC_OscConfig+0x244>
  {
    /* Check if the PLL is used as system clock or not */
    if(__HAL_RCC_GET_SYSCLK_SOURCE() != RCC_SYSCLKSOURCE_STATUS_PLLCLK)
 80041fe:	4d41      	ldr	r5, [pc, #260]	; (8004304 <HAL_RCC_OscConfig+0x2e8>)
 8004200:	686b      	ldr	r3, [r5, #4]
 8004202:	f003 030c 	and.w	r3, r3, #12
 8004206:	2b08      	cmp	r3, #8
 8004208:	f000 8171 	beq.w	80044ee <HAL_RCC_OscConfig+0x4d2>
    { 
      if((RCC_OscInitStruct->PLL.PLLState) == RCC_PLL_ON)
 800420c:	2802      	cmp	r0, #2
 800420e:	f04f 7380 	mov.w	r3, #16777216	; 0x1000000
 8004212:	f000 8194 	beq.w	800453e <HAL_RCC_OscConfig+0x522>
 8004216:	fa93 f3a3 	rbit	r3, r3
        }
      }
      else
      {
        /* Disable the main PLL. */
        __HAL_RCC_PLL_DISABLE();
 800421a:	fab3 f383 	clz	r3, r3
 800421e:	f103 5384 	add.w	r3, r3, #276824064	; 0x10800000
 8004222:	f503 1384 	add.w	r3, r3, #1081344	; 0x108000
 8004226:	009b      	lsls	r3, r3, #2
 8004228:	2200      	movs	r2, #0
 800422a:	601a      	str	r2, [r3, #0]
 
        /* Get Start Tick */
        tickstart = HAL_GetTick();
 800422c:	f7fe fa20 	bl	8002670 <HAL_GetTick>
 8004230:	f04f 7700 	mov.w	r7, #33554432	; 0x2000000
 8004234:	4604      	mov	r4, r0
        
        /* Wait till PLL is disabled */  
        while(__HAL_RCC_GET_FLAG(RCC_FLAG_PLLRDY)  != RESET)
 8004236:	2601      	movs	r6, #1
 8004238:	e005      	b.n	8004246 <HAL_RCC_OscConfig+0x22a>
        {
          if((HAL_GetTick() - tickstart ) > PLL_TIMEOUT_VALUE)
 800423a:	f7fe fa19 	bl	8002670 <HAL_GetTick>
 800423e:	1b00      	subs	r0, r0, r4
 8004240:	2802      	cmp	r0, #2
 8004242:	f200 80a1 	bhi.w	8004388 <HAL_RCC_OscConfig+0x36c>
 8004246:	fa97 f3a7 	rbit	r3, r7
        while(__HAL_RCC_GET_FLAG(RCC_FLAG_PLLRDY)  != RESET)
 800424a:	682a      	ldr	r2, [r5, #0]
 800424c:	fa97 f3a7 	rbit	r3, r7
 8004250:	fab3 f383 	clz	r3, r3
 8004254:	f003 031f 	and.w	r3, r3, #31
 8004258:	fa06 f303 	lsl.w	r3, r6, r3
 800425c:	4213      	tst	r3, r2
 800425e:	d1ec      	bne.n	800423a <HAL_RCC_OscConfig+0x21e>
        }
      }
    }
  }

  return HAL_OK;
 8004260:	2000      	movs	r0, #0
}
 8004262:	b003      	add	sp, #12
 8004264:	e8bd 83f0 	ldmia.w	sp!, {r4, r5, r6, r7, r8, r9, pc}
       || ((__HAL_RCC_GET_SYSCLK_SOURCE() == RCC_SYSCLKSOURCE_STATUS_PLLCLK) && (__HAL_RCC_GET_PLL_OSCSOURCE() == RCC_PLLSOURCE_HSI)))
 8004268:	6852      	ldr	r2, [r2, #4]
 800426a:	03d6      	lsls	r6, r2, #15
 800426c:	f53f af3e 	bmi.w	80040ec <HAL_RCC_OscConfig+0xd0>
 8004270:	2202      	movs	r2, #2
 8004272:	fa92 f1a2 	rbit	r1, r2
      if((__HAL_RCC_GET_FLAG(RCC_FLAG_HSIRDY) != RESET) && (RCC_OscInitStruct->HSIState != RCC_HSI_ON))
 8004276:	4923      	ldr	r1, [pc, #140]	; (8004304 <HAL_RCC_OscConfig+0x2e8>)
 8004278:	6808      	ldr	r0, [r1, #0]
 800427a:	fa92 f2a2 	rbit	r2, r2
 800427e:	fab2 f282 	clz	r2, r2
 8004282:	f002 021f 	and.w	r2, r2, #31
 8004286:	2101      	movs	r1, #1
 8004288:	fa01 f202 	lsl.w	r2, r1, r2
 800428c:	4202      	tst	r2, r0
 800428e:	d05a      	beq.n	8004346 <HAL_RCC_OscConfig+0x32a>
 8004290:	6922      	ldr	r2, [r4, #16]
 8004292:	428a      	cmp	r2, r1
 8004294:	d057      	beq.n	8004346 <HAL_RCC_OscConfig+0x32a>
        return HAL_ERROR;
 8004296:	2001      	movs	r0, #1
}
 8004298:	b003      	add	sp, #12
 800429a:	e8bd 83f0 	ldmia.w	sp!, {r4, r5, r6, r7, r8, r9, pc}
 800429e:	2601      	movs	r6, #1
 80042a0:	fa96 f1a6 	rbit	r1, r6
      __HAL_RCC_LSI_DISABLE();
 80042a4:	4b19      	ldr	r3, [pc, #100]	; (800430c <HAL_RCC_OscConfig+0x2f0>)
      while(__HAL_RCC_GET_FLAG(RCC_FLAG_LSIRDY) != RESET)
 80042a6:	4f17      	ldr	r7, [pc, #92]	; (8004304 <HAL_RCC_OscConfig+0x2e8>)
      __HAL_RCC_LSI_DISABLE();
 80042a8:	fab1 f181 	clz	r1, r1
 80042ac:	440b      	add	r3, r1
 80042ae:	009b      	lsls	r3, r3, #2
 80042b0:	f04f 0802 	mov.w	r8, #2
 80042b4:	601a      	str	r2, [r3, #0]
      tickstart = HAL_GetTick();
 80042b6:	f7fe f9db 	bl	8002670 <HAL_GetTick>
 80042ba:	4605      	mov	r5, r0
      while(__HAL_RCC_GET_FLAG(RCC_FLAG_LSIRDY) != RESET)
 80042bc:	e004      	b.n	80042c8 <HAL_RCC_OscConfig+0x2ac>
        if((HAL_GetTick() - tickstart ) > LSI_TIMEOUT_VALUE)
 80042be:	f7fe f9d7 	bl	8002670 <HAL_GetTick>
 80042c2:	1b40      	subs	r0, r0, r5
 80042c4:	2802      	cmp	r0, #2
 80042c6:	d85f      	bhi.n	8004388 <HAL_RCC_OscConfig+0x36c>
 80042c8:	fa98 f3a8 	rbit	r3, r8
 80042cc:	fa98 f3a8 	rbit	r3, r8
 80042d0:	fa98 f3a8 	rbit	r3, r8
      while(__HAL_RCC_GET_FLAG(RCC_FLAG_LSIRDY) != RESET)
 80042d4:	6a7a      	ldr	r2, [r7, #36]	; 0x24
 80042d6:	fa98 f3a8 	rbit	r3, r8
 80042da:	fab3 f383 	clz	r3, r3
 80042de:	f003 031f 	and.w	r3, r3, #31
 80042e2:	fa06 f303 	lsl.w	r3, r6, r3
 80042e6:	4213      	tst	r3, r2
 80042e8:	d1e9      	bne.n	80042be <HAL_RCC_OscConfig+0x2a2>
 80042ea:	e783      	b.n	80041f4 <HAL_RCC_OscConfig+0x1d8>
      __HAL_RCC_PWR_CLK_ENABLE();
 80042ec:	69da      	ldr	r2, [r3, #28]
 80042ee:	f042 5280 	orr.w	r2, r2, #268435456	; 0x10000000
 80042f2:	61da      	str	r2, [r3, #28]
 80042f4:	69db      	ldr	r3, [r3, #28]
 80042f6:	f003 5380 	and.w	r3, r3, #268435456	; 0x10000000
 80042fa:	9301      	str	r3, [sp, #4]
 80042fc:	9b01      	ldr	r3, [sp, #4]
      pwrclkchanged = SET;
 80042fe:	f04f 0801 	mov.w	r8, #1
 8004302:	e734      	b.n	800416e <HAL_RCC_OscConfig+0x152>
 8004304:	40021000 	.word	0x40021000
 8004308:	40007000 	.word	0x40007000
 800430c:	10908120 	.word	0x10908120
       || ((__HAL_RCC_GET_SYSCLK_SOURCE() == RCC_SYSCLKSOURCE_STATUS_PLLCLK) && (__HAL_RCC_GET_PLL_OSCSOURCE() == RCC_PLLSOURCE_HSE)))
 8004310:	684a      	ldr	r2, [r1, #4]
 8004312:	03d2      	lsls	r2, r2, #15
 8004314:	f57f ae99 	bpl.w	800404a <HAL_RCC_OscConfig+0x2e>
 8004318:	f44f 3200 	mov.w	r2, #131072	; 0x20000
 800431c:	fa92 f1a2 	rbit	r1, r2
      if((__HAL_RCC_GET_FLAG(RCC_FLAG_HSERDY) != RESET) && (RCC_OscInitStruct->HSEState == RCC_HSE_OFF))
 8004320:	49b1      	ldr	r1, [pc, #708]	; (80045e8 <HAL_RCC_OscConfig+0x5cc>)
 8004322:	6808      	ldr	r0, [r1, #0]
 8004324:	fa92 f2a2 	rbit	r2, r2
 8004328:	fab2 f282 	clz	r2, r2
 800432c:	f002 021f 	and.w	r2, r2, #31
 8004330:	2101      	movs	r1, #1
 8004332:	fa01 f202 	lsl.w	r2, r1, r2
 8004336:	4202      	tst	r2, r0
 8004338:	f43f aeca 	beq.w	80040d0 <HAL_RCC_OscConfig+0xb4>
 800433c:	6862      	ldr	r2, [r4, #4]
 800433e:	2a00      	cmp	r2, #0
 8004340:	f47f aec6 	bne.w	80040d0 <HAL_RCC_OscConfig+0xb4>
 8004344:	e7a7      	b.n	8004296 <HAL_RCC_OscConfig+0x27a>
        __HAL_RCC_HSI_CALIBRATIONVALUE_ADJUST(RCC_OscInitStruct->HSICalibrationValue);
 8004346:	4da8      	ldr	r5, [pc, #672]	; (80045e8 <HAL_RCC_OscConfig+0x5cc>)
 8004348:	22f8      	movs	r2, #248	; 0xf8
 800434a:	6828      	ldr	r0, [r5, #0]
 800434c:	fa92 f2a2 	rbit	r2, r2
 8004350:	fab2 f182 	clz	r1, r2
 8004354:	6962      	ldr	r2, [r4, #20]
 8004356:	f020 00f8 	bic.w	r0, r0, #248	; 0xf8
 800435a:	408a      	lsls	r2, r1
 800435c:	4302      	orrs	r2, r0
 800435e:	602a      	str	r2, [r5, #0]
  if(((RCC_OscInitStruct->OscillatorType) & RCC_OSCILLATORTYPE_LSI) == RCC_OSCILLATORTYPE_LSI)
 8004360:	071d      	lsls	r5, r3, #28
 8004362:	f57f aefb 	bpl.w	800415c <HAL_RCC_OscConfig+0x140>
 8004366:	e71b      	b.n	80041a0 <HAL_RCC_OscConfig+0x184>
      SET_BIT(PWR->CR, PWR_CR_DBP);
 8004368:	682b      	ldr	r3, [r5, #0]
 800436a:	f443 7380 	orr.w	r3, r3, #256	; 0x100
 800436e:	602b      	str	r3, [r5, #0]
      tickstart = HAL_GetTick();
 8004370:	f7fe f97e 	bl	8002670 <HAL_GetTick>
 8004374:	4606      	mov	r6, r0
      while(HAL_IS_BIT_CLR(PWR->CR, PWR_CR_DBP))
 8004376:	682b      	ldr	r3, [r5, #0]
 8004378:	05db      	lsls	r3, r3, #23
 800437a:	f53f aefd 	bmi.w	8004178 <HAL_RCC_OscConfig+0x15c>
        if((HAL_GetTick() - tickstart) > RCC_DBP_TIMEOUT_VALUE)
 800437e:	f7fe f977 	bl	8002670 <HAL_GetTick>
 8004382:	1b80      	subs	r0, r0, r6
 8004384:	2864      	cmp	r0, #100	; 0x64
 8004386:	d9f6      	bls.n	8004376 <HAL_RCC_OscConfig+0x35a>
            return HAL_TIMEOUT;
 8004388:	2003      	movs	r0, #3
}
 800438a:	b003      	add	sp, #12
 800438c:	e8bd 83f0 	ldmia.w	sp!, {r4, r5, r6, r7, r8, r9, pc}
      __HAL_RCC_HSE_CONFIG(RCC_OscInitStruct->HSEState);
 8004390:	4d95      	ldr	r5, [pc, #596]	; (80045e8 <HAL_RCC_OscConfig+0x5cc>)
 8004392:	682b      	ldr	r3, [r5, #0]
 8004394:	f423 3380 	bic.w	r3, r3, #65536	; 0x10000
 8004398:	602b      	str	r3, [r5, #0]
 800439a:	682b      	ldr	r3, [r5, #0]
 800439c:	f423 2380 	bic.w	r3, r3, #262144	; 0x40000
 80043a0:	602b      	str	r3, [r5, #0]
      __HAL_RCC_HSE_PREDIV_CONFIG(RCC_OscInitStruct->HSEPredivValue);
 80043a2:	6aeb      	ldr	r3, [r5, #44]	; 0x2c
 80043a4:	68a2      	ldr	r2, [r4, #8]
 80043a6:	f023 030f 	bic.w	r3, r3, #15
 80043aa:	4313      	orrs	r3, r2
 80043ac:	62eb      	str	r3, [r5, #44]	; 0x2c
        tickstart = HAL_GetTick();
 80043ae:	f7fe f95f 	bl	8002670 <HAL_GetTick>
 80043b2:	f44f 3800 	mov.w	r8, #131072	; 0x20000
 80043b6:	4606      	mov	r6, r0
        while(__HAL_RCC_GET_FLAG(RCC_FLAG_HSERDY) != RESET)
 80043b8:	2701      	movs	r7, #1
 80043ba:	e004      	b.n	80043c6 <HAL_RCC_OscConfig+0x3aa>
           if((HAL_GetTick() - tickstart ) > HSE_TIMEOUT_VALUE)
 80043bc:	f7fe f958 	bl	8002670 <HAL_GetTick>
 80043c0:	1b80      	subs	r0, r0, r6
 80043c2:	2864      	cmp	r0, #100	; 0x64
 80043c4:	d8e0      	bhi.n	8004388 <HAL_RCC_OscConfig+0x36c>
 80043c6:	fa98 f3a8 	rbit	r3, r8
        while(__HAL_RCC_GET_FLAG(RCC_FLAG_HSERDY) != RESET)
 80043ca:	682a      	ldr	r2, [r5, #0]
 80043cc:	fa98 f3a8 	rbit	r3, r8
 80043d0:	fab3 f383 	clz	r3, r3
 80043d4:	f003 031f 	and.w	r3, r3, #31
 80043d8:	fa07 f303 	lsl.w	r3, r7, r3
 80043dc:	4213      	tst	r3, r2
 80043de:	d1ed      	bne.n	80043bc <HAL_RCC_OscConfig+0x3a0>
 80043e0:	e675      	b.n	80040ce <HAL_RCC_OscConfig+0xb2>
    __HAL_RCC_LSE_CONFIG(RCC_OscInitStruct->LSEState);
 80043e2:	4d81      	ldr	r5, [pc, #516]	; (80045e8 <HAL_RCC_OscConfig+0x5cc>)
 80043e4:	6a2b      	ldr	r3, [r5, #32]
 80043e6:	f023 0301 	bic.w	r3, r3, #1
 80043ea:	622b      	str	r3, [r5, #32]
 80043ec:	6a2b      	ldr	r3, [r5, #32]
 80043ee:	f023 0304 	bic.w	r3, r3, #4
 80043f2:	622b      	str	r3, [r5, #32]
      tickstart = HAL_GetTick();
 80043f4:	f7fe f93c 	bl	8002670 <HAL_GetTick>
 80043f8:	f04f 0902 	mov.w	r9, #2
 80043fc:	4606      	mov	r6, r0
      while(__HAL_RCC_GET_FLAG(RCC_FLAG_LSERDY) != RESET)
 80043fe:	2701      	movs	r7, #1
 8004400:	e013      	b.n	800442a <HAL_RCC_OscConfig+0x40e>
 8004402:	fa99 f3a9 	rbit	r3, r9
 8004406:	6a6a      	ldr	r2, [r5, #36]	; 0x24
 8004408:	fa99 f3a9 	rbit	r3, r9
 800440c:	fab3 f383 	clz	r3, r3
 8004410:	f003 031f 	and.w	r3, r3, #31
 8004414:	fa07 f303 	lsl.w	r3, r7, r3
 8004418:	4213      	tst	r3, r2
 800441a:	d00e      	beq.n	800443a <HAL_RCC_OscConfig+0x41e>
        if((HAL_GetTick() - tickstart ) > RCC_LSE_TIMEOUT_VALUE)
 800441c:	f7fe f928 	bl	8002670 <HAL_GetTick>
 8004420:	f241 3388 	movw	r3, #5000	; 0x1388
 8004424:	1b80      	subs	r0, r0, r6
 8004426:	4298      	cmp	r0, r3
 8004428:	d8ae      	bhi.n	8004388 <HAL_RCC_OscConfig+0x36c>
 800442a:	fa99 f3a9 	rbit	r3, r9
 800442e:	fa99 f3a9 	rbit	r3, r9
      while(__HAL_RCC_GET_FLAG(RCC_FLAG_LSERDY) != RESET)
 8004432:	2b00      	cmp	r3, #0
 8004434:	d0e5      	beq.n	8004402 <HAL_RCC_OscConfig+0x3e6>
 8004436:	6a2a      	ldr	r2, [r5, #32]
 8004438:	e7e6      	b.n	8004408 <HAL_RCC_OscConfig+0x3ec>
    if(pwrclkchanged == SET)
 800443a:	f1b8 0f00 	cmp.w	r8, #0
 800443e:	f43f aedc 	beq.w	80041fa <HAL_RCC_OscConfig+0x1de>
      __HAL_RCC_PWR_CLK_DISABLE();
 8004442:	4a69      	ldr	r2, [pc, #420]	; (80045e8 <HAL_RCC_OscConfig+0x5cc>)
 8004444:	69d3      	ldr	r3, [r2, #28]
 8004446:	f023 5380 	bic.w	r3, r3, #268435456	; 0x10000000
 800444a:	61d3      	str	r3, [r2, #28]
 800444c:	e6d5      	b.n	80041fa <HAL_RCC_OscConfig+0x1de>
 800444e:	2601      	movs	r6, #1
 8004450:	fa96 f3a6 	rbit	r3, r6
        __HAL_RCC_HSI_DISABLE();
 8004454:	fab3 f383 	clz	r3, r3
 8004458:	f103 5384 	add.w	r3, r3, #276824064	; 0x10800000
 800445c:	f503 1384 	add.w	r3, r3, #1081344	; 0x108000
 8004460:	009b      	lsls	r3, r3, #2
        while(__HAL_RCC_GET_FLAG(RCC_FLAG_HSIRDY) != RESET)
 8004462:	4f61      	ldr	r7, [pc, #388]	; (80045e8 <HAL_RCC_OscConfig+0x5cc>)
        __HAL_RCC_HSI_DISABLE();
 8004464:	601a      	str	r2, [r3, #0]
        tickstart = HAL_GetTick();
 8004466:	f7fe f903 	bl	8002670 <HAL_GetTick>
 800446a:	f04f 0802 	mov.w	r8, #2
 800446e:	4605      	mov	r5, r0
        while(__HAL_RCC_GET_FLAG(RCC_FLAG_HSIRDY) != RESET)
 8004470:	e004      	b.n	800447c <HAL_RCC_OscConfig+0x460>
          if((HAL_GetTick() - tickstart ) > HSI_TIMEOUT_VALUE)
 8004472:	f7fe f8fd 	bl	8002670 <HAL_GetTick>
 8004476:	1b40      	subs	r0, r0, r5
 8004478:	2802      	cmp	r0, #2
 800447a:	d885      	bhi.n	8004388 <HAL_RCC_OscConfig+0x36c>
 800447c:	fa98 f3a8 	rbit	r3, r8
        while(__HAL_RCC_GET_FLAG(RCC_FLAG_HSIRDY) != RESET)
 8004480:	683a      	ldr	r2, [r7, #0]
 8004482:	fa98 f3a8 	rbit	r3, r8
 8004486:	fab3 f383 	clz	r3, r3
 800448a:	f003 031f 	and.w	r3, r3, #31
 800448e:	fa06 f303 	lsl.w	r3, r6, r3
 8004492:	4213      	tst	r3, r2
 8004494:	d1ed      	bne.n	8004472 <HAL_RCC_OscConfig+0x456>
  if(((RCC_OscInitStruct->OscillatorType) & RCC_OSCILLATORTYPE_LSI) == RCC_OSCILLATORTYPE_LSI)
 8004496:	6823      	ldr	r3, [r4, #0]
 8004498:	e65e      	b.n	8004158 <HAL_RCC_OscConfig+0x13c>
    __HAL_RCC_LSE_CONFIG(RCC_OscInitStruct->LSEState);
 800449a:	4a53      	ldr	r2, [pc, #332]	; (80045e8 <HAL_RCC_OscConfig+0x5cc>)
 800449c:	6a13      	ldr	r3, [r2, #32]
 800449e:	f043 0301 	orr.w	r3, r3, #1
 80044a2:	6213      	str	r3, [r2, #32]
      tickstart = HAL_GetTick();
 80044a4:	f7fe f8e4 	bl	8002670 <HAL_GetTick>
      while(__HAL_RCC_GET_FLAG(RCC_FLAG_LSERDY) == RESET)
 80044a8:	4f4f      	ldr	r7, [pc, #316]	; (80045e8 <HAL_RCC_OscConfig+0x5cc>)
      tickstart = HAL_GetTick();
 80044aa:	4605      	mov	r5, r0
 80044ac:	f04f 0902 	mov.w	r9, #2
      while(__HAL_RCC_GET_FLAG(RCC_FLAG_LSERDY) == RESET)
 80044b0:	2601      	movs	r6, #1
 80044b2:	e014      	b.n	80044de <HAL_RCC_OscConfig+0x4c2>
 80044b4:	fa99 f3a9 	rbit	r3, r9
 80044b8:	6a7a      	ldr	r2, [r7, #36]	; 0x24
 80044ba:	fa99 f3a9 	rbit	r3, r9
 80044be:	fab3 f383 	clz	r3, r3
 80044c2:	f003 031f 	and.w	r3, r3, #31
 80044c6:	fa06 f303 	lsl.w	r3, r6, r3
 80044ca:	4213      	tst	r3, r2
 80044cc:	d1b5      	bne.n	800443a <HAL_RCC_OscConfig+0x41e>
        if((HAL_GetTick() - tickstart ) > RCC_LSE_TIMEOUT_VALUE)
 80044ce:	f7fe f8cf 	bl	8002670 <HAL_GetTick>
 80044d2:	f241 3388 	movw	r3, #5000	; 0x1388
 80044d6:	1b40      	subs	r0, r0, r5
 80044d8:	4298      	cmp	r0, r3
 80044da:	f63f af55 	bhi.w	8004388 <HAL_RCC_OscConfig+0x36c>
 80044de:	fa99 f3a9 	rbit	r3, r9
 80044e2:	fa99 f3a9 	rbit	r3, r9
      while(__HAL_RCC_GET_FLAG(RCC_FLAG_LSERDY) == RESET)
 80044e6:	2b00      	cmp	r3, #0
 80044e8:	d0e4      	beq.n	80044b4 <HAL_RCC_OscConfig+0x498>
 80044ea:	6a3a      	ldr	r2, [r7, #32]
 80044ec:	e7e5      	b.n	80044ba <HAL_RCC_OscConfig+0x49e>
      if((RCC_OscInitStruct->PLL.PLLState) == RCC_PLL_OFF)
 80044ee:	2801      	cmp	r0, #1
 80044f0:	f43f aeb7 	beq.w	8004262 <HAL_RCC_OscConfig+0x246>
        pll_config = RCC->CFGR;
 80044f4:	686b      	ldr	r3, [r5, #4]
        if((READ_BIT(pll_config, RCC_CFGR_PLLSRC)   != RCC_OscInitStruct->PLL.PLLSource) ||      
 80044f6:	6a22      	ldr	r2, [r4, #32]
 80044f8:	f403 3180 	and.w	r1, r3, #65536	; 0x10000
 80044fc:	4291      	cmp	r1, r2
 80044fe:	f47f aeca 	bne.w	8004296 <HAL_RCC_OscConfig+0x27a>
 8004502:	6a60      	ldr	r0, [r4, #36]	; 0x24
           (READ_BIT(pll_config, RCC_CFGR_PLLMUL)   != RCC_OscInitStruct->PLL.PLLMUL))
 8004504:	f403 1370 	and.w	r3, r3, #3932160	; 0x3c0000
  return HAL_OK;
 8004508:	1a18      	subs	r0, r3, r0
 800450a:	bf18      	it	ne
 800450c:	2001      	movne	r0, #1
 800450e:	e6a8      	b.n	8004262 <HAL_RCC_OscConfig+0x246>
      __HAL_RCC_HSE_CONFIG(RCC_OscInitStruct->HSEState);
 8004510:	f103 4380 	add.w	r3, r3, #1073741824	; 0x40000000
 8004514:	f5a3 333c 	sub.w	r3, r3, #192512	; 0x2f000
 8004518:	681a      	ldr	r2, [r3, #0]
 800451a:	f442 2280 	orr.w	r2, r2, #262144	; 0x40000
 800451e:	601a      	str	r2, [r3, #0]
 8004520:	681a      	ldr	r2, [r3, #0]
 8004522:	f442 3280 	orr.w	r2, r2, #65536	; 0x10000
 8004526:	601a      	str	r2, [r3, #0]
 8004528:	e5a3      	b.n	8004072 <HAL_RCC_OscConfig+0x56>
    __HAL_RCC_LSE_CONFIG(RCC_OscInitStruct->LSEState);
 800452a:	f042 0204 	orr.w	r2, r2, #4
 800452e:	621a      	str	r2, [r3, #32]
 8004530:	6a1a      	ldr	r2, [r3, #32]
 8004532:	f042 0201 	orr.w	r2, r2, #1
 8004536:	621a      	str	r2, [r3, #32]
 8004538:	e7b4      	b.n	80044a4 <HAL_RCC_OscConfig+0x488>
    return HAL_ERROR;
 800453a:	2001      	movs	r0, #1
}
 800453c:	4770      	bx	lr
 800453e:	fa93 f3a3 	rbit	r3, r3
        __HAL_RCC_PLL_DISABLE();
 8004542:	fab3 f383 	clz	r3, r3
 8004546:	f103 5384 	add.w	r3, r3, #276824064	; 0x10800000
 800454a:	f503 1384 	add.w	r3, r3, #1081344	; 0x108000
 800454e:	009b      	lsls	r3, r3, #2
 8004550:	2200      	movs	r2, #0
 8004552:	601a      	str	r2, [r3, #0]
        tickstart = HAL_GetTick();
 8004554:	f7fe f88c 	bl	8002670 <HAL_GetTick>
 8004558:	f04f 7800 	mov.w	r8, #33554432	; 0x2000000
 800455c:	4606      	mov	r6, r0
        while(__HAL_RCC_GET_FLAG(RCC_FLAG_PLLRDY)  != RESET)
 800455e:	2701      	movs	r7, #1
 8004560:	e005      	b.n	800456e <HAL_RCC_OscConfig+0x552>
          if((HAL_GetTick() - tickstart ) > PLL_TIMEOUT_VALUE)
 8004562:	f7fe f885 	bl	8002670 <HAL_GetTick>
 8004566:	1b80      	subs	r0, r0, r6
 8004568:	2802      	cmp	r0, #2
 800456a:	f63f af0d 	bhi.w	8004388 <HAL_RCC_OscConfig+0x36c>
 800456e:	fa98 f3a8 	rbit	r3, r8
        while(__HAL_RCC_GET_FLAG(RCC_FLAG_PLLRDY)  != RESET)
 8004572:	682a      	ldr	r2, [r5, #0]
 8004574:	fa98 f3a8 	rbit	r3, r8
 8004578:	fab3 f383 	clz	r3, r3
 800457c:	f003 031f 	and.w	r3, r3, #31
 8004580:	fa07 f303 	lsl.w	r3, r7, r3
 8004584:	4213      	tst	r3, r2
 8004586:	d1ec      	bne.n	8004562 <HAL_RCC_OscConfig+0x546>
      __HAL_RCC_PLL_CONFIG(RCC_OscInitStruct->PLL.PLLSource,
 8004588:	e9d4 1308 	ldrd	r1, r3, [r4, #32]
 800458c:	686a      	ldr	r2, [r5, #4]
 800458e:	430b      	orrs	r3, r1
 8004590:	f422 1274 	bic.w	r2, r2, #3997696	; 0x3d0000
 8004594:	4313      	orrs	r3, r2
 8004596:	606b      	str	r3, [r5, #4]
 8004598:	f04f 7380 	mov.w	r3, #16777216	; 0x1000000
 800459c:	fa93 f3a3 	rbit	r3, r3
        __HAL_RCC_PLL_ENABLE();
 80045a0:	fab3 f383 	clz	r3, r3
 80045a4:	f103 5384 	add.w	r3, r3, #276824064	; 0x10800000
 80045a8:	f503 1384 	add.w	r3, r3, #1081344	; 0x108000
 80045ac:	009b      	lsls	r3, r3, #2
        while(__HAL_RCC_GET_FLAG(RCC_FLAG_PLLRDY)  == RESET)
 80045ae:	4d0e      	ldr	r5, [pc, #56]	; (80045e8 <HAL_RCC_OscConfig+0x5cc>)
        __HAL_RCC_PLL_ENABLE();
 80045b0:	601f      	str	r7, [r3, #0]
        tickstart = HAL_GetTick();
 80045b2:	f7fe f85d 	bl	8002670 <HAL_GetTick>
 80045b6:	f04f 7700 	mov.w	r7, #33554432	; 0x2000000
 80045ba:	4604      	mov	r4, r0
        while(__HAL_RCC_GET_FLAG(RCC_FLAG_PLLRDY)  == RESET)
 80045bc:	2601      	movs	r6, #1
 80045be:	e005      	b.n	80045cc <HAL_RCC_OscConfig+0x5b0>
          if((HAL_GetTick() - tickstart ) > PLL_TIMEOUT_VALUE)
 80045c0:	f7fe f856 	bl	8002670 <HAL_GetTick>
 80045c4:	1b00      	subs	r0, r0, r4
 80045c6:	2802      	cmp	r0, #2
 80045c8:	f63f aede 	bhi.w	8004388 <HAL_RCC_OscConfig+0x36c>
 80045cc:	fa97 f3a7 	rbit	r3, r7
        while(__HAL_RCC_GET_FLAG(RCC_FLAG_PLLRDY)  == RESET)
 80045d0:	682a      	ldr	r2, [r5, #0]
 80045d2:	fa97 f3a7 	rbit	r3, r7
 80045d6:	fab3 f383 	clz	r3, r3
 80045da:	f003 031f 	and.w	r3, r3, #31
 80045de:	fa06 f303 	lsl.w	r3, r6, r3
 80045e2:	4213      	tst	r3, r2
 80045e4:	d0ec      	beq.n	80045c0 <HAL_RCC_OscConfig+0x5a4>
 80045e6:	e63b      	b.n	8004260 <HAL_RCC_OscConfig+0x244>
 80045e8:	40021000 	.word	0x40021000

080045ec <HAL_RCC_ClockConfig>:
HAL_StatusTypeDef HAL_RCC_ClockConfig(RCC_ClkInitTypeDef  *RCC_ClkInitStruct, uint32_t FLatency)
{
  uint32_t tickstart = 0U;

  /* Check Null pointer */
  if(RCC_ClkInitStruct == NULL)
 80045ec:	2800      	cmp	r0, #0
 80045ee:	f000 80c8 	beq.w	8004782 <HAL_RCC_ClockConfig+0x196>
  /* To correctly read data from FLASH memory, the number of wait states (LATENCY) 
  must be correctly programmed according to the frequency of the CPU clock 
    (HCLK) of the device. */

  /* Increasing the number of wait states because of higher CPU frequency */
  if(FLatency > __HAL_FLASH_GET_LATENCY())
 80045f2:	4a6f      	ldr	r2, [pc, #444]	; (80047b0 <HAL_RCC_ClockConfig+0x1c4>)
 80045f4:	6813      	ldr	r3, [r2, #0]
 80045f6:	f003 0307 	and.w	r3, r3, #7
 80045fa:	428b      	cmp	r3, r1
{
 80045fc:	e92d 41f0 	stmdb	sp!, {r4, r5, r6, r7, r8, lr}
 8004600:	460d      	mov	r5, r1
 8004602:	4604      	mov	r4, r0
  if(FLatency > __HAL_FLASH_GET_LATENCY())
 8004604:	d20c      	bcs.n	8004620 <HAL_RCC_ClockConfig+0x34>
  {    
    /* Program the new number of wait states to the LATENCY bits in the FLASH_ACR register */
    __HAL_FLASH_SET_LATENCY(FLatency);
 8004606:	6813      	ldr	r3, [r2, #0]
 8004608:	f023 0307 	bic.w	r3, r3, #7
 800460c:	430b      	orrs	r3, r1
 800460e:	6013      	str	r3, [r2, #0]
    
    /* Check that the new number of wait states is taken into account to access the Flash
    memory by reading the FLASH_ACR register */
    if(__HAL_FLASH_GET_LATENCY() != FLatency)
 8004610:	6813      	ldr	r3, [r2, #0]
 8004612:	f003 0307 	and.w	r3, r3, #7
 8004616:	428b      	cmp	r3, r1
 8004618:	d002      	beq.n	8004620 <HAL_RCC_ClockConfig+0x34>
    return HAL_ERROR;
 800461a:	2001      	movs	r0, #1

  /* Configure the source of time base considering new system clocks settings*/
  HAL_InitTick (uwTickPrio);
  
  return HAL_OK;
}
 800461c:	e8bd 81f0 	ldmia.w	sp!, {r4, r5, r6, r7, r8, pc}
  if(((RCC_ClkInitStruct->ClockType) & RCC_CLOCKTYPE_HCLK) == RCC_CLOCKTYPE_HCLK)
 8004620:	6823      	ldr	r3, [r4, #0]
 8004622:	079f      	lsls	r7, r3, #30
 8004624:	d506      	bpl.n	8004634 <HAL_RCC_ClockConfig+0x48>
    MODIFY_REG(RCC->CFGR, RCC_CFGR_HPRE, RCC_ClkInitStruct->AHBCLKDivider);
 8004626:	4963      	ldr	r1, [pc, #396]	; (80047b4 <HAL_RCC_ClockConfig+0x1c8>)
 8004628:	68a0      	ldr	r0, [r4, #8]
 800462a:	684a      	ldr	r2, [r1, #4]
 800462c:	f022 02f0 	bic.w	r2, r2, #240	; 0xf0
 8004630:	4302      	orrs	r2, r0
 8004632:	604a      	str	r2, [r1, #4]
  if(((RCC_ClkInitStruct->ClockType) & RCC_CLOCKTYPE_SYSCLK) == RCC_CLOCKTYPE_SYSCLK)
 8004634:	07de      	lsls	r6, r3, #31
 8004636:	d52f      	bpl.n	8004698 <HAL_RCC_ClockConfig+0xac>
    if(RCC_ClkInitStruct->SYSCLKSource == RCC_SYSCLKSOURCE_HSE)
 8004638:	6861      	ldr	r1, [r4, #4]
 800463a:	2901      	cmp	r1, #1
 800463c:	f000 80a3 	beq.w	8004786 <HAL_RCC_ClockConfig+0x19a>
    else if(RCC_ClkInitStruct->SYSCLKSource == RCC_SYSCLKSOURCE_PLLCLK)
 8004640:	2902      	cmp	r1, #2
 8004642:	f000 808b 	beq.w	800475c <HAL_RCC_ClockConfig+0x170>
 8004646:	2202      	movs	r2, #2
 8004648:	fa92 f3a2 	rbit	r3, r2
      if(__HAL_RCC_GET_FLAG(RCC_FLAG_HSIRDY) == RESET)
 800464c:	4b59      	ldr	r3, [pc, #356]	; (80047b4 <HAL_RCC_ClockConfig+0x1c8>)
 800464e:	6818      	ldr	r0, [r3, #0]
 8004650:	fa92 f2a2 	rbit	r2, r2
 8004654:	fab2 f282 	clz	r2, r2
 8004658:	f002 021f 	and.w	r2, r2, #31
 800465c:	2301      	movs	r3, #1
 800465e:	fa03 f202 	lsl.w	r2, r3, r2
 8004662:	4202      	tst	r2, r0
 8004664:	d0d9      	beq.n	800461a <HAL_RCC_ClockConfig+0x2e>
    __HAL_RCC_SYSCLK_CONFIG(RCC_ClkInitStruct->SYSCLKSource);
 8004666:	4e53      	ldr	r6, [pc, #332]	; (80047b4 <HAL_RCC_ClockConfig+0x1c8>)
 8004668:	6873      	ldr	r3, [r6, #4]
 800466a:	f023 0303 	bic.w	r3, r3, #3
 800466e:	430b      	orrs	r3, r1
 8004670:	6073      	str	r3, [r6, #4]
    tickstart = HAL_GetTick();
 8004672:	f7fd fffd 	bl	8002670 <HAL_GetTick>
      if ((HAL_GetTick() - tickstart) > CLOCKSWITCH_TIMEOUT_VALUE)
 8004676:	f241 3888 	movw	r8, #5000	; 0x1388
    tickstart = HAL_GetTick();
 800467a:	4607      	mov	r7, r0
    while (__HAL_RCC_GET_SYSCLK_SOURCE() != (RCC_ClkInitStruct->SYSCLKSource << RCC_CFGR_SWS_Pos))
 800467c:	e005      	b.n	800468a <HAL_RCC_ClockConfig+0x9e>
      if ((HAL_GetTick() - tickstart) > CLOCKSWITCH_TIMEOUT_VALUE)
 800467e:	f7fd fff7 	bl	8002670 <HAL_GetTick>
 8004682:	1bc0      	subs	r0, r0, r7
 8004684:	4540      	cmp	r0, r8
 8004686:	f200 8090 	bhi.w	80047aa <HAL_RCC_ClockConfig+0x1be>
    while (__HAL_RCC_GET_SYSCLK_SOURCE() != (RCC_ClkInitStruct->SYSCLKSource << RCC_CFGR_SWS_Pos))
 800468a:	6873      	ldr	r3, [r6, #4]
 800468c:	6862      	ldr	r2, [r4, #4]
 800468e:	f003 030c 	and.w	r3, r3, #12
 8004692:	ebb3 0f82 	cmp.w	r3, r2, lsl #2
 8004696:	d1f2      	bne.n	800467e <HAL_RCC_ClockConfig+0x92>
  if(FLatency < __HAL_FLASH_GET_LATENCY())
 8004698:	4a45      	ldr	r2, [pc, #276]	; (80047b0 <HAL_RCC_ClockConfig+0x1c4>)
 800469a:	6813      	ldr	r3, [r2, #0]
 800469c:	f003 0307 	and.w	r3, r3, #7
 80046a0:	42ab      	cmp	r3, r5
 80046a2:	d909      	bls.n	80046b8 <HAL_RCC_ClockConfig+0xcc>
    __HAL_FLASH_SET_LATENCY(FLatency);
 80046a4:	6813      	ldr	r3, [r2, #0]
 80046a6:	f023 0307 	bic.w	r3, r3, #7
 80046aa:	432b      	orrs	r3, r5
 80046ac:	6013      	str	r3, [r2, #0]
    if(__HAL_FLASH_GET_LATENCY() != FLatency)
 80046ae:	6813      	ldr	r3, [r2, #0]
 80046b0:	f003 0307 	and.w	r3, r3, #7
 80046b4:	42ab      	cmp	r3, r5
 80046b6:	d1b0      	bne.n	800461a <HAL_RCC_ClockConfig+0x2e>
  if(((RCC_ClkInitStruct->ClockType) & RCC_CLOCKTYPE_PCLK1) == RCC_CLOCKTYPE_PCLK1)
 80046b8:	6823      	ldr	r3, [r4, #0]
 80046ba:	0758      	lsls	r0, r3, #29
 80046bc:	d506      	bpl.n	80046cc <HAL_RCC_ClockConfig+0xe0>
    MODIFY_REG(RCC->CFGR, RCC_CFGR_PPRE1, RCC_ClkInitStruct->APB1CLKDivider);
 80046be:	493d      	ldr	r1, [pc, #244]	; (80047b4 <HAL_RCC_ClockConfig+0x1c8>)
 80046c0:	68e0      	ldr	r0, [r4, #12]
 80046c2:	684a      	ldr	r2, [r1, #4]
 80046c4:	f422 62e0 	bic.w	r2, r2, #1792	; 0x700
 80046c8:	4302      	orrs	r2, r0
 80046ca:	604a      	str	r2, [r1, #4]
  if(((RCC_ClkInitStruct->ClockType) & RCC_CLOCKTYPE_PCLK2) == RCC_CLOCKTYPE_PCLK2)
 80046cc:	0719      	lsls	r1, r3, #28
 80046ce:	d507      	bpl.n	80046e0 <HAL_RCC_ClockConfig+0xf4>
    MODIFY_REG(RCC->CFGR, RCC_CFGR_PPRE2, ((RCC_ClkInitStruct->APB2CLKDivider) << 3U));
 80046d0:	4a38      	ldr	r2, [pc, #224]	; (80047b4 <HAL_RCC_ClockConfig+0x1c8>)
 80046d2:	6921      	ldr	r1, [r4, #16]
 80046d4:	6853      	ldr	r3, [r2, #4]
 80046d6:	f423 5360 	bic.w	r3, r3, #14336	; 0x3800
 80046da:	ea43 03c1 	orr.w	r3, r3, r1, lsl #3
 80046de:	6053      	str	r3, [r2, #4]
uint32_t HAL_RCC_GetSysClockFreq(void)
{
  uint32_t tmpreg = 0U, prediv = 0U, pllclk = 0U, pllmul = 0U;
  uint32_t sysclockfreq = 0U;
  
  tmpreg = RCC->CFGR;
 80046e0:	4934      	ldr	r1, [pc, #208]	; (80047b4 <HAL_RCC_ClockConfig+0x1c8>)
 80046e2:	684a      	ldr	r2, [r1, #4]
  
  /* Get SYSCLK source -------------------------------------------------------*/
  switch (tmpreg & RCC_CFGR_SWS)
 80046e4:	f002 030c 	and.w	r3, r2, #12
 80046e8:	2b08      	cmp	r3, #8
 80046ea:	d017      	beq.n	800471c <HAL_RCC_ClockConfig+0x130>
  {
    case RCC_SYSCLKSOURCE_STATUS_HSE:  /* HSE used as system clock */
    {
      sysclockfreq = HSE_VALUE;
 80046ec:	4932      	ldr	r1, [pc, #200]	; (80047b8 <HAL_RCC_ClockConfig+0x1cc>)
  SystemCoreClock = HAL_RCC_GetSysClockFreq() >> AHBPrescTable[(RCC->CFGR & RCC_CFGR_HPRE)>> RCC_CFGR_HPRE_BITNUMBER];
 80046ee:	4b31      	ldr	r3, [pc, #196]	; (80047b4 <HAL_RCC_ClockConfig+0x1c8>)
 80046f0:	22f0      	movs	r2, #240	; 0xf0
 80046f2:	685b      	ldr	r3, [r3, #4]
 80046f4:	fa92 f2a2 	rbit	r2, r2
 80046f8:	fab2 f282 	clz	r2, r2
 80046fc:	f003 03f0 	and.w	r3, r3, #240	; 0xf0
 8004700:	40d3      	lsrs	r3, r2
 8004702:	4a2e      	ldr	r2, [pc, #184]	; (80047bc <HAL_RCC_ClockConfig+0x1d0>)
  HAL_InitTick (uwTickPrio);
 8004704:	482e      	ldr	r0, [pc, #184]	; (80047c0 <HAL_RCC_ClockConfig+0x1d4>)
  SystemCoreClock = HAL_RCC_GetSysClockFreq() >> AHBPrescTable[(RCC->CFGR & RCC_CFGR_HPRE)>> RCC_CFGR_HPRE_BITNUMBER];
 8004706:	5cd3      	ldrb	r3, [r2, r3]
 8004708:	4a2e      	ldr	r2, [pc, #184]	; (80047c4 <HAL_RCC_ClockConfig+0x1d8>)
  HAL_InitTick (uwTickPrio);
 800470a:	6800      	ldr	r0, [r0, #0]
  SystemCoreClock = HAL_RCC_GetSysClockFreq() >> AHBPrescTable[(RCC->CFGR & RCC_CFGR_HPRE)>> RCC_CFGR_HPRE_BITNUMBER];
 800470c:	fa21 f303 	lsr.w	r3, r1, r3
 8004710:	6013      	str	r3, [r2, #0]
  HAL_InitTick (uwTickPrio);
 8004712:	f7fd ff6b 	bl	80025ec <HAL_InitTick>
  return HAL_OK;
 8004716:	2000      	movs	r0, #0
}
 8004718:	e8bd 81f0 	ldmia.w	sp!, {r4, r5, r6, r7, r8, pc}
 800471c:	f44f 1370 	mov.w	r3, #3932160	; 0x3c0000
 8004720:	fa93 f3a3 	rbit	r3, r3
      break;
    }
    case RCC_SYSCLKSOURCE_STATUS_PLLCLK:  /* PLL used as system clock */
    {
      pllmul = aPLLMULFactorTable[(uint32_t)(tmpreg & RCC_CFGR_PLLMUL) >> POSITION_VAL(RCC_CFGR_PLLMUL)];
 8004724:	f402 1070 	and.w	r0, r2, #3932160	; 0x3c0000
 8004728:	fab3 f383 	clz	r3, r3
 800472c:	4c26      	ldr	r4, [pc, #152]	; (80047c8 <HAL_RCC_ClockConfig+0x1dc>)
      prediv = aPredivFactorTable[(uint32_t)(RCC->CFGR2 & RCC_CFGR2_PREDIV) >> POSITION_VAL(RCC_CFGR2_PREDIV)];
 800472e:	6ac9      	ldr	r1, [r1, #44]	; 0x2c
      pllmul = aPLLMULFactorTable[(uint32_t)(tmpreg & RCC_CFGR_PLLMUL) >> POSITION_VAL(RCC_CFGR_PLLMUL)];
 8004730:	fa20 f303 	lsr.w	r3, r0, r3
 8004734:	200f      	movs	r0, #15
 8004736:	5ce3      	ldrb	r3, [r4, r3]
 8004738:	fa90 f0a0 	rbit	r0, r0
      prediv = aPredivFactorTable[(uint32_t)(RCC->CFGR2 & RCC_CFGR2_PREDIV) >> POSITION_VAL(RCC_CFGR2_PREDIV)];
 800473c:	fab0 f080 	clz	r0, r0
 8004740:	f001 010f 	and.w	r1, r1, #15
 8004744:	40c1      	lsrs	r1, r0
 8004746:	4c21      	ldr	r4, [pc, #132]	; (80047cc <HAL_RCC_ClockConfig+0x1e0>)
#if defined(RCC_CFGR_PLLSRC_HSI_DIV2)
      if ((tmpreg & RCC_CFGR_PLLSRC) != RCC_PLLSOURCE_HSI)
 8004748:	03d2      	lsls	r2, r2, #15
      prediv = aPredivFactorTable[(uint32_t)(RCC->CFGR2 & RCC_CFGR2_PREDIV) >> POSITION_VAL(RCC_CFGR2_PREDIV)];
 800474a:	5c60      	ldrb	r0, [r4, r1]
      {
        /* HSE used as PLL clock source : PLLCLK = HSE/PREDIV * PLLMUL */
        pllclk = (uint32_t)((uint64_t) HSE_VALUE / (uint64_t) (prediv)) * ((uint64_t) pllmul);
 800474c:	bf4a      	itet	mi
 800474e:	491a      	ldrmi	r1, [pc, #104]	; (80047b8 <HAL_RCC_ClockConfig+0x1cc>)
      }
      else
      {
        /* HSI used as PLL clock source : PLLCLK = HSI/2 * PLLMUL */
        pllclk = (uint32_t)((uint64_t) (HSI_VALUE >> 1U) * ((uint64_t) pllmul));
 8004750:	491f      	ldrpl	r1, [pc, #124]	; (80047d0 <HAL_RCC_ClockConfig+0x1e4>)
        pllclk = (uint32_t)((uint64_t) HSE_VALUE / (uint64_t) (prediv)) * ((uint64_t) pllmul);
 8004752:	fbb1 f1f0 	udivmi	r1, r1, r0
        pllclk = (uint32_t)((uint64_t) (HSI_VALUE >> 1U) * ((uint64_t) pllmul));
 8004756:	fb03 f101 	mul.w	r1, r3, r1
 800475a:	e7c8      	b.n	80046ee <HAL_RCC_ClockConfig+0x102>
 800475c:	f04f 7300 	mov.w	r3, #33554432	; 0x2000000
 8004760:	fa93 f2a3 	rbit	r2, r3
      if(__HAL_RCC_GET_FLAG(RCC_FLAG_PLLRDY) == RESET)
 8004764:	4a13      	ldr	r2, [pc, #76]	; (80047b4 <HAL_RCC_ClockConfig+0x1c8>)
 8004766:	6810      	ldr	r0, [r2, #0]
 8004768:	fa93 f3a3 	rbit	r3, r3
 800476c:	fab3 f383 	clz	r3, r3
 8004770:	f003 031f 	and.w	r3, r3, #31
 8004774:	2201      	movs	r2, #1
 8004776:	fa02 f303 	lsl.w	r3, r2, r3
 800477a:	4203      	tst	r3, r0
 800477c:	f47f af73 	bne.w	8004666 <HAL_RCC_ClockConfig+0x7a>
 8004780:	e74b      	b.n	800461a <HAL_RCC_ClockConfig+0x2e>
    return HAL_ERROR;
 8004782:	2001      	movs	r0, #1
}
 8004784:	4770      	bx	lr
 8004786:	f44f 3200 	mov.w	r2, #131072	; 0x20000
 800478a:	fa92 f3a2 	rbit	r3, r2
      if(__HAL_RCC_GET_FLAG(RCC_FLAG_HSERDY) == RESET)
 800478e:	4b09      	ldr	r3, [pc, #36]	; (80047b4 <HAL_RCC_ClockConfig+0x1c8>)
 8004790:	681b      	ldr	r3, [r3, #0]
 8004792:	fa92 f2a2 	rbit	r2, r2
 8004796:	fab2 f282 	clz	r2, r2
 800479a:	f002 021f 	and.w	r2, r2, #31
 800479e:	fa01 f202 	lsl.w	r2, r1, r2
 80047a2:	421a      	tst	r2, r3
 80047a4:	f47f af5f 	bne.w	8004666 <HAL_RCC_ClockConfig+0x7a>
 80047a8:	e737      	b.n	800461a <HAL_RCC_ClockConfig+0x2e>
        return HAL_TIMEOUT;
 80047aa:	2003      	movs	r0, #3
 80047ac:	e736      	b.n	800461c <HAL_RCC_ClockConfig+0x30>
 80047ae:	bf00      	nop
 80047b0:	40022000 	.word	0x40022000
 80047b4:	40021000 	.word	0x40021000
 80047b8:	007a1200 	.word	0x007a1200
 80047bc:	08009e48 	.word	0x08009e48
 80047c0:	20000008 	.word	0x20000008
 80047c4:	20000000 	.word	0x20000000
 80047c8:	08009e60 	.word	0x08009e60
 80047cc:	08009e70 	.word	0x08009e70
 80047d0:	003d0900 	.word	0x003d0900

080047d4 <HAL_RCC_GetSysClockFreq>:
  tmpreg = RCC->CFGR;
 80047d4:	4915      	ldr	r1, [pc, #84]	; (800482c <HAL_RCC_GetSysClockFreq+0x58>)
 80047d6:	684b      	ldr	r3, [r1, #4]
  switch (tmpreg & RCC_CFGR_SWS)
 80047d8:	f003 020c 	and.w	r2, r3, #12
 80047dc:	2a08      	cmp	r2, #8
 80047de:	d001      	beq.n	80047e4 <HAL_RCC_GetSysClockFreq+0x10>
      sysclockfreq = HSE_VALUE;
 80047e0:	4813      	ldr	r0, [pc, #76]	; (8004830 <HAL_RCC_GetSysClockFreq+0x5c>)
      sysclockfreq = HSI_VALUE;
      break;
    }
  }
  return sysclockfreq;
}
 80047e2:	4770      	bx	lr
{
 80047e4:	b410      	push	{r4}
 80047e6:	f44f 1270 	mov.w	r2, #3932160	; 0x3c0000
 80047ea:	fa92 f2a2 	rbit	r2, r2
      pllmul = aPLLMULFactorTable[(uint32_t)(tmpreg & RCC_CFGR_PLLMUL) >> POSITION_VAL(RCC_CFGR_PLLMUL)];
 80047ee:	fab2 f282 	clz	r2, r2
 80047f2:	f403 1070 	and.w	r0, r3, #3932160	; 0x3c0000
 80047f6:	4c0f      	ldr	r4, [pc, #60]	; (8004834 <HAL_RCC_GetSysClockFreq+0x60>)
 80047f8:	40d0      	lsrs	r0, r2
      prediv = aPredivFactorTable[(uint32_t)(RCC->CFGR2 & RCC_CFGR2_PREDIV) >> POSITION_VAL(RCC_CFGR2_PREDIV)];
 80047fa:	6aca      	ldr	r2, [r1, #44]	; 0x2c
      pllmul = aPLLMULFactorTable[(uint32_t)(tmpreg & RCC_CFGR_PLLMUL) >> POSITION_VAL(RCC_CFGR_PLLMUL)];
 80047fc:	5c20      	ldrb	r0, [r4, r0]
 80047fe:	210f      	movs	r1, #15
 8004800:	fa91 f1a1 	rbit	r1, r1
      if ((tmpreg & RCC_CFGR_PLLSRC) != RCC_PLLSOURCE_HSI)
 8004804:	03db      	lsls	r3, r3, #15
      prediv = aPredivFactorTable[(uint32_t)(RCC->CFGR2 & RCC_CFGR2_PREDIV) >> POSITION_VAL(RCC_CFGR2_PREDIV)];
 8004806:	fab1 f181 	clz	r1, r1
 800480a:	f002 020f 	and.w	r2, r2, #15
 800480e:	4c0a      	ldr	r4, [pc, #40]	; (8004838 <HAL_RCC_GetSysClockFreq+0x64>)
        pllclk = (uint32_t)((uint64_t) HSE_VALUE / (uint64_t) (prediv)) * ((uint64_t) pllmul);
 8004810:	bf4c      	ite	mi
 8004812:	4b07      	ldrmi	r3, [pc, #28]	; (8004830 <HAL_RCC_GetSysClockFreq+0x5c>)
        pllclk = (uint32_t)((uint64_t) (HSI_VALUE >> 1U) * ((uint64_t) pllmul));
 8004814:	4b09      	ldrpl	r3, [pc, #36]	; (800483c <HAL_RCC_GetSysClockFreq+0x68>)
      prediv = aPredivFactorTable[(uint32_t)(RCC->CFGR2 & RCC_CFGR2_PREDIV) >> POSITION_VAL(RCC_CFGR2_PREDIV)];
 8004816:	fa22 f201 	lsr.w	r2, r2, r1
 800481a:	5ca2      	ldrb	r2, [r4, r2]
}
 800481c:	f85d 4b04 	ldr.w	r4, [sp], #4
        pllclk = (uint32_t)((uint64_t) HSE_VALUE / (uint64_t) (prediv)) * ((uint64_t) pllmul);
 8004820:	bf48      	it	mi
 8004822:	fbb3 f3f2 	udivmi	r3, r3, r2
        pllclk = (uint32_t)((uint64_t) (HSI_VALUE >> 1U) * ((uint64_t) pllmul));
 8004826:	fb03 f000 	mul.w	r0, r3, r0
}
 800482a:	4770      	bx	lr
 800482c:	40021000 	.word	0x40021000
 8004830:	007a1200 	.word	0x007a1200
 8004834:	08009e60 	.word	0x08009e60
 8004838:	08009e70 	.word	0x08009e70
 800483c:	003d0900 	.word	0x003d0900

08004840 <HAL_RCC_GetPCLK1Freq>:
  * @retval PCLK1 frequency
  */
uint32_t HAL_RCC_GetPCLK1Freq(void)
{
  /* Get HCLK source and Compute PCLK1 frequency ---------------------------*/
  return (HAL_RCC_GetHCLKFreq() >> APBPrescTable[(RCC->CFGR & RCC_CFGR_PPRE1) >> RCC_CFGR_PPRE1_BITNUMBER]);
 8004840:	4b08      	ldr	r3, [pc, #32]	; (8004864 <HAL_RCC_GetPCLK1Freq+0x24>)
 8004842:	f44f 62e0 	mov.w	r2, #1792	; 0x700
 8004846:	685b      	ldr	r3, [r3, #4]
 8004848:	fa92 f2a2 	rbit	r2, r2
 800484c:	fab2 f282 	clz	r2, r2
 8004850:	f403 63e0 	and.w	r3, r3, #1792	; 0x700
 8004854:	4904      	ldr	r1, [pc, #16]	; (8004868 <HAL_RCC_GetPCLK1Freq+0x28>)
  return SystemCoreClock;
 8004856:	4805      	ldr	r0, [pc, #20]	; (800486c <HAL_RCC_GetPCLK1Freq+0x2c>)
  return (HAL_RCC_GetHCLKFreq() >> APBPrescTable[(RCC->CFGR & RCC_CFGR_PPRE1) >> RCC_CFGR_PPRE1_BITNUMBER]);
 8004858:	40d3      	lsrs	r3, r2
 800485a:	6800      	ldr	r0, [r0, #0]
 800485c:	5ccb      	ldrb	r3, [r1, r3]
}    
 800485e:	40d8      	lsrs	r0, r3
 8004860:	4770      	bx	lr
 8004862:	bf00      	nop
 8004864:	40021000 	.word	0x40021000
 8004868:	08009e58 	.word	0x08009e58
 800486c:	20000000 	.word	0x20000000

08004870 <HAL_RCC_GetPCLK2Freq>:
  * @retval PCLK2 frequency
  */
uint32_t HAL_RCC_GetPCLK2Freq(void)
{
  /* Get HCLK source and Compute PCLK2 frequency ---------------------------*/
  return (HAL_RCC_GetHCLKFreq()>> APBPrescTable[(RCC->CFGR & RCC_CFGR_PPRE2) >> RCC_CFGR_PPRE2_BITNUMBER]);
 8004870:	4b08      	ldr	r3, [pc, #32]	; (8004894 <HAL_RCC_GetPCLK2Freq+0x24>)
 8004872:	f44f 5260 	mov.w	r2, #14336	; 0x3800
 8004876:	685b      	ldr	r3, [r3, #4]
 8004878:	fa92 f2a2 	rbit	r2, r2
 800487c:	fab2 f282 	clz	r2, r2
 8004880:	f403 5360 	and.w	r3, r3, #14336	; 0x3800
 8004884:	4904      	ldr	r1, [pc, #16]	; (8004898 <HAL_RCC_GetPCLK2Freq+0x28>)
  return SystemCoreClock;
 8004886:	4805      	ldr	r0, [pc, #20]	; (800489c <HAL_RCC_GetPCLK2Freq+0x2c>)
  return (HAL_RCC_GetHCLKFreq()>> APBPrescTable[(RCC->CFGR & RCC_CFGR_PPRE2) >> RCC_CFGR_PPRE2_BITNUMBER]);
 8004888:	40d3      	lsrs	r3, r2
 800488a:	6800      	ldr	r0, [r0, #0]
 800488c:	5ccb      	ldrb	r3, [r1, r3]
} 
 800488e:	40d8      	lsrs	r0, r3
 8004890:	4770      	bx	lr
 8004892:	bf00      	nop
 8004894:	40021000 	.word	0x40021000
 8004898:	08009e58 	.word	0x08009e58
 800489c:	20000000 	.word	0x20000000

080048a0 <HAL_RCCEx_PeriphCLKConfig>:
  *         When the TIMx clock source is PLL clock, so the TIMx clock is PLL clock x 2.
  *
  * @retval HAL status
  */
HAL_StatusTypeDef HAL_RCCEx_PeriphCLKConfig(RCC_PeriphCLKInitTypeDef  *PeriphClkInit)
{
 80048a0:	e92d 43f0 	stmdb	sp!, {r4, r5, r6, r7, r8, r9, lr}
    
  /* Check the parameters */
  assert_param(IS_RCC_PERIPHCLOCK(PeriphClkInit->PeriphClockSelection));
  
  /*---------------------------- RTC configuration -------------------------------*/
  if(((PeriphClkInit->PeriphClockSelection) & RCC_PERIPHCLK_RTC) == (RCC_PERIPHCLK_RTC))
 80048a4:	6803      	ldr	r3, [r0, #0]
 80048a6:	03dd      	lsls	r5, r3, #15
{
 80048a8:	b083      	sub	sp, #12
 80048aa:	4604      	mov	r4, r0
  if(((PeriphClkInit->PeriphClockSelection) & RCC_PERIPHCLK_RTC) == (RCC_PERIPHCLK_RTC))
 80048ac:	d540      	bpl.n	8004930 <HAL_RCCEx_PeriphCLKConfig+0x90>


    /* As soon as function is called to change RTC clock source, activation of the 
       power domain is done. */
    /* Requires to enable write access to Backup Domain of necessary */
    if(__HAL_RCC_PWR_IS_CLK_DISABLED())
 80048ae:	4b84      	ldr	r3, [pc, #528]	; (8004ac0 <HAL_RCCEx_PeriphCLKConfig+0x220>)
 80048b0:	69da      	ldr	r2, [r3, #28]
 80048b2:	00d0      	lsls	r0, r2, #3
 80048b4:	f140 80ba 	bpl.w	8004a2c <HAL_RCCEx_PeriphCLKConfig+0x18c>
    {
      __HAL_RCC_PWR_CLK_ENABLE();
      pwrclkchanged = SET;
    }
    
    if(HAL_IS_BIT_CLR(PWR->CR, PWR_CR_DBP))
 80048b8:	4e82      	ldr	r6, [pc, #520]	; (8004ac4 <HAL_RCCEx_PeriphCLKConfig+0x224>)
 80048ba:	6833      	ldr	r3, [r6, #0]
 80048bc:	05d9      	lsls	r1, r3, #23
  FlagStatus       pwrclkchanged = RESET;
 80048be:	f04f 0500 	mov.w	r5, #0
    if(HAL_IS_BIT_CLR(PWR->CR, PWR_CR_DBP))
 80048c2:	f140 80c3 	bpl.w	8004a4c <HAL_RCCEx_PeriphCLKConfig+0x1ac>
        }
      }
    }
    
    /* Reset the Backup domain only if the RTC Clock source selection is modified from reset value */ 
    temp_reg = (RCC->BDCR & RCC_BDCR_RTCSEL);
 80048c6:	f8df 81f8 	ldr.w	r8, [pc, #504]	; 8004ac0 <HAL_RCCEx_PeriphCLKConfig+0x220>
 80048ca:	f8d8 3020 	ldr.w	r3, [r8, #32]
    if((temp_reg != 0x00000000U) && (temp_reg != (PeriphClkInit->RTCClockSelection & RCC_BDCR_RTCSEL)))
 80048ce:	f413 7340 	ands.w	r3, r3, #768	; 0x300
 80048d2:	d020      	beq.n	8004916 <HAL_RCCEx_PeriphCLKConfig+0x76>
 80048d4:	6861      	ldr	r1, [r4, #4]
 80048d6:	f401 7240 	and.w	r2, r1, #768	; 0x300
 80048da:	429a      	cmp	r2, r3
 80048dc:	d01c      	beq.n	8004918 <HAL_RCCEx_PeriphCLKConfig+0x78>
    {
      /* Store the content of BDCR register before the reset of Backup Domain */
      temp_reg = (RCC->BDCR & ~(RCC_BDCR_RTCSEL));
 80048de:	f8d8 1020 	ldr.w	r1, [r8, #32]
 80048e2:	f44f 3380 	mov.w	r3, #65536	; 0x10000
 80048e6:	f421 7040 	bic.w	r0, r1, #768	; 0x300
 80048ea:	fa93 f2a3 	rbit	r2, r3
      /* RTC Clock selection can be changed only if the Backup Domain is reset */
      __HAL_RCC_BACKUPRESET_FORCE();
 80048ee:	4f76      	ldr	r7, [pc, #472]	; (8004ac8 <HAL_RCCEx_PeriphCLKConfig+0x228>)
 80048f0:	fab2 f282 	clz	r2, r2
 80048f4:	443a      	add	r2, r7
 80048f6:	0092      	lsls	r2, r2, #2
 80048f8:	2601      	movs	r6, #1
 80048fa:	6016      	str	r6, [r2, #0]
 80048fc:	fa93 f3a3 	rbit	r3, r3
      __HAL_RCC_BACKUPRESET_RELEASE();
 8004900:	fab3 f383 	clz	r3, r3
 8004904:	443b      	add	r3, r7
 8004906:	009b      	lsls	r3, r3, #2
 8004908:	2200      	movs	r2, #0
 800490a:	601a      	str	r2, [r3, #0]
      /* Restore the Content of BDCR register */
      RCC->BDCR = temp_reg;
    
      /* Wait for LSERDY if LSE was enabled */
      if (HAL_IS_BIT_SET(temp_reg, RCC_BDCR_LSEON))
 800490c:	07cb      	lsls	r3, r1, #31
      RCC->BDCR = temp_reg;
 800490e:	f8c8 0020 	str.w	r0, [r8, #32]
      if (HAL_IS_BIT_SET(temp_reg, RCC_BDCR_LSEON))
 8004912:	f100 80af 	bmi.w	8004a74 <HAL_RCCEx_PeriphCLKConfig+0x1d4>
            return HAL_TIMEOUT;
          }      
        }  
      }
    }
    __HAL_RCC_RTC_CONFIG(PeriphClkInit->RTCClockSelection); 
 8004916:	6861      	ldr	r1, [r4, #4]
 8004918:	4a69      	ldr	r2, [pc, #420]	; (8004ac0 <HAL_RCCEx_PeriphCLKConfig+0x220>)
 800491a:	6a13      	ldr	r3, [r2, #32]
 800491c:	f423 7340 	bic.w	r3, r3, #768	; 0x300
 8004920:	430b      	orrs	r3, r1
 8004922:	6213      	str	r3, [r2, #32]

    /* Require to disable power clock if necessary */
    if(pwrclkchanged == SET)
 8004924:	b11d      	cbz	r5, 800492e <HAL_RCCEx_PeriphCLKConfig+0x8e>
    {
      __HAL_RCC_PWR_CLK_DISABLE();
 8004926:	69d3      	ldr	r3, [r2, #28]
 8004928:	f023 5380 	bic.w	r3, r3, #268435456	; 0x10000000
 800492c:	61d3      	str	r3, [r2, #28]
    }
  }

  /*------------------------------- USART1 Configuration ------------------------*/
  if(((PeriphClkInit->PeriphClockSelection) & RCC_PERIPHCLK_USART1) == RCC_PERIPHCLK_USART1)
 800492e:	6823      	ldr	r3, [r4, #0]
 8004930:	07df      	lsls	r7, r3, #31
 8004932:	d506      	bpl.n	8004942 <HAL_RCCEx_PeriphCLKConfig+0xa2>
  {
    /* Check the parameters */
    assert_param(IS_RCC_USART1CLKSOURCE(PeriphClkInit->Usart1ClockSelection));
    
    /* Configure the USART1 clock source */
    __HAL_RCC_USART1_CONFIG(PeriphClkInit->Usart1ClockSelection);
 8004934:	4962      	ldr	r1, [pc, #392]	; (8004ac0 <HAL_RCCEx_PeriphCLKConfig+0x220>)
 8004936:	68a0      	ldr	r0, [r4, #8]
 8004938:	6b0a      	ldr	r2, [r1, #48]	; 0x30
 800493a:	f022 0203 	bic.w	r2, r2, #3
 800493e:	4302      	orrs	r2, r0
 8004940:	630a      	str	r2, [r1, #48]	; 0x30
  }

#if defined(RCC_CFGR3_USART2SW)
  /*----------------------------- USART2 Configuration --------------------------*/ 
  if(((PeriphClkInit->PeriphClockSelection) & RCC_PERIPHCLK_USART2) == RCC_PERIPHCLK_USART2)
 8004942:	079e      	lsls	r6, r3, #30
 8004944:	d506      	bpl.n	8004954 <HAL_RCCEx_PeriphCLKConfig+0xb4>
  {
    /* Check the parameters */
    assert_param(IS_RCC_USART2CLKSOURCE(PeriphClkInit->Usart2ClockSelection));
    
    /* Configure the USART2 clock source */
    __HAL_RCC_USART2_CONFIG(PeriphClkInit->Usart2ClockSelection);
 8004946:	495e      	ldr	r1, [pc, #376]	; (8004ac0 <HAL_RCCEx_PeriphCLKConfig+0x220>)
 8004948:	68e0      	ldr	r0, [r4, #12]
 800494a:	6b0a      	ldr	r2, [r1, #48]	; 0x30
 800494c:	f422 3240 	bic.w	r2, r2, #196608	; 0x30000
 8004950:	4302      	orrs	r2, r0
 8004952:	630a      	str	r2, [r1, #48]	; 0x30
  }
#endif /* RCC_CFGR3_USART2SW */

#if defined(RCC_CFGR3_USART3SW)
  /*------------------------------ USART3 Configuration ------------------------*/ 
  if(((PeriphClkInit->PeriphClockSelection) & RCC_PERIPHCLK_USART3) == RCC_PERIPHCLK_USART3)
 8004954:	075d      	lsls	r5, r3, #29
 8004956:	d506      	bpl.n	8004966 <HAL_RCCEx_PeriphCLKConfig+0xc6>
  {
    /* Check the parameters */
    assert_param(IS_RCC_USART3CLKSOURCE(PeriphClkInit->Usart3ClockSelection));
    
    /* Configure the USART3 clock source */
    __HAL_RCC_USART3_CONFIG(PeriphClkInit->Usart3ClockSelection);
 8004958:	4959      	ldr	r1, [pc, #356]	; (8004ac0 <HAL_RCCEx_PeriphCLKConfig+0x220>)
 800495a:	6920      	ldr	r0, [r4, #16]
 800495c:	6b0a      	ldr	r2, [r1, #48]	; 0x30
 800495e:	f422 2240 	bic.w	r2, r2, #786432	; 0xc0000
 8004962:	4302      	orrs	r2, r0
 8004964:	630a      	str	r2, [r1, #48]	; 0x30
  }
#endif /* RCC_CFGR3_USART3SW */

  /*------------------------------ I2C1 Configuration ------------------------*/ 
  if(((PeriphClkInit->PeriphClockSelection) & RCC_PERIPHCLK_I2C1) == RCC_PERIPHCLK_I2C1)
 8004966:	0698      	lsls	r0, r3, #26
 8004968:	d506      	bpl.n	8004978 <HAL_RCCEx_PeriphCLKConfig+0xd8>
  {
    /* Check the parameters */
    assert_param(IS_RCC_I2C1CLKSOURCE(PeriphClkInit->I2c1ClockSelection));
    
    /* Configure the I2C1 clock source */
    __HAL_RCC_I2C1_CONFIG(PeriphClkInit->I2c1ClockSelection);
 800496a:	4955      	ldr	r1, [pc, #340]	; (8004ac0 <HAL_RCCEx_PeriphCLKConfig+0x220>)
 800496c:	69e0      	ldr	r0, [r4, #28]
 800496e:	6b0a      	ldr	r2, [r1, #48]	; 0x30
 8004970:	f022 0210 	bic.w	r2, r2, #16
 8004974:	4302      	orrs	r2, r0
 8004976:	630a      	str	r2, [r1, #48]	; 0x30
#if defined(STM32F302xE) || defined(STM32F303xE)\
 || defined(STM32F302xC) || defined(STM32F303xC)\
 || defined(STM32F302x8)                        \
 || defined(STM32F373xC)
  /*------------------------------ USB Configuration ------------------------*/ 
  if(((PeriphClkInit->PeriphClockSelection) & RCC_PERIPHCLK_USB) == RCC_PERIPHCLK_USB)
 8004978:	0399      	lsls	r1, r3, #14
 800497a:	d506      	bpl.n	800498a <HAL_RCCEx_PeriphCLKConfig+0xea>
  {
    /* Check the parameters */
    assert_param(IS_RCC_USBCLKSOURCE(PeriphClkInit->USBClockSelection));
    
    /* Configure the USB clock source */
    __HAL_RCC_USB_CONFIG(PeriphClkInit->USBClockSelection);
 800497c:	4950      	ldr	r1, [pc, #320]	; (8004ac0 <HAL_RCCEx_PeriphCLKConfig+0x220>)
 800497e:	6ba0      	ldr	r0, [r4, #56]	; 0x38
 8004980:	684a      	ldr	r2, [r1, #4]
 8004982:	f422 0280 	bic.w	r2, r2, #4194304	; 0x400000
 8004986:	4302      	orrs	r2, r0
 8004988:	604a      	str	r2, [r1, #4]
 || defined(STM32F302xC) || defined(STM32F303xC) || defined(STM32F358xx)\
 || defined(STM32F301x8) || defined(STM32F302x8) || defined(STM32F318xx)\
 || defined(STM32F373xC) || defined(STM32F378xx)

  /*------------------------------ I2C2 Configuration ------------------------*/ 
  if(((PeriphClkInit->PeriphClockSelection) & RCC_PERIPHCLK_I2C2) == RCC_PERIPHCLK_I2C2)
 800498a:	065a      	lsls	r2, r3, #25
 800498c:	d506      	bpl.n	800499c <HAL_RCCEx_PeriphCLKConfig+0xfc>
  {
    /* Check the parameters */
    assert_param(IS_RCC_I2C2CLKSOURCE(PeriphClkInit->I2c2ClockSelection));
    
    /* Configure the I2C2 clock source */
    __HAL_RCC_I2C2_CONFIG(PeriphClkInit->I2c2ClockSelection);
 800498e:	494c      	ldr	r1, [pc, #304]	; (8004ac0 <HAL_RCCEx_PeriphCLKConfig+0x220>)
 8004990:	6a20      	ldr	r0, [r4, #32]
 8004992:	6b0a      	ldr	r2, [r1, #48]	; 0x30
 8004994:	f022 0220 	bic.w	r2, r2, #32
 8004998:	4302      	orrs	r2, r0
 800499a:	630a      	str	r2, [r1, #48]	; 0x30
  
#if defined(STM32F302xE) || defined(STM32F303xE) || defined(STM32F398xx)\
 || defined(STM32F302xC) || defined(STM32F303xC) || defined(STM32F358xx)

  /*------------------------------ UART4 Configuration ------------------------*/ 
  if(((PeriphClkInit->PeriphClockSelection) & RCC_PERIPHCLK_UART4) == RCC_PERIPHCLK_UART4)
 800499c:	071f      	lsls	r7, r3, #28
 800499e:	d506      	bpl.n	80049ae <HAL_RCCEx_PeriphCLKConfig+0x10e>
  {
    /* Check the parameters */
    assert_param(IS_RCC_UART4CLKSOURCE(PeriphClkInit->Uart4ClockSelection));
    
    /* Configure the UART4 clock source */
    __HAL_RCC_UART4_CONFIG(PeriphClkInit->Uart4ClockSelection);
 80049a0:	4947      	ldr	r1, [pc, #284]	; (8004ac0 <HAL_RCCEx_PeriphCLKConfig+0x220>)
 80049a2:	6960      	ldr	r0, [r4, #20]
 80049a4:	6b0a      	ldr	r2, [r1, #48]	; 0x30
 80049a6:	f422 1240 	bic.w	r2, r2, #3145728	; 0x300000
 80049aa:	4302      	orrs	r2, r0
 80049ac:	630a      	str	r2, [r1, #48]	; 0x30
  }

  /*------------------------------ UART5 Configuration ------------------------*/ 
  if(((PeriphClkInit->PeriphClockSelection) & RCC_PERIPHCLK_UART5) == RCC_PERIPHCLK_UART5)
 80049ae:	06de      	lsls	r6, r3, #27
 80049b0:	d506      	bpl.n	80049c0 <HAL_RCCEx_PeriphCLKConfig+0x120>
  {
    /* Check the parameters */
    assert_param(IS_RCC_UART5CLKSOURCE(PeriphClkInit->Uart5ClockSelection));
    
    /* Configure the UART5 clock source */
    __HAL_RCC_UART5_CONFIG(PeriphClkInit->Uart5ClockSelection);
 80049b2:	4943      	ldr	r1, [pc, #268]	; (8004ac0 <HAL_RCCEx_PeriphCLKConfig+0x220>)
 80049b4:	69a0      	ldr	r0, [r4, #24]
 80049b6:	6b0a      	ldr	r2, [r1, #48]	; 0x30
 80049b8:	f422 0240 	bic.w	r2, r2, #12582912	; 0xc00000
 80049bc:	4302      	orrs	r2, r0
 80049be:	630a      	str	r2, [r1, #48]	; 0x30

#if defined(STM32F302xE) || defined(STM32F303xE) || defined(STM32F398xx)\
 || defined(STM32F302xC) || defined(STM32F303xC) || defined(STM32F358xx)\
 || defined(STM32F301x8) || defined(STM32F302x8) || defined(STM32F318xx)
  /*------------------------------ I2S Configuration ------------------------*/ 
  if(((PeriphClkInit->PeriphClockSelection) & RCC_PERIPHCLK_I2S) == RCC_PERIPHCLK_I2S)
 80049c0:	059d      	lsls	r5, r3, #22
 80049c2:	d506      	bpl.n	80049d2 <HAL_RCCEx_PeriphCLKConfig+0x132>
  {
    /* Check the parameters */
    assert_param(IS_RCC_I2SCLKSOURCE(PeriphClkInit->I2sClockSelection));
    
    /* Configure the I2S clock source */
    __HAL_RCC_I2S_CONFIG(PeriphClkInit->I2sClockSelection);
 80049c4:	493e      	ldr	r1, [pc, #248]	; (8004ac0 <HAL_RCCEx_PeriphCLKConfig+0x220>)
 80049c6:	6ae0      	ldr	r0, [r4, #44]	; 0x2c
 80049c8:	684a      	ldr	r2, [r1, #4]
 80049ca:	f422 0200 	bic.w	r2, r2, #8388608	; 0x800000
 80049ce:	4302      	orrs	r2, r0
 80049d0:	604a      	str	r2, [r1, #4]
#if defined(STM32F302xE) || defined(STM32F303xE) || defined(STM32F398xx)\
 || defined(STM32F302xC) || defined(STM32F303xC) || defined(STM32F358xx)\
 || defined(STM32F303x8) || defined(STM32F334x8) || defined(STM32F328xx)
      
  /*------------------------------ ADC1 & ADC2 clock Configuration -------------*/ 
  if(((PeriphClkInit->PeriphClockSelection) & RCC_PERIPHCLK_ADC12) == RCC_PERIPHCLK_ADC12)
 80049d2:	0618      	lsls	r0, r3, #24
 80049d4:	d506      	bpl.n	80049e4 <HAL_RCCEx_PeriphCLKConfig+0x144>
  {
    /* Check the parameters */
    assert_param(IS_RCC_ADC12PLLCLK_DIV(PeriphClkInit->Adc12ClockSelection));
    
    /* Configure the ADC12 clock source */
    __HAL_RCC_ADC12_CONFIG(PeriphClkInit->Adc12ClockSelection);
 80049d6:	493a      	ldr	r1, [pc, #232]	; (8004ac0 <HAL_RCCEx_PeriphCLKConfig+0x220>)
 80049d8:	6a60      	ldr	r0, [r4, #36]	; 0x24
 80049da:	6aca      	ldr	r2, [r1, #44]	; 0x2c
 80049dc:	f422 72f8 	bic.w	r2, r2, #496	; 0x1f0
 80049e0:	4302      	orrs	r2, r0
 80049e2:	62ca      	str	r2, [r1, #44]	; 0x2c
  
#if defined(STM32F303xE) || defined(STM32F398xx)\
 || defined(STM32F303xC) || defined(STM32F358xx)

  /*------------------------------ ADC3 & ADC4 clock Configuration -------------*/ 
  if(((PeriphClkInit->PeriphClockSelection) & RCC_PERIPHCLK_ADC34) == RCC_PERIPHCLK_ADC34)
 80049e4:	05d9      	lsls	r1, r3, #23
 80049e6:	d506      	bpl.n	80049f6 <HAL_RCCEx_PeriphCLKConfig+0x156>
  {
    /* Check the parameters */
    assert_param(IS_RCC_ADC34PLLCLK_DIV(PeriphClkInit->Adc34ClockSelection));
    
    /* Configure the ADC34 clock source */
    __HAL_RCC_ADC34_CONFIG(PeriphClkInit->Adc34ClockSelection);
 80049e8:	4935      	ldr	r1, [pc, #212]	; (8004ac0 <HAL_RCCEx_PeriphCLKConfig+0x220>)
 80049ea:	6aa0      	ldr	r0, [r4, #40]	; 0x28
 80049ec:	6aca      	ldr	r2, [r1, #44]	; 0x2c
 80049ee:	f422 5278 	bic.w	r2, r2, #15872	; 0x3e00
 80049f2:	4302      	orrs	r2, r0
 80049f4:	62ca      	str	r2, [r1, #44]	; 0x2c
 || defined(STM32F302xC) || defined(STM32F303xC) || defined(STM32F358xx)\
 || defined(STM32F303x8) || defined(STM32F334x8) || defined(STM32F328xx)\
 || defined(STM32F301x8) || defined(STM32F302x8) || defined(STM32F318xx)

  /*------------------------------ TIM1 clock Configuration ----------------*/ 
  if(((PeriphClkInit->PeriphClockSelection) & RCC_PERIPHCLK_TIM1) == RCC_PERIPHCLK_TIM1)
 80049f6:	04da      	lsls	r2, r3, #19
 80049f8:	d506      	bpl.n	8004a08 <HAL_RCCEx_PeriphCLKConfig+0x168>
  {
    /* Check the parameters */
    assert_param(IS_RCC_TIM1CLKSOURCE(PeriphClkInit->Tim1ClockSelection));
    
    /* Configure the TIM1 clock source */
    __HAL_RCC_TIM1_CONFIG(PeriphClkInit->Tim1ClockSelection);
 80049fa:	4931      	ldr	r1, [pc, #196]	; (8004ac0 <HAL_RCCEx_PeriphCLKConfig+0x220>)
 80049fc:	6b20      	ldr	r0, [r4, #48]	; 0x30
 80049fe:	6b0a      	ldr	r2, [r1, #48]	; 0x30
 8004a00:	f422 7280 	bic.w	r2, r2, #256	; 0x100
 8004a04:	4302      	orrs	r2, r0
 8004a06:	630a      	str	r2, [r1, #48]	; 0x30
  
#if defined(STM32F303xE) || defined(STM32F398xx)\
 || defined(STM32F303xC) || defined(STM32F358xx)

  /*------------------------------ TIM8 clock Configuration ----------------*/ 
  if(((PeriphClkInit->PeriphClockSelection) & RCC_PERIPHCLK_TIM8) == RCC_PERIPHCLK_TIM8)
 8004a08:	f413 5300 	ands.w	r3, r3, #8192	; 0x2000
 8004a0c:	d103      	bne.n	8004a16 <HAL_RCCEx_PeriphCLKConfig+0x176>
    __HAL_RCC_TIM20_CONFIG(PeriphClkInit->Tim20ClockSelection);
  }
#endif /* STM32F303xE || STM32F398xx */  

  
  return HAL_OK;
 8004a0e:	4618      	mov	r0, r3
}
 8004a10:	b003      	add	sp, #12
 8004a12:	e8bd 83f0 	ldmia.w	sp!, {r4, r5, r6, r7, r8, r9, pc}
    __HAL_RCC_TIM8_CONFIG(PeriphClkInit->Tim8ClockSelection);
 8004a16:	4a2a      	ldr	r2, [pc, #168]	; (8004ac0 <HAL_RCCEx_PeriphCLKConfig+0x220>)
 8004a18:	6b61      	ldr	r1, [r4, #52]	; 0x34
 8004a1a:	6b13      	ldr	r3, [r2, #48]	; 0x30
 8004a1c:	f423 7300 	bic.w	r3, r3, #512	; 0x200
  return HAL_OK;
 8004a20:	2000      	movs	r0, #0
    __HAL_RCC_TIM8_CONFIG(PeriphClkInit->Tim8ClockSelection);
 8004a22:	430b      	orrs	r3, r1
 8004a24:	6313      	str	r3, [r2, #48]	; 0x30
}
 8004a26:	b003      	add	sp, #12
 8004a28:	e8bd 83f0 	ldmia.w	sp!, {r4, r5, r6, r7, r8, r9, pc}
      __HAL_RCC_PWR_CLK_ENABLE();
 8004a2c:	69da      	ldr	r2, [r3, #28]
    if(HAL_IS_BIT_CLR(PWR->CR, PWR_CR_DBP))
 8004a2e:	4e25      	ldr	r6, [pc, #148]	; (8004ac4 <HAL_RCCEx_PeriphCLKConfig+0x224>)
      __HAL_RCC_PWR_CLK_ENABLE();
 8004a30:	f042 5280 	orr.w	r2, r2, #268435456	; 0x10000000
 8004a34:	61da      	str	r2, [r3, #28]
 8004a36:	69db      	ldr	r3, [r3, #28]
 8004a38:	f003 5380 	and.w	r3, r3, #268435456	; 0x10000000
 8004a3c:	9301      	str	r3, [sp, #4]
 8004a3e:	9b01      	ldr	r3, [sp, #4]
    if(HAL_IS_BIT_CLR(PWR->CR, PWR_CR_DBP))
 8004a40:	6833      	ldr	r3, [r6, #0]
 8004a42:	05d9      	lsls	r1, r3, #23
      pwrclkchanged = SET;
 8004a44:	f04f 0501 	mov.w	r5, #1
    if(HAL_IS_BIT_CLR(PWR->CR, PWR_CR_DBP))
 8004a48:	f53f af3d 	bmi.w	80048c6 <HAL_RCCEx_PeriphCLKConfig+0x26>
      SET_BIT(PWR->CR, PWR_CR_DBP);
 8004a4c:	6833      	ldr	r3, [r6, #0]
 8004a4e:	f443 7380 	orr.w	r3, r3, #256	; 0x100
 8004a52:	6033      	str	r3, [r6, #0]
      tickstart = HAL_GetTick();
 8004a54:	f7fd fe0c 	bl	8002670 <HAL_GetTick>
 8004a58:	4607      	mov	r7, r0
      while(HAL_IS_BIT_CLR(PWR->CR, PWR_CR_DBP))
 8004a5a:	6833      	ldr	r3, [r6, #0]
 8004a5c:	05da      	lsls	r2, r3, #23
 8004a5e:	f53f af32 	bmi.w	80048c6 <HAL_RCCEx_PeriphCLKConfig+0x26>
          if((HAL_GetTick() - tickstart) > RCC_DBP_TIMEOUT_VALUE)
 8004a62:	f7fd fe05 	bl	8002670 <HAL_GetTick>
 8004a66:	1bc0      	subs	r0, r0, r7
 8004a68:	2864      	cmp	r0, #100	; 0x64
 8004a6a:	d9f6      	bls.n	8004a5a <HAL_RCCEx_PeriphCLKConfig+0x1ba>
          return HAL_TIMEOUT;
 8004a6c:	2003      	movs	r0, #3
}
 8004a6e:	b003      	add	sp, #12
 8004a70:	e8bd 83f0 	ldmia.w	sp!, {r4, r5, r6, r7, r8, r9, pc}
        tickstart = HAL_GetTick();
 8004a74:	f7fd fdfc 	bl	8002670 <HAL_GetTick>
 8004a78:	f04f 0902 	mov.w	r9, #2
 8004a7c:	4607      	mov	r7, r0
        while(__HAL_RCC_GET_FLAG(RCC_FLAG_LSERDY) == RESET)
 8004a7e:	e015      	b.n	8004aac <HAL_RCCEx_PeriphCLKConfig+0x20c>
 8004a80:	fa99 f3a9 	rbit	r3, r9
 8004a84:	f8d8 2024 	ldr.w	r2, [r8, #36]	; 0x24
 8004a88:	fa99 f3a9 	rbit	r3, r9
 8004a8c:	fab3 f383 	clz	r3, r3
 8004a90:	f003 031f 	and.w	r3, r3, #31
 8004a94:	fa06 f303 	lsl.w	r3, r6, r3
 8004a98:	4213      	tst	r3, r2
 8004a9a:	f47f af3c 	bne.w	8004916 <HAL_RCCEx_PeriphCLKConfig+0x76>
            if((HAL_GetTick() - tickstart) > RCC_LSE_TIMEOUT_VALUE)
 8004a9e:	f7fd fde7 	bl	8002670 <HAL_GetTick>
 8004aa2:	f241 3388 	movw	r3, #5000	; 0x1388
 8004aa6:	1bc0      	subs	r0, r0, r7
 8004aa8:	4298      	cmp	r0, r3
 8004aaa:	d8df      	bhi.n	8004a6c <HAL_RCCEx_PeriphCLKConfig+0x1cc>
 8004aac:	fa99 f3a9 	rbit	r3, r9
 8004ab0:	fa99 f3a9 	rbit	r3, r9
        while(__HAL_RCC_GET_FLAG(RCC_FLAG_LSERDY) == RESET)
 8004ab4:	2b00      	cmp	r3, #0
 8004ab6:	d0e3      	beq.n	8004a80 <HAL_RCCEx_PeriphCLKConfig+0x1e0>
 8004ab8:	f8d8 2020 	ldr.w	r2, [r8, #32]
 8004abc:	e7e4      	b.n	8004a88 <HAL_RCCEx_PeriphCLKConfig+0x1e8>
 8004abe:	bf00      	nop
 8004ac0:	40021000 	.word	0x40021000
 8004ac4:	40007000 	.word	0x40007000
 8004ac8:	10908100 	.word	0x10908100

08004acc <HAL_SPI_Init>:
HAL_StatusTypeDef HAL_SPI_Init(SPI_HandleTypeDef *hspi)
{
  uint32_t frxth;

  /* Check the SPI handle allocation */
  if (hspi == NULL)
 8004acc:	2800      	cmp	r0, #0
 8004ace:	d077      	beq.n	8004bc0 <HAL_SPI_Init+0xf4>
{
 8004ad0:	e92d 41f0 	stmdb	sp!, {r4, r5, r6, r7, r8, lr}
  assert_param(IS_SPI_NSS(hspi->Init.NSS));
  assert_param(IS_SPI_NSSP(hspi->Init.NSSPMode));
  assert_param(IS_SPI_BAUDRATE_PRESCALER(hspi->Init.BaudRatePrescaler));
  assert_param(IS_SPI_FIRST_BIT(hspi->Init.FirstBit));
  assert_param(IS_SPI_TIMODE(hspi->Init.TIMode));
  if (hspi->Init.TIMode == SPI_TIMODE_DISABLE)
 8004ad4:	6a46      	ldr	r6, [r0, #36]	; 0x24
 8004ad6:	4604      	mov	r4, r0
 8004ad8:	2e00      	cmp	r6, #0
 8004ada:	d058      	beq.n	8004b8e <HAL_SPI_Init+0xc2>
  else
  {
    assert_param(IS_SPI_BAUDRATE_PRESCALER(hspi->Init.BaudRatePrescaler));

    /* Force polarity and phase to TI protocaol requirements */
    hspi->Init.CLKPolarity = SPI_POLARITY_LOW;
 8004adc:	2300      	movs	r3, #0
    hspi->Init.CLKPhase    = SPI_PHASE_1EDGE;
 8004ade:	e9c0 3304 	strd	r3, r3, [r0, #16]
  }
#else
  hspi->Init.CRCCalculation = SPI_CRCCALCULATION_DISABLE;
#endif /* USE_SPI_CRC */

  if (hspi->State == HAL_SPI_STATE_RESET)
 8004ae2:	f894 305d 	ldrb.w	r3, [r4, #93]	; 0x5d
  hspi->Init.CRCCalculation = SPI_CRCCALCULATION_DISABLE;
 8004ae6:	2200      	movs	r2, #0
 8004ae8:	62a2      	str	r2, [r4, #40]	; 0x28
  if (hspi->State == HAL_SPI_STATE_RESET)
 8004aea:	f003 02ff 	and.w	r2, r3, #255	; 0xff
 8004aee:	2b00      	cmp	r3, #0
 8004af0:	d059      	beq.n	8004ba6 <HAL_SPI_Init+0xda>
  }

  hspi->State = HAL_SPI_STATE_BUSY;

  /* Disable the selected SPI peripheral */
  __HAL_SPI_DISABLE(hspi);
 8004af2:	6821      	ldr	r1, [r4, #0]

  /* Align by default the rs fifo threshold on the data size */
  if (hspi->Init.DataSize > SPI_DATASIZE_8BIT)
 8004af4:	68e2      	ldr	r2, [r4, #12]
  hspi->State = HAL_SPI_STATE_BUSY;
 8004af6:	2302      	movs	r3, #2
 8004af8:	f884 305d 	strb.w	r3, [r4, #93]	; 0x5d
  __HAL_SPI_DISABLE(hspi);
 8004afc:	6808      	ldr	r0, [r1, #0]
  if (hspi->Init.DataSize > SPI_DATASIZE_8BIT)
 8004afe:	f5b2 6fe0 	cmp.w	r2, #1792	; 0x700
  __HAL_SPI_DISABLE(hspi);
 8004b02:	f020 0040 	bic.w	r0, r0, #64	; 0x40
 8004b06:	6008      	str	r0, [r1, #0]
  if (hspi->Init.DataSize > SPI_DATASIZE_8BIT)
 8004b08:	d947      	bls.n	8004b9a <HAL_SPI_Init+0xce>
  {
    frxth = SPI_RXFIFO_THRESHOLD_QF;
  }

  /* CRC calculation is valid only for 16Bit and 8 Bit */
  if ((hspi->Init.DataSize != SPI_DATASIZE_16BIT) && (hspi->Init.DataSize != SPI_DATASIZE_8BIT))
 8004b0a:	f5b2 6f70 	cmp.w	r2, #3840	; 0xf00
 8004b0e:	d159      	bne.n	8004bc4 <HAL_SPI_Init+0xf8>
  }

  /*----------------------- SPIx CR1 & CR2 Configuration ---------------------*/
  /* Configure : SPI Mode, Communication Mode, Clock polarity and phase, NSS management,
  Communication speed, First bit and CRC calculation state */
  WRITE_REG(hspi->Instance->CR1, ((hspi->Init.Mode & (SPI_CR1_MSTR | SPI_CR1_SSI)) |
 8004b10:	6aa3      	ldr	r3, [r4, #40]	; 0x28
    frxth = SPI_RXFIFO_THRESHOLD_HF;
 8004b12:	2000      	movs	r0, #0
  WRITE_REG(hspi->Instance->CR1, ((hspi->Init.Mode & (SPI_CR1_MSTR | SPI_CR1_SSI)) |
 8004b14:	f403 5500 	and.w	r5, r3, #8192	; 0x2000
 8004b18:	68a3      	ldr	r3, [r4, #8]
 8004b1a:	6a27      	ldr	r7, [r4, #32]
    }
  }
#endif /* USE_SPI_CRC */

  /* Configure : NSS management, TI Mode, NSS Pulse, Data size and Rx Fifo threshold */
  WRITE_REG(hspi->Instance->CR2, (((hspi->Init.NSS >> 16U) & SPI_CR2_SSOE) |
 8004b1c:	f402 6e70 	and.w	lr, r2, #3840	; 0xf00
  WRITE_REG(hspi->Instance->CR1, ((hspi->Init.Mode & (SPI_CR1_MSTR | SPI_CR1_SSI)) |
 8004b20:	6862      	ldr	r2, [r4, #4]
 8004b22:	f403 4304 	and.w	r3, r3, #33792	; 0x8400
 8004b26:	f402 7282 	and.w	r2, r2, #260	; 0x104
 8004b2a:	431a      	orrs	r2, r3
 8004b2c:	6923      	ldr	r3, [r4, #16]
 8004b2e:	f003 0302 	and.w	r3, r3, #2
 8004b32:	431a      	orrs	r2, r3
 8004b34:	6963      	ldr	r3, [r4, #20]
 8004b36:	f003 0301 	and.w	r3, r3, #1
 8004b3a:	431a      	orrs	r2, r3
  WRITE_REG(hspi->Instance->CR2, (((hspi->Init.NSS >> 16U) & SPI_CR2_SSOE) |
 8004b3c:	6b63      	ldr	r3, [r4, #52]	; 0x34
 8004b3e:	f003 0308 	and.w	r3, r3, #8
 8004b42:	f006 0c10 	and.w	ip, r6, #16
 8004b46:	ea43 0e0e 	orr.w	lr, r3, lr
  WRITE_REG(hspi->Instance->CR1, ((hspi->Init.Mode & (SPI_CR1_MSTR | SPI_CR1_SSI)) |
 8004b4a:	69a6      	ldr	r6, [r4, #24]
 8004b4c:	69e3      	ldr	r3, [r4, #28]
 8004b4e:	f003 0838 	and.w	r8, r3, #56	; 0x38
 8004b52:	f406 7300 	and.w	r3, r6, #512	; 0x200
 8004b56:	4313      	orrs	r3, r2
 8004b58:	f007 0780 	and.w	r7, r7, #128	; 0x80
 8004b5c:	ea43 0308 	orr.w	r3, r3, r8
 8004b60:	433b      	orrs	r3, r7
 8004b62:	432b      	orrs	r3, r5
 8004b64:	600b      	str	r3, [r1, #0]
  WRITE_REG(hspi->Instance->CR2, (((hspi->Init.NSS >> 16U) & SPI_CR2_SSOE) |
 8004b66:	0c33      	lsrs	r3, r6, #16
 8004b68:	f003 0304 	and.w	r3, r3, #4
 8004b6c:	ea4e 0303 	orr.w	r3, lr, r3
 8004b70:	ea43 030c 	orr.w	r3, r3, ip
 8004b74:	4303      	orrs	r3, r0
 8004b76:	604b      	str	r3, [r1, #4]
  }
#endif /* USE_SPI_CRC */

#if defined(SPI_I2SCFGR_I2SMOD)
  /* Activate the SPI mode (Make sure that I2SMOD bit in I2SCFGR register is reset) */
  CLEAR_BIT(hspi->Instance->I2SCFGR, SPI_I2SCFGR_I2SMOD);
 8004b78:	69cb      	ldr	r3, [r1, #28]
#endif /* SPI_I2SCFGR_I2SMOD */

  hspi->ErrorCode = HAL_SPI_ERROR_NONE;
 8004b7a:	2000      	movs	r0, #0
  CLEAR_BIT(hspi->Instance->I2SCFGR, SPI_I2SCFGR_I2SMOD);
 8004b7c:	f423 6300 	bic.w	r3, r3, #2048	; 0x800
  hspi->State     = HAL_SPI_STATE_READY;
 8004b80:	2201      	movs	r2, #1
  CLEAR_BIT(hspi->Instance->I2SCFGR, SPI_I2SCFGR_I2SMOD);
 8004b82:	61cb      	str	r3, [r1, #28]
  hspi->ErrorCode = HAL_SPI_ERROR_NONE;
 8004b84:	6620      	str	r0, [r4, #96]	; 0x60
  hspi->State     = HAL_SPI_STATE_READY;
 8004b86:	f884 205d 	strb.w	r2, [r4, #93]	; 0x5d

  return HAL_OK;
}
 8004b8a:	e8bd 81f0 	ldmia.w	sp!, {r4, r5, r6, r7, r8, pc}
    if (hspi->Init.Mode == SPI_MODE_MASTER)
 8004b8e:	6843      	ldr	r3, [r0, #4]
 8004b90:	f5b3 7f82 	cmp.w	r3, #260	; 0x104
 8004b94:	d0a5      	beq.n	8004ae2 <HAL_SPI_Init+0x16>
      hspi->Init.BaudRatePrescaler = SPI_BAUDRATEPRESCALER_2;
 8004b96:	61c6      	str	r6, [r0, #28]
 8004b98:	e7a3      	b.n	8004ae2 <HAL_SPI_Init+0x16>
  if ((hspi->Init.DataSize != SPI_DATASIZE_16BIT) && (hspi->Init.DataSize != SPI_DATASIZE_8BIT))
 8004b9a:	d00b      	beq.n	8004bb4 <HAL_SPI_Init+0xe8>
    frxth = SPI_RXFIFO_THRESHOLD_QF;
 8004b9c:	f44f 5080 	mov.w	r0, #4096	; 0x1000
    hspi->Init.CRCCalculation = SPI_CRCCALCULATION_DISABLE;
 8004ba0:	2500      	movs	r5, #0
 8004ba2:	62a5      	str	r5, [r4, #40]	; 0x28
 8004ba4:	e7b8      	b.n	8004b18 <HAL_SPI_Init+0x4c>
    hspi->Lock = HAL_UNLOCKED;
 8004ba6:	f884 205c 	strb.w	r2, [r4, #92]	; 0x5c
    HAL_SPI_MspInit(hspi);
 8004baa:	4620      	mov	r0, r4
 8004bac:	f7fd f820 	bl	8001bf0 <HAL_SPI_MspInit>
  WRITE_REG(hspi->Instance->CR2, (((hspi->Init.NSS >> 16U) & SPI_CR2_SSOE) |
 8004bb0:	6a66      	ldr	r6, [r4, #36]	; 0x24
 8004bb2:	e79e      	b.n	8004af2 <HAL_SPI_Init+0x26>
  WRITE_REG(hspi->Instance->CR1, ((hspi->Init.Mode & (SPI_CR1_MSTR | SPI_CR1_SSI)) |
 8004bb4:	6aa3      	ldr	r3, [r4, #40]	; 0x28
    frxth = SPI_RXFIFO_THRESHOLD_QF;
 8004bb6:	f44f 5080 	mov.w	r0, #4096	; 0x1000
  WRITE_REG(hspi->Instance->CR1, ((hspi->Init.Mode & (SPI_CR1_MSTR | SPI_CR1_SSI)) |
 8004bba:	f403 5500 	and.w	r5, r3, #8192	; 0x2000
 8004bbe:	e7ab      	b.n	8004b18 <HAL_SPI_Init+0x4c>
    return HAL_ERROR;
 8004bc0:	2001      	movs	r0, #1
}
 8004bc2:	4770      	bx	lr
    frxth = SPI_RXFIFO_THRESHOLD_HF;
 8004bc4:	2000      	movs	r0, #0
 8004bc6:	e7eb      	b.n	8004ba0 <HAL_SPI_Init+0xd4>

08004bc8 <TIM_OC1_SetConfig>:
  uint32_t tmpccmrx;
  uint32_t tmpccer;
  uint32_t tmpcr2;

  /* Disable the Channel 1: Reset the CC1E Bit */
  TIMx->CCER &= ~TIM_CCER_CC1E;
 8004bc8:	6a03      	ldr	r3, [r0, #32]
 8004bca:	f023 0301 	bic.w	r3, r3, #1
 8004bce:	6203      	str	r3, [r0, #32]

  /* Get the TIMx CCER register value */
  tmpccer = TIMx->CCER;
 8004bd0:	6a03      	ldr	r3, [r0, #32]
{
 8004bd2:	b470      	push	{r4, r5, r6}
  /* Get the TIMx CR2 register value */
  tmpcr2 =  TIMx->CR2;
 8004bd4:	6844      	ldr	r4, [r0, #4]

  /* Get the TIMx CCMR1 register value */
  tmpccmrx = TIMx->CCMR1;
 8004bd6:	6982      	ldr	r2, [r0, #24]

  /* Reset the Output Compare Mode Bits */
  tmpccmrx &= ~TIM_CCMR1_OC1M;
  tmpccmrx &= ~TIM_CCMR1_CC1S;
  /* Select the Output Compare Mode */
  tmpccmrx |= OC_Config->OCMode;
 8004bd8:	680d      	ldr	r5, [r1, #0]
  tmpccmrx &= ~TIM_CCMR1_CC1S;
 8004bda:	f422 3280 	bic.w	r2, r2, #65536	; 0x10000
 8004bde:	f022 0273 	bic.w	r2, r2, #115	; 0x73
  tmpccmrx |= OC_Config->OCMode;
 8004be2:	432a      	orrs	r2, r5

  /* Reset the Output Polarity level */
  tmpccer &= ~TIM_CCER_CC1P;
  /* Set the Output Compare Polarity */
  tmpccer |= OC_Config->OCPolarity;
 8004be4:	688d      	ldr	r5, [r1, #8]
  tmpccer &= ~TIM_CCER_CC1P;
 8004be6:	f023 0302 	bic.w	r3, r3, #2
  tmpccer |= OC_Config->OCPolarity;
 8004bea:	432b      	orrs	r3, r5

  if (IS_TIM_CCXN_INSTANCE(TIMx, TIM_CHANNEL_1))
 8004bec:	4d13      	ldr	r5, [pc, #76]	; (8004c3c <TIM_OC1_SetConfig+0x74>)
 8004bee:	42a8      	cmp	r0, r5
 8004bf0:	d00f      	beq.n	8004c12 <TIM_OC1_SetConfig+0x4a>
 8004bf2:	f505 6500 	add.w	r5, r5, #2048	; 0x800
 8004bf6:	42a8      	cmp	r0, r5
 8004bf8:	d00b      	beq.n	8004c12 <TIM_OC1_SetConfig+0x4a>
 8004bfa:	f505 6540 	add.w	r5, r5, #3072	; 0xc00
 8004bfe:	42a8      	cmp	r0, r5
 8004c00:	d007      	beq.n	8004c12 <TIM_OC1_SetConfig+0x4a>
 8004c02:	f505 6580 	add.w	r5, r5, #1024	; 0x400
 8004c06:	42a8      	cmp	r0, r5
 8004c08:	d003      	beq.n	8004c12 <TIM_OC1_SetConfig+0x4a>
 8004c0a:	f505 6580 	add.w	r5, r5, #1024	; 0x400
 8004c0e:	42a8      	cmp	r0, r5
 8004c10:	d10d      	bne.n	8004c2e <TIM_OC1_SetConfig+0x66>
    assert_param(IS_TIM_OCN_POLARITY(OC_Config->OCNPolarity));

    /* Reset the Output N Polarity level */
    tmpccer &= ~TIM_CCER_CC1NP;
    /* Set the Output N Polarity */
    tmpccer |= OC_Config->OCNPolarity;
 8004c12:	68cd      	ldr	r5, [r1, #12]
    tmpccer &= ~TIM_CCER_CC1NP;
 8004c14:	f023 0308 	bic.w	r3, r3, #8
    tmpccer |= OC_Config->OCNPolarity;
 8004c18:	432b      	orrs	r3, r5
    tmpcr2 &= ~TIM_CR2_OIS1;
    tmpcr2 &= ~TIM_CR2_OIS1N;
    /* Set the Output Idle state */
    tmpcr2 |= OC_Config->OCIdleState;
    /* Set the Output N Idle state */
    tmpcr2 |= OC_Config->OCNIdleState;
 8004c1a:	e9d1 6505 	ldrd	r6, r5, [r1, #20]
    tmpcr2 &= ~TIM_CR2_OIS1N;
 8004c1e:	f424 7440 	bic.w	r4, r4, #768	; 0x300
    tmpcr2 |= OC_Config->OCNIdleState;
 8004c22:	ea46 0c05 	orr.w	ip, r6, r5
    tmpccer &= ~TIM_CCER_CC1NE;
 8004c26:	f023 0304 	bic.w	r3, r3, #4
    tmpcr2 |= OC_Config->OCNIdleState;
 8004c2a:	ea4c 0404 	orr.w	r4, ip, r4

  /* Write to TIMx CCMR1 */
  TIMx->CCMR1 = tmpccmrx;

  /* Set the Capture Compare Register value */
  TIMx->CCR1 = OC_Config->Pulse;
 8004c2e:	6849      	ldr	r1, [r1, #4]
  TIMx->CR2 = tmpcr2;
 8004c30:	6044      	str	r4, [r0, #4]
  TIMx->CCMR1 = tmpccmrx;
 8004c32:	6182      	str	r2, [r0, #24]

  /* Write to TIMx CCER */
  TIMx->CCER = tmpccer;
}
 8004c34:	bc70      	pop	{r4, r5, r6}
  TIMx->CCR1 = OC_Config->Pulse;
 8004c36:	6341      	str	r1, [r0, #52]	; 0x34
  TIMx->CCER = tmpccer;
 8004c38:	6203      	str	r3, [r0, #32]
}
 8004c3a:	4770      	bx	lr
 8004c3c:	40012c00 	.word	0x40012c00

08004c40 <TIM_OC3_SetConfig>:
  uint32_t tmpccmrx;
  uint32_t tmpccer;
  uint32_t tmpcr2;

  /* Disable the Channel 3: Reset the CC2E Bit */
  TIMx->CCER &= ~TIM_CCER_CC3E;
 8004c40:	6a03      	ldr	r3, [r0, #32]
 8004c42:	f423 7380 	bic.w	r3, r3, #256	; 0x100
 8004c46:	6203      	str	r3, [r0, #32]

  /* Get the TIMx CCER register value */
  tmpccer = TIMx->CCER;
 8004c48:	6a03      	ldr	r3, [r0, #32]
{
 8004c4a:	b470      	push	{r4, r5, r6}
  /* Get the TIMx CR2 register value */
  tmpcr2 =  TIMx->CR2;
 8004c4c:	6844      	ldr	r4, [r0, #4]

  /* Get the TIMx CCMR2 register value */
  tmpccmrx = TIMx->CCMR2;
 8004c4e:	69c2      	ldr	r2, [r0, #28]

  /* Reset the Output Compare mode and Capture/Compare selection Bits */
  tmpccmrx &= ~TIM_CCMR2_OC3M;
  tmpccmrx &= ~TIM_CCMR2_CC3S;
  /* Select the Output Compare Mode */
  tmpccmrx |= OC_Config->OCMode;
 8004c50:	680d      	ldr	r5, [r1, #0]
  tmpccmrx &= ~TIM_CCMR2_CC3S;
 8004c52:	f422 3280 	bic.w	r2, r2, #65536	; 0x10000
 8004c56:	f022 0273 	bic.w	r2, r2, #115	; 0x73
  tmpccmrx |= OC_Config->OCMode;
 8004c5a:	432a      	orrs	r2, r5

  /* Reset the Output Polarity level */
  tmpccer &= ~TIM_CCER_CC3P;
  /* Set the Output Compare Polarity */
  tmpccer |= (OC_Config->OCPolarity << 8U);
 8004c5c:	688d      	ldr	r5, [r1, #8]
  tmpccer &= ~TIM_CCER_CC3P;
 8004c5e:	f423 7300 	bic.w	r3, r3, #512	; 0x200
  tmpccer |= (OC_Config->OCPolarity << 8U);
 8004c62:	ea43 2305 	orr.w	r3, r3, r5, lsl #8

  if (IS_TIM_CCXN_INSTANCE(TIMx, TIM_CHANNEL_3))
 8004c66:	4d15      	ldr	r5, [pc, #84]	; (8004cbc <TIM_OC3_SetConfig+0x7c>)
 8004c68:	42a8      	cmp	r0, r5
 8004c6a:	d010      	beq.n	8004c8e <TIM_OC3_SetConfig+0x4e>
 8004c6c:	f505 6500 	add.w	r5, r5, #2048	; 0x800
 8004c70:	42a8      	cmp	r0, r5
 8004c72:	d00c      	beq.n	8004c8e <TIM_OC3_SetConfig+0x4e>
    /* Reset the Output N State */
    tmpccer &= ~TIM_CCER_CC3NE;
  }

#if defined(TIM_CR2_OIS3)
  if (IS_TIM_BREAK_INSTANCE(TIMx))
 8004c74:	f505 6540 	add.w	r5, r5, #3072	; 0xc00
 8004c78:	42a8      	cmp	r0, r5
 8004c7a:	d00f      	beq.n	8004c9c <TIM_OC3_SetConfig+0x5c>
 8004c7c:	f505 6580 	add.w	r5, r5, #1024	; 0x400
 8004c80:	42a8      	cmp	r0, r5
 8004c82:	d00b      	beq.n	8004c9c <TIM_OC3_SetConfig+0x5c>
 8004c84:	f505 6580 	add.w	r5, r5, #1024	; 0x400
 8004c88:	42a8      	cmp	r0, r5
 8004c8a:	d10f      	bne.n	8004cac <TIM_OC3_SetConfig+0x6c>
 8004c8c:	e006      	b.n	8004c9c <TIM_OC3_SetConfig+0x5c>
    tmpccer |= (OC_Config->OCNPolarity << 8U);
 8004c8e:	68cd      	ldr	r5, [r1, #12]
    tmpccer &= ~TIM_CCER_CC3NP;
 8004c90:	f423 6300 	bic.w	r3, r3, #2048	; 0x800
    tmpccer |= (OC_Config->OCNPolarity << 8U);
 8004c94:	ea43 2305 	orr.w	r3, r3, r5, lsl #8
    tmpccer &= ~TIM_CCER_CC3NE;
 8004c98:	f423 6380 	bic.w	r3, r3, #1024	; 0x400
    tmpcr2 &= ~TIM_CR2_OIS3;
    tmpcr2 &= ~TIM_CR2_OIS3N;
    /* Set the Output Idle state */
    tmpcr2 |= (OC_Config->OCIdleState << 4U);
    /* Set the Output N Idle state */
    tmpcr2 |= (OC_Config->OCNIdleState << 4U);
 8004c9c:	e9d1 6505 	ldrd	r6, r5, [r1, #20]
    tmpcr2 &= ~TIM_CR2_OIS3N;
 8004ca0:	f424 5440 	bic.w	r4, r4, #12288	; 0x3000
    tmpcr2 |= (OC_Config->OCNIdleState << 4U);
 8004ca4:	ea46 0c05 	orr.w	ip, r6, r5
 8004ca8:	ea44 140c 	orr.w	r4, r4, ip, lsl #4

  /* Write to TIMx CCMR2 */
  TIMx->CCMR2 = tmpccmrx;

  /* Set the Capture Compare Register value */
  TIMx->CCR3 = OC_Config->Pulse;
 8004cac:	6849      	ldr	r1, [r1, #4]
  TIMx->CR2 = tmpcr2;
 8004cae:	6044      	str	r4, [r0, #4]
  TIMx->CCMR2 = tmpccmrx;
 8004cb0:	61c2      	str	r2, [r0, #28]

  /* Write to TIMx CCER */
  TIMx->CCER = tmpccer;
}
 8004cb2:	bc70      	pop	{r4, r5, r6}
  TIMx->CCR3 = OC_Config->Pulse;
 8004cb4:	63c1      	str	r1, [r0, #60]	; 0x3c
  TIMx->CCER = tmpccer;
 8004cb6:	6203      	str	r3, [r0, #32]
}
 8004cb8:	4770      	bx	lr
 8004cba:	bf00      	nop
 8004cbc:	40012c00 	.word	0x40012c00

08004cc0 <HAL_TIM_Base_Start_IT>:
  if (htim->State != HAL_TIM_STATE_READY)
 8004cc0:	f890 303d 	ldrb.w	r3, [r0, #61]	; 0x3d
 8004cc4:	2b01      	cmp	r3, #1
 8004cc6:	d122      	bne.n	8004d0e <HAL_TIM_Base_Start_IT+0x4e>
  __HAL_TIM_ENABLE_IT(htim, TIM_IT_UPDATE);
 8004cc8:	6803      	ldr	r3, [r0, #0]
  if (IS_TIM_SLAVE_INSTANCE(htim->Instance))
 8004cca:	4917      	ldr	r1, [pc, #92]	; (8004d28 <HAL_TIM_Base_Start_IT+0x68>)
  htim->State = HAL_TIM_STATE_BUSY;
 8004ccc:	2202      	movs	r2, #2
 8004cce:	f880 203d 	strb.w	r2, [r0, #61]	; 0x3d
  __HAL_TIM_ENABLE_IT(htim, TIM_IT_UPDATE);
 8004cd2:	68da      	ldr	r2, [r3, #12]
  if (IS_TIM_SLAVE_INSTANCE(htim->Instance))
 8004cd4:	428b      	cmp	r3, r1
  __HAL_TIM_ENABLE_IT(htim, TIM_IT_UPDATE);
 8004cd6:	f042 0201 	orr.w	r2, r2, #1
 8004cda:	60da      	str	r2, [r3, #12]
  if (IS_TIM_SLAVE_INSTANCE(htim->Instance))
 8004cdc:	d019      	beq.n	8004d12 <HAL_TIM_Base_Start_IT+0x52>
 8004cde:	f1b3 4f80 	cmp.w	r3, #1073741824	; 0x40000000
 8004ce2:	d016      	beq.n	8004d12 <HAL_TIM_Base_Start_IT+0x52>
 8004ce4:	4a11      	ldr	r2, [pc, #68]	; (8004d2c <HAL_TIM_Base_Start_IT+0x6c>)
 8004ce6:	4293      	cmp	r3, r2
 8004ce8:	d013      	beq.n	8004d12 <HAL_TIM_Base_Start_IT+0x52>
 8004cea:	f502 6280 	add.w	r2, r2, #1024	; 0x400
 8004cee:	4293      	cmp	r3, r2
 8004cf0:	d00f      	beq.n	8004d12 <HAL_TIM_Base_Start_IT+0x52>
 8004cf2:	f502 3296 	add.w	r2, r2, #76800	; 0x12c00
 8004cf6:	4293      	cmp	r3, r2
 8004cf8:	d00b      	beq.n	8004d12 <HAL_TIM_Base_Start_IT+0x52>
 8004cfa:	f502 6240 	add.w	r2, r2, #3072	; 0xc00
 8004cfe:	4293      	cmp	r3, r2
 8004d00:	d007      	beq.n	8004d12 <HAL_TIM_Base_Start_IT+0x52>
    __HAL_TIM_ENABLE(htim);
 8004d02:	681a      	ldr	r2, [r3, #0]
 8004d04:	f042 0201 	orr.w	r2, r2, #1
  return HAL_OK;
 8004d08:	2000      	movs	r0, #0
    __HAL_TIM_ENABLE(htim);
 8004d0a:	601a      	str	r2, [r3, #0]
 8004d0c:	4770      	bx	lr
    return HAL_ERROR;
 8004d0e:	2001      	movs	r0, #1
 8004d10:	4770      	bx	lr
    tmpsmcr = htim->Instance->SMCR & TIM_SMCR_SMS;
 8004d12:	6899      	ldr	r1, [r3, #8]
 8004d14:	4a06      	ldr	r2, [pc, #24]	; (8004d30 <HAL_TIM_Base_Start_IT+0x70>)
 8004d16:	400a      	ands	r2, r1
    if (!IS_TIM_SLAVEMODE_TRIGGER_ENABLED(tmpsmcr))
 8004d18:	2a06      	cmp	r2, #6
 8004d1a:	d002      	beq.n	8004d22 <HAL_TIM_Base_Start_IT+0x62>
 8004d1c:	f5b2 3f80 	cmp.w	r2, #65536	; 0x10000
 8004d20:	d1ef      	bne.n	8004d02 <HAL_TIM_Base_Start_IT+0x42>
  return HAL_OK;
 8004d22:	2000      	movs	r0, #0
}
 8004d24:	4770      	bx	lr
 8004d26:	bf00      	nop
 8004d28:	40012c00 	.word	0x40012c00
 8004d2c:	40000400 	.word	0x40000400
 8004d30:	00010007 	.word	0x00010007

08004d34 <HAL_TIM_Base_Stop_IT>:
  __HAL_TIM_DISABLE_IT(htim, TIM_IT_UPDATE);
 8004d34:	6803      	ldr	r3, [r0, #0]
 8004d36:	68da      	ldr	r2, [r3, #12]
 8004d38:	f022 0201 	bic.w	r2, r2, #1
 8004d3c:	60da      	str	r2, [r3, #12]
  __HAL_TIM_DISABLE(htim);
 8004d3e:	6a1a      	ldr	r2, [r3, #32]
 8004d40:	f241 1111 	movw	r1, #4369	; 0x1111
 8004d44:	420a      	tst	r2, r1
 8004d46:	d108      	bne.n	8004d5a <HAL_TIM_Base_Stop_IT+0x26>
 8004d48:	6a19      	ldr	r1, [r3, #32]
 8004d4a:	f240 4244 	movw	r2, #1092	; 0x444
 8004d4e:	4211      	tst	r1, r2
 8004d50:	d103      	bne.n	8004d5a <HAL_TIM_Base_Stop_IT+0x26>
 8004d52:	681a      	ldr	r2, [r3, #0]
 8004d54:	f022 0201 	bic.w	r2, r2, #1
 8004d58:	601a      	str	r2, [r3, #0]
  htim->State = HAL_TIM_STATE_READY;
 8004d5a:	2301      	movs	r3, #1
 8004d5c:	f880 303d 	strb.w	r3, [r0, #61]	; 0x3d
}
 8004d60:	2000      	movs	r0, #0
 8004d62:	4770      	bx	lr

08004d64 <HAL_TIM_PWM_Init>:
  if (htim == NULL)
 8004d64:	2800      	cmp	r0, #0
 8004d66:	f000 8081 	beq.w	8004e6c <HAL_TIM_PWM_Init+0x108>
{
 8004d6a:	b510      	push	{r4, lr}
  if (htim->State == HAL_TIM_STATE_RESET)
 8004d6c:	f890 303d 	ldrb.w	r3, [r0, #61]	; 0x3d
 8004d70:	4604      	mov	r4, r0
 8004d72:	f003 02ff 	and.w	r2, r3, #255	; 0xff
 8004d76:	2b00      	cmp	r3, #0
 8004d78:	d06d      	beq.n	8004e56 <HAL_TIM_PWM_Init+0xf2>
  TIM_Base_SetConfig(htim->Instance, &htim->Init);
 8004d7a:	6822      	ldr	r2, [r4, #0]
  if (IS_TIM_COUNTER_MODE_SELECT_INSTANCE(TIMx))
 8004d7c:	493c      	ldr	r1, [pc, #240]	; (8004e70 <HAL_TIM_PWM_Init+0x10c>)
  htim->State = HAL_TIM_STATE_BUSY;
 8004d7e:	2302      	movs	r3, #2
 8004d80:	f884 303d 	strb.w	r3, [r4, #61]	; 0x3d
  if (IS_TIM_COUNTER_MODE_SELECT_INSTANCE(TIMx))
 8004d84:	428a      	cmp	r2, r1
  tmpcr1 = TIMx->CR1;
 8004d86:	6813      	ldr	r3, [r2, #0]
  if (IS_TIM_COUNTER_MODE_SELECT_INSTANCE(TIMx))
 8004d88:	d051      	beq.n	8004e2e <HAL_TIM_PWM_Init+0xca>
 8004d8a:	f1b2 4f80 	cmp.w	r2, #1073741824	; 0x40000000
 8004d8e:	d021      	beq.n	8004dd4 <HAL_TIM_PWM_Init+0x70>
 8004d90:	f5a1 3194 	sub.w	r1, r1, #75776	; 0x12800
 8004d94:	428a      	cmp	r2, r1
 8004d96:	d01d      	beq.n	8004dd4 <HAL_TIM_PWM_Init+0x70>
 8004d98:	f501 6180 	add.w	r1, r1, #1024	; 0x400
 8004d9c:	428a      	cmp	r2, r1
 8004d9e:	d019      	beq.n	8004dd4 <HAL_TIM_PWM_Init+0x70>
 8004da0:	f501 3196 	add.w	r1, r1, #76800	; 0x12c00
 8004da4:	428a      	cmp	r2, r1
 8004da6:	d042      	beq.n	8004e2e <HAL_TIM_PWM_Init+0xca>
  if (IS_TIM_CLOCK_DIVISION_INSTANCE(TIMx))
 8004da8:	f501 6140 	add.w	r1, r1, #3072	; 0xc00
 8004dac:	428a      	cmp	r2, r1
 8004dae:	d057      	beq.n	8004e60 <HAL_TIM_PWM_Init+0xfc>
 8004db0:	f501 6180 	add.w	r1, r1, #1024	; 0x400
 8004db4:	428a      	cmp	r2, r1
 8004db6:	d053      	beq.n	8004e60 <HAL_TIM_PWM_Init+0xfc>
 8004db8:	f501 6180 	add.w	r1, r1, #1024	; 0x400
 8004dbc:	428a      	cmp	r2, r1
 8004dbe:	d04f      	beq.n	8004e60 <HAL_TIM_PWM_Init+0xfc>
  MODIFY_REG(tmpcr1, TIM_CR1_ARPE, Structure->AutoReloadPreload);
 8004dc0:	69a0      	ldr	r0, [r4, #24]
  TIMx->ARR = (uint32_t)Structure->Period ;
 8004dc2:	68e1      	ldr	r1, [r4, #12]
  MODIFY_REG(tmpcr1, TIM_CR1_ARPE, Structure->AutoReloadPreload);
 8004dc4:	f023 0380 	bic.w	r3, r3, #128	; 0x80
 8004dc8:	4303      	orrs	r3, r0
  TIMx->CR1 = tmpcr1;
 8004dca:	6013      	str	r3, [r2, #0]
  TIMx->PSC = Structure->Prescaler;
 8004dcc:	6863      	ldr	r3, [r4, #4]
  TIMx->ARR = (uint32_t)Structure->Period ;
 8004dce:	62d1      	str	r1, [r2, #44]	; 0x2c
  TIMx->PSC = Structure->Prescaler;
 8004dd0:	6293      	str	r3, [r2, #40]	; 0x28
  if (IS_TIM_REPETITION_COUNTER_INSTANCE(TIMx))
 8004dd2:	e010      	b.n	8004df6 <HAL_TIM_PWM_Init+0x92>
    tmpcr1 |= Structure->CounterMode;
 8004dd4:	68a1      	ldr	r1, [r4, #8]
    tmpcr1 |= (uint32_t)Structure->ClockDivision;
 8004dd6:	6920      	ldr	r0, [r4, #16]
    tmpcr1 &= ~(TIM_CR1_DIR | TIM_CR1_CMS);
 8004dd8:	f023 0370 	bic.w	r3, r3, #112	; 0x70
    tmpcr1 |= Structure->CounterMode;
 8004ddc:	430b      	orrs	r3, r1
    tmpcr1 &= ~TIM_CR1_CKD;
 8004dde:	f423 7340 	bic.w	r3, r3, #768	; 0x300
  MODIFY_REG(tmpcr1, TIM_CR1_ARPE, Structure->AutoReloadPreload);
 8004de2:	69a1      	ldr	r1, [r4, #24]
    tmpcr1 |= (uint32_t)Structure->ClockDivision;
 8004de4:	4303      	orrs	r3, r0
  MODIFY_REG(tmpcr1, TIM_CR1_ARPE, Structure->AutoReloadPreload);
 8004de6:	f023 0380 	bic.w	r3, r3, #128	; 0x80
  TIMx->ARR = (uint32_t)Structure->Period ;
 8004dea:	68e0      	ldr	r0, [r4, #12]
  MODIFY_REG(tmpcr1, TIM_CR1_ARPE, Structure->AutoReloadPreload);
 8004dec:	430b      	orrs	r3, r1
  TIMx->PSC = Structure->Prescaler;
 8004dee:	6861      	ldr	r1, [r4, #4]
  TIMx->CR1 = tmpcr1;
 8004df0:	6013      	str	r3, [r2, #0]
  TIMx->ARR = (uint32_t)Structure->Period ;
 8004df2:	62d0      	str	r0, [r2, #44]	; 0x2c
  TIMx->PSC = Structure->Prescaler;
 8004df4:	6291      	str	r1, [r2, #40]	; 0x28
  TIMx->EGR = TIM_EGR_UG;
 8004df6:	2301      	movs	r3, #1
 8004df8:	6153      	str	r3, [r2, #20]
  htim->DMABurstState = HAL_DMA_BURST_STATE_READY;
 8004dfa:	f884 3048 	strb.w	r3, [r4, #72]	; 0x48
  TIM_CHANNEL_STATE_SET_ALL(htim, HAL_TIM_CHANNEL_STATE_READY);
 8004dfe:	f884 303e 	strb.w	r3, [r4, #62]	; 0x3e
 8004e02:	f884 303f 	strb.w	r3, [r4, #63]	; 0x3f
 8004e06:	f884 3040 	strb.w	r3, [r4, #64]	; 0x40
 8004e0a:	f884 3041 	strb.w	r3, [r4, #65]	; 0x41
 8004e0e:	f884 3042 	strb.w	r3, [r4, #66]	; 0x42
 8004e12:	f884 3043 	strb.w	r3, [r4, #67]	; 0x43
  TIM_CHANNEL_N_STATE_SET_ALL(htim, HAL_TIM_CHANNEL_STATE_READY);
 8004e16:	f884 3044 	strb.w	r3, [r4, #68]	; 0x44
 8004e1a:	f884 3045 	strb.w	r3, [r4, #69]	; 0x45
 8004e1e:	f884 3046 	strb.w	r3, [r4, #70]	; 0x46
 8004e22:	f884 3047 	strb.w	r3, [r4, #71]	; 0x47
  htim->State = HAL_TIM_STATE_READY;
 8004e26:	f884 303d 	strb.w	r3, [r4, #61]	; 0x3d
  return HAL_OK;
 8004e2a:	2000      	movs	r0, #0
}
 8004e2c:	bd10      	pop	{r4, pc}
    tmpcr1 |= Structure->CounterMode;
 8004e2e:	68a0      	ldr	r0, [r4, #8]
    tmpcr1 |= (uint32_t)Structure->ClockDivision;
 8004e30:	6921      	ldr	r1, [r4, #16]
    tmpcr1 &= ~(TIM_CR1_DIR | TIM_CR1_CMS);
 8004e32:	f023 0370 	bic.w	r3, r3, #112	; 0x70
    tmpcr1 |= Structure->CounterMode;
 8004e36:	4303      	orrs	r3, r0
    tmpcr1 &= ~TIM_CR1_CKD;
 8004e38:	f423 7340 	bic.w	r3, r3, #768	; 0x300
    tmpcr1 |= (uint32_t)Structure->ClockDivision;
 8004e3c:	430b      	orrs	r3, r1
  MODIFY_REG(tmpcr1, TIM_CR1_ARPE, Structure->AutoReloadPreload);
 8004e3e:	69a1      	ldr	r1, [r4, #24]
 8004e40:	f023 0380 	bic.w	r3, r3, #128	; 0x80
 8004e44:	430b      	orrs	r3, r1
  TIMx->CR1 = tmpcr1;
 8004e46:	6013      	str	r3, [r2, #0]
  TIMx->ARR = (uint32_t)Structure->Period ;
 8004e48:	68e3      	ldr	r3, [r4, #12]
 8004e4a:	62d3      	str	r3, [r2, #44]	; 0x2c
  TIMx->PSC = Structure->Prescaler;
 8004e4c:	6863      	ldr	r3, [r4, #4]
 8004e4e:	6293      	str	r3, [r2, #40]	; 0x28
    TIMx->RCR = Structure->RepetitionCounter;
 8004e50:	6963      	ldr	r3, [r4, #20]
 8004e52:	6313      	str	r3, [r2, #48]	; 0x30
 8004e54:	e7cf      	b.n	8004df6 <HAL_TIM_PWM_Init+0x92>
    htim->Lock = HAL_UNLOCKED;
 8004e56:	f880 203c 	strb.w	r2, [r0, #60]	; 0x3c
    HAL_TIM_PWM_MspInit(htim);
 8004e5a:	f7fd f873 	bl	8001f44 <HAL_TIM_PWM_MspInit>
 8004e5e:	e78c      	b.n	8004d7a <HAL_TIM_PWM_Init+0x16>
    tmpcr1 |= (uint32_t)Structure->ClockDivision;
 8004e60:	6920      	ldr	r0, [r4, #16]
  MODIFY_REG(tmpcr1, TIM_CR1_ARPE, Structure->AutoReloadPreload);
 8004e62:	69a1      	ldr	r1, [r4, #24]
    tmpcr1 &= ~TIM_CR1_CKD;
 8004e64:	f423 7340 	bic.w	r3, r3, #768	; 0x300
    tmpcr1 |= (uint32_t)Structure->ClockDivision;
 8004e68:	4303      	orrs	r3, r0
 8004e6a:	e7e9      	b.n	8004e40 <HAL_TIM_PWM_Init+0xdc>
    return HAL_ERROR;
 8004e6c:	2001      	movs	r0, #1
}
 8004e6e:	4770      	bx	lr
 8004e70:	40012c00 	.word	0x40012c00

08004e74 <HAL_TIM_PWM_Start>:
 8004e74:	2900      	cmp	r1, #0
 8004e76:	d14a      	bne.n	8004f0e <HAL_TIM_PWM_Start+0x9a>
 8004e78:	f890 303e 	ldrb.w	r3, [r0, #62]	; 0x3e
 8004e7c:	2b01      	cmp	r3, #1
 8004e7e:	d160      	bne.n	8004f42 <HAL_TIM_PWM_Start+0xce>
 8004e80:	2302      	movs	r3, #2
 8004e82:	f880 303e 	strb.w	r3, [r0, #62]	; 0x3e
 8004e86:	6803      	ldr	r3, [r0, #0]
 8004e88:	2201      	movs	r2, #1
 8004e8a:	6a18      	ldr	r0, [r3, #32]
 8004e8c:	f001 011f 	and.w	r1, r1, #31
 8004e90:	fa02 f101 	lsl.w	r1, r2, r1
 8004e94:	ea20 0001 	bic.w	r0, r0, r1
 8004e98:	6218      	str	r0, [r3, #32]
 8004e9a:	6a18      	ldr	r0, [r3, #32]
 8004e9c:	4a3b      	ldr	r2, [pc, #236]	; (8004f8c <HAL_TIM_PWM_Start+0x118>)
 8004e9e:	4301      	orrs	r1, r0
 8004ea0:	4293      	cmp	r3, r2
 8004ea2:	6219      	str	r1, [r3, #32]
 8004ea4:	d059      	beq.n	8004f5a <HAL_TIM_PWM_Start+0xe6>
 8004ea6:	f502 6200 	add.w	r2, r2, #2048	; 0x800
 8004eaa:	4293      	cmp	r3, r2
 8004eac:	d00b      	beq.n	8004ec6 <HAL_TIM_PWM_Start+0x52>
 8004eae:	f502 6240 	add.w	r2, r2, #3072	; 0xc00
 8004eb2:	4293      	cmp	r3, r2
 8004eb4:	d007      	beq.n	8004ec6 <HAL_TIM_PWM_Start+0x52>
 8004eb6:	f502 6280 	add.w	r2, r2, #1024	; 0x400
 8004eba:	4293      	cmp	r3, r2
 8004ebc:	d003      	beq.n	8004ec6 <HAL_TIM_PWM_Start+0x52>
 8004ebe:	f502 6280 	add.w	r2, r2, #1024	; 0x400
 8004ec2:	4293      	cmp	r3, r2
 8004ec4:	d103      	bne.n	8004ece <HAL_TIM_PWM_Start+0x5a>
 8004ec6:	6c5a      	ldr	r2, [r3, #68]	; 0x44
 8004ec8:	f442 4200 	orr.w	r2, r2, #32768	; 0x8000
 8004ecc:	645a      	str	r2, [r3, #68]	; 0x44
 8004ece:	f1b3 4f80 	cmp.w	r3, #1073741824	; 0x40000000
 8004ed2:	d00e      	beq.n	8004ef2 <HAL_TIM_PWM_Start+0x7e>
 8004ed4:	4a2e      	ldr	r2, [pc, #184]	; (8004f90 <HAL_TIM_PWM_Start+0x11c>)
 8004ed6:	4293      	cmp	r3, r2
 8004ed8:	d00b      	beq.n	8004ef2 <HAL_TIM_PWM_Start+0x7e>
 8004eda:	f502 6280 	add.w	r2, r2, #1024	; 0x400
 8004ede:	4293      	cmp	r3, r2
 8004ee0:	d007      	beq.n	8004ef2 <HAL_TIM_PWM_Start+0x7e>
 8004ee2:	f502 3296 	add.w	r2, r2, #76800	; 0x12c00
 8004ee6:	4293      	cmp	r3, r2
 8004ee8:	d003      	beq.n	8004ef2 <HAL_TIM_PWM_Start+0x7e>
 8004eea:	f502 6240 	add.w	r2, r2, #3072	; 0xc00
 8004eee:	4293      	cmp	r3, r2
 8004ef0:	d107      	bne.n	8004f02 <HAL_TIM_PWM_Start+0x8e>
 8004ef2:	6899      	ldr	r1, [r3, #8]
 8004ef4:	4a27      	ldr	r2, [pc, #156]	; (8004f94 <HAL_TIM_PWM_Start+0x120>)
 8004ef6:	400a      	ands	r2, r1
 8004ef8:	2a06      	cmp	r2, #6
 8004efa:	d024      	beq.n	8004f46 <HAL_TIM_PWM_Start+0xd2>
 8004efc:	f5b2 3f80 	cmp.w	r2, #65536	; 0x10000
 8004f00:	d021      	beq.n	8004f46 <HAL_TIM_PWM_Start+0xd2>
 8004f02:	681a      	ldr	r2, [r3, #0]
 8004f04:	f042 0201 	orr.w	r2, r2, #1
 8004f08:	2000      	movs	r0, #0
 8004f0a:	601a      	str	r2, [r3, #0]
 8004f0c:	4770      	bx	lr
 8004f0e:	2904      	cmp	r1, #4
 8004f10:	d01b      	beq.n	8004f4a <HAL_TIM_PWM_Start+0xd6>
 8004f12:	2908      	cmp	r1, #8
 8004f14:	d026      	beq.n	8004f64 <HAL_TIM_PWM_Start+0xf0>
 8004f16:	290c      	cmp	r1, #12
 8004f18:	d00f      	beq.n	8004f3a <HAL_TIM_PWM_Start+0xc6>
 8004f1a:	2910      	cmp	r1, #16
 8004f1c:	d02e      	beq.n	8004f7c <HAL_TIM_PWM_Start+0x108>
 8004f1e:	f890 3043 	ldrb.w	r3, [r0, #67]	; 0x43
 8004f22:	2b01      	cmp	r3, #1
 8004f24:	d10d      	bne.n	8004f42 <HAL_TIM_PWM_Start+0xce>
 8004f26:	2908      	cmp	r1, #8
 8004f28:	d020      	beq.n	8004f6c <HAL_TIM_PWM_Start+0xf8>
 8004f2a:	290c      	cmp	r1, #12
 8004f2c:	d022      	beq.n	8004f74 <HAL_TIM_PWM_Start+0x100>
 8004f2e:	2910      	cmp	r1, #16
 8004f30:	d028      	beq.n	8004f84 <HAL_TIM_PWM_Start+0x110>
 8004f32:	2302      	movs	r3, #2
 8004f34:	f880 3043 	strb.w	r3, [r0, #67]	; 0x43
 8004f38:	e7a5      	b.n	8004e86 <HAL_TIM_PWM_Start+0x12>
 8004f3a:	f890 3041 	ldrb.w	r3, [r0, #65]	; 0x41
 8004f3e:	2b01      	cmp	r3, #1
 8004f40:	d018      	beq.n	8004f74 <HAL_TIM_PWM_Start+0x100>
 8004f42:	2001      	movs	r0, #1
 8004f44:	4770      	bx	lr
 8004f46:	2000      	movs	r0, #0
 8004f48:	4770      	bx	lr
 8004f4a:	f890 303f 	ldrb.w	r3, [r0, #63]	; 0x3f
 8004f4e:	2b01      	cmp	r3, #1
 8004f50:	d1f7      	bne.n	8004f42 <HAL_TIM_PWM_Start+0xce>
 8004f52:	2302      	movs	r3, #2
 8004f54:	f880 303f 	strb.w	r3, [r0, #63]	; 0x3f
 8004f58:	e795      	b.n	8004e86 <HAL_TIM_PWM_Start+0x12>
 8004f5a:	6c5a      	ldr	r2, [r3, #68]	; 0x44
 8004f5c:	f442 4200 	orr.w	r2, r2, #32768	; 0x8000
 8004f60:	645a      	str	r2, [r3, #68]	; 0x44
 8004f62:	e7c6      	b.n	8004ef2 <HAL_TIM_PWM_Start+0x7e>
 8004f64:	f890 3040 	ldrb.w	r3, [r0, #64]	; 0x40
 8004f68:	2b01      	cmp	r3, #1
 8004f6a:	d1ea      	bne.n	8004f42 <HAL_TIM_PWM_Start+0xce>
 8004f6c:	2302      	movs	r3, #2
 8004f6e:	f880 3040 	strb.w	r3, [r0, #64]	; 0x40
 8004f72:	e788      	b.n	8004e86 <HAL_TIM_PWM_Start+0x12>
 8004f74:	2302      	movs	r3, #2
 8004f76:	f880 3041 	strb.w	r3, [r0, #65]	; 0x41
 8004f7a:	e784      	b.n	8004e86 <HAL_TIM_PWM_Start+0x12>
 8004f7c:	f890 3042 	ldrb.w	r3, [r0, #66]	; 0x42
 8004f80:	2b01      	cmp	r3, #1
 8004f82:	d1de      	bne.n	8004f42 <HAL_TIM_PWM_Start+0xce>
 8004f84:	2302      	movs	r3, #2
 8004f86:	f880 3042 	strb.w	r3, [r0, #66]	; 0x42
 8004f8a:	e77c      	b.n	8004e86 <HAL_TIM_PWM_Start+0x12>
 8004f8c:	40012c00 	.word	0x40012c00
 8004f90:	40000400 	.word	0x40000400
 8004f94:	00010007 	.word	0x00010007

08004f98 <HAL_TIM_OC_DelayElapsedCallback>:
 8004f98:	4770      	bx	lr
 8004f9a:	bf00      	nop

08004f9c <HAL_TIM_IC_CaptureCallback>:
 8004f9c:	4770      	bx	lr
 8004f9e:	bf00      	nop

08004fa0 <HAL_TIM_PWM_PulseFinishedCallback>:
 8004fa0:	4770      	bx	lr
 8004fa2:	bf00      	nop

08004fa4 <HAL_TIM_TriggerCallback>:
 8004fa4:	4770      	bx	lr
 8004fa6:	bf00      	nop

08004fa8 <HAL_TIM_IRQHandler>:
  if (__HAL_TIM_GET_FLAG(htim, TIM_FLAG_CC1) != RESET)
 8004fa8:	6803      	ldr	r3, [r0, #0]
 8004faa:	691a      	ldr	r2, [r3, #16]
 8004fac:	0791      	lsls	r1, r2, #30
{
 8004fae:	b510      	push	{r4, lr}
 8004fb0:	4604      	mov	r4, r0
  if (__HAL_TIM_GET_FLAG(htim, TIM_FLAG_CC1) != RESET)
 8004fb2:	d502      	bpl.n	8004fba <HAL_TIM_IRQHandler+0x12>
    if (__HAL_TIM_GET_IT_SOURCE(htim, TIM_IT_CC1) != RESET)
 8004fb4:	68da      	ldr	r2, [r3, #12]
 8004fb6:	0792      	lsls	r2, r2, #30
 8004fb8:	d468      	bmi.n	800508c <HAL_TIM_IRQHandler+0xe4>
  if (__HAL_TIM_GET_FLAG(htim, TIM_FLAG_CC2) != RESET)
 8004fba:	691a      	ldr	r2, [r3, #16]
 8004fbc:	0752      	lsls	r2, r2, #29
 8004fbe:	d502      	bpl.n	8004fc6 <HAL_TIM_IRQHandler+0x1e>
    if (__HAL_TIM_GET_IT_SOURCE(htim, TIM_IT_CC2) != RESET)
 8004fc0:	68da      	ldr	r2, [r3, #12]
 8004fc2:	0750      	lsls	r0, r2, #29
 8004fc4:	d44f      	bmi.n	8005066 <HAL_TIM_IRQHandler+0xbe>
  if (__HAL_TIM_GET_FLAG(htim, TIM_FLAG_CC3) != RESET)
 8004fc6:	691a      	ldr	r2, [r3, #16]
 8004fc8:	0711      	lsls	r1, r2, #28
 8004fca:	d502      	bpl.n	8004fd2 <HAL_TIM_IRQHandler+0x2a>
    if (__HAL_TIM_GET_IT_SOURCE(htim, TIM_IT_CC3) != RESET)
 8004fcc:	68da      	ldr	r2, [r3, #12]
 8004fce:	0712      	lsls	r2, r2, #28
 8004fd0:	d437      	bmi.n	8005042 <HAL_TIM_IRQHandler+0x9a>
  if (__HAL_TIM_GET_FLAG(htim, TIM_FLAG_CC4) != RESET)
 8004fd2:	691a      	ldr	r2, [r3, #16]
 8004fd4:	06d0      	lsls	r0, r2, #27
 8004fd6:	d502      	bpl.n	8004fde <HAL_TIM_IRQHandler+0x36>
    if (__HAL_TIM_GET_IT_SOURCE(htim, TIM_IT_CC4) != RESET)
 8004fd8:	68da      	ldr	r2, [r3, #12]
 8004fda:	06d1      	lsls	r1, r2, #27
 8004fdc:	d41e      	bmi.n	800501c <HAL_TIM_IRQHandler+0x74>
  if (__HAL_TIM_GET_FLAG(htim, TIM_FLAG_UPDATE) != RESET)
 8004fde:	691a      	ldr	r2, [r3, #16]
 8004fe0:	07d2      	lsls	r2, r2, #31
 8004fe2:	d502      	bpl.n	8004fea <HAL_TIM_IRQHandler+0x42>
    if (__HAL_TIM_GET_IT_SOURCE(htim, TIM_IT_UPDATE) != RESET)
 8004fe4:	68da      	ldr	r2, [r3, #12]
 8004fe6:	07d0      	lsls	r0, r2, #31
 8004fe8:	d469      	bmi.n	80050be <HAL_TIM_IRQHandler+0x116>
  if (__HAL_TIM_GET_FLAG(htim, TIM_FLAG_BREAK) != RESET)
 8004fea:	691a      	ldr	r2, [r3, #16]
 8004fec:	0611      	lsls	r1, r2, #24
 8004fee:	d502      	bpl.n	8004ff6 <HAL_TIM_IRQHandler+0x4e>
    if (__HAL_TIM_GET_IT_SOURCE(htim, TIM_IT_BREAK) != RESET)
 8004ff0:	68da      	ldr	r2, [r3, #12]
 8004ff2:	0612      	lsls	r2, r2, #24
 8004ff4:	d46b      	bmi.n	80050ce <HAL_TIM_IRQHandler+0x126>
  if (__HAL_TIM_GET_FLAG(htim, TIM_FLAG_BREAK2) != RESET)
 8004ff6:	691a      	ldr	r2, [r3, #16]
 8004ff8:	05d0      	lsls	r0, r2, #23
 8004ffa:	d502      	bpl.n	8005002 <HAL_TIM_IRQHandler+0x5a>
    if (__HAL_TIM_GET_IT_SOURCE(htim, TIM_IT_BREAK) != RESET)
 8004ffc:	68da      	ldr	r2, [r3, #12]
 8004ffe:	0611      	lsls	r1, r2, #24
 8005000:	d46d      	bmi.n	80050de <HAL_TIM_IRQHandler+0x136>
  if (__HAL_TIM_GET_FLAG(htim, TIM_FLAG_TRIGGER) != RESET)
 8005002:	691a      	ldr	r2, [r3, #16]
 8005004:	0652      	lsls	r2, r2, #25
 8005006:	d502      	bpl.n	800500e <HAL_TIM_IRQHandler+0x66>
    if (__HAL_TIM_GET_IT_SOURCE(htim, TIM_IT_TRIGGER) != RESET)
 8005008:	68da      	ldr	r2, [r3, #12]
 800500a:	0650      	lsls	r0, r2, #25
 800500c:	d46f      	bmi.n	80050ee <HAL_TIM_IRQHandler+0x146>
  if (__HAL_TIM_GET_FLAG(htim, TIM_FLAG_COM) != RESET)
 800500e:	691a      	ldr	r2, [r3, #16]
 8005010:	0691      	lsls	r1, r2, #26
 8005012:	d502      	bpl.n	800501a <HAL_TIM_IRQHandler+0x72>
    if (__HAL_TIM_GET_IT_SOURCE(htim, TIM_IT_COM) != RESET)
 8005014:	68da      	ldr	r2, [r3, #12]
 8005016:	0692      	lsls	r2, r2, #26
 8005018:	d449      	bmi.n	80050ae <HAL_TIM_IRQHandler+0x106>
}
 800501a:	bd10      	pop	{r4, pc}
      __HAL_TIM_CLEAR_IT(htim, TIM_IT_CC4);
 800501c:	f06f 0110 	mvn.w	r1, #16
      htim->Channel = HAL_TIM_ACTIVE_CHANNEL_4;
 8005020:	2208      	movs	r2, #8
      __HAL_TIM_CLEAR_IT(htim, TIM_IT_CC4);
 8005022:	6119      	str	r1, [r3, #16]
      htim->Channel = HAL_TIM_ACTIVE_CHANNEL_4;
 8005024:	7722      	strb	r2, [r4, #28]
      if ((htim->Instance->CCMR2 & TIM_CCMR2_CC4S) != 0x00U)
 8005026:	69db      	ldr	r3, [r3, #28]
 8005028:	f413 7f40 	tst.w	r3, #768	; 0x300
        HAL_TIM_IC_CaptureCallback(htim);
 800502c:	4620      	mov	r0, r4
      if ((htim->Instance->CCMR2 & TIM_CCMR2_CC4S) != 0x00U)
 800502e:	d16f      	bne.n	8005110 <HAL_TIM_IRQHandler+0x168>
        HAL_TIM_OC_DelayElapsedCallback(htim);
 8005030:	f7ff ffb2 	bl	8004f98 <HAL_TIM_OC_DelayElapsedCallback>
        HAL_TIM_PWM_PulseFinishedCallback(htim);
 8005034:	4620      	mov	r0, r4
 8005036:	f7ff ffb3 	bl	8004fa0 <HAL_TIM_PWM_PulseFinishedCallback>
      htim->Channel = HAL_TIM_ACTIVE_CHANNEL_CLEARED;
 800503a:	2200      	movs	r2, #0
  if (__HAL_TIM_GET_FLAG(htim, TIM_FLAG_UPDATE) != RESET)
 800503c:	6823      	ldr	r3, [r4, #0]
      htim->Channel = HAL_TIM_ACTIVE_CHANNEL_CLEARED;
 800503e:	7722      	strb	r2, [r4, #28]
 8005040:	e7cd      	b.n	8004fde <HAL_TIM_IRQHandler+0x36>
      __HAL_TIM_CLEAR_IT(htim, TIM_IT_CC3);
 8005042:	f06f 0108 	mvn.w	r1, #8
      htim->Channel = HAL_TIM_ACTIVE_CHANNEL_3;
 8005046:	2204      	movs	r2, #4
      __HAL_TIM_CLEAR_IT(htim, TIM_IT_CC3);
 8005048:	6119      	str	r1, [r3, #16]
      htim->Channel = HAL_TIM_ACTIVE_CHANNEL_3;
 800504a:	7722      	strb	r2, [r4, #28]
      if ((htim->Instance->CCMR2 & TIM_CCMR2_CC3S) != 0x00U)
 800504c:	69db      	ldr	r3, [r3, #28]
 800504e:	079b      	lsls	r3, r3, #30
        HAL_TIM_IC_CaptureCallback(htim);
 8005050:	4620      	mov	r0, r4
      if ((htim->Instance->CCMR2 & TIM_CCMR2_CC3S) != 0x00U)
 8005052:	d15a      	bne.n	800510a <HAL_TIM_IRQHandler+0x162>
        HAL_TIM_OC_DelayElapsedCallback(htim);
 8005054:	f7ff ffa0 	bl	8004f98 <HAL_TIM_OC_DelayElapsedCallback>
        HAL_TIM_PWM_PulseFinishedCallback(htim);
 8005058:	4620      	mov	r0, r4
 800505a:	f7ff ffa1 	bl	8004fa0 <HAL_TIM_PWM_PulseFinishedCallback>
      htim->Channel = HAL_TIM_ACTIVE_CHANNEL_CLEARED;
 800505e:	2200      	movs	r2, #0
  if (__HAL_TIM_GET_FLAG(htim, TIM_FLAG_CC4) != RESET)
 8005060:	6823      	ldr	r3, [r4, #0]
      htim->Channel = HAL_TIM_ACTIVE_CHANNEL_CLEARED;
 8005062:	7722      	strb	r2, [r4, #28]
 8005064:	e7b5      	b.n	8004fd2 <HAL_TIM_IRQHandler+0x2a>
      __HAL_TIM_CLEAR_IT(htim, TIM_IT_CC2);
 8005066:	f06f 0104 	mvn.w	r1, #4
      htim->Channel = HAL_TIM_ACTIVE_CHANNEL_2;
 800506a:	2202      	movs	r2, #2
      __HAL_TIM_CLEAR_IT(htim, TIM_IT_CC2);
 800506c:	6119      	str	r1, [r3, #16]
      htim->Channel = HAL_TIM_ACTIVE_CHANNEL_2;
 800506e:	7722      	strb	r2, [r4, #28]
      if ((htim->Instance->CCMR1 & TIM_CCMR1_CC2S) != 0x00U)
 8005070:	699b      	ldr	r3, [r3, #24]
 8005072:	f413 7f40 	tst.w	r3, #768	; 0x300
        HAL_TIM_IC_CaptureCallback(htim);
 8005076:	4620      	mov	r0, r4
      if ((htim->Instance->CCMR1 & TIM_CCMR1_CC2S) != 0x00U)
 8005078:	d144      	bne.n	8005104 <HAL_TIM_IRQHandler+0x15c>
        HAL_TIM_OC_DelayElapsedCallback(htim);
 800507a:	f7ff ff8d 	bl	8004f98 <HAL_TIM_OC_DelayElapsedCallback>
        HAL_TIM_PWM_PulseFinishedCallback(htim);
 800507e:	4620      	mov	r0, r4
 8005080:	f7ff ff8e 	bl	8004fa0 <HAL_TIM_PWM_PulseFinishedCallback>
      htim->Channel = HAL_TIM_ACTIVE_CHANNEL_CLEARED;
 8005084:	2200      	movs	r2, #0
  if (__HAL_TIM_GET_FLAG(htim, TIM_FLAG_CC3) != RESET)
 8005086:	6823      	ldr	r3, [r4, #0]
      htim->Channel = HAL_TIM_ACTIVE_CHANNEL_CLEARED;
 8005088:	7722      	strb	r2, [r4, #28]
 800508a:	e79c      	b.n	8004fc6 <HAL_TIM_IRQHandler+0x1e>
        __HAL_TIM_CLEAR_IT(htim, TIM_IT_CC1);
 800508c:	f06f 0102 	mvn.w	r1, #2
        htim->Channel = HAL_TIM_ACTIVE_CHANNEL_1;
 8005090:	2201      	movs	r2, #1
        __HAL_TIM_CLEAR_IT(htim, TIM_IT_CC1);
 8005092:	6119      	str	r1, [r3, #16]
        htim->Channel = HAL_TIM_ACTIVE_CHANNEL_1;
 8005094:	7702      	strb	r2, [r0, #28]
        if ((htim->Instance->CCMR1 & TIM_CCMR1_CC1S) != 0x00U)
 8005096:	699b      	ldr	r3, [r3, #24]
 8005098:	0799      	lsls	r1, r3, #30
 800509a:	d130      	bne.n	80050fe <HAL_TIM_IRQHandler+0x156>
          HAL_TIM_OC_DelayElapsedCallback(htim);
 800509c:	f7ff ff7c 	bl	8004f98 <HAL_TIM_OC_DelayElapsedCallback>
          HAL_TIM_PWM_PulseFinishedCallback(htim);
 80050a0:	4620      	mov	r0, r4
 80050a2:	f7ff ff7d 	bl	8004fa0 <HAL_TIM_PWM_PulseFinishedCallback>
        htim->Channel = HAL_TIM_ACTIVE_CHANNEL_CLEARED;
 80050a6:	2200      	movs	r2, #0
  if (__HAL_TIM_GET_FLAG(htim, TIM_FLAG_CC2) != RESET)
 80050a8:	6823      	ldr	r3, [r4, #0]
        htim->Channel = HAL_TIM_ACTIVE_CHANNEL_CLEARED;
 80050aa:	7722      	strb	r2, [r4, #28]
 80050ac:	e785      	b.n	8004fba <HAL_TIM_IRQHandler+0x12>
      __HAL_TIM_CLEAR_IT(htim, TIM_FLAG_COM);
 80050ae:	f06f 0220 	mvn.w	r2, #32
      HAL_TIMEx_CommutCallback(htim);
 80050b2:	4620      	mov	r0, r4
      __HAL_TIM_CLEAR_IT(htim, TIM_FLAG_COM);
 80050b4:	611a      	str	r2, [r3, #16]
}
 80050b6:	e8bd 4010 	ldmia.w	sp!, {r4, lr}
      HAL_TIMEx_CommutCallback(htim);
 80050ba:	f000 ba91 	b.w	80055e0 <HAL_TIMEx_CommutCallback>
      __HAL_TIM_CLEAR_IT(htim, TIM_IT_UPDATE);
 80050be:	f06f 0201 	mvn.w	r2, #1
 80050c2:	611a      	str	r2, [r3, #16]
      HAL_TIM_PeriodElapsedCallback(htim);
 80050c4:	4620      	mov	r0, r4
 80050c6:	f7fc f953 	bl	8001370 <HAL_TIM_PeriodElapsedCallback>
  if (__HAL_TIM_GET_FLAG(htim, TIM_FLAG_BREAK) != RESET)
 80050ca:	6823      	ldr	r3, [r4, #0]
 80050cc:	e78d      	b.n	8004fea <HAL_TIM_IRQHandler+0x42>
      __HAL_TIM_CLEAR_IT(htim, TIM_IT_BREAK);
 80050ce:	f06f 0280 	mvn.w	r2, #128	; 0x80
 80050d2:	611a      	str	r2, [r3, #16]
      HAL_TIMEx_BreakCallback(htim);
 80050d4:	4620      	mov	r0, r4
 80050d6:	f000 fa85 	bl	80055e4 <HAL_TIMEx_BreakCallback>
  if (__HAL_TIM_GET_FLAG(htim, TIM_FLAG_BREAK2) != RESET)
 80050da:	6823      	ldr	r3, [r4, #0]
 80050dc:	e78b      	b.n	8004ff6 <HAL_TIM_IRQHandler+0x4e>
      __HAL_TIM_CLEAR_FLAG(htim, TIM_FLAG_BREAK2);
 80050de:	f46f 7280 	mvn.w	r2, #256	; 0x100
 80050e2:	611a      	str	r2, [r3, #16]
      HAL_TIMEx_Break2Callback(htim);
 80050e4:	4620      	mov	r0, r4
 80050e6:	f000 fa7f 	bl	80055e8 <HAL_TIMEx_Break2Callback>
  if (__HAL_TIM_GET_FLAG(htim, TIM_FLAG_TRIGGER) != RESET)
 80050ea:	6823      	ldr	r3, [r4, #0]
 80050ec:	e789      	b.n	8005002 <HAL_TIM_IRQHandler+0x5a>
      __HAL_TIM_CLEAR_IT(htim, TIM_IT_TRIGGER);
 80050ee:	f06f 0240 	mvn.w	r2, #64	; 0x40
 80050f2:	611a      	str	r2, [r3, #16]
      HAL_TIM_TriggerCallback(htim);
 80050f4:	4620      	mov	r0, r4
 80050f6:	f7ff ff55 	bl	8004fa4 <HAL_TIM_TriggerCallback>
  if (__HAL_TIM_GET_FLAG(htim, TIM_FLAG_COM) != RESET)
 80050fa:	6823      	ldr	r3, [r4, #0]
 80050fc:	e787      	b.n	800500e <HAL_TIM_IRQHandler+0x66>
          HAL_TIM_IC_CaptureCallback(htim);
 80050fe:	f7ff ff4d 	bl	8004f9c <HAL_TIM_IC_CaptureCallback>
 8005102:	e7d0      	b.n	80050a6 <HAL_TIM_IRQHandler+0xfe>
        HAL_TIM_IC_CaptureCallback(htim);
 8005104:	f7ff ff4a 	bl	8004f9c <HAL_TIM_IC_CaptureCallback>
 8005108:	e7bc      	b.n	8005084 <HAL_TIM_IRQHandler+0xdc>
        HAL_TIM_IC_CaptureCallback(htim);
 800510a:	f7ff ff47 	bl	8004f9c <HAL_TIM_IC_CaptureCallback>
 800510e:	e7a6      	b.n	800505e <HAL_TIM_IRQHandler+0xb6>
        HAL_TIM_IC_CaptureCallback(htim);
 8005110:	f7ff ff44 	bl	8004f9c <HAL_TIM_IC_CaptureCallback>
 8005114:	e791      	b.n	800503a <HAL_TIM_IRQHandler+0x92>
 8005116:	bf00      	nop

08005118 <TIM_OC2_SetConfig>:
  TIMx->CCER &= ~TIM_CCER_CC2E;
 8005118:	6a03      	ldr	r3, [r0, #32]
 800511a:	f023 0310 	bic.w	r3, r3, #16
 800511e:	6203      	str	r3, [r0, #32]
  tmpccer = TIMx->CCER;
 8005120:	6a03      	ldr	r3, [r0, #32]
{
 8005122:	b470      	push	{r4, r5, r6}
  tmpcr2 =  TIMx->CR2;
 8005124:	6844      	ldr	r4, [r0, #4]
  tmpccmrx = TIMx->CCMR1;
 8005126:	6982      	ldr	r2, [r0, #24]
  tmpccmrx |= (OC_Config->OCMode << 8U);
 8005128:	680d      	ldr	r5, [r1, #0]
  tmpccmrx &= ~TIM_CCMR1_CC2S;
 800512a:	f022 7280 	bic.w	r2, r2, #16777216	; 0x1000000
 800512e:	f422 42e6 	bic.w	r2, r2, #29440	; 0x7300
  tmpccmrx |= (OC_Config->OCMode << 8U);
 8005132:	ea42 2205 	orr.w	r2, r2, r5, lsl #8
  tmpccer |= (OC_Config->OCPolarity << 4U);
 8005136:	688d      	ldr	r5, [r1, #8]
  tmpccer &= ~TIM_CCER_CC2P;
 8005138:	f023 0320 	bic.w	r3, r3, #32
  tmpccer |= (OC_Config->OCPolarity << 4U);
 800513c:	ea43 1305 	orr.w	r3, r3, r5, lsl #4
  if (IS_TIM_CCXN_INSTANCE(TIMx, TIM_CHANNEL_2))
 8005140:	4d14      	ldr	r5, [pc, #80]	; (8005194 <TIM_OC2_SetConfig+0x7c>)
 8005142:	42a8      	cmp	r0, r5
 8005144:	d010      	beq.n	8005168 <TIM_OC2_SetConfig+0x50>
 8005146:	f505 6500 	add.w	r5, r5, #2048	; 0x800
 800514a:	42a8      	cmp	r0, r5
 800514c:	d00c      	beq.n	8005168 <TIM_OC2_SetConfig+0x50>
  if (IS_TIM_BREAK_INSTANCE(TIMx))
 800514e:	f505 6540 	add.w	r5, r5, #3072	; 0xc00
 8005152:	42a8      	cmp	r0, r5
 8005154:	d00f      	beq.n	8005176 <TIM_OC2_SetConfig+0x5e>
 8005156:	f505 6580 	add.w	r5, r5, #1024	; 0x400
 800515a:	42a8      	cmp	r0, r5
 800515c:	d00b      	beq.n	8005176 <TIM_OC2_SetConfig+0x5e>
 800515e:	f505 6580 	add.w	r5, r5, #1024	; 0x400
 8005162:	42a8      	cmp	r0, r5
 8005164:	d10f      	bne.n	8005186 <TIM_OC2_SetConfig+0x6e>
 8005166:	e006      	b.n	8005176 <TIM_OC2_SetConfig+0x5e>
    tmpccer |= (OC_Config->OCNPolarity << 4U);
 8005168:	68cd      	ldr	r5, [r1, #12]
    tmpccer &= ~TIM_CCER_CC2NP;
 800516a:	f023 0380 	bic.w	r3, r3, #128	; 0x80
    tmpccer |= (OC_Config->OCNPolarity << 4U);
 800516e:	ea43 1305 	orr.w	r3, r3, r5, lsl #4
    tmpccer &= ~TIM_CCER_CC2NE;
 8005172:	f023 0340 	bic.w	r3, r3, #64	; 0x40
    tmpcr2 |= (OC_Config->OCNIdleState << 2U);
 8005176:	e9d1 6505 	ldrd	r6, r5, [r1, #20]
    tmpcr2 &= ~TIM_CR2_OIS2N;
 800517a:	f424 6440 	bic.w	r4, r4, #3072	; 0xc00
    tmpcr2 |= (OC_Config->OCNIdleState << 2U);
 800517e:	ea46 0c05 	orr.w	ip, r6, r5
 8005182:	ea44 048c 	orr.w	r4, r4, ip, lsl #2
  TIMx->CCR2 = OC_Config->Pulse;
 8005186:	6849      	ldr	r1, [r1, #4]
  TIMx->CR2 = tmpcr2;
 8005188:	6044      	str	r4, [r0, #4]
  TIMx->CCMR1 = tmpccmrx;
 800518a:	6182      	str	r2, [r0, #24]
}
 800518c:	bc70      	pop	{r4, r5, r6}
  TIMx->CCR2 = OC_Config->Pulse;
 800518e:	6381      	str	r1, [r0, #56]	; 0x38
  TIMx->CCER = tmpccer;
 8005190:	6203      	str	r3, [r0, #32]
}
 8005192:	4770      	bx	lr
 8005194:	40012c00 	.word	0x40012c00

08005198 <HAL_TIM_PWM_ConfigChannel>:
  __HAL_LOCK(htim);
 8005198:	f890 303c 	ldrb.w	r3, [r0, #60]	; 0x3c
 800519c:	2b01      	cmp	r3, #1
 800519e:	f000 812b 	beq.w	80053f8 <HAL_TIM_PWM_ConfigChannel+0x260>
 80051a2:	2301      	movs	r3, #1
{
 80051a4:	b570      	push	{r4, r5, r6, lr}
 80051a6:	4604      	mov	r4, r0
 80051a8:	460d      	mov	r5, r1
  __HAL_LOCK(htim);
 80051aa:	f880 303c 	strb.w	r3, [r0, #60]	; 0x3c
  switch (Channel)
 80051ae:	2a14      	cmp	r2, #20
 80051b0:	d816      	bhi.n	80051e0 <HAL_TIM_PWM_ConfigChannel+0x48>
 80051b2:	e8df f012 	tbh	[pc, r2, lsl #1]
 80051b6:	005d      	.short	0x005d
 80051b8:	00150015 	.word	0x00150015
 80051bc:	00720015 	.word	0x00720015
 80051c0:	00150015 	.word	0x00150015
 80051c4:	00880015 	.word	0x00880015
 80051c8:	00150015 	.word	0x00150015
 80051cc:	009d0015 	.word	0x009d0015
 80051d0:	00150015 	.word	0x00150015
 80051d4:	00e00015 	.word	0x00e00015
 80051d8:	00150015 	.word	0x00150015
 80051dc:	001a0015 	.word	0x001a0015
  __HAL_UNLOCK(htim);
 80051e0:	2300      	movs	r3, #0
 80051e2:	f884 303c 	strb.w	r3, [r4, #60]	; 0x3c
  switch (Channel)
 80051e6:	2001      	movs	r0, #1
}
 80051e8:	bd70      	pop	{r4, r5, r6, pc}
      TIM_OC6_SetConfig(htim->Instance, sConfig);
 80051ea:	6803      	ldr	r3, [r0, #0]
  tmpccmrx = TIMx->CCMR3;

  /* Reset the Output Compare Mode Bits */
  tmpccmrx &= ~(TIM_CCMR3_OC6M);
  /* Select the Output Compare Mode */
  tmpccmrx |= (OC_Config->OCMode << 8U);
 80051ec:	682e      	ldr	r6, [r5, #0]
  TIMx->CCER &= ~TIM_CCER_CC6E;
 80051ee:	6a1a      	ldr	r2, [r3, #32]
 80051f0:	f422 1280 	bic.w	r2, r2, #1048576	; 0x100000
 80051f4:	621a      	str	r2, [r3, #32]
  tmpccer = TIMx->CCER;
 80051f6:	6a1a      	ldr	r2, [r3, #32]
  tmpcr2 =  TIMx->CR2;
 80051f8:	6858      	ldr	r0, [r3, #4]
  tmpccmrx = TIMx->CCMR3;
 80051fa:	6d59      	ldr	r1, [r3, #84]	; 0x54
  tmpccmrx &= ~(TIM_CCMR3_OC6M);
 80051fc:	f021 7180 	bic.w	r1, r1, #16777216	; 0x1000000
 8005200:	f421 41e0 	bic.w	r1, r1, #28672	; 0x7000
  tmpccmrx |= (OC_Config->OCMode << 8U);
 8005204:	ea41 2106 	orr.w	r1, r1, r6, lsl #8

  /* Reset the Output Polarity level */
  tmpccer &= (uint32_t)~TIM_CCER_CC6P;
  /* Set the Output Compare Polarity */
  tmpccer |= (OC_Config->OCPolarity << 20U);
 8005208:	68ae      	ldr	r6, [r5, #8]
  tmpccer &= (uint32_t)~TIM_CCER_CC6P;
 800520a:	f422 1200 	bic.w	r2, r2, #2097152	; 0x200000
  tmpccer |= (OC_Config->OCPolarity << 20U);
 800520e:	ea42 5206 	orr.w	r2, r2, r6, lsl #20

  if (IS_TIM_BREAK_INSTANCE(TIMx))
 8005212:	4e7a      	ldr	r6, [pc, #488]	; (80053fc <HAL_TIM_PWM_ConfigChannel+0x264>)
 8005214:	42b3      	cmp	r3, r6
 8005216:	d00f      	beq.n	8005238 <HAL_TIM_PWM_ConfigChannel+0xa0>
 8005218:	f506 6600 	add.w	r6, r6, #2048	; 0x800
 800521c:	42b3      	cmp	r3, r6
 800521e:	d00b      	beq.n	8005238 <HAL_TIM_PWM_ConfigChannel+0xa0>
 8005220:	f506 6640 	add.w	r6, r6, #3072	; 0xc00
 8005224:	42b3      	cmp	r3, r6
 8005226:	d007      	beq.n	8005238 <HAL_TIM_PWM_ConfigChannel+0xa0>
 8005228:	f506 6680 	add.w	r6, r6, #1024	; 0x400
 800522c:	42b3      	cmp	r3, r6
 800522e:	d003      	beq.n	8005238 <HAL_TIM_PWM_ConfigChannel+0xa0>
 8005230:	f506 6680 	add.w	r6, r6, #1024	; 0x400
 8005234:	42b3      	cmp	r3, r6
 8005236:	d104      	bne.n	8005242 <HAL_TIM_PWM_ConfigChannel+0xaa>
  {
    /* Reset the Output Compare IDLE State */
    tmpcr2 &= ~TIM_CR2_OIS6;
    /* Set the Output Idle state */
    tmpcr2 |= (OC_Config->OCIdleState << 10U);
 8005238:	696e      	ldr	r6, [r5, #20]
    tmpcr2 &= ~TIM_CR2_OIS6;
 800523a:	f420 2080 	bic.w	r0, r0, #262144	; 0x40000
    tmpcr2 |= (OC_Config->OCIdleState << 10U);
 800523e:	ea40 2086 	orr.w	r0, r0, r6, lsl #10
  }

  /* Write to TIMx CR2 */
  TIMx->CR2 = tmpcr2;
 8005242:	6058      	str	r0, [r3, #4]

  /* Write to TIMx CCMR3 */
  TIMx->CCMR3 = tmpccmrx;
 8005244:	6559      	str	r1, [r3, #84]	; 0x54

  /* Set the Capture Compare Register value */
  TIMx->CCR6 = OC_Config->Pulse;
 8005246:	6869      	ldr	r1, [r5, #4]
 8005248:	65d9      	str	r1, [r3, #92]	; 0x5c

  /* Write to TIMx CCER */
  TIMx->CCER = tmpccer;
 800524a:	621a      	str	r2, [r3, #32]
      htim->Instance->CCMR3 |= TIM_CCMR3_OC6PE;
 800524c:	6d59      	ldr	r1, [r3, #84]	; 0x54
      htim->Instance->CCMR3 |= sConfig->OCFastMode << 8U;
 800524e:	692d      	ldr	r5, [r5, #16]
      htim->Instance->CCMR3 |= TIM_CCMR3_OC6PE;
 8005250:	f441 6100 	orr.w	r1, r1, #2048	; 0x800
 8005254:	6559      	str	r1, [r3, #84]	; 0x54
      htim->Instance->CCMR3 &= ~TIM_CCMR3_OC6FE;
 8005256:	6d59      	ldr	r1, [r3, #84]	; 0x54
 8005258:	f421 6180 	bic.w	r1, r1, #1024	; 0x400
 800525c:	6559      	str	r1, [r3, #84]	; 0x54
      htim->Instance->CCMR3 |= sConfig->OCFastMode << 8U;
 800525e:	6d5a      	ldr	r2, [r3, #84]	; 0x54
 8005260:	ea42 2205 	orr.w	r2, r2, r5, lsl #8
 8005264:	655a      	str	r2, [r3, #84]	; 0x54
  __HAL_UNLOCK(htim);
 8005266:	2300      	movs	r3, #0
 8005268:	f884 303c 	strb.w	r3, [r4, #60]	; 0x3c
  HAL_StatusTypeDef status = HAL_OK;
 800526c:	2000      	movs	r0, #0
}
 800526e:	bd70      	pop	{r4, r5, r6, pc}
      TIM_OC1_SetConfig(htim->Instance, sConfig);
 8005270:	6800      	ldr	r0, [r0, #0]
 8005272:	f7ff fca9 	bl	8004bc8 <TIM_OC1_SetConfig>
      htim->Instance->CCMR1 |= TIM_CCMR1_OC1PE;
 8005276:	6823      	ldr	r3, [r4, #0]
      htim->Instance->CCMR1 |= sConfig->OCFastMode;
 8005278:	6928      	ldr	r0, [r5, #16]
      htim->Instance->CCMR1 |= TIM_CCMR1_OC1PE;
 800527a:	6999      	ldr	r1, [r3, #24]
 800527c:	f041 0108 	orr.w	r1, r1, #8
 8005280:	6199      	str	r1, [r3, #24]
      htim->Instance->CCMR1 &= ~TIM_CCMR1_OC1FE;
 8005282:	6999      	ldr	r1, [r3, #24]
 8005284:	f021 0104 	bic.w	r1, r1, #4
 8005288:	6199      	str	r1, [r3, #24]
      htim->Instance->CCMR1 |= sConfig->OCFastMode;
 800528a:	699a      	ldr	r2, [r3, #24]
 800528c:	4302      	orrs	r2, r0
 800528e:	619a      	str	r2, [r3, #24]
  __HAL_UNLOCK(htim);
 8005290:	2300      	movs	r3, #0
 8005292:	f884 303c 	strb.w	r3, [r4, #60]	; 0x3c
  HAL_StatusTypeDef status = HAL_OK;
 8005296:	2000      	movs	r0, #0
}
 8005298:	bd70      	pop	{r4, r5, r6, pc}
      TIM_OC2_SetConfig(htim->Instance, sConfig);
 800529a:	6800      	ldr	r0, [r0, #0]
 800529c:	f7ff ff3c 	bl	8005118 <TIM_OC2_SetConfig>
      htim->Instance->CCMR1 |= TIM_CCMR1_OC2PE;
 80052a0:	6823      	ldr	r3, [r4, #0]
      htim->Instance->CCMR1 |= sConfig->OCFastMode << 8U;
 80052a2:	6928      	ldr	r0, [r5, #16]
      htim->Instance->CCMR1 |= TIM_CCMR1_OC2PE;
 80052a4:	6999      	ldr	r1, [r3, #24]
 80052a6:	f441 6100 	orr.w	r1, r1, #2048	; 0x800
 80052aa:	6199      	str	r1, [r3, #24]
      htim->Instance->CCMR1 &= ~TIM_CCMR1_OC2FE;
 80052ac:	6999      	ldr	r1, [r3, #24]
 80052ae:	f421 6180 	bic.w	r1, r1, #1024	; 0x400
 80052b2:	6199      	str	r1, [r3, #24]
      htim->Instance->CCMR1 |= sConfig->OCFastMode << 8U;
 80052b4:	699a      	ldr	r2, [r3, #24]
 80052b6:	ea42 2200 	orr.w	r2, r2, r0, lsl #8
 80052ba:	619a      	str	r2, [r3, #24]
  __HAL_UNLOCK(htim);
 80052bc:	2300      	movs	r3, #0
 80052be:	f884 303c 	strb.w	r3, [r4, #60]	; 0x3c
  HAL_StatusTypeDef status = HAL_OK;
 80052c2:	2000      	movs	r0, #0
}
 80052c4:	bd70      	pop	{r4, r5, r6, pc}
      TIM_OC3_SetConfig(htim->Instance, sConfig);
 80052c6:	6800      	ldr	r0, [r0, #0]
 80052c8:	f7ff fcba 	bl	8004c40 <TIM_OC3_SetConfig>
      htim->Instance->CCMR2 |= TIM_CCMR2_OC3PE;
 80052cc:	6823      	ldr	r3, [r4, #0]
      htim->Instance->CCMR2 |= sConfig->OCFastMode;
 80052ce:	6928      	ldr	r0, [r5, #16]
      htim->Instance->CCMR2 |= TIM_CCMR2_OC3PE;
 80052d0:	69d9      	ldr	r1, [r3, #28]
 80052d2:	f041 0108 	orr.w	r1, r1, #8
 80052d6:	61d9      	str	r1, [r3, #28]
      htim->Instance->CCMR2 &= ~TIM_CCMR2_OC3FE;
 80052d8:	69d9      	ldr	r1, [r3, #28]
 80052da:	f021 0104 	bic.w	r1, r1, #4
 80052de:	61d9      	str	r1, [r3, #28]
      htim->Instance->CCMR2 |= sConfig->OCFastMode;
 80052e0:	69da      	ldr	r2, [r3, #28]
 80052e2:	4302      	orrs	r2, r0
 80052e4:	61da      	str	r2, [r3, #28]
  __HAL_UNLOCK(htim);
 80052e6:	2300      	movs	r3, #0
 80052e8:	f884 303c 	strb.w	r3, [r4, #60]	; 0x3c
  HAL_StatusTypeDef status = HAL_OK;
 80052ec:	2000      	movs	r0, #0
}
 80052ee:	bd70      	pop	{r4, r5, r6, pc}
      TIM_OC4_SetConfig(htim->Instance, sConfig);
 80052f0:	6803      	ldr	r3, [r0, #0]
  tmpccmrx |= (OC_Config->OCMode << 8U);
 80052f2:	682e      	ldr	r6, [r5, #0]
  TIMx->CCER &= ~TIM_CCER_CC4E;
 80052f4:	6a1a      	ldr	r2, [r3, #32]
 80052f6:	f422 5280 	bic.w	r2, r2, #4096	; 0x1000
 80052fa:	621a      	str	r2, [r3, #32]
  tmpccer = TIMx->CCER;
 80052fc:	6a1a      	ldr	r2, [r3, #32]
  tmpcr2 =  TIMx->CR2;
 80052fe:	6858      	ldr	r0, [r3, #4]
  tmpccmrx = TIMx->CCMR2;
 8005300:	69d9      	ldr	r1, [r3, #28]
  tmpccmrx &= ~TIM_CCMR2_CC4S;
 8005302:	f021 7180 	bic.w	r1, r1, #16777216	; 0x1000000
 8005306:	f421 41e6 	bic.w	r1, r1, #29440	; 0x7300
  tmpccmrx |= (OC_Config->OCMode << 8U);
 800530a:	ea41 2106 	orr.w	r1, r1, r6, lsl #8
  tmpccer |= (OC_Config->OCPolarity << 12U);
 800530e:	68ae      	ldr	r6, [r5, #8]
  tmpccer &= ~TIM_CCER_CC4P;
 8005310:	f422 5200 	bic.w	r2, r2, #8192	; 0x2000
  tmpccer |= (OC_Config->OCPolarity << 12U);
 8005314:	ea42 3206 	orr.w	r2, r2, r6, lsl #12
  if (IS_TIM_BREAK_INSTANCE(TIMx))
 8005318:	4e38      	ldr	r6, [pc, #224]	; (80053fc <HAL_TIM_PWM_ConfigChannel+0x264>)
 800531a:	42b3      	cmp	r3, r6
 800531c:	d00f      	beq.n	800533e <HAL_TIM_PWM_ConfigChannel+0x1a6>
 800531e:	f506 6600 	add.w	r6, r6, #2048	; 0x800
 8005322:	42b3      	cmp	r3, r6
 8005324:	d00b      	beq.n	800533e <HAL_TIM_PWM_ConfigChannel+0x1a6>
 8005326:	f506 6640 	add.w	r6, r6, #3072	; 0xc00
 800532a:	42b3      	cmp	r3, r6
 800532c:	d007      	beq.n	800533e <HAL_TIM_PWM_ConfigChannel+0x1a6>
 800532e:	f506 6680 	add.w	r6, r6, #1024	; 0x400
 8005332:	42b3      	cmp	r3, r6
 8005334:	d003      	beq.n	800533e <HAL_TIM_PWM_ConfigChannel+0x1a6>
 8005336:	f506 6680 	add.w	r6, r6, #1024	; 0x400
 800533a:	42b3      	cmp	r3, r6
 800533c:	d104      	bne.n	8005348 <HAL_TIM_PWM_ConfigChannel+0x1b0>
    tmpcr2 |= (OC_Config->OCIdleState << 6U);
 800533e:	696e      	ldr	r6, [r5, #20]
    tmpcr2 &= ~TIM_CR2_OIS4;
 8005340:	f420 4080 	bic.w	r0, r0, #16384	; 0x4000
    tmpcr2 |= (OC_Config->OCIdleState << 6U);
 8005344:	ea40 1086 	orr.w	r0, r0, r6, lsl #6
  TIMx->CR2 = tmpcr2;
 8005348:	6058      	str	r0, [r3, #4]
  TIMx->CCMR2 = tmpccmrx;
 800534a:	61d9      	str	r1, [r3, #28]
  TIMx->CCR4 = OC_Config->Pulse;
 800534c:	6869      	ldr	r1, [r5, #4]
 800534e:	6419      	str	r1, [r3, #64]	; 0x40
  TIMx->CCER = tmpccer;
 8005350:	621a      	str	r2, [r3, #32]
      htim->Instance->CCMR2 |= TIM_CCMR2_OC4PE;
 8005352:	69d9      	ldr	r1, [r3, #28]
      htim->Instance->CCMR2 |= sConfig->OCFastMode << 8U;
 8005354:	692d      	ldr	r5, [r5, #16]
      htim->Instance->CCMR2 |= TIM_CCMR2_OC4PE;
 8005356:	f441 6100 	orr.w	r1, r1, #2048	; 0x800
 800535a:	61d9      	str	r1, [r3, #28]
      htim->Instance->CCMR2 &= ~TIM_CCMR2_OC4FE;
 800535c:	69d9      	ldr	r1, [r3, #28]
 800535e:	f421 6180 	bic.w	r1, r1, #1024	; 0x400
 8005362:	61d9      	str	r1, [r3, #28]
      htim->Instance->CCMR2 |= sConfig->OCFastMode << 8U;
 8005364:	69da      	ldr	r2, [r3, #28]
 8005366:	ea42 2205 	orr.w	r2, r2, r5, lsl #8
 800536a:	61da      	str	r2, [r3, #28]
  __HAL_UNLOCK(htim);
 800536c:	2300      	movs	r3, #0
 800536e:	f884 303c 	strb.w	r3, [r4, #60]	; 0x3c
  HAL_StatusTypeDef status = HAL_OK;
 8005372:	2000      	movs	r0, #0
}
 8005374:	bd70      	pop	{r4, r5, r6, pc}
      TIM_OC5_SetConfig(htim->Instance, sConfig);
 8005376:	6803      	ldr	r3, [r0, #0]
  tmpccmrx |= OC_Config->OCMode;
 8005378:	682e      	ldr	r6, [r5, #0]
  TIMx->CCER &= ~TIM_CCER_CC5E;
 800537a:	6a1a      	ldr	r2, [r3, #32]
 800537c:	f422 3280 	bic.w	r2, r2, #65536	; 0x10000
 8005380:	621a      	str	r2, [r3, #32]
  tmpccer = TIMx->CCER;
 8005382:	6a1a      	ldr	r2, [r3, #32]
  tmpcr2 =  TIMx->CR2;
 8005384:	6858      	ldr	r0, [r3, #4]
  tmpccmrx = TIMx->CCMR3;
 8005386:	6d59      	ldr	r1, [r3, #84]	; 0x54
  tmpccmrx &= ~(TIM_CCMR3_OC5M);
 8005388:	f421 3180 	bic.w	r1, r1, #65536	; 0x10000
 800538c:	f021 0170 	bic.w	r1, r1, #112	; 0x70
  tmpccmrx |= OC_Config->OCMode;
 8005390:	4331      	orrs	r1, r6
  tmpccer |= (OC_Config->OCPolarity << 16U);
 8005392:	68ae      	ldr	r6, [r5, #8]
  tmpccer &= ~TIM_CCER_CC5P;
 8005394:	f422 3200 	bic.w	r2, r2, #131072	; 0x20000
  tmpccer |= (OC_Config->OCPolarity << 16U);
 8005398:	ea42 4206 	orr.w	r2, r2, r6, lsl #16
  if (IS_TIM_BREAK_INSTANCE(TIMx))
 800539c:	4e17      	ldr	r6, [pc, #92]	; (80053fc <HAL_TIM_PWM_ConfigChannel+0x264>)
 800539e:	42b3      	cmp	r3, r6
 80053a0:	d00f      	beq.n	80053c2 <HAL_TIM_PWM_ConfigChannel+0x22a>
 80053a2:	f506 6600 	add.w	r6, r6, #2048	; 0x800
 80053a6:	42b3      	cmp	r3, r6
 80053a8:	d00b      	beq.n	80053c2 <HAL_TIM_PWM_ConfigChannel+0x22a>
 80053aa:	f506 6640 	add.w	r6, r6, #3072	; 0xc00
 80053ae:	42b3      	cmp	r3, r6
 80053b0:	d007      	beq.n	80053c2 <HAL_TIM_PWM_ConfigChannel+0x22a>
 80053b2:	f506 6680 	add.w	r6, r6, #1024	; 0x400
 80053b6:	42b3      	cmp	r3, r6
 80053b8:	d003      	beq.n	80053c2 <HAL_TIM_PWM_ConfigChannel+0x22a>
 80053ba:	f506 6680 	add.w	r6, r6, #1024	; 0x400
 80053be:	42b3      	cmp	r3, r6
 80053c0:	d104      	bne.n	80053cc <HAL_TIM_PWM_ConfigChannel+0x234>
    tmpcr2 |= (OC_Config->OCIdleState << 8U);
 80053c2:	696e      	ldr	r6, [r5, #20]
    tmpcr2 &= ~TIM_CR2_OIS5;
 80053c4:	f420 3080 	bic.w	r0, r0, #65536	; 0x10000
    tmpcr2 |= (OC_Config->OCIdleState << 8U);
 80053c8:	ea40 2006 	orr.w	r0, r0, r6, lsl #8
  TIMx->CR2 = tmpcr2;
 80053cc:	6058      	str	r0, [r3, #4]
  TIMx->CCMR3 = tmpccmrx;
 80053ce:	6559      	str	r1, [r3, #84]	; 0x54
  TIMx->CCR5 = OC_Config->Pulse;
 80053d0:	6869      	ldr	r1, [r5, #4]
 80053d2:	6599      	str	r1, [r3, #88]	; 0x58
  TIMx->CCER = tmpccer;
 80053d4:	621a      	str	r2, [r3, #32]
      htim->Instance->CCMR3 |= TIM_CCMR3_OC5PE;
 80053d6:	6d59      	ldr	r1, [r3, #84]	; 0x54
      htim->Instance->CCMR3 |= sConfig->OCFastMode;
 80053d8:	692d      	ldr	r5, [r5, #16]
      htim->Instance->CCMR3 |= TIM_CCMR3_OC5PE;
 80053da:	f041 0108 	orr.w	r1, r1, #8
 80053de:	6559      	str	r1, [r3, #84]	; 0x54
      htim->Instance->CCMR3 &= ~TIM_CCMR3_OC5FE;
 80053e0:	6d59      	ldr	r1, [r3, #84]	; 0x54
 80053e2:	f021 0104 	bic.w	r1, r1, #4
 80053e6:	6559      	str	r1, [r3, #84]	; 0x54
      htim->Instance->CCMR3 |= sConfig->OCFastMode;
 80053e8:	6d5a      	ldr	r2, [r3, #84]	; 0x54
 80053ea:	432a      	orrs	r2, r5
 80053ec:	655a      	str	r2, [r3, #84]	; 0x54
  __HAL_UNLOCK(htim);
 80053ee:	2300      	movs	r3, #0
 80053f0:	f884 303c 	strb.w	r3, [r4, #60]	; 0x3c
  HAL_StatusTypeDef status = HAL_OK;
 80053f4:	2000      	movs	r0, #0
}
 80053f6:	bd70      	pop	{r4, r5, r6, pc}
  __HAL_LOCK(htim);
 80053f8:	2002      	movs	r0, #2
}
 80053fa:	4770      	bx	lr
 80053fc:	40012c00 	.word	0x40012c00

08005400 <HAL_TIMEx_PWMN_Start>:
 8005400:	2900      	cmp	r1, #0
 8005402:	d13a      	bne.n	800547a <HAL_TIMEx_PWMN_Start+0x7a>
 8005404:	f890 3044 	ldrb.w	r3, [r0, #68]	; 0x44
 8005408:	2b01      	cmp	r3, #1
 800540a:	d142      	bne.n	8005492 <HAL_TIMEx_PWMN_Start+0x92>
 800540c:	2302      	movs	r3, #2
 800540e:	f880 3044 	strb.w	r3, [r0, #68]	; 0x44
 8005412:	6803      	ldr	r3, [r0, #0]
 8005414:	2204      	movs	r2, #4
 8005416:	6a18      	ldr	r0, [r3, #32]
 8005418:	f001 011f 	and.w	r1, r1, #31
 800541c:	fa02 f101 	lsl.w	r1, r2, r1
 8005420:	ea20 0001 	bic.w	r0, r0, r1
 8005424:	6218      	str	r0, [r3, #32]
 8005426:	6a1a      	ldr	r2, [r3, #32]
 8005428:	4824      	ldr	r0, [pc, #144]	; (80054bc <HAL_TIMEx_PWMN_Start+0xbc>)
 800542a:	4311      	orrs	r1, r2
 800542c:	6219      	str	r1, [r3, #32]
 800542e:	6c5a      	ldr	r2, [r3, #68]	; 0x44
 8005430:	4283      	cmp	r3, r0
 8005432:	f442 4200 	orr.w	r2, r2, #32768	; 0x8000
 8005436:	645a      	str	r2, [r3, #68]	; 0x44
 8005438:	d011      	beq.n	800545e <HAL_TIMEx_PWMN_Start+0x5e>
 800543a:	f1b3 4f80 	cmp.w	r3, #1073741824	; 0x40000000
 800543e:	d00e      	beq.n	800545e <HAL_TIMEx_PWMN_Start+0x5e>
 8005440:	4a1f      	ldr	r2, [pc, #124]	; (80054c0 <HAL_TIMEx_PWMN_Start+0xc0>)
 8005442:	4293      	cmp	r3, r2
 8005444:	d00b      	beq.n	800545e <HAL_TIMEx_PWMN_Start+0x5e>
 8005446:	f502 6280 	add.w	r2, r2, #1024	; 0x400
 800544a:	4293      	cmp	r3, r2
 800544c:	d007      	beq.n	800545e <HAL_TIMEx_PWMN_Start+0x5e>
 800544e:	f502 3296 	add.w	r2, r2, #76800	; 0x12c00
 8005452:	4293      	cmp	r3, r2
 8005454:	d003      	beq.n	800545e <HAL_TIMEx_PWMN_Start+0x5e>
 8005456:	f502 6240 	add.w	r2, r2, #3072	; 0xc00
 800545a:	4293      	cmp	r3, r2
 800545c:	d107      	bne.n	800546e <HAL_TIMEx_PWMN_Start+0x6e>
 800545e:	6899      	ldr	r1, [r3, #8]
 8005460:	4a18      	ldr	r2, [pc, #96]	; (80054c4 <HAL_TIMEx_PWMN_Start+0xc4>)
 8005462:	400a      	ands	r2, r1
 8005464:	2a06      	cmp	r2, #6
 8005466:	d016      	beq.n	8005496 <HAL_TIMEx_PWMN_Start+0x96>
 8005468:	f5b2 3f80 	cmp.w	r2, #65536	; 0x10000
 800546c:	d013      	beq.n	8005496 <HAL_TIMEx_PWMN_Start+0x96>
 800546e:	681a      	ldr	r2, [r3, #0]
 8005470:	f042 0201 	orr.w	r2, r2, #1
 8005474:	2000      	movs	r0, #0
 8005476:	601a      	str	r2, [r3, #0]
 8005478:	4770      	bx	lr
 800547a:	2904      	cmp	r1, #4
 800547c:	d00d      	beq.n	800549a <HAL_TIMEx_PWMN_Start+0x9a>
 800547e:	2908      	cmp	r1, #8
 8005480:	d013      	beq.n	80054aa <HAL_TIMEx_PWMN_Start+0xaa>
 8005482:	f890 3047 	ldrb.w	r3, [r0, #71]	; 0x47
 8005486:	2b01      	cmp	r3, #1
 8005488:	d103      	bne.n	8005492 <HAL_TIMEx_PWMN_Start+0x92>
 800548a:	2302      	movs	r3, #2
 800548c:	f880 3047 	strb.w	r3, [r0, #71]	; 0x47
 8005490:	e7bf      	b.n	8005412 <HAL_TIMEx_PWMN_Start+0x12>
 8005492:	2001      	movs	r0, #1
 8005494:	4770      	bx	lr
 8005496:	2000      	movs	r0, #0
 8005498:	4770      	bx	lr
 800549a:	f890 3045 	ldrb.w	r3, [r0, #69]	; 0x45
 800549e:	2b01      	cmp	r3, #1
 80054a0:	d1f7      	bne.n	8005492 <HAL_TIMEx_PWMN_Start+0x92>
 80054a2:	2302      	movs	r3, #2
 80054a4:	f880 3045 	strb.w	r3, [r0, #69]	; 0x45
 80054a8:	e7b3      	b.n	8005412 <HAL_TIMEx_PWMN_Start+0x12>
 80054aa:	f890 3046 	ldrb.w	r3, [r0, #70]	; 0x46
 80054ae:	2b01      	cmp	r3, #1
 80054b0:	d1ef      	bne.n	8005492 <HAL_TIMEx_PWMN_Start+0x92>
 80054b2:	2302      	movs	r3, #2
 80054b4:	f880 3046 	strb.w	r3, [r0, #70]	; 0x46
 80054b8:	e7ab      	b.n	8005412 <HAL_TIMEx_PWMN_Start+0x12>
 80054ba:	bf00      	nop
 80054bc:	40012c00 	.word	0x40012c00
 80054c0:	40000400 	.word	0x40000400
 80054c4:	00010007 	.word	0x00010007

080054c8 <HAL_TIMEx_MasterConfigSynchronization>:
  assert_param(IS_TIM_MASTER_INSTANCE(htim->Instance));
  assert_param(IS_TIM_TRGO_SOURCE(sMasterConfig->MasterOutputTrigger));
  assert_param(IS_TIM_MSM_STATE(sMasterConfig->MasterSlaveMode));

  /* Check input state */
  __HAL_LOCK(htim);
 80054c8:	f890 303c 	ldrb.w	r3, [r0, #60]	; 0x3c
 80054cc:	2b01      	cmp	r3, #1
 80054ce:	d03a      	beq.n	8005546 <HAL_TIMEx_MasterConfigSynchronization+0x7e>
{
 80054d0:	b470      	push	{r4, r5, r6}

  /* Change the handler state */
  htim->State = HAL_TIM_STATE_BUSY;

  /* Get the TIMx CR2 register value */
  tmpcr2 = htim->Instance->CR2;
 80054d2:	6802      	ldr	r2, [r0, #0]
  /* Get the TIMx SMCR register value */
  tmpsmcr = htim->Instance->SMCR;

#if defined(TIM_CR2_MMS2)
  /* If the timer supports ADC synchronization through TRGO2, set the master mode selection 2 */
  if (IS_TIM_TRGO2_INSTANCE(htim->Instance))
 80054d4:	4d1d      	ldr	r5, [pc, #116]	; (800554c <HAL_TIMEx_MasterConfigSynchronization+0x84>)
  htim->State = HAL_TIM_STATE_BUSY;
 80054d6:	2302      	movs	r3, #2
 80054d8:	f880 303d 	strb.w	r3, [r0, #61]	; 0x3d
  if (IS_TIM_TRGO2_INSTANCE(htim->Instance))
 80054dc:	42aa      	cmp	r2, r5
  tmpcr2 = htim->Instance->CR2;
 80054de:	6853      	ldr	r3, [r2, #4]
  tmpsmcr = htim->Instance->SMCR;
 80054e0:	6894      	ldr	r4, [r2, #8]
  if (IS_TIM_TRGO2_INSTANCE(htim->Instance))
 80054e2:	d026      	beq.n	8005532 <HAL_TIMEx_MasterConfigSynchronization+0x6a>
 80054e4:	f505 6500 	add.w	r5, r5, #2048	; 0x800
 80054e8:	42aa      	cmp	r2, r5
 80054ea:	d022      	beq.n	8005532 <HAL_TIMEx_MasterConfigSynchronization+0x6a>
#endif /* TIM_CR2_MMS2 */

  /* Reset the MMS Bits */
  tmpcr2 &= ~TIM_CR2_MMS;
  /* Select the TRGO source */
  tmpcr2 |=  sMasterConfig->MasterOutputTrigger;
 80054ec:	680e      	ldr	r6, [r1, #0]
  tmpcr2 &= ~TIM_CR2_MMS;
 80054ee:	f023 0370 	bic.w	r3, r3, #112	; 0x70
  tmpcr2 |=  sMasterConfig->MasterOutputTrigger;
 80054f2:	4333      	orrs	r3, r6

  /* Update TIMx CR2 */
  htim->Instance->CR2 = tmpcr2;

  if (IS_TIM_SLAVE_INSTANCE(htim->Instance))
 80054f4:	f1b2 4f80 	cmp.w	r2, #1073741824	; 0x40000000
  htim->Instance->CR2 = tmpcr2;
 80054f8:	6053      	str	r3, [r2, #4]
  if (IS_TIM_SLAVE_INSTANCE(htim->Instance))
 80054fa:	d00c      	beq.n	8005516 <HAL_TIMEx_MasterConfigSynchronization+0x4e>
 80054fc:	4b14      	ldr	r3, [pc, #80]	; (8005550 <HAL_TIMEx_MasterConfigSynchronization+0x88>)
 80054fe:	429a      	cmp	r2, r3
 8005500:	d009      	beq.n	8005516 <HAL_TIMEx_MasterConfigSynchronization+0x4e>
 8005502:	f503 6380 	add.w	r3, r3, #1024	; 0x400
 8005506:	429a      	cmp	r2, r3
 8005508:	d005      	beq.n	8005516 <HAL_TIMEx_MasterConfigSynchronization+0x4e>
 800550a:	42aa      	cmp	r2, r5
 800550c:	d003      	beq.n	8005516 <HAL_TIMEx_MasterConfigSynchronization+0x4e>
 800550e:	f503 339c 	add.w	r3, r3, #79872	; 0x13800
 8005512:	429a      	cmp	r2, r3
 8005514:	d104      	bne.n	8005520 <HAL_TIMEx_MasterConfigSynchronization+0x58>
  {
    /* Reset the MSM Bit */
    tmpsmcr &= ~TIM_SMCR_MSM;
    /* Set master mode */
    tmpsmcr |= sMasterConfig->MasterSlaveMode;
 8005516:	688b      	ldr	r3, [r1, #8]
    tmpsmcr &= ~TIM_SMCR_MSM;
 8005518:	f024 0480 	bic.w	r4, r4, #128	; 0x80
    tmpsmcr |= sMasterConfig->MasterSlaveMode;
 800551c:	431c      	orrs	r4, r3

    /* Update TIMx SMCR */
    htim->Instance->SMCR = tmpsmcr;
 800551e:	6094      	str	r4, [r2, #8]
  }

  /* Change the htim state */
  htim->State = HAL_TIM_STATE_READY;

  __HAL_UNLOCK(htim);
 8005520:	2300      	movs	r3, #0
  htim->State = HAL_TIM_STATE_READY;
 8005522:	2201      	movs	r2, #1
 8005524:	f880 203d 	strb.w	r2, [r0, #61]	; 0x3d
  __HAL_UNLOCK(htim);
 8005528:	f880 303c 	strb.w	r3, [r0, #60]	; 0x3c

  return HAL_OK;
}
 800552c:	bc70      	pop	{r4, r5, r6}
  return HAL_OK;
 800552e:	4618      	mov	r0, r3
}
 8005530:	4770      	bx	lr
    tmpcr2 |= sMasterConfig->MasterOutputTrigger2;
 8005532:	684d      	ldr	r5, [r1, #4]
    tmpcr2 &= ~TIM_CR2_MMS2;
 8005534:	f423 0370 	bic.w	r3, r3, #15728640	; 0xf00000
    tmpcr2 |= sMasterConfig->MasterOutputTrigger2;
 8005538:	432b      	orrs	r3, r5
  tmpcr2 |=  sMasterConfig->MasterOutputTrigger;
 800553a:	680d      	ldr	r5, [r1, #0]
  tmpcr2 &= ~TIM_CR2_MMS;
 800553c:	f023 0370 	bic.w	r3, r3, #112	; 0x70
  tmpcr2 |=  sMasterConfig->MasterOutputTrigger;
 8005540:	432b      	orrs	r3, r5
  htim->Instance->CR2 = tmpcr2;
 8005542:	6053      	str	r3, [r2, #4]
  if (IS_TIM_SLAVE_INSTANCE(htim->Instance))
 8005544:	e7e7      	b.n	8005516 <HAL_TIMEx_MasterConfigSynchronization+0x4e>
  __HAL_LOCK(htim);
 8005546:	2002      	movs	r0, #2
}
 8005548:	4770      	bx	lr
 800554a:	bf00      	nop
 800554c:	40012c00 	.word	0x40012c00
 8005550:	40000400 	.word	0x40000400

08005554 <HAL_TIMEx_ConfigBreakDeadTime>:
  assert_param(IS_TIM_BREAK_FILTER(sBreakDeadTimeConfig->BreakFilter));
#endif /* TIM_BDTR_BKF */
  assert_param(IS_TIM_AUTOMATIC_OUTPUT_STATE(sBreakDeadTimeConfig->AutomaticOutput));

  /* Check input state */
  __HAL_LOCK(htim);
 8005554:	f890 303c 	ldrb.w	r3, [r0, #60]	; 0x3c
 8005558:	2b01      	cmp	r3, #1
 800555a:	d03d      	beq.n	80055d8 <HAL_TIMEx_ConfigBreakDeadTime+0x84>
{
 800555c:	b410      	push	{r4}
  /* Set the Lock level, the Break enable Bit and the Polarity, the OSSR State,
     the OSSI State, the dead time value and the Automatic Output Enable Bit */

  /* Set the BDTR bits */
  MODIFY_REG(tmpbdtr, TIM_BDTR_DTG, sBreakDeadTimeConfig->DeadTime);
  MODIFY_REG(tmpbdtr, TIM_BDTR_LOCK, sBreakDeadTimeConfig->LockLevel);
 800555e:	e9d1 4302 	ldrd	r4, r3, [r1, #8]
 8005562:	f423 7340 	bic.w	r3, r3, #768	; 0x300
 8005566:	4602      	mov	r2, r0
 8005568:	4323      	orrs	r3, r4
  MODIFY_REG(tmpbdtr, TIM_BDTR_OSSI, sBreakDeadTimeConfig->OffStateIDLEMode);
 800556a:	6848      	ldr	r0, [r1, #4]
  MODIFY_REG(tmpbdtr, TIM_BDTR_OSSR, sBreakDeadTimeConfig->OffStateRunMode);
 800556c:	680c      	ldr	r4, [r1, #0]
  MODIFY_REG(tmpbdtr, TIM_BDTR_OSSI, sBreakDeadTimeConfig->OffStateIDLEMode);
 800556e:	f423 6380 	bic.w	r3, r3, #1024	; 0x400
 8005572:	4303      	orrs	r3, r0
  MODIFY_REG(tmpbdtr, TIM_BDTR_OSSR, sBreakDeadTimeConfig->OffStateRunMode);
 8005574:	f423 6300 	bic.w	r3, r3, #2048	; 0x800
  MODIFY_REG(tmpbdtr, TIM_BDTR_BKE, sBreakDeadTimeConfig->BreakState);
 8005578:	6908      	ldr	r0, [r1, #16]
  MODIFY_REG(tmpbdtr, TIM_BDTR_OSSR, sBreakDeadTimeConfig->OffStateRunMode);
 800557a:	4323      	orrs	r3, r4
  MODIFY_REG(tmpbdtr, TIM_BDTR_BKE, sBreakDeadTimeConfig->BreakState);
 800557c:	f423 5380 	bic.w	r3, r3, #4096	; 0x1000
  MODIFY_REG(tmpbdtr, TIM_BDTR_BKP, sBreakDeadTimeConfig->BreakPolarity);
 8005580:	694c      	ldr	r4, [r1, #20]
  MODIFY_REG(tmpbdtr, TIM_BDTR_BKE, sBreakDeadTimeConfig->BreakState);
 8005582:	4303      	orrs	r3, r0
  MODIFY_REG(tmpbdtr, TIM_BDTR_BKP, sBreakDeadTimeConfig->BreakPolarity);
 8005584:	f423 5300 	bic.w	r3, r3, #8192	; 0x2000
  MODIFY_REG(tmpbdtr, TIM_BDTR_AOE, sBreakDeadTimeConfig->AutomaticOutput);
 8005588:	6a88      	ldr	r0, [r1, #40]	; 0x28
  MODIFY_REG(tmpbdtr, TIM_BDTR_BKP, sBreakDeadTimeConfig->BreakPolarity);
 800558a:	4323      	orrs	r3, r4
  MODIFY_REG(tmpbdtr, TIM_BDTR_AOE, sBreakDeadTimeConfig->AutomaticOutput);
 800558c:	f423 4380 	bic.w	r3, r3, #16384	; 0x4000
#if defined(TIM_BDTR_BKF)
  MODIFY_REG(tmpbdtr, TIM_BDTR_BKF, (sBreakDeadTimeConfig->BreakFilter << TIM_BDTR_BKF_Pos));
 8005590:	698c      	ldr	r4, [r1, #24]
  MODIFY_REG(tmpbdtr, TIM_BDTR_AOE, sBreakDeadTimeConfig->AutomaticOutput);
 8005592:	4303      	orrs	r3, r0
  MODIFY_REG(tmpbdtr, TIM_BDTR_BKF, (sBreakDeadTimeConfig->BreakFilter << TIM_BDTR_BKF_Pos));
 8005594:	f423 2370 	bic.w	r3, r3, #983040	; 0xf0000
#endif /* TIM_BDTR_BKF */

#if defined(TIM_BDTR_BK2E)
  if (IS_TIM_BKIN2_INSTANCE(htim->Instance))
 8005598:	6810      	ldr	r0, [r2, #0]
  MODIFY_REG(tmpbdtr, TIM_BDTR_BKF, (sBreakDeadTimeConfig->BreakFilter << TIM_BDTR_BKF_Pos));
 800559a:	ea43 4304 	orr.w	r3, r3, r4, lsl #16
  if (IS_TIM_BKIN2_INSTANCE(htim->Instance))
 800559e:	4c0f      	ldr	r4, [pc, #60]	; (80055dc <HAL_TIMEx_ConfigBreakDeadTime+0x88>)
 80055a0:	42a0      	cmp	r0, r4
 80055a2:	d00b      	beq.n	80055bc <HAL_TIMEx_ConfigBreakDeadTime+0x68>
 80055a4:	f504 6400 	add.w	r4, r4, #2048	; 0x800
 80055a8:	42a0      	cmp	r0, r4
 80055aa:	d007      	beq.n	80055bc <HAL_TIMEx_ConfigBreakDeadTime+0x68>
#endif /* TIM_BDTR_BK2E */

  /* Set TIMx_BDTR */
  htim->Instance->BDTR = tmpbdtr;

  __HAL_UNLOCK(htim);
 80055ac:	2100      	movs	r1, #0
  htim->Instance->BDTR = tmpbdtr;
 80055ae:	6443      	str	r3, [r0, #68]	; 0x44
  __HAL_UNLOCK(htim);
 80055b0:	f882 103c 	strb.w	r1, [r2, #60]	; 0x3c

  return HAL_OK;
 80055b4:	4608      	mov	r0, r1
}
 80055b6:	f85d 4b04 	ldr.w	r4, [sp], #4
 80055ba:	4770      	bx	lr
    MODIFY_REG(tmpbdtr, TIM_BDTR_BK2F, (sBreakDeadTimeConfig->Break2Filter << TIM_BDTR_BK2F_Pos));
 80055bc:	6a4c      	ldr	r4, [r1, #36]	; 0x24
 80055be:	f423 0370 	bic.w	r3, r3, #15728640	; 0xf00000
 80055c2:	ea43 5304 	orr.w	r3, r3, r4, lsl #20
    MODIFY_REG(tmpbdtr, TIM_BDTR_BK2E, sBreakDeadTimeConfig->Break2State);
 80055c6:	69cc      	ldr	r4, [r1, #28]
    MODIFY_REG(tmpbdtr, TIM_BDTR_BK2P, sBreakDeadTimeConfig->Break2Polarity);
 80055c8:	6a09      	ldr	r1, [r1, #32]
    MODIFY_REG(tmpbdtr, TIM_BDTR_BK2E, sBreakDeadTimeConfig->Break2State);
 80055ca:	f023 7380 	bic.w	r3, r3, #16777216	; 0x1000000
 80055ce:	4323      	orrs	r3, r4
    MODIFY_REG(tmpbdtr, TIM_BDTR_BK2P, sBreakDeadTimeConfig->Break2Polarity);
 80055d0:	f023 7300 	bic.w	r3, r3, #33554432	; 0x2000000
 80055d4:	430b      	orrs	r3, r1
 80055d6:	e7e9      	b.n	80055ac <HAL_TIMEx_ConfigBreakDeadTime+0x58>
  __HAL_LOCK(htim);
 80055d8:	2002      	movs	r0, #2
}
 80055da:	4770      	bx	lr
 80055dc:	40012c00 	.word	0x40012c00

080055e0 <HAL_TIMEx_CommutCallback>:
 80055e0:	4770      	bx	lr
 80055e2:	bf00      	nop

080055e4 <HAL_TIMEx_BreakCallback>:
 80055e4:	4770      	bx	lr
 80055e6:	bf00      	nop

080055e8 <HAL_TIMEx_Break2Callback>:
 80055e8:	4770      	bx	lr
 80055ea:	bf00      	nop

080055ec <HAL_UART_Receive_IT>:
  * @retval HAL status
  */
HAL_StatusTypeDef HAL_UART_Receive_IT(UART_HandleTypeDef *huart, uint8_t *pData, uint16_t Size)
{
  /* Check that a Rx process is not already ongoing */
  if (huart->RxState == HAL_UART_STATE_READY)
 80055ec:	6fc3      	ldr	r3, [r0, #124]	; 0x7c
 80055ee:	2b20      	cmp	r3, #32
 80055f0:	d159      	bne.n	80056a6 <HAL_UART_Receive_IT+0xba>
  {
    if ((pData == NULL) || (Size == 0U))
 80055f2:	2900      	cmp	r1, #0
 80055f4:	d055      	beq.n	80056a2 <HAL_UART_Receive_IT+0xb6>
 80055f6:	2a00      	cmp	r2, #0
 80055f8:	d053      	beq.n	80056a2 <HAL_UART_Receive_IT+0xb6>
    {
      return HAL_ERROR;
    }

    __HAL_LOCK(huart);
 80055fa:	f890 3074 	ldrb.w	r3, [r0, #116]	; 0x74
 80055fe:	2b01      	cmp	r3, #1
 8005600:	d051      	beq.n	80056a6 <HAL_UART_Receive_IT+0xba>
{
 8005602:	b430      	push	{r4, r5}
    __HAL_LOCK(huart);
 8005604:	2401      	movs	r4, #1
 8005606:	f880 4074 	strb.w	r4, [r0, #116]	; 0x74

    /* Set Reception type to Standard reception */
    huart->ReceptionType = HAL_UART_RECEPTION_STANDARD;

    /* Check that USART RTOEN bit is set */
    if (READ_BIT(huart->Instance->CR2, USART_CR2_RTOEN) != 0U)
 800560a:	6803      	ldr	r3, [r0, #0]
    huart->ReceptionType = HAL_UART_RECEPTION_STANDARD;
 800560c:	2400      	movs	r4, #0
 800560e:	6604      	str	r4, [r0, #96]	; 0x60
    if (READ_BIT(huart->Instance->CR2, USART_CR2_RTOEN) != 0U)
 8005610:	685c      	ldr	r4, [r3, #4]
 8005612:	0224      	lsls	r4, r4, #8
 8005614:	d50e      	bpl.n	8005634 <HAL_UART_Receive_IT+0x48>
 */
__STATIC_FORCEINLINE uint32_t __LDREXW(volatile uint32_t *addr)
{
    uint32_t result;

   __ASM volatile ("ldrex %0, %1" : "=r" (result) : "Q" (*addr) );
 8005616:	e853 4f00 	ldrex	r4, [r3]
    {
      /* Enable the UART Receiver Timeout Interrupt */
      ATOMIC_SET_BIT(huart->Instance->CR1, USART_CR1_RTOIE);
 800561a:	f044 6480 	orr.w	r4, r4, #67108864	; 0x4000000
 */
__STATIC_FORCEINLINE uint32_t __STREXW(uint32_t value, volatile uint32_t *addr)
{
   uint32_t result;

   __ASM volatile ("strex %0, %2, %1" : "=&r" (result), "=Q" (*addr) : "r" (value) );
 800561e:	e843 4500 	strex	r5, r4, [r3]
 8005622:	b13d      	cbz	r5, 8005634 <HAL_UART_Receive_IT+0x48>
   __ASM volatile ("ldrex %0, %1" : "=r" (result) : "Q" (*addr) );
 8005624:	e853 cf00 	ldrex	ip, [r3]
 8005628:	f04c 6c80 	orr.w	ip, ip, #67108864	; 0x4000000
   __ASM volatile ("strex %0, %2, %1" : "=&r" (result), "=Q" (*addr) : "r" (value) );
 800562c:	e843 c400 	strex	r4, ip, [r3]
 8005630:	2c00      	cmp	r4, #0
 8005632:	d1f7      	bne.n	8005624 <HAL_UART_Receive_IT+0x38>
  huart->RxXferSize  = Size;
  huart->RxXferCount = Size;
  huart->RxISR       = NULL;

  /* Computation of UART mask to apply to RDR register */
  UART_MASK_COMPUTATION(huart);
 8005634:	6884      	ldr	r4, [r0, #8]
  huart->pRxBuffPtr  = pData;
 8005636:	6541      	str	r1, [r0, #84]	; 0x54
  huart->RxISR       = NULL;
 8005638:	2500      	movs	r5, #0
  UART_MASK_COMPUTATION(huart);
 800563a:	f5b4 5f80 	cmp.w	r4, #4096	; 0x1000
  huart->RxXferSize  = Size;
 800563e:	f8a0 2058 	strh.w	r2, [r0, #88]	; 0x58
  huart->RxXferCount = Size;
 8005642:	f8a0 205a 	strh.w	r2, [r0, #90]	; 0x5a
  huart->RxISR       = NULL;
 8005646:	6645      	str	r5, [r0, #100]	; 0x64
  UART_MASK_COMPUTATION(huart);
 8005648:	d02f      	beq.n	80056aa <HAL_UART_Receive_IT+0xbe>
 800564a:	2c00      	cmp	r4, #0
 800564c:	d13c      	bne.n	80056c8 <HAL_UART_Receive_IT+0xdc>
 800564e:	6902      	ldr	r2, [r0, #16]
 8005650:	2a00      	cmp	r2, #0
 8005652:	d13c      	bne.n	80056ce <HAL_UART_Receive_IT+0xe2>
 8005654:	22ff      	movs	r2, #255	; 0xff
 8005656:	f8a0 205c 	strh.w	r2, [r0, #92]	; 0x5c

  huart->ErrorCode = HAL_UART_ERROR_NONE;
 800565a:	2100      	movs	r1, #0
  huart->RxState = HAL_UART_STATE_BUSY_RX;
 800565c:	2222      	movs	r2, #34	; 0x22
  huart->ErrorCode = HAL_UART_ERROR_NONE;
 800565e:	f8c0 1080 	str.w	r1, [r0, #128]	; 0x80
  huart->RxState = HAL_UART_STATE_BUSY_RX;
 8005662:	67c2      	str	r2, [r0, #124]	; 0x7c
   __ASM volatile ("ldrex %0, %1" : "=r" (result) : "Q" (*addr) );
 8005664:	f103 0208 	add.w	r2, r3, #8
 8005668:	e852 2f00 	ldrex	r2, [r2]

  /* Enable the UART Error Interrupt: (Frame error, noise error, overrun error) */
  ATOMIC_SET_BIT(huart->Instance->CR3, USART_CR3_EIE);
 800566c:	f042 0201 	orr.w	r2, r2, #1
   __ASM volatile ("strex %0, %2, %1" : "=&r" (result), "=Q" (*addr) : "r" (value) );
 8005670:	f103 0408 	add.w	r4, r3, #8
 8005674:	e844 2100 	strex	r1, r2, [r4]
 8005678:	2900      	cmp	r1, #0
 800567a:	d1f3      	bne.n	8005664 <HAL_UART_Receive_IT+0x78>

  /* Set the Rx ISR function pointer according to the data word length */
  if ((huart->Init.WordLength == UART_WORDLENGTH_9B) && (huart->Init.Parity == UART_PARITY_NONE))
 800567c:	6882      	ldr	r2, [r0, #8]
 800567e:	f5b2 5f80 	cmp.w	r2, #4096	; 0x1000
 8005682:	d01a      	beq.n	80056ba <HAL_UART_Receive_IT+0xce>
  {
    huart->RxISR = UART_RxISR_16BIT;
  }
  else
  {
    huart->RxISR = UART_RxISR_8BIT;
 8005684:	4a14      	ldr	r2, [pc, #80]	; (80056d8 <HAL_UART_Receive_IT+0xec>)
 8005686:	6642      	str	r2, [r0, #100]	; 0x64
  }

  __HAL_UNLOCK(huart);
 8005688:	2100      	movs	r1, #0
 800568a:	f880 1074 	strb.w	r1, [r0, #116]	; 0x74
   __ASM volatile ("ldrex %0, %1" : "=r" (result) : "Q" (*addr) );
 800568e:	e853 2f00 	ldrex	r2, [r3]

  /* Enable the UART Parity Error interrupt and Data Register Not Empty interrupt */
  ATOMIC_SET_BIT(huart->Instance->CR1, USART_CR1_PEIE | USART_CR1_RXNEIE);
 8005692:	f442 7290 	orr.w	r2, r2, #288	; 0x120
   __ASM volatile ("strex %0, %2, %1" : "=&r" (result), "=Q" (*addr) : "r" (value) );
 8005696:	e843 2000 	strex	r0, r2, [r3]
 800569a:	2800      	cmp	r0, #0
 800569c:	d1f7      	bne.n	800568e <HAL_UART_Receive_IT+0xa2>
}
 800569e:	bc30      	pop	{r4, r5}
 80056a0:	4770      	bx	lr
      return HAL_ERROR;
 80056a2:	2001      	movs	r0, #1
 80056a4:	4770      	bx	lr
    return HAL_BUSY;
 80056a6:	2002      	movs	r0, #2
}
 80056a8:	4770      	bx	lr
  UART_MASK_COMPUTATION(huart);
 80056aa:	6902      	ldr	r2, [r0, #16]
 80056ac:	2a00      	cmp	r2, #0
 80056ae:	d1d1      	bne.n	8005654 <HAL_UART_Receive_IT+0x68>
 80056b0:	f240 12ff 	movw	r2, #511	; 0x1ff
 80056b4:	f8a0 205c 	strh.w	r2, [r0, #92]	; 0x5c
 80056b8:	e7cf      	b.n	800565a <HAL_UART_Receive_IT+0x6e>
  if ((huart->Init.WordLength == UART_WORDLENGTH_9B) && (huart->Init.Parity == UART_PARITY_NONE))
 80056ba:	6904      	ldr	r4, [r0, #16]
    huart->RxISR = UART_RxISR_16BIT;
 80056bc:	4a06      	ldr	r2, [pc, #24]	; (80056d8 <HAL_UART_Receive_IT+0xec>)
 80056be:	4907      	ldr	r1, [pc, #28]	; (80056dc <HAL_UART_Receive_IT+0xf0>)
 80056c0:	2c00      	cmp	r4, #0
 80056c2:	bf08      	it	eq
 80056c4:	460a      	moveq	r2, r1
 80056c6:	e7de      	b.n	8005686 <HAL_UART_Receive_IT+0x9a>
  UART_MASK_COMPUTATION(huart);
 80056c8:	f8a0 505c 	strh.w	r5, [r0, #92]	; 0x5c
 80056cc:	e7c5      	b.n	800565a <HAL_UART_Receive_IT+0x6e>
 80056ce:	227f      	movs	r2, #127	; 0x7f
 80056d0:	f8a0 205c 	strh.w	r2, [r0, #92]	; 0x5c
 80056d4:	e7c1      	b.n	800565a <HAL_UART_Receive_IT+0x6e>
 80056d6:	bf00      	nop
 80056d8:	08005aa5 	.word	0x08005aa5
 80056dc:	08005a65 	.word	0x08005a65

080056e0 <HAL_UART_TxCpltCallback>:
 80056e0:	4770      	bx	lr
 80056e2:	bf00      	nop

080056e4 <HAL_UART_ErrorCallback>:
 80056e4:	4770      	bx	lr
 80056e6:	bf00      	nop

080056e8 <UART_DMAAbortOnError>:
  *         (To be called at end of DMA Abort procedure following error occurrence).
  * @param  hdma DMA handle.
  * @retval None
  */
static void UART_DMAAbortOnError(DMA_HandleTypeDef *hdma)
{
 80056e8:	b508      	push	{r3, lr}
  UART_HandleTypeDef *huart = (UART_HandleTypeDef *)(hdma->Parent);
 80056ea:	6a40      	ldr	r0, [r0, #36]	; 0x24
  huart->RxXferCount = 0U;
 80056ec:	2300      	movs	r3, #0
 80056ee:	f8a0 305a 	strh.w	r3, [r0, #90]	; 0x5a
  huart->TxXferCount = 0U;
 80056f2:	f8a0 3052 	strh.w	r3, [r0, #82]	; 0x52
#if (USE_HAL_UART_REGISTER_CALLBACKS == 1)
  /*Call registered error callback*/
  huart->ErrorCallback(huart);
#else
  /*Call legacy weak error callback*/
  HAL_UART_ErrorCallback(huart);
 80056f6:	f7ff fff5 	bl	80056e4 <HAL_UART_ErrorCallback>
#endif /* USE_HAL_UART_REGISTER_CALLBACKS */
}
 80056fa:	bd08      	pop	{r3, pc}

080056fc <HAL_UARTEx_RxEventCallback>:
}
 80056fc:	4770      	bx	lr
 80056fe:	bf00      	nop

08005700 <HAL_UART_IRQHandler>:
  uint32_t isrflags   = READ_REG(huart->Instance->ISR);
 8005700:	6803      	ldr	r3, [r0, #0]
 8005702:	69da      	ldr	r2, [r3, #28]
  uint32_t cr1its     = READ_REG(huart->Instance->CR1);
 8005704:	6819      	ldr	r1, [r3, #0]
  errorflags = (isrflags & (uint32_t)(USART_ISR_PE | USART_ISR_FE | USART_ISR_ORE | USART_ISR_NE | USART_ISR_RTOF));
 8005706:	f640 0c0f 	movw	ip, #2063	; 0x80f
  if (errorflags == 0U)
 800570a:	ea12 0f0c 	tst.w	r2, ip
{
 800570e:	b570      	push	{r4, r5, r6, lr}
  uint32_t cr3its     = READ_REG(huart->Instance->CR3);
 8005710:	689d      	ldr	r5, [r3, #8]
{
 8005712:	4604      	mov	r4, r0
  if (errorflags == 0U)
 8005714:	d17c      	bne.n	8005810 <HAL_UART_IRQHandler+0x110>
    if (((isrflags & USART_ISR_RXNE) != 0U)
 8005716:	0696      	lsls	r6, r2, #26
 8005718:	d502      	bpl.n	8005720 <HAL_UART_IRQHandler+0x20>
        && ((cr1its & USART_CR1_RXNEIE) != 0U))
 800571a:	068e      	lsls	r6, r1, #26
 800571c:	f100 8110 	bmi.w	8005940 <HAL_UART_IRQHandler+0x240>
  if ((huart->ReceptionType == HAL_UART_RECEPTION_TOIDLE)
 8005720:	6e20      	ldr	r0, [r4, #96]	; 0x60
 8005722:	2801      	cmp	r0, #1
 8005724:	d024      	beq.n	8005770 <HAL_UART_IRQHandler+0x70>
  if (((isrflags & USART_ISR_WUF) != 0U) && ((cr3its & USART_CR3_WUFIE) != 0U))
 8005726:	02d6      	lsls	r6, r2, #11
 8005728:	d502      	bpl.n	8005730 <HAL_UART_IRQHandler+0x30>
 800572a:	0268      	lsls	r0, r5, #9
 800572c:	f100 810d 	bmi.w	800594a <HAL_UART_IRQHandler+0x24a>
  if (((isrflags & USART_ISR_TXE) != 0U)
 8005730:	0616      	lsls	r6, r2, #24
 8005732:	d414      	bmi.n	800575e <HAL_UART_IRQHandler+0x5e>
  if (((isrflags & USART_ISR_TC) != 0U) && ((cr1its & USART_CR1_TCIE) != 0U))
 8005734:	0650      	lsls	r0, r2, #25
 8005736:	d501      	bpl.n	800573c <HAL_UART_IRQHandler+0x3c>
 8005738:	064a      	lsls	r2, r1, #25
 800573a:	d400      	bmi.n	800573e <HAL_UART_IRQHandler+0x3e>
}
 800573c:	bd70      	pop	{r4, r5, r6, pc}
   __ASM volatile ("ldrex %0, %1" : "=r" (result) : "Q" (*addr) );
 800573e:	e853 2f00 	ldrex	r2, [r3]
  * @retval None
  */
static void UART_EndTransmit_IT(UART_HandleTypeDef *huart)
{
  /* Disable the UART Transmit Complete Interrupt */
  ATOMIC_CLEAR_BIT(huart->Instance->CR1, USART_CR1_TCIE);
 8005742:	f022 0240 	bic.w	r2, r2, #64	; 0x40
   __ASM volatile ("strex %0, %2, %1" : "=&r" (result), "=Q" (*addr) : "r" (value) );
 8005746:	e843 2100 	strex	r1, r2, [r3]
 800574a:	2900      	cmp	r1, #0
 800574c:	d1f7      	bne.n	800573e <HAL_UART_IRQHandler+0x3e>

  /* Tx process is ended, restore huart->gState to Ready */
  huart->gState = HAL_UART_STATE_READY;
 800574e:	2220      	movs	r2, #32

  /* Cleat TxISR function pointer */
  huart->TxISR = NULL;
 8005750:	2300      	movs	r3, #0
  huart->gState = HAL_UART_STATE_READY;
 8005752:	67a2      	str	r2, [r4, #120]	; 0x78
  huart->TxISR = NULL;
 8005754:	66a3      	str	r3, [r4, #104]	; 0x68
#if (USE_HAL_UART_REGISTER_CALLBACKS == 1)
  /*Call registered Tx complete callback*/
  huart->TxCpltCallback(huart);
#else
  /*Call legacy weak Tx complete callback*/
  HAL_UART_TxCpltCallback(huart);
 8005756:	4620      	mov	r0, r4
 8005758:	f7ff ffc2 	bl	80056e0 <HAL_UART_TxCpltCallback>
}
 800575c:	bd70      	pop	{r4, r5, r6, pc}
      && ((cr1its & USART_CR1_TXEIE) != 0U))
 800575e:	060d      	lsls	r5, r1, #24
 8005760:	d5e8      	bpl.n	8005734 <HAL_UART_IRQHandler+0x34>
    if (huart->TxISR != NULL)
 8005762:	6ea3      	ldr	r3, [r4, #104]	; 0x68
 8005764:	2b00      	cmp	r3, #0
 8005766:	d0e9      	beq.n	800573c <HAL_UART_IRQHandler+0x3c>
      huart->TxISR(huart);
 8005768:	4620      	mov	r0, r4
}
 800576a:	e8bd 4070 	ldmia.w	sp!, {r4, r5, r6, lr}
      huart->TxISR(huart);
 800576e:	4718      	bx	r3
      && ((isrflags & USART_ISR_IDLE) != 0U)
 8005770:	06d6      	lsls	r6, r2, #27
 8005772:	d5d8      	bpl.n	8005726 <HAL_UART_IRQHandler+0x26>
      && ((cr1its & USART_ISR_IDLE) != 0U))
 8005774:	06c8      	lsls	r0, r1, #27
 8005776:	d5d6      	bpl.n	8005726 <HAL_UART_IRQHandler+0x26>
    __HAL_UART_CLEAR_FLAG(huart, UART_CLEAR_IDLEF);
 8005778:	2210      	movs	r2, #16
 800577a:	621a      	str	r2, [r3, #32]
    if (HAL_IS_BIT_SET(huart->Instance->CR3, USART_CR3_DMAR))
 800577c:	689a      	ldr	r2, [r3, #8]
 800577e:	0652      	lsls	r2, r2, #25
 8005780:	f140 8100 	bpl.w	8005984 <HAL_UART_IRQHandler+0x284>
      uint16_t nb_remaining_rx_data = (uint16_t) __HAL_DMA_GET_COUNTER(huart->hdmarx);
 8005784:	6f20      	ldr	r0, [r4, #112]	; 0x70
 8005786:	6802      	ldr	r2, [r0, #0]
 8005788:	6852      	ldr	r2, [r2, #4]
 800578a:	b292      	uxth	r2, r2
      if ((nb_remaining_rx_data > 0U)
 800578c:	2a00      	cmp	r2, #0
 800578e:	d0d5      	beq.n	800573c <HAL_UART_IRQHandler+0x3c>
          && (nb_remaining_rx_data < huart->RxXferSize))
 8005790:	f8b4 1058 	ldrh.w	r1, [r4, #88]	; 0x58
 8005794:	4291      	cmp	r1, r2
 8005796:	d9d1      	bls.n	800573c <HAL_UART_IRQHandler+0x3c>
        huart->RxXferCount = nb_remaining_rx_data;
 8005798:	f8a4 205a 	strh.w	r2, [r4, #90]	; 0x5a
        if (huart->hdmarx->Init.Mode != DMA_CIRCULAR)
 800579c:	6982      	ldr	r2, [r0, #24]
 800579e:	2a20      	cmp	r2, #32
 80057a0:	d02e      	beq.n	8005800 <HAL_UART_IRQHandler+0x100>
   __ASM volatile ("ldrex %0, %1" : "=r" (result) : "Q" (*addr) );
 80057a2:	e853 2f00 	ldrex	r2, [r3]
          ATOMIC_CLEAR_BIT(huart->Instance->CR1, USART_CR1_PEIE);
 80057a6:	f422 7280 	bic.w	r2, r2, #256	; 0x100
   __ASM volatile ("strex %0, %2, %1" : "=&r" (result), "=Q" (*addr) : "r" (value) );
 80057aa:	e843 2100 	strex	r1, r2, [r3]
 80057ae:	2900      	cmp	r1, #0
 80057b0:	d1f7      	bne.n	80057a2 <HAL_UART_IRQHandler+0xa2>
   __ASM volatile ("ldrex %0, %1" : "=r" (result) : "Q" (*addr) );
 80057b2:	f103 0208 	add.w	r2, r3, #8
 80057b6:	e852 2f00 	ldrex	r2, [r2]
          ATOMIC_CLEAR_BIT(huart->Instance->CR3, USART_CR3_EIE);
 80057ba:	f022 0201 	bic.w	r2, r2, #1
   __ASM volatile ("strex %0, %2, %1" : "=&r" (result), "=Q" (*addr) : "r" (value) );
 80057be:	f103 0508 	add.w	r5, r3, #8
 80057c2:	e845 2100 	strex	r1, r2, [r5]
 80057c6:	2900      	cmp	r1, #0
 80057c8:	d1f3      	bne.n	80057b2 <HAL_UART_IRQHandler+0xb2>
   __ASM volatile ("ldrex %0, %1" : "=r" (result) : "Q" (*addr) );
 80057ca:	f103 0208 	add.w	r2, r3, #8
 80057ce:	e852 2f00 	ldrex	r2, [r2]
          ATOMIC_CLEAR_BIT(huart->Instance->CR3, USART_CR3_DMAR);
 80057d2:	f022 0240 	bic.w	r2, r2, #64	; 0x40
   __ASM volatile ("strex %0, %2, %1" : "=&r" (result), "=Q" (*addr) : "r" (value) );
 80057d6:	f103 0508 	add.w	r5, r3, #8
 80057da:	e845 2100 	strex	r1, r2, [r5]
 80057de:	2900      	cmp	r1, #0
 80057e0:	d1f3      	bne.n	80057ca <HAL_UART_IRQHandler+0xca>
          huart->RxState = HAL_UART_STATE_READY;
 80057e2:	2220      	movs	r2, #32
 80057e4:	67e2      	str	r2, [r4, #124]	; 0x7c
          huart->ReceptionType = HAL_UART_RECEPTION_STANDARD;
 80057e6:	6621      	str	r1, [r4, #96]	; 0x60
   __ASM volatile ("ldrex %0, %1" : "=r" (result) : "Q" (*addr) );
 80057e8:	e853 2f00 	ldrex	r2, [r3]
          ATOMIC_CLEAR_BIT(huart->Instance->CR1, USART_CR1_IDLEIE);
 80057ec:	f022 0210 	bic.w	r2, r2, #16
   __ASM volatile ("strex %0, %2, %1" : "=&r" (result), "=Q" (*addr) : "r" (value) );
 80057f0:	e843 2100 	strex	r1, r2, [r3]
 80057f4:	2900      	cmp	r1, #0
 80057f6:	d1f7      	bne.n	80057e8 <HAL_UART_IRQHandler+0xe8>
          (void)HAL_DMA_Abort(huart->hdmarx);
 80057f8:	f7fe fa8c 	bl	8003d14 <HAL_DMA_Abort>
        HAL_UARTEx_RxEventCallback(huart, (huart->RxXferSize - huart->RxXferCount));
 80057fc:	f8b4 1058 	ldrh.w	r1, [r4, #88]	; 0x58
 8005800:	f8b4 305a 	ldrh.w	r3, [r4, #90]	; 0x5a
 8005804:	1ac9      	subs	r1, r1, r3
 8005806:	4620      	mov	r0, r4
 8005808:	b289      	uxth	r1, r1
 800580a:	f7ff ff77 	bl	80056fc <HAL_UARTEx_RxEventCallback>
}
 800580e:	bd70      	pop	{r4, r5, r6, pc}
          || ((cr1its & (USART_CR1_RXNEIE | USART_CR1_PEIE | USART_CR1_RTOIE)) != 0U)))
 8005810:	4879      	ldr	r0, [pc, #484]	; (80059f8 <HAL_UART_IRQHandler+0x2f8>)
      && (((cr3its & USART_CR3_EIE) != 0U)
 8005812:	f005 0601 	and.w	r6, r5, #1
          || ((cr1its & (USART_CR1_RXNEIE | USART_CR1_PEIE | USART_CR1_RTOIE)) != 0U)))
 8005816:	4008      	ands	r0, r1
 8005818:	4330      	orrs	r0, r6
 800581a:	d081      	beq.n	8005720 <HAL_UART_IRQHandler+0x20>
    if (((isrflags & USART_ISR_PE) != 0U) && ((cr1its & USART_CR1_PEIE) != 0U))
 800581c:	07d5      	lsls	r5, r2, #31
 800581e:	d509      	bpl.n	8005834 <HAL_UART_IRQHandler+0x134>
 8005820:	05c8      	lsls	r0, r1, #23
 8005822:	d507      	bpl.n	8005834 <HAL_UART_IRQHandler+0x134>
      __HAL_UART_CLEAR_FLAG(huart, UART_CLEAR_PEF);
 8005824:	2001      	movs	r0, #1
 8005826:	6218      	str	r0, [r3, #32]
      huart->ErrorCode |= HAL_UART_ERROR_PE;
 8005828:	f8d4 0080 	ldr.w	r0, [r4, #128]	; 0x80
 800582c:	f040 0001 	orr.w	r0, r0, #1
 8005830:	f8c4 0080 	str.w	r0, [r4, #128]	; 0x80
    if (((isrflags & USART_ISR_FE) != 0U) && ((cr3its & USART_CR3_EIE) != 0U))
 8005834:	0795      	lsls	r5, r2, #30
 8005836:	d57e      	bpl.n	8005936 <HAL_UART_IRQHandler+0x236>
 8005838:	b18e      	cbz	r6, 800585e <HAL_UART_IRQHandler+0x15e>
      __HAL_UART_CLEAR_FLAG(huart, UART_CLEAR_FEF);
 800583a:	2002      	movs	r0, #2
 800583c:	6218      	str	r0, [r3, #32]
      huart->ErrorCode |= HAL_UART_ERROR_FE;
 800583e:	f8d4 0080 	ldr.w	r0, [r4, #128]	; 0x80
 8005842:	f040 0004 	orr.w	r0, r0, #4
 8005846:	f8c4 0080 	str.w	r0, [r4, #128]	; 0x80
    if (((isrflags & USART_ISR_NE) != 0U) && ((cr3its & USART_CR3_EIE) != 0U))
 800584a:	0750      	lsls	r0, r2, #29
 800584c:	d507      	bpl.n	800585e <HAL_UART_IRQHandler+0x15e>
      __HAL_UART_CLEAR_FLAG(huart, UART_CLEAR_NEF);
 800584e:	2004      	movs	r0, #4
 8005850:	6218      	str	r0, [r3, #32]
      huart->ErrorCode |= HAL_UART_ERROR_NE;
 8005852:	f8d4 0080 	ldr.w	r0, [r4, #128]	; 0x80
 8005856:	f040 0002 	orr.w	r0, r0, #2
 800585a:	f8c4 0080 	str.w	r0, [r4, #128]	; 0x80
    if (((isrflags & USART_ISR_ORE) != 0U)
 800585e:	0710      	lsls	r0, r2, #28
 8005860:	d50b      	bpl.n	800587a <HAL_UART_IRQHandler+0x17a>
        && (((cr1its & USART_CR1_RXNEIE) != 0U) ||
 8005862:	f001 0020 	and.w	r0, r1, #32
 8005866:	4330      	orrs	r0, r6
 8005868:	d007      	beq.n	800587a <HAL_UART_IRQHandler+0x17a>
      __HAL_UART_CLEAR_FLAG(huart, UART_CLEAR_OREF);
 800586a:	2008      	movs	r0, #8
 800586c:	6218      	str	r0, [r3, #32]
      huart->ErrorCode |= HAL_UART_ERROR_ORE;
 800586e:	f8d4 0080 	ldr.w	r0, [r4, #128]	; 0x80
 8005872:	f040 0008 	orr.w	r0, r0, #8
 8005876:	f8c4 0080 	str.w	r0, [r4, #128]	; 0x80
    if (((isrflags & USART_ISR_RTOF) != 0U) && ((cr1its & USART_CR1_RTOIE) != 0U))
 800587a:	0516      	lsls	r6, r2, #20
 800587c:	d50a      	bpl.n	8005894 <HAL_UART_IRQHandler+0x194>
 800587e:	014d      	lsls	r5, r1, #5
 8005880:	d508      	bpl.n	8005894 <HAL_UART_IRQHandler+0x194>
      __HAL_UART_CLEAR_FLAG(huart, UART_CLEAR_RTOF);
 8005882:	f44f 6000 	mov.w	r0, #2048	; 0x800
 8005886:	6218      	str	r0, [r3, #32]
      huart->ErrorCode |= HAL_UART_ERROR_RTO;
 8005888:	f8d4 0080 	ldr.w	r0, [r4, #128]	; 0x80
 800588c:	f040 0020 	orr.w	r0, r0, #32
 8005890:	f8c4 0080 	str.w	r0, [r4, #128]	; 0x80
    if (huart->ErrorCode != HAL_UART_ERROR_NONE)
 8005894:	f8d4 0080 	ldr.w	r0, [r4, #128]	; 0x80
 8005898:	2800      	cmp	r0, #0
 800589a:	f43f af4f 	beq.w	800573c <HAL_UART_IRQHandler+0x3c>
      if (((isrflags & USART_ISR_RXNE) != 0U)
 800589e:	0690      	lsls	r0, r2, #26
 80058a0:	d506      	bpl.n	80058b0 <HAL_UART_IRQHandler+0x1b0>
          && ((cr1its & USART_CR1_RXNEIE) != 0U))
 80058a2:	0689      	lsls	r1, r1, #26
 80058a4:	d504      	bpl.n	80058b0 <HAL_UART_IRQHandler+0x1b0>
        if (huart->RxISR != NULL)
 80058a6:	6e62      	ldr	r2, [r4, #100]	; 0x64
 80058a8:	b112      	cbz	r2, 80058b0 <HAL_UART_IRQHandler+0x1b0>
          huart->RxISR(huart);
 80058aa:	4620      	mov	r0, r4
 80058ac:	4790      	blx	r2
      if ((HAL_IS_BIT_SET(huart->Instance->CR3, USART_CR3_DMAR)) ||
 80058ae:	6823      	ldr	r3, [r4, #0]
      errorcode = huart->ErrorCode;
 80058b0:	f8d4 5080 	ldr.w	r5, [r4, #128]	; 0x80
      if ((HAL_IS_BIT_SET(huart->Instance->CR3, USART_CR3_DMAR)) ||
 80058b4:	689a      	ldr	r2, [r3, #8]
          ((errorcode & (HAL_UART_ERROR_RTO | HAL_UART_ERROR_ORE)) != 0U))
 80058b6:	f005 0528 	and.w	r5, r5, #40	; 0x28
      if ((HAL_IS_BIT_SET(huart->Instance->CR3, USART_CR3_DMAR)) ||
 80058ba:	f002 0240 	and.w	r2, r2, #64	; 0x40
 80058be:	4315      	orrs	r5, r2
 80058c0:	f000 8094 	beq.w	80059ec <HAL_UART_IRQHandler+0x2ec>
   __ASM volatile ("ldrex %0, %1" : "=r" (result) : "Q" (*addr) );
 80058c4:	e853 2f00 	ldrex	r2, [r3]
  ATOMIC_CLEAR_BIT(huart->Instance->CR1, (USART_CR1_RXNEIE | USART_CR1_PEIE));
 80058c8:	f422 7290 	bic.w	r2, r2, #288	; 0x120
   __ASM volatile ("strex %0, %2, %1" : "=&r" (result), "=Q" (*addr) : "r" (value) );
 80058cc:	e843 2100 	strex	r1, r2, [r3]
 80058d0:	2900      	cmp	r1, #0
 80058d2:	d1f7      	bne.n	80058c4 <HAL_UART_IRQHandler+0x1c4>
   __ASM volatile ("ldrex %0, %1" : "=r" (result) : "Q" (*addr) );
 80058d4:	f103 0208 	add.w	r2, r3, #8
 80058d8:	e852 2f00 	ldrex	r2, [r2]
  ATOMIC_CLEAR_BIT(huart->Instance->CR3, USART_CR3_EIE);
 80058dc:	f022 0201 	bic.w	r2, r2, #1
   __ASM volatile ("strex %0, %2, %1" : "=&r" (result), "=Q" (*addr) : "r" (value) );
 80058e0:	f103 0008 	add.w	r0, r3, #8
 80058e4:	e840 2100 	strex	r1, r2, [r0]
 80058e8:	2900      	cmp	r1, #0
 80058ea:	d1f3      	bne.n	80058d4 <HAL_UART_IRQHandler+0x1d4>
  if (huart->ReceptionType == HAL_UART_RECEPTION_TOIDLE)
 80058ec:	6e22      	ldr	r2, [r4, #96]	; 0x60
 80058ee:	2a01      	cmp	r2, #1
 80058f0:	d033      	beq.n	800595a <HAL_UART_IRQHandler+0x25a>
  huart->ReceptionType = HAL_UART_RECEPTION_STANDARD;
 80058f2:	2200      	movs	r2, #0
  huart->RxState = HAL_UART_STATE_READY;
 80058f4:	2120      	movs	r1, #32
 80058f6:	67e1      	str	r1, [r4, #124]	; 0x7c
  huart->ReceptionType = HAL_UART_RECEPTION_STANDARD;
 80058f8:	6622      	str	r2, [r4, #96]	; 0x60
        if (HAL_IS_BIT_SET(huart->Instance->CR3, USART_CR3_DMAR))
 80058fa:	6899      	ldr	r1, [r3, #8]
  huart->RxISR = NULL;
 80058fc:	6662      	str	r2, [r4, #100]	; 0x64
        if (HAL_IS_BIT_SET(huart->Instance->CR3, USART_CR3_DMAR))
 80058fe:	064a      	lsls	r2, r1, #25
 8005900:	d53c      	bpl.n	800597c <HAL_UART_IRQHandler+0x27c>
   __ASM volatile ("ldrex %0, %1" : "=r" (result) : "Q" (*addr) );
 8005902:	f103 0208 	add.w	r2, r3, #8
 8005906:	e852 2f00 	ldrex	r2, [r2]
          ATOMIC_CLEAR_BIT(huart->Instance->CR3, USART_CR3_DMAR);
 800590a:	f022 0240 	bic.w	r2, r2, #64	; 0x40
   __ASM volatile ("strex %0, %2, %1" : "=&r" (result), "=Q" (*addr) : "r" (value) );
 800590e:	f103 0008 	add.w	r0, r3, #8
 8005912:	e840 2100 	strex	r1, r2, [r0]
 8005916:	2900      	cmp	r1, #0
 8005918:	d1f3      	bne.n	8005902 <HAL_UART_IRQHandler+0x202>
          if (huart->hdmarx != NULL)
 800591a:	6f20      	ldr	r0, [r4, #112]	; 0x70
 800591c:	b370      	cbz	r0, 800597c <HAL_UART_IRQHandler+0x27c>
            huart->hdmarx->XferAbortCallback = UART_DMAAbortOnError;
 800591e:	4b37      	ldr	r3, [pc, #220]	; (80059fc <HAL_UART_IRQHandler+0x2fc>)
 8005920:	6343      	str	r3, [r0, #52]	; 0x34
            if (HAL_DMA_Abort_IT(huart->hdmarx) != HAL_OK)
 8005922:	f7fe fa19 	bl	8003d58 <HAL_DMA_Abort_IT>
 8005926:	2800      	cmp	r0, #0
 8005928:	f43f af08 	beq.w	800573c <HAL_UART_IRQHandler+0x3c>
              huart->hdmarx->XferAbortCallback(huart->hdmarx);
 800592c:	6f20      	ldr	r0, [r4, #112]	; 0x70
}
 800592e:	e8bd 4070 	ldmia.w	sp!, {r4, r5, r6, lr}
              huart->hdmarx->XferAbortCallback(huart->hdmarx);
 8005932:	6b43      	ldr	r3, [r0, #52]	; 0x34
 8005934:	4718      	bx	r3
    if (((isrflags & USART_ISR_NE) != 0U) && ((cr3its & USART_CR3_EIE) != 0U))
 8005936:	0755      	lsls	r5, r2, #29
 8005938:	d591      	bpl.n	800585e <HAL_UART_IRQHandler+0x15e>
 800593a:	2e00      	cmp	r6, #0
 800593c:	d187      	bne.n	800584e <HAL_UART_IRQHandler+0x14e>
 800593e:	e78e      	b.n	800585e <HAL_UART_IRQHandler+0x15e>
      if (huart->RxISR != NULL)
 8005940:	6e43      	ldr	r3, [r0, #100]	; 0x64
 8005942:	2b00      	cmp	r3, #0
 8005944:	f47f af11 	bne.w	800576a <HAL_UART_IRQHandler+0x6a>
 8005948:	e6f8      	b.n	800573c <HAL_UART_IRQHandler+0x3c>
    __HAL_UART_CLEAR_FLAG(huart, UART_CLEAR_WUF);
 800594a:	f44f 1280 	mov.w	r2, #1048576	; 0x100000
    HAL_UARTEx_WakeupCallback(huart);
 800594e:	4620      	mov	r0, r4
    __HAL_UART_CLEAR_FLAG(huart, UART_CLEAR_WUF);
 8005950:	621a      	str	r2, [r3, #32]
}
 8005952:	e8bd 4070 	ldmia.w	sp!, {r4, r5, r6, lr}
    HAL_UARTEx_WakeupCallback(huart);
 8005956:	f000 bbe3 	b.w	8006120 <HAL_UARTEx_WakeupCallback>
   __ASM volatile ("ldrex %0, %1" : "=r" (result) : "Q" (*addr) );
 800595a:	e853 2f00 	ldrex	r2, [r3]
    ATOMIC_CLEAR_BIT(huart->Instance->CR1, USART_CR1_IDLEIE);
 800595e:	f022 0210 	bic.w	r2, r2, #16
   __ASM volatile ("strex %0, %2, %1" : "=&r" (result), "=Q" (*addr) : "r" (value) );
 8005962:	e843 2100 	strex	r1, r2, [r3]
 8005966:	2900      	cmp	r1, #0
 8005968:	d0c3      	beq.n	80058f2 <HAL_UART_IRQHandler+0x1f2>
   __ASM volatile ("ldrex %0, %1" : "=r" (result) : "Q" (*addr) );
 800596a:	e853 2f00 	ldrex	r2, [r3]
 800596e:	f022 0210 	bic.w	r2, r2, #16
   __ASM volatile ("strex %0, %2, %1" : "=&r" (result), "=Q" (*addr) : "r" (value) );
 8005972:	e843 2100 	strex	r1, r2, [r3]
 8005976:	2900      	cmp	r1, #0
 8005978:	d1ef      	bne.n	800595a <HAL_UART_IRQHandler+0x25a>
 800597a:	e7ba      	b.n	80058f2 <HAL_UART_IRQHandler+0x1f2>
            HAL_UART_ErrorCallback(huart);
 800597c:	4620      	mov	r0, r4
 800597e:	f7ff feb1 	bl	80056e4 <HAL_UART_ErrorCallback>
}
 8005982:	bd70      	pop	{r4, r5, r6, pc}
      uint16_t nb_rx_data = huart->RxXferSize - huart->RxXferCount;
 8005984:	f8b4 105a 	ldrh.w	r1, [r4, #90]	; 0x5a
      if ((huart->RxXferCount > 0U)
 8005988:	f8b4 205a 	ldrh.w	r2, [r4, #90]	; 0x5a
 800598c:	b292      	uxth	r2, r2
      uint16_t nb_rx_data = huart->RxXferSize - huart->RxXferCount;
 800598e:	b289      	uxth	r1, r1
      if ((huart->RxXferCount > 0U)
 8005990:	2a00      	cmp	r2, #0
 8005992:	f43f aed3 	beq.w	800573c <HAL_UART_IRQHandler+0x3c>
      uint16_t nb_rx_data = huart->RxXferSize - huart->RxXferCount;
 8005996:	f8b4 2058 	ldrh.w	r2, [r4, #88]	; 0x58
 800599a:	1a51      	subs	r1, r2, r1
 800599c:	b289      	uxth	r1, r1
          && (nb_rx_data > 0U))
 800599e:	2900      	cmp	r1, #0
 80059a0:	f43f aecc 	beq.w	800573c <HAL_UART_IRQHandler+0x3c>
   __ASM volatile ("ldrex %0, %1" : "=r" (result) : "Q" (*addr) );
 80059a4:	e853 2f00 	ldrex	r2, [r3]
        ATOMIC_CLEAR_BIT(huart->Instance->CR1, (USART_CR1_RXNEIE | USART_CR1_PEIE));
 80059a8:	f422 7290 	bic.w	r2, r2, #288	; 0x120
   __ASM volatile ("strex %0, %2, %1" : "=&r" (result), "=Q" (*addr) : "r" (value) );
 80059ac:	e843 2000 	strex	r0, r2, [r3]
 80059b0:	2800      	cmp	r0, #0
 80059b2:	d1f7      	bne.n	80059a4 <HAL_UART_IRQHandler+0x2a4>
   __ASM volatile ("ldrex %0, %1" : "=r" (result) : "Q" (*addr) );
 80059b4:	f103 0208 	add.w	r2, r3, #8
 80059b8:	e852 2f00 	ldrex	r2, [r2]
        ATOMIC_CLEAR_BIT(huart->Instance->CR3, USART_CR3_EIE);
 80059bc:	f022 0201 	bic.w	r2, r2, #1
   __ASM volatile ("strex %0, %2, %1" : "=&r" (result), "=Q" (*addr) : "r" (value) );
 80059c0:	f103 0508 	add.w	r5, r3, #8
 80059c4:	e845 2000 	strex	r0, r2, [r5]
 80059c8:	2800      	cmp	r0, #0
 80059ca:	d1f3      	bne.n	80059b4 <HAL_UART_IRQHandler+0x2b4>
        huart->RxState = HAL_UART_STATE_READY;
 80059cc:	2220      	movs	r2, #32
 80059ce:	67e2      	str	r2, [r4, #124]	; 0x7c
        huart->RxISR = NULL;
 80059d0:	6660      	str	r0, [r4, #100]	; 0x64
        huart->ReceptionType = HAL_UART_RECEPTION_STANDARD;
 80059d2:	6620      	str	r0, [r4, #96]	; 0x60
   __ASM volatile ("ldrex %0, %1" : "=r" (result) : "Q" (*addr) );
 80059d4:	e853 2f00 	ldrex	r2, [r3]
        ATOMIC_CLEAR_BIT(huart->Instance->CR1, USART_CR1_IDLEIE);
 80059d8:	f022 0210 	bic.w	r2, r2, #16
   __ASM volatile ("strex %0, %2, %1" : "=&r" (result), "=Q" (*addr) : "r" (value) );
 80059dc:	e843 2000 	strex	r0, r2, [r3]
 80059e0:	2800      	cmp	r0, #0
 80059e2:	d1f7      	bne.n	80059d4 <HAL_UART_IRQHandler+0x2d4>
        HAL_UARTEx_RxEventCallback(huart, nb_rx_data);
 80059e4:	4620      	mov	r0, r4
 80059e6:	f7ff fe89 	bl	80056fc <HAL_UARTEx_RxEventCallback>
}
 80059ea:	bd70      	pop	{r4, r5, r6, pc}
        HAL_UART_ErrorCallback(huart);
 80059ec:	4620      	mov	r0, r4
 80059ee:	f7ff fe79 	bl	80056e4 <HAL_UART_ErrorCallback>
        huart->ErrorCode = HAL_UART_ERROR_NONE;
 80059f2:	f8c4 5080 	str.w	r5, [r4, #128]	; 0x80
}
 80059f6:	bd70      	pop	{r4, r5, r6, pc}
 80059f8:	04000120 	.word	0x04000120
 80059fc:	080056e9 	.word	0x080056e9

08005a00 <UART_RxISR_16BIT.part.0>:
/**
  * @brief RX interrupt handler for 7 or 8 bits data word length .
  * @param huart UART handle.
  * @retval None
  */
static void UART_RxISR_8BIT(UART_HandleTypeDef *huart)
 8005a00:	b508      	push	{r3, lr}
 8005a02:	6803      	ldr	r3, [r0, #0]
   __ASM volatile ("ldrex %0, %1" : "=r" (result) : "Q" (*addr) );
 8005a04:	e853 2f00 	ldrex	r2, [r3]
    huart->RxXferCount--;

    if (huart->RxXferCount == 0U)
    {
      /* Disable the UART Parity Error Interrupt and RXNE interrupts */
      ATOMIC_CLEAR_BIT(huart->Instance->CR1, (USART_CR1_RXNEIE | USART_CR1_PEIE));
 8005a08:	f422 7290 	bic.w	r2, r2, #288	; 0x120
   __ASM volatile ("strex %0, %2, %1" : "=&r" (result), "=Q" (*addr) : "r" (value) );
 8005a0c:	e843 2100 	strex	r1, r2, [r3]
 8005a10:	2900      	cmp	r1, #0
 8005a12:	d1f7      	bne.n	8005a04 <UART_RxISR_16BIT.part.0+0x4>
   __ASM volatile ("ldrex %0, %1" : "=r" (result) : "Q" (*addr) );
 8005a14:	f103 0208 	add.w	r2, r3, #8
 8005a18:	e852 2f00 	ldrex	r2, [r2]

      /* Disable the UART Error Interrupt: (Frame error, noise error, overrun error) */
      ATOMIC_CLEAR_BIT(huart->Instance->CR3, USART_CR3_EIE);
 8005a1c:	f022 0201 	bic.w	r2, r2, #1
   __ASM volatile ("strex %0, %2, %1" : "=&r" (result), "=Q" (*addr) : "r" (value) );
 8005a20:	f103 0c08 	add.w	ip, r3, #8
 8005a24:	e84c 2100 	strex	r1, r2, [ip]
 8005a28:	2900      	cmp	r1, #0
 8005a2a:	d1f3      	bne.n	8005a14 <UART_RxISR_16BIT.part.0+0x14>

      /* Rx process is completed, restore huart->RxState to Ready */
      huart->RxState = HAL_UART_STATE_READY;
 8005a2c:	2220      	movs	r2, #32
 8005a2e:	67c2      	str	r2, [r0, #124]	; 0x7c
      /* Clear RxISR function pointer */
      huart->RxISR = NULL;

      /* Check current reception Mode :
         If Reception till IDLE event has been selected : */
      if (huart->ReceptionType == HAL_UART_RECEPTION_TOIDLE)
 8005a30:	6e02      	ldr	r2, [r0, #96]	; 0x60
      huart->RxISR = NULL;
 8005a32:	6641      	str	r1, [r0, #100]	; 0x64
      if (huart->ReceptionType == HAL_UART_RECEPTION_TOIDLE)
 8005a34:	2a01      	cmp	r2, #1
 8005a36:	d112      	bne.n	8005a5e <UART_RxISR_16BIT.part.0+0x5e>
      {
        /* Set reception type to Standard */
        huart->ReceptionType = HAL_UART_RECEPTION_STANDARD;
 8005a38:	6601      	str	r1, [r0, #96]	; 0x60
   __ASM volatile ("ldrex %0, %1" : "=r" (result) : "Q" (*addr) );
 8005a3a:	e853 2f00 	ldrex	r2, [r3]

        /* Disable IDLE interrupt */
        ATOMIC_CLEAR_BIT(huart->Instance->CR1, USART_CR1_IDLEIE);
 8005a3e:	f022 0210 	bic.w	r2, r2, #16
   __ASM volatile ("strex %0, %2, %1" : "=&r" (result), "=Q" (*addr) : "r" (value) );
 8005a42:	e843 2100 	strex	r1, r2, [r3]
 8005a46:	2900      	cmp	r1, #0
 8005a48:	d1f7      	bne.n	8005a3a <UART_RxISR_16BIT.part.0+0x3a>

        if (__HAL_UART_GET_FLAG(huart, UART_FLAG_IDLE) == SET)
 8005a4a:	69da      	ldr	r2, [r3, #28]
#if (USE_HAL_UART_REGISTER_CALLBACKS == 1)
        /*Call registered Rx Event callback*/
        huart->RxEventCallback(huart, huart->RxXferSize);
#else
        /*Call legacy weak Rx Event callback*/
        HAL_UARTEx_RxEventCallback(huart, huart->RxXferSize);
 8005a4c:	f8b0 1058 	ldrh.w	r1, [r0, #88]	; 0x58
        if (__HAL_UART_GET_FLAG(huart, UART_FLAG_IDLE) == SET)
 8005a50:	06d2      	lsls	r2, r2, #27
          __HAL_UART_CLEAR_FLAG(huart, UART_CLEAR_IDLEF);
 8005a52:	bf44      	itt	mi
 8005a54:	2210      	movmi	r2, #16
 8005a56:	621a      	strmi	r2, [r3, #32]
        HAL_UARTEx_RxEventCallback(huart, huart->RxXferSize);
 8005a58:	f7ff fe50 	bl	80056fc <HAL_UARTEx_RxEventCallback>
  else
  {
    /* Clear RXNE interrupt flag */
    __HAL_UART_SEND_REQ(huart, UART_RXDATA_FLUSH_REQUEST);
  }
}
 8005a5c:	bd08      	pop	{r3, pc}
        HAL_UART_RxCpltCallback(huart);
 8005a5e:	f7fb fc81 	bl	8001364 <HAL_UART_RxCpltCallback>
}
 8005a62:	bd08      	pop	{r3, pc}

08005a64 <UART_RxISR_16BIT>:
  uint16_t *tmp;
  uint16_t uhMask = huart->Mask;
  uint16_t  uhdata;

  /* Check that a Rx process is ongoing */
  if (huart->RxState == HAL_UART_STATE_BUSY_RX)
 8005a64:	6fc2      	ldr	r2, [r0, #124]	; 0x7c
 8005a66:	2a22      	cmp	r2, #34	; 0x22
  {
    uhdata = (uint16_t) READ_REG(huart->Instance->RDR);
 8005a68:	6802      	ldr	r2, [r0, #0]
  if (huart->RxState == HAL_UART_STATE_BUSY_RX)
 8005a6a:	d004      	beq.n	8005a76 <UART_RxISR_16BIT+0x12>
    }
  }
  else
  {
    /* Clear RXNE interrupt flag */
    __HAL_UART_SEND_REQ(huart, UART_RXDATA_FLUSH_REQUEST);
 8005a6c:	6993      	ldr	r3, [r2, #24]
 8005a6e:	f043 0308 	orr.w	r3, r3, #8
 8005a72:	6193      	str	r3, [r2, #24]
  }
}
 8005a74:	4770      	bx	lr
    uhdata = (uint16_t) READ_REG(huart->Instance->RDR);
 8005a76:	8c92      	ldrh	r2, [r2, #36]	; 0x24
    *tmp = (uint16_t)(uhdata & uhMask);
 8005a78:	f8b0 c05c 	ldrh.w	ip, [r0, #92]	; 0x5c
 8005a7c:	6d41      	ldr	r1, [r0, #84]	; 0x54
 8005a7e:	ea02 020c 	and.w	r2, r2, ip
 8005a82:	f821 2b02 	strh.w	r2, [r1], #2
    huart->RxXferCount--;
 8005a86:	f8b0 205a 	ldrh.w	r2, [r0, #90]	; 0x5a
    huart->pRxBuffPtr += 2U;
 8005a8a:	6541      	str	r1, [r0, #84]	; 0x54
    huart->RxXferCount--;
 8005a8c:	3a01      	subs	r2, #1
 8005a8e:	b292      	uxth	r2, r2
 8005a90:	f8a0 205a 	strh.w	r2, [r0, #90]	; 0x5a
    if (huart->RxXferCount == 0U)
 8005a94:	f8b0 305a 	ldrh.w	r3, [r0, #90]	; 0x5a
 8005a98:	b29b      	uxth	r3, r3
 8005a9a:	2b00      	cmp	r3, #0
 8005a9c:	d1ea      	bne.n	8005a74 <UART_RxISR_16BIT+0x10>
 8005a9e:	f7ff bfaf 	b.w	8005a00 <UART_RxISR_16BIT.part.0>
 8005aa2:	bf00      	nop

08005aa4 <UART_RxISR_8BIT>:
  if (huart->RxState == HAL_UART_STATE_BUSY_RX)
 8005aa4:	6fc2      	ldr	r2, [r0, #124]	; 0x7c
 8005aa6:	2a22      	cmp	r2, #34	; 0x22
    uhdata = (uint16_t) READ_REG(huart->Instance->RDR);
 8005aa8:	6802      	ldr	r2, [r0, #0]
  if (huart->RxState == HAL_UART_STATE_BUSY_RX)
 8005aaa:	d004      	beq.n	8005ab6 <UART_RxISR_8BIT+0x12>
    __HAL_UART_SEND_REQ(huart, UART_RXDATA_FLUSH_REQUEST);
 8005aac:	6993      	ldr	r3, [r2, #24]
 8005aae:	f043 0308 	orr.w	r3, r3, #8
 8005ab2:	6193      	str	r3, [r2, #24]
}
 8005ab4:	4770      	bx	lr
    uhdata = (uint16_t) READ_REG(huart->Instance->RDR);
 8005ab6:	8c92      	ldrh	r2, [r2, #36]	; 0x24
    *huart->pRxBuffPtr = (uint8_t)(uhdata & (uint8_t)uhMask);
 8005ab8:	f8b0 c05c 	ldrh.w	ip, [r0, #92]	; 0x5c
 8005abc:	6d41      	ldr	r1, [r0, #84]	; 0x54
 8005abe:	ea02 020c 	and.w	r2, r2, ip
 8005ac2:	700a      	strb	r2, [r1, #0]
    huart->RxXferCount--;
 8005ac4:	f8b0 205a 	ldrh.w	r2, [r0, #90]	; 0x5a
    huart->pRxBuffPtr++;
 8005ac8:	6d41      	ldr	r1, [r0, #84]	; 0x54
    huart->RxXferCount--;
 8005aca:	3a01      	subs	r2, #1
 8005acc:	b292      	uxth	r2, r2
 8005ace:	f8a0 205a 	strh.w	r2, [r0, #90]	; 0x5a
    if (huart->RxXferCount == 0U)
 8005ad2:	f8b0 205a 	ldrh.w	r2, [r0, #90]	; 0x5a
    huart->pRxBuffPtr++;
 8005ad6:	3101      	adds	r1, #1
    if (huart->RxXferCount == 0U)
 8005ad8:	b292      	uxth	r2, r2
    huart->pRxBuffPtr++;
 8005ada:	6541      	str	r1, [r0, #84]	; 0x54
    if (huart->RxXferCount == 0U)
 8005adc:	2a00      	cmp	r2, #0
 8005ade:	d1e9      	bne.n	8005ab4 <UART_RxISR_8BIT+0x10>
 8005ae0:	f7ff bf8e 	b.w	8005a00 <UART_RxISR_16BIT.part.0>

08005ae4 <UART_SetConfig>:
{
 8005ae4:	b538      	push	{r3, r4, r5, lr}
 8005ae6:	4604      	mov	r4, r0
  MODIFY_REG(huart->Instance->CR1, USART_CR1_FIELDS, tmpreg);
 8005ae8:	6802      	ldr	r2, [r0, #0]
  tmpreg = (uint32_t)huart->Init.WordLength | huart->Init.Parity | huart->Init.Mode | huart->Init.OverSampling ;
 8005aea:	6883      	ldr	r3, [r0, #8]
 8005aec:	6925      	ldr	r5, [r4, #16]
  MODIFY_REG(huart->Instance->CR1, USART_CR1_FIELDS, tmpreg);
 8005aee:	6810      	ldr	r0, [r2, #0]
  tmpreg = (uint32_t)huart->Init.WordLength | huart->Init.Parity | huart->Init.Mode | huart->Init.OverSampling ;
 8005af0:	69e1      	ldr	r1, [r4, #28]
 8005af2:	432b      	orrs	r3, r5
 8005af4:	6965      	ldr	r5, [r4, #20]
  MODIFY_REG(huart->Instance->CR1, USART_CR1_FIELDS, tmpreg);
 8005af6:	f420 4016 	bic.w	r0, r0, #38400	; 0x9600
  tmpreg = (uint32_t)huart->Init.WordLength | huart->Init.Parity | huart->Init.Mode | huart->Init.OverSampling ;
 8005afa:	432b      	orrs	r3, r5
  MODIFY_REG(huart->Instance->CR1, USART_CR1_FIELDS, tmpreg);
 8005afc:	f020 000c 	bic.w	r0, r0, #12
  tmpreg = (uint32_t)huart->Init.WordLength | huart->Init.Parity | huart->Init.Mode | huart->Init.OverSampling ;
 8005b00:	430b      	orrs	r3, r1
  MODIFY_REG(huart->Instance->CR1, USART_CR1_FIELDS, tmpreg);
 8005b02:	4303      	orrs	r3, r0
 8005b04:	6013      	str	r3, [r2, #0]
  MODIFY_REG(huart->Instance->CR2, USART_CR2_STOP, huart->Init.StopBits);
 8005b06:	6853      	ldr	r3, [r2, #4]
 8005b08:	68e0      	ldr	r0, [r4, #12]
  tmpreg |= huart->Init.OneBitSampling;
 8005b0a:	6a25      	ldr	r5, [r4, #32]
  MODIFY_REG(huart->Instance->CR2, USART_CR2_STOP, huart->Init.StopBits);
 8005b0c:	f423 5340 	bic.w	r3, r3, #12288	; 0x3000
 8005b10:	4303      	orrs	r3, r0
 8005b12:	6053      	str	r3, [r2, #4]
  MODIFY_REG(huart->Instance->CR3, USART_CR3_FIELDS, tmpreg);
 8005b14:	6890      	ldr	r0, [r2, #8]
  tmpreg = (uint32_t)huart->Init.HwFlowCtl;
 8005b16:	69a3      	ldr	r3, [r4, #24]
  MODIFY_REG(huart->Instance->CR3, USART_CR3_FIELDS, tmpreg);
 8005b18:	f420 6030 	bic.w	r0, r0, #2816	; 0xb00
  tmpreg |= huart->Init.OneBitSampling;
 8005b1c:	432b      	orrs	r3, r5
  MODIFY_REG(huart->Instance->CR3, USART_CR3_FIELDS, tmpreg);
 8005b1e:	4303      	orrs	r3, r0
  UART_GETCLOCKSOURCE(huart, clocksource);
 8005b20:	487d      	ldr	r0, [pc, #500]	; (8005d18 <UART_SetConfig+0x234>)
  MODIFY_REG(huart->Instance->CR3, USART_CR3_FIELDS, tmpreg);
 8005b22:	6093      	str	r3, [r2, #8]
  UART_GETCLOCKSOURCE(huart, clocksource);
 8005b24:	4282      	cmp	r2, r0
 8005b26:	d046      	beq.n	8005bb6 <UART_SetConfig+0xd2>
 8005b28:	4b7c      	ldr	r3, [pc, #496]	; (8005d1c <UART_SetConfig+0x238>)
 8005b2a:	429a      	cmp	r2, r3
 8005b2c:	d00f      	beq.n	8005b4e <UART_SetConfig+0x6a>
 8005b2e:	4b7c      	ldr	r3, [pc, #496]	; (8005d20 <UART_SetConfig+0x23c>)
 8005b30:	429a      	cmp	r2, r3
 8005b32:	f000 80a3 	beq.w	8005c7c <UART_SetConfig+0x198>
 8005b36:	4b7b      	ldr	r3, [pc, #492]	; (8005d24 <UART_SetConfig+0x240>)
 8005b38:	429a      	cmp	r2, r3
 8005b3a:	f000 80b4 	beq.w	8005ca6 <UART_SetConfig+0x1c2>
 8005b3e:	4b7a      	ldr	r3, [pc, #488]	; (8005d28 <UART_SetConfig+0x244>)
 8005b40:	429a      	cmp	r2, r3
 8005b42:	d063      	beq.n	8005c0c <UART_SetConfig+0x128>
  huart->RxISR = NULL;
 8005b44:	2300      	movs	r3, #0
  huart->TxISR = NULL;
 8005b46:	e9c4 3319 	strd	r3, r3, [r4, #100]	; 0x64
    switch (clocksource)
 8005b4a:	2001      	movs	r0, #1
}
 8005b4c:	bd38      	pop	{r3, r4, r5, pc}
  UART_GETCLOCKSOURCE(huart, clocksource);
 8005b4e:	f503 33e6 	add.w	r3, r3, #117760	; 0x1cc00
 8005b52:	6b1b      	ldr	r3, [r3, #48]	; 0x30
 8005b54:	f403 3340 	and.w	r3, r3, #196608	; 0x30000
 8005b58:	f5b3 3f00 	cmp.w	r3, #131072	; 0x20000
 8005b5c:	d069      	beq.n	8005c32 <UART_SetConfig+0x14e>
 8005b5e:	d80f      	bhi.n	8005b80 <UART_SetConfig+0x9c>
 8005b60:	2b00      	cmp	r3, #0
 8005b62:	d05c      	beq.n	8005c1e <UART_SetConfig+0x13a>
 8005b64:	f5b3 3f80 	cmp.w	r3, #65536	; 0x10000
 8005b68:	d1ec      	bne.n	8005b44 <UART_SetConfig+0x60>
  if (huart->Init.OverSampling == UART_OVERSAMPLING_8)
 8005b6a:	f5b1 4f00 	cmp.w	r1, #32768	; 0x8000
 8005b6e:	d066      	beq.n	8005c3e <UART_SetConfig+0x15a>
        pclk = HAL_RCC_GetSysClockFreq();
 8005b70:	f7fe fe30 	bl	80047d4 <HAL_RCC_GetSysClockFreq>
    if (pclk != 0U)
 8005b74:	b960      	cbnz	r0, 8005b90 <UART_SetConfig+0xac>
  huart->RxISR = NULL;
 8005b76:	2300      	movs	r3, #0
  huart->TxISR = NULL;
 8005b78:	e9c4 3319 	strd	r3, r3, [r4, #100]	; 0x64
 8005b7c:	2000      	movs	r0, #0
}
 8005b7e:	bd38      	pop	{r3, r4, r5, pc}
  UART_GETCLOCKSOURCE(huart, clocksource);
 8005b80:	f5b3 3f40 	cmp.w	r3, #196608	; 0x30000
 8005b84:	d1de      	bne.n	8005b44 <UART_SetConfig+0x60>
  if (huart->Init.OverSampling == UART_OVERSAMPLING_8)
 8005b86:	f5b1 4f00 	cmp.w	r1, #32768	; 0x8000
 8005b8a:	f000 80c2 	beq.w	8005d12 <UART_SetConfig+0x22e>
    switch (clocksource)
 8005b8e:	4867      	ldr	r0, [pc, #412]	; (8005d2c <UART_SetConfig+0x248>)
      usartdiv = (uint16_t)(UART_DIV_SAMPLING16(pclk, huart->Init.BaudRate));
 8005b90:	6863      	ldr	r3, [r4, #4]
 8005b92:	eb00 0053 	add.w	r0, r0, r3, lsr #1
 8005b96:	fbb0 f3f3 	udiv	r3, r0, r3
 8005b9a:	b29b      	uxth	r3, r3
      if ((usartdiv >= UART_BRR_MIN) && (usartdiv <= UART_BRR_MAX))
 8005b9c:	f64f 72ef 	movw	r2, #65519	; 0xffef
 8005ba0:	f1a3 0110 	sub.w	r1, r3, #16
 8005ba4:	4291      	cmp	r1, r2
 8005ba6:	d8cd      	bhi.n	8005b44 <UART_SetConfig+0x60>
        huart->Instance->BRR = usartdiv;
 8005ba8:	6822      	ldr	r2, [r4, #0]
 8005baa:	60d3      	str	r3, [r2, #12]
  huart->RxISR = NULL;
 8005bac:	2300      	movs	r3, #0
  huart->TxISR = NULL;
 8005bae:	e9c4 3319 	strd	r3, r3, [r4, #100]	; 0x64
 8005bb2:	2000      	movs	r0, #0
}
 8005bb4:	bd38      	pop	{r3, r4, r5, pc}
  UART_GETCLOCKSOURCE(huart, clocksource);
 8005bb6:	4b5e      	ldr	r3, [pc, #376]	; (8005d30 <UART_SetConfig+0x24c>)
 8005bb8:	6b1b      	ldr	r3, [r3, #48]	; 0x30
 8005bba:	f003 0303 	and.w	r3, r3, #3
 8005bbe:	3b01      	subs	r3, #1
 8005bc0:	2b02      	cmp	r3, #2
 8005bc2:	d906      	bls.n	8005bd2 <UART_SetConfig+0xee>
  if (huart->Init.OverSampling == UART_OVERSAMPLING_8)
 8005bc4:	f5b1 4f00 	cmp.w	r1, #32768	; 0x8000
 8005bc8:	f000 8082 	beq.w	8005cd0 <UART_SetConfig+0x1ec>
        pclk = HAL_RCC_GetPCLK2Freq();
 8005bcc:	f7fe fe50 	bl	8004870 <HAL_RCC_GetPCLK2Freq>
        break;
 8005bd0:	e7d0      	b.n	8005b74 <UART_SetConfig+0x90>
 8005bd2:	4a58      	ldr	r2, [pc, #352]	; (8005d34 <UART_SetConfig+0x250>)
  if (huart->Init.OverSampling == UART_OVERSAMPLING_8)
 8005bd4:	f5b1 4f00 	cmp.w	r1, #32768	; 0x8000
 8005bd8:	5cd3      	ldrb	r3, [r2, r3]
 8005bda:	d07f      	beq.n	8005cdc <UART_SetConfig+0x1f8>
    switch (clocksource)
 8005bdc:	2b08      	cmp	r3, #8
 8005bde:	d8b1      	bhi.n	8005b44 <UART_SetConfig+0x60>
 8005be0:	a201      	add	r2, pc, #4	; (adr r2, 8005be8 <UART_SetConfig+0x104>)
 8005be2:	f852 f023 	ldr.w	pc, [r2, r3, lsl #2]
 8005be6:	bf00      	nop
 8005be8:	08005c25 	.word	0x08005c25
 8005bec:	08005bcd 	.word	0x08005bcd
 8005bf0:	08005b8f 	.word	0x08005b8f
 8005bf4:	08005b45 	.word	0x08005b45
 8005bf8:	08005b71 	.word	0x08005b71
 8005bfc:	08005b45 	.word	0x08005b45
 8005c00:	08005b45 	.word	0x08005b45
 8005c04:	08005b45 	.word	0x08005b45
 8005c08:	08005c39 	.word	0x08005c39
  UART_GETCLOCKSOURCE(huart, clocksource);
 8005c0c:	4b48      	ldr	r3, [pc, #288]	; (8005d30 <UART_SetConfig+0x24c>)
 8005c0e:	6b1b      	ldr	r3, [r3, #48]	; 0x30
 8005c10:	f403 0340 	and.w	r3, r3, #12582912	; 0xc00000
 8005c14:	f5b3 0f00 	cmp.w	r3, #8388608	; 0x800000
 8005c18:	d00b      	beq.n	8005c32 <UART_SetConfig+0x14e>
 8005c1a:	d82b      	bhi.n	8005c74 <UART_SetConfig+0x190>
 8005c1c:	b92b      	cbnz	r3, 8005c2a <UART_SetConfig+0x146>
  if (huart->Init.OverSampling == UART_OVERSAMPLING_8)
 8005c1e:	f5b1 4f00 	cmp.w	r1, #32768	; 0x8000
 8005c22:	d058      	beq.n	8005cd6 <UART_SetConfig+0x1f2>
        pclk = HAL_RCC_GetPCLK1Freq();
 8005c24:	f7fe fe0c 	bl	8004840 <HAL_RCC_GetPCLK1Freq>
        break;
 8005c28:	e7a4      	b.n	8005b74 <UART_SetConfig+0x90>
  UART_GETCLOCKSOURCE(huart, clocksource);
 8005c2a:	f5b3 0f80 	cmp.w	r3, #4194304	; 0x400000
 8005c2e:	d09c      	beq.n	8005b6a <UART_SetConfig+0x86>
 8005c30:	e788      	b.n	8005b44 <UART_SetConfig+0x60>
  if (huart->Init.OverSampling == UART_OVERSAMPLING_8)
 8005c32:	f5b1 4f00 	cmp.w	r1, #32768	; 0x8000
 8005c36:	d069      	beq.n	8005d0c <UART_SetConfig+0x228>
        pclk = (uint32_t) LSE_VALUE;
 8005c38:	f44f 4000 	mov.w	r0, #32768	; 0x8000
 8005c3c:	e7a8      	b.n	8005b90 <UART_SetConfig+0xac>
        pclk = HAL_RCC_GetSysClockFreq();
 8005c3e:	f7fe fdc9 	bl	80047d4 <HAL_RCC_GetSysClockFreq>
    if (pclk != 0U)
 8005c42:	2800      	cmp	r0, #0
 8005c44:	d097      	beq.n	8005b76 <UART_SetConfig+0x92>
      usartdiv = (uint16_t)(UART_DIV_SAMPLING8(pclk, huart->Init.BaudRate));
 8005c46:	0043      	lsls	r3, r0, #1
 8005c48:	6862      	ldr	r2, [r4, #4]
 8005c4a:	eb03 0352 	add.w	r3, r3, r2, lsr #1
 8005c4e:	fbb3 f3f2 	udiv	r3, r3, r2
 8005c52:	b29a      	uxth	r2, r3
      if ((usartdiv >= UART_BRR_MIN) && (usartdiv <= UART_BRR_MAX))
 8005c54:	f1a2 0010 	sub.w	r0, r2, #16
 8005c58:	f64f 71ef 	movw	r1, #65519	; 0xffef
 8005c5c:	4288      	cmp	r0, r1
 8005c5e:	f63f af71 	bhi.w	8005b44 <UART_SetConfig+0x60>
        brrtemp = (uint16_t)(usartdiv & 0xFFF0U);
 8005c62:	f023 030f 	bic.w	r3, r3, #15
        huart->Instance->BRR = brrtemp;
 8005c66:	6821      	ldr	r1, [r4, #0]
        brrtemp = (uint16_t)(usartdiv & 0xFFF0U);
 8005c68:	b29b      	uxth	r3, r3
        brrtemp |= (uint16_t)((usartdiv & (uint16_t)0x000FU) >> 1U);
 8005c6a:	f3c2 0242 	ubfx	r2, r2, #1, #3
        huart->Instance->BRR = brrtemp;
 8005c6e:	4313      	orrs	r3, r2
 8005c70:	60cb      	str	r3, [r1, #12]
 8005c72:	e780      	b.n	8005b76 <UART_SetConfig+0x92>
  UART_GETCLOCKSOURCE(huart, clocksource);
 8005c74:	f5b3 0f40 	cmp.w	r3, #12582912	; 0xc00000
 8005c78:	d085      	beq.n	8005b86 <UART_SetConfig+0xa2>
 8005c7a:	e763      	b.n	8005b44 <UART_SetConfig+0x60>
 8005c7c:	f503 33e4 	add.w	r3, r3, #116736	; 0x1c800
 8005c80:	6b1b      	ldr	r3, [r3, #48]	; 0x30
 8005c82:	f403 2340 	and.w	r3, r3, #786432	; 0xc0000
 8005c86:	f5b3 2f00 	cmp.w	r3, #524288	; 0x80000
 8005c8a:	d0d2      	beq.n	8005c32 <UART_SetConfig+0x14e>
 8005c8c:	d806      	bhi.n	8005c9c <UART_SetConfig+0x1b8>
 8005c8e:	2b00      	cmp	r3, #0
 8005c90:	d0c5      	beq.n	8005c1e <UART_SetConfig+0x13a>
 8005c92:	f5b3 2f80 	cmp.w	r3, #262144	; 0x40000
 8005c96:	f43f af68 	beq.w	8005b6a <UART_SetConfig+0x86>
 8005c9a:	e753      	b.n	8005b44 <UART_SetConfig+0x60>
 8005c9c:	f5b3 2f40 	cmp.w	r3, #786432	; 0xc0000
 8005ca0:	f43f af71 	beq.w	8005b86 <UART_SetConfig+0xa2>
 8005ca4:	e74e      	b.n	8005b44 <UART_SetConfig+0x60>
 8005ca6:	f503 33e2 	add.w	r3, r3, #115712	; 0x1c400
 8005caa:	6b1b      	ldr	r3, [r3, #48]	; 0x30
 8005cac:	f403 1340 	and.w	r3, r3, #3145728	; 0x300000
 8005cb0:	f5b3 1f00 	cmp.w	r3, #2097152	; 0x200000
 8005cb4:	d0bd      	beq.n	8005c32 <UART_SetConfig+0x14e>
 8005cb6:	d806      	bhi.n	8005cc6 <UART_SetConfig+0x1e2>
 8005cb8:	2b00      	cmp	r3, #0
 8005cba:	d0b0      	beq.n	8005c1e <UART_SetConfig+0x13a>
 8005cbc:	f5b3 1f80 	cmp.w	r3, #1048576	; 0x100000
 8005cc0:	f43f af53 	beq.w	8005b6a <UART_SetConfig+0x86>
 8005cc4:	e73e      	b.n	8005b44 <UART_SetConfig+0x60>
 8005cc6:	f5b3 1f40 	cmp.w	r3, #3145728	; 0x300000
 8005cca:	f43f af5c 	beq.w	8005b86 <UART_SetConfig+0xa2>
 8005cce:	e739      	b.n	8005b44 <UART_SetConfig+0x60>
        pclk = HAL_RCC_GetPCLK2Freq();
 8005cd0:	f7fe fdce 	bl	8004870 <HAL_RCC_GetPCLK2Freq>
        break;
 8005cd4:	e7b5      	b.n	8005c42 <UART_SetConfig+0x15e>
        pclk = HAL_RCC_GetPCLK1Freq();
 8005cd6:	f7fe fdb3 	bl	8004840 <HAL_RCC_GetPCLK1Freq>
        break;
 8005cda:	e7b2      	b.n	8005c42 <UART_SetConfig+0x15e>
    switch (clocksource)
 8005cdc:	2b08      	cmp	r3, #8
 8005cde:	f63f af31 	bhi.w	8005b44 <UART_SetConfig+0x60>
 8005ce2:	a201      	add	r2, pc, #4	; (adr r2, 8005ce8 <UART_SetConfig+0x204>)
 8005ce4:	f852 f023 	ldr.w	pc, [r2, r3, lsl #2]
 8005ce8:	08005cd7 	.word	0x08005cd7
 8005cec:	08005cd1 	.word	0x08005cd1
 8005cf0:	08005d13 	.word	0x08005d13
 8005cf4:	08005b45 	.word	0x08005b45
 8005cf8:	08005c3f 	.word	0x08005c3f
 8005cfc:	08005b45 	.word	0x08005b45
 8005d00:	08005b45 	.word	0x08005b45
 8005d04:	08005b45 	.word	0x08005b45
 8005d08:	08005d0d 	.word	0x08005d0d
 8005d0c:	f44f 3380 	mov.w	r3, #65536	; 0x10000
 8005d10:	e79a      	b.n	8005c48 <UART_SetConfig+0x164>
  if (huart->Init.OverSampling == UART_OVERSAMPLING_8)
 8005d12:	4b09      	ldr	r3, [pc, #36]	; (8005d38 <UART_SetConfig+0x254>)
 8005d14:	e798      	b.n	8005c48 <UART_SetConfig+0x164>
 8005d16:	bf00      	nop
 8005d18:	40013800 	.word	0x40013800
 8005d1c:	40004400 	.word	0x40004400
 8005d20:	40004800 	.word	0x40004800
 8005d24:	40004c00 	.word	0x40004c00
 8005d28:	40005000 	.word	0x40005000
 8005d2c:	007a1200 	.word	0x007a1200
 8005d30:	40021000 	.word	0x40021000
 8005d34:	08009e80 	.word	0x08009e80
 8005d38:	00f42400 	.word	0x00f42400

08005d3c <UART_AdvFeatureConfig>:
  if (HAL_IS_BIT_SET(huart->AdvancedInit.AdvFeatureInit, UART_ADVFEATURE_TXINVERT_INIT))
 8005d3c:	6a43      	ldr	r3, [r0, #36]	; 0x24
 8005d3e:	07da      	lsls	r2, r3, #31
{
 8005d40:	b410      	push	{r4}
  if (HAL_IS_BIT_SET(huart->AdvancedInit.AdvFeatureInit, UART_ADVFEATURE_TXINVERT_INIT))
 8005d42:	d506      	bpl.n	8005d52 <UART_AdvFeatureConfig+0x16>
    MODIFY_REG(huart->Instance->CR2, USART_CR2_TXINV, huart->AdvancedInit.TxPinLevelInvert);
 8005d44:	6801      	ldr	r1, [r0, #0]
 8005d46:	6a84      	ldr	r4, [r0, #40]	; 0x28
 8005d48:	684a      	ldr	r2, [r1, #4]
 8005d4a:	f422 3200 	bic.w	r2, r2, #131072	; 0x20000
 8005d4e:	4322      	orrs	r2, r4
 8005d50:	604a      	str	r2, [r1, #4]
  if (HAL_IS_BIT_SET(huart->AdvancedInit.AdvFeatureInit, UART_ADVFEATURE_RXINVERT_INIT))
 8005d52:	079c      	lsls	r4, r3, #30
 8005d54:	d506      	bpl.n	8005d64 <UART_AdvFeatureConfig+0x28>
    MODIFY_REG(huart->Instance->CR2, USART_CR2_RXINV, huart->AdvancedInit.RxPinLevelInvert);
 8005d56:	6801      	ldr	r1, [r0, #0]
 8005d58:	6ac4      	ldr	r4, [r0, #44]	; 0x2c
 8005d5a:	684a      	ldr	r2, [r1, #4]
 8005d5c:	f422 3280 	bic.w	r2, r2, #65536	; 0x10000
 8005d60:	4322      	orrs	r2, r4
 8005d62:	604a      	str	r2, [r1, #4]
  if (HAL_IS_BIT_SET(huart->AdvancedInit.AdvFeatureInit, UART_ADVFEATURE_DATAINVERT_INIT))
 8005d64:	0759      	lsls	r1, r3, #29
 8005d66:	d506      	bpl.n	8005d76 <UART_AdvFeatureConfig+0x3a>
    MODIFY_REG(huart->Instance->CR2, USART_CR2_DATAINV, huart->AdvancedInit.DataInvert);
 8005d68:	6801      	ldr	r1, [r0, #0]
 8005d6a:	6b04      	ldr	r4, [r0, #48]	; 0x30
 8005d6c:	684a      	ldr	r2, [r1, #4]
 8005d6e:	f422 2280 	bic.w	r2, r2, #262144	; 0x40000
 8005d72:	4322      	orrs	r2, r4
 8005d74:	604a      	str	r2, [r1, #4]
  if (HAL_IS_BIT_SET(huart->AdvancedInit.AdvFeatureInit, UART_ADVFEATURE_SWAP_INIT))
 8005d76:	071a      	lsls	r2, r3, #28
 8005d78:	d506      	bpl.n	8005d88 <UART_AdvFeatureConfig+0x4c>
    MODIFY_REG(huart->Instance->CR2, USART_CR2_SWAP, huart->AdvancedInit.Swap);
 8005d7a:	6801      	ldr	r1, [r0, #0]
 8005d7c:	6b44      	ldr	r4, [r0, #52]	; 0x34
 8005d7e:	684a      	ldr	r2, [r1, #4]
 8005d80:	f422 4200 	bic.w	r2, r2, #32768	; 0x8000
 8005d84:	4322      	orrs	r2, r4
 8005d86:	604a      	str	r2, [r1, #4]
  if (HAL_IS_BIT_SET(huart->AdvancedInit.AdvFeatureInit, UART_ADVFEATURE_RXOVERRUNDISABLE_INIT))
 8005d88:	06dc      	lsls	r4, r3, #27
 8005d8a:	d506      	bpl.n	8005d9a <UART_AdvFeatureConfig+0x5e>
    MODIFY_REG(huart->Instance->CR3, USART_CR3_OVRDIS, huart->AdvancedInit.OverrunDisable);
 8005d8c:	6801      	ldr	r1, [r0, #0]
 8005d8e:	6b84      	ldr	r4, [r0, #56]	; 0x38
 8005d90:	688a      	ldr	r2, [r1, #8]
 8005d92:	f422 5280 	bic.w	r2, r2, #4096	; 0x1000
 8005d96:	4322      	orrs	r2, r4
 8005d98:	608a      	str	r2, [r1, #8]
  if (HAL_IS_BIT_SET(huart->AdvancedInit.AdvFeatureInit, UART_ADVFEATURE_DMADISABLEONERROR_INIT))
 8005d9a:	0699      	lsls	r1, r3, #26
 8005d9c:	d506      	bpl.n	8005dac <UART_AdvFeatureConfig+0x70>
    MODIFY_REG(huart->Instance->CR3, USART_CR3_DDRE, huart->AdvancedInit.DMADisableonRxError);
 8005d9e:	6801      	ldr	r1, [r0, #0]
 8005da0:	6bc4      	ldr	r4, [r0, #60]	; 0x3c
 8005da2:	688a      	ldr	r2, [r1, #8]
 8005da4:	f422 5200 	bic.w	r2, r2, #8192	; 0x2000
 8005da8:	4322      	orrs	r2, r4
 8005daa:	608a      	str	r2, [r1, #8]
  if (HAL_IS_BIT_SET(huart->AdvancedInit.AdvFeatureInit, UART_ADVFEATURE_AUTOBAUDRATE_INIT))
 8005dac:	065a      	lsls	r2, r3, #25
 8005dae:	d509      	bpl.n	8005dc4 <UART_AdvFeatureConfig+0x88>
    MODIFY_REG(huart->Instance->CR2, USART_CR2_ABREN, huart->AdvancedInit.AutoBaudRateEnable);
 8005db0:	6801      	ldr	r1, [r0, #0]
 8005db2:	6c04      	ldr	r4, [r0, #64]	; 0x40
 8005db4:	684a      	ldr	r2, [r1, #4]
 8005db6:	f422 1280 	bic.w	r2, r2, #1048576	; 0x100000
 8005dba:	4322      	orrs	r2, r4
    if (huart->AdvancedInit.AutoBaudRateEnable == UART_ADVFEATURE_AUTOBAUDRATE_ENABLE)
 8005dbc:	f5b4 1f80 	cmp.w	r4, #1048576	; 0x100000
    MODIFY_REG(huart->Instance->CR2, USART_CR2_ABREN, huart->AdvancedInit.AutoBaudRateEnable);
 8005dc0:	604a      	str	r2, [r1, #4]
    if (huart->AdvancedInit.AutoBaudRateEnable == UART_ADVFEATURE_AUTOBAUDRATE_ENABLE)
 8005dc2:	d00b      	beq.n	8005ddc <UART_AdvFeatureConfig+0xa0>
  if (HAL_IS_BIT_SET(huart->AdvancedInit.AdvFeatureInit, UART_ADVFEATURE_MSBFIRST_INIT))
 8005dc4:	061b      	lsls	r3, r3, #24
 8005dc6:	d506      	bpl.n	8005dd6 <UART_AdvFeatureConfig+0x9a>
    MODIFY_REG(huart->Instance->CR2, USART_CR2_MSBFIRST, huart->AdvancedInit.MSBFirst);
 8005dc8:	6802      	ldr	r2, [r0, #0]
 8005dca:	6c81      	ldr	r1, [r0, #72]	; 0x48
 8005dcc:	6853      	ldr	r3, [r2, #4]
 8005dce:	f423 2300 	bic.w	r3, r3, #524288	; 0x80000
 8005dd2:	430b      	orrs	r3, r1
 8005dd4:	6053      	str	r3, [r2, #4]
}
 8005dd6:	f85d 4b04 	ldr.w	r4, [sp], #4
 8005dda:	4770      	bx	lr
      MODIFY_REG(huart->Instance->CR2, USART_CR2_ABRMODE, huart->AdvancedInit.AutoBaudRateMode);
 8005ddc:	684a      	ldr	r2, [r1, #4]
 8005dde:	6c44      	ldr	r4, [r0, #68]	; 0x44
 8005de0:	f422 02c0 	bic.w	r2, r2, #6291456	; 0x600000
 8005de4:	4322      	orrs	r2, r4
 8005de6:	604a      	str	r2, [r1, #4]
 8005de8:	e7ec      	b.n	8005dc4 <UART_AdvFeatureConfig+0x88>
 8005dea:	bf00      	nop

08005dec <UART_WaitOnFlagUntilTimeout>:
{
 8005dec:	e92d 43f8 	stmdb	sp!, {r3, r4, r5, r6, r7, r8, r9, lr}
 8005df0:	f8dd 8020 	ldr.w	r8, [sp, #32]
  while ((__HAL_UART_GET_FLAG(huart, Flag) ? SET : RESET) == Status)
 8005df4:	6804      	ldr	r4, [r0, #0]
{
 8005df6:	4607      	mov	r7, r0
 8005df8:	460e      	mov	r6, r1
 8005dfa:	4615      	mov	r5, r2
 8005dfc:	4699      	mov	r9, r3
 8005dfe:	f1b8 3fff 	cmp.w	r8, #4294967295
 8005e02:	d10a      	bne.n	8005e1a <UART_WaitOnFlagUntilTimeout+0x2e>
  while ((__HAL_UART_GET_FLAG(huart, Flag) ? SET : RESET) == Status)
 8005e04:	69e3      	ldr	r3, [r4, #28]
 8005e06:	ea36 0303 	bics.w	r3, r6, r3
 8005e0a:	bf0c      	ite	eq
 8005e0c:	2301      	moveq	r3, #1
 8005e0e:	2300      	movne	r3, #0
 8005e10:	429d      	cmp	r5, r3
 8005e12:	d0f7      	beq.n	8005e04 <UART_WaitOnFlagUntilTimeout+0x18>
  return HAL_OK;
 8005e14:	2000      	movs	r0, #0
}
 8005e16:	e8bd 83f8 	ldmia.w	sp!, {r3, r4, r5, r6, r7, r8, r9, pc}
  while ((__HAL_UART_GET_FLAG(huart, Flag) ? SET : RESET) == Status)
 8005e1a:	69e3      	ldr	r3, [r4, #28]
 8005e1c:	ea36 0303 	bics.w	r3, r6, r3
 8005e20:	bf0c      	ite	eq
 8005e22:	2301      	moveq	r3, #1
 8005e24:	2300      	movne	r3, #0
 8005e26:	42ab      	cmp	r3, r5
 8005e28:	d1f4      	bne.n	8005e14 <UART_WaitOnFlagUntilTimeout+0x28>
      if (((HAL_GetTick() - Tickstart) > Timeout) || (Timeout == 0U))
 8005e2a:	f7fc fc21 	bl	8002670 <HAL_GetTick>
 8005e2e:	eba0 0009 	sub.w	r0, r0, r9
 8005e32:	4540      	cmp	r0, r8
 8005e34:	d831      	bhi.n	8005e9a <UART_WaitOnFlagUntilTimeout+0xae>
 8005e36:	f1b8 0f00 	cmp.w	r8, #0
 8005e3a:	d02e      	beq.n	8005e9a <UART_WaitOnFlagUntilTimeout+0xae>
      if (READ_BIT(huart->Instance->CR1, USART_CR1_RE) != 0U)
 8005e3c:	683c      	ldr	r4, [r7, #0]
 8005e3e:	6823      	ldr	r3, [r4, #0]
 8005e40:	0759      	lsls	r1, r3, #29
 8005e42:	4622      	mov	r2, r4
 8005e44:	d5db      	bpl.n	8005dfe <UART_WaitOnFlagUntilTimeout+0x12>
        if (__HAL_UART_GET_FLAG(huart, UART_FLAG_RTOF) == SET)
 8005e46:	69e3      	ldr	r3, [r4, #28]
 8005e48:	051b      	lsls	r3, r3, #20
 8005e4a:	d5d8      	bpl.n	8005dfe <UART_WaitOnFlagUntilTimeout+0x12>
          __HAL_UART_CLEAR_FLAG(huart, UART_CLEAR_RTOF);
 8005e4c:	f44f 6300 	mov.w	r3, #2048	; 0x800
 8005e50:	6223      	str	r3, [r4, #32]
   __ASM volatile ("ldrex %0, %1" : "=r" (result) : "Q" (*addr) );
 8005e52:	e854 3f00 	ldrex	r3, [r4]
          ATOMIC_CLEAR_BIT(huart->Instance->CR1, (USART_CR1_RXNEIE | USART_CR1_PEIE | USART_CR1_TXEIE));
 8005e56:	f423 73d0 	bic.w	r3, r3, #416	; 0x1a0
   __ASM volatile ("strex %0, %2, %1" : "=&r" (result), "=Q" (*addr) : "r" (value) );
 8005e5a:	e844 3100 	strex	r1, r3, [r4]
 8005e5e:	b139      	cbz	r1, 8005e70 <UART_WaitOnFlagUntilTimeout+0x84>
   __ASM volatile ("ldrex %0, %1" : "=r" (result) : "Q" (*addr) );
 8005e60:	e852 3f00 	ldrex	r3, [r2]
 8005e64:	f423 73d0 	bic.w	r3, r3, #416	; 0x1a0
   __ASM volatile ("strex %0, %2, %1" : "=&r" (result), "=Q" (*addr) : "r" (value) );
 8005e68:	e842 3100 	strex	r1, r3, [r2]
 8005e6c:	2900      	cmp	r1, #0
 8005e6e:	d1f7      	bne.n	8005e60 <UART_WaitOnFlagUntilTimeout+0x74>
   __ASM volatile ("ldrex %0, %1" : "=r" (result) : "Q" (*addr) );
 8005e70:	f102 0308 	add.w	r3, r2, #8
 8005e74:	e853 3f00 	ldrex	r3, [r3]
          ATOMIC_CLEAR_BIT(huart->Instance->CR3, USART_CR3_EIE);
 8005e78:	f023 0301 	bic.w	r3, r3, #1
   __ASM volatile ("strex %0, %2, %1" : "=&r" (result), "=Q" (*addr) : "r" (value) );
 8005e7c:	f102 0008 	add.w	r0, r2, #8
 8005e80:	e840 3100 	strex	r1, r3, [r0]
 8005e84:	2900      	cmp	r1, #0
 8005e86:	d1f3      	bne.n	8005e70 <UART_WaitOnFlagUntilTimeout+0x84>
          huart->gState = HAL_UART_STATE_READY;
 8005e88:	2320      	movs	r3, #32
 8005e8a:	67bb      	str	r3, [r7, #120]	; 0x78
          __HAL_UNLOCK(huart);
 8005e8c:	f887 1074 	strb.w	r1, [r7, #116]	; 0x74
          huart->RxState = HAL_UART_STATE_READY;
 8005e90:	67fb      	str	r3, [r7, #124]	; 0x7c
          return HAL_TIMEOUT;
 8005e92:	2003      	movs	r0, #3
          huart->ErrorCode = HAL_UART_ERROR_RTO;
 8005e94:	f8c7 3080 	str.w	r3, [r7, #128]	; 0x80
          return HAL_TIMEOUT;
 8005e98:	e7bd      	b.n	8005e16 <UART_WaitOnFlagUntilTimeout+0x2a>
 8005e9a:	683a      	ldr	r2, [r7, #0]
   __ASM volatile ("ldrex %0, %1" : "=r" (result) : "Q" (*addr) );
 8005e9c:	e852 3f00 	ldrex	r3, [r2]
        ATOMIC_CLEAR_BIT(huart->Instance->CR1, (USART_CR1_RXNEIE | USART_CR1_PEIE | USART_CR1_TXEIE));
 8005ea0:	f423 73d0 	bic.w	r3, r3, #416	; 0x1a0
   __ASM volatile ("strex %0, %2, %1" : "=&r" (result), "=Q" (*addr) : "r" (value) );
 8005ea4:	e842 3100 	strex	r1, r3, [r2]
 8005ea8:	2900      	cmp	r1, #0
 8005eaa:	d1f7      	bne.n	8005e9c <UART_WaitOnFlagUntilTimeout+0xb0>
   __ASM volatile ("ldrex %0, %1" : "=r" (result) : "Q" (*addr) );
 8005eac:	f102 0308 	add.w	r3, r2, #8
 8005eb0:	e853 3f00 	ldrex	r3, [r3]
        ATOMIC_CLEAR_BIT(huart->Instance->CR3, USART_CR3_EIE);
 8005eb4:	f023 0301 	bic.w	r3, r3, #1
   __ASM volatile ("strex %0, %2, %1" : "=&r" (result), "=Q" (*addr) : "r" (value) );
 8005eb8:	f102 0008 	add.w	r0, r2, #8
 8005ebc:	e840 3100 	strex	r1, r3, [r0]
 8005ec0:	2900      	cmp	r1, #0
 8005ec2:	d1f3      	bne.n	8005eac <UART_WaitOnFlagUntilTimeout+0xc0>
        huart->gState = HAL_UART_STATE_READY;
 8005ec4:	2320      	movs	r3, #32
 8005ec6:	67bb      	str	r3, [r7, #120]	; 0x78
        __HAL_UNLOCK(huart);
 8005ec8:	f887 1074 	strb.w	r1, [r7, #116]	; 0x74
        huart->RxState = HAL_UART_STATE_READY;
 8005ecc:	67fb      	str	r3, [r7, #124]	; 0x7c
        return HAL_TIMEOUT;
 8005ece:	2003      	movs	r0, #3
 8005ed0:	e7a1      	b.n	8005e16 <UART_WaitOnFlagUntilTimeout+0x2a>
 8005ed2:	bf00      	nop

08005ed4 <HAL_UART_Transmit>:
{
 8005ed4:	e92d 43f0 	stmdb	sp!, {r4, r5, r6, r7, r8, r9, lr}
 8005ed8:	4605      	mov	r5, r0
  if (huart->gState == HAL_UART_STATE_READY)
 8005eda:	6f80      	ldr	r0, [r0, #120]	; 0x78
 8005edc:	2820      	cmp	r0, #32
{
 8005ede:	b083      	sub	sp, #12
  if (huart->gState == HAL_UART_STATE_READY)
 8005ee0:	f040 808b 	bne.w	8005ffa <HAL_UART_Transmit+0x126>
    if ((pData == NULL) || (Size == 0U))
 8005ee4:	4689      	mov	r9, r1
 8005ee6:	2900      	cmp	r1, #0
 8005ee8:	d045      	beq.n	8005f76 <HAL_UART_Transmit+0xa2>
 8005eea:	4614      	mov	r4, r2
 8005eec:	2a00      	cmp	r2, #0
 8005eee:	d042      	beq.n	8005f76 <HAL_UART_Transmit+0xa2>
 8005ef0:	461e      	mov	r6, r3
    __HAL_LOCK(huart);
 8005ef2:	f895 3074 	ldrb.w	r3, [r5, #116]	; 0x74
 8005ef6:	2b01      	cmp	r3, #1
 8005ef8:	d07f      	beq.n	8005ffa <HAL_UART_Transmit+0x126>
 8005efa:	2301      	movs	r3, #1
 8005efc:	f885 3074 	strb.w	r3, [r5, #116]	; 0x74
    huart->ErrorCode = HAL_UART_ERROR_NONE;
 8005f00:	f04f 0800 	mov.w	r8, #0
    huart->gState = HAL_UART_STATE_BUSY_TX;
 8005f04:	2321      	movs	r3, #33	; 0x21
    huart->ErrorCode = HAL_UART_ERROR_NONE;
 8005f06:	f8c5 8080 	str.w	r8, [r5, #128]	; 0x80
    huart->gState = HAL_UART_STATE_BUSY_TX;
 8005f0a:	67ab      	str	r3, [r5, #120]	; 0x78
    tickstart = HAL_GetTick();
 8005f0c:	f7fc fbb0 	bl	8002670 <HAL_GetTick>
    if ((huart->Init.WordLength == UART_WORDLENGTH_9B) && (huart->Init.Parity == UART_PARITY_NONE))
 8005f10:	68ab      	ldr	r3, [r5, #8]
    huart->TxXferSize  = Size;
 8005f12:	f8a5 4050 	strh.w	r4, [r5, #80]	; 0x50
    if ((huart->Init.WordLength == UART_WORDLENGTH_9B) && (huart->Init.Parity == UART_PARITY_NONE))
 8005f16:	f5b3 5f80 	cmp.w	r3, #4096	; 0x1000
    huart->TxXferCount = Size;
 8005f1a:	f8a5 4052 	strh.w	r4, [r5, #82]	; 0x52
    tickstart = HAL_GetTick();
 8005f1e:	4607      	mov	r7, r0
    if ((huart->Init.WordLength == UART_WORDLENGTH_9B) && (huart->Init.Parity == UART_PARITY_NONE))
 8005f20:	d06f      	beq.n	8006002 <HAL_UART_Transmit+0x12e>
    while (huart->TxXferCount > 0U)
 8005f22:	f8b5 3052 	ldrh.w	r3, [r5, #82]	; 0x52
    __HAL_UNLOCK(huart);
 8005f26:	2200      	movs	r2, #0
    while (huart->TxXferCount > 0U)
 8005f28:	b29b      	uxth	r3, r3
    __HAL_UNLOCK(huart);
 8005f2a:	f885 2074 	strb.w	r2, [r5, #116]	; 0x74
    while (huart->TxXferCount > 0U)
 8005f2e:	b1b3      	cbz	r3, 8005f5e <HAL_UART_Transmit+0x8a>
  while ((__HAL_UART_GET_FLAG(huart, Flag) ? SET : RESET) == Status)
 8005f30:	682c      	ldr	r4, [r5, #0]
 8005f32:	1c71      	adds	r1, r6, #1
 8005f34:	d123      	bne.n	8005f7e <HAL_UART_Transmit+0xaa>
 8005f36:	69e2      	ldr	r2, [r4, #28]
 8005f38:	0612      	lsls	r2, r2, #24
 8005f3a:	d5fc      	bpl.n	8005f36 <HAL_UART_Transmit+0x62>
      if (pdata8bits == NULL)
 8005f3c:	f1b9 0f00 	cmp.w	r9, #0
 8005f40:	d056      	beq.n	8005ff0 <HAL_UART_Transmit+0x11c>
        huart->Instance->TDR = (uint8_t)(*pdata8bits & 0xFFU);
 8005f42:	f819 3b01 	ldrb.w	r3, [r9], #1
 8005f46:	8523      	strh	r3, [r4, #40]	; 0x28
      huart->TxXferCount--;
 8005f48:	f8b5 3052 	ldrh.w	r3, [r5, #82]	; 0x52
 8005f4c:	3b01      	subs	r3, #1
 8005f4e:	b29b      	uxth	r3, r3
 8005f50:	f8a5 3052 	strh.w	r3, [r5, #82]	; 0x52
    while (huart->TxXferCount > 0U)
 8005f54:	f8b5 3052 	ldrh.w	r3, [r5, #82]	; 0x52
 8005f58:	b29b      	uxth	r3, r3
 8005f5a:	2b00      	cmp	r3, #0
 8005f5c:	d1e9      	bne.n	8005f32 <HAL_UART_Transmit+0x5e>
    if (UART_WaitOnFlagUntilTimeout(huart, UART_FLAG_TC, RESET, tickstart, Timeout) != HAL_OK)
 8005f5e:	9600      	str	r6, [sp, #0]
 8005f60:	463b      	mov	r3, r7
 8005f62:	2200      	movs	r2, #0
 8005f64:	2140      	movs	r1, #64	; 0x40
 8005f66:	4628      	mov	r0, r5
 8005f68:	f7ff ff40 	bl	8005dec <UART_WaitOnFlagUntilTimeout>
 8005f6c:	2800      	cmp	r0, #0
 8005f6e:	d16c      	bne.n	800604a <HAL_UART_Transmit+0x176>
    huart->gState = HAL_UART_STATE_READY;
 8005f70:	2320      	movs	r3, #32
 8005f72:	67ab      	str	r3, [r5, #120]	; 0x78
    return HAL_OK;
 8005f74:	e000      	b.n	8005f78 <HAL_UART_Transmit+0xa4>
      return  HAL_ERROR;
 8005f76:	2001      	movs	r0, #1
}
 8005f78:	b003      	add	sp, #12
 8005f7a:	e8bd 83f0 	ldmia.w	sp!, {r4, r5, r6, r7, r8, r9, pc}
  while ((__HAL_UART_GET_FLAG(huart, Flag) ? SET : RESET) == Status)
 8005f7e:	69e3      	ldr	r3, [r4, #28]
 8005f80:	061b      	lsls	r3, r3, #24
 8005f82:	d4db      	bmi.n	8005f3c <HAL_UART_Transmit+0x68>
      if (((HAL_GetTick() - Tickstart) > Timeout) || (Timeout == 0U))
 8005f84:	f7fc fb74 	bl	8002670 <HAL_GetTick>
 8005f88:	1bc0      	subs	r0, r0, r7
 8005f8a:	4286      	cmp	r6, r0
 8005f8c:	d33f      	bcc.n	800600e <HAL_UART_Transmit+0x13a>
 8005f8e:	2e00      	cmp	r6, #0
 8005f90:	d03d      	beq.n	800600e <HAL_UART_Transmit+0x13a>
      if (READ_BIT(huart->Instance->CR1, USART_CR1_RE) != 0U)
 8005f92:	682c      	ldr	r4, [r5, #0]
 8005f94:	6822      	ldr	r2, [r4, #0]
 8005f96:	0752      	lsls	r2, r2, #29
 8005f98:	4623      	mov	r3, r4
 8005f9a:	d5ca      	bpl.n	8005f32 <HAL_UART_Transmit+0x5e>
        if (__HAL_UART_GET_FLAG(huart, UART_FLAG_RTOF) == SET)
 8005f9c:	69e2      	ldr	r2, [r4, #28]
 8005f9e:	0510      	lsls	r0, r2, #20
 8005fa0:	d5c7      	bpl.n	8005f32 <HAL_UART_Transmit+0x5e>
          __HAL_UART_CLEAR_FLAG(huart, UART_CLEAR_RTOF);
 8005fa2:	f44f 6200 	mov.w	r2, #2048	; 0x800
 8005fa6:	6222      	str	r2, [r4, #32]
   __ASM volatile ("ldrex %0, %1" : "=r" (result) : "Q" (*addr) );
 8005fa8:	e854 2f00 	ldrex	r2, [r4]
          ATOMIC_CLEAR_BIT(huart->Instance->CR1, (USART_CR1_RXNEIE | USART_CR1_PEIE | USART_CR1_TXEIE));
 8005fac:	f422 72d0 	bic.w	r2, r2, #416	; 0x1a0
   __ASM volatile ("strex %0, %2, %1" : "=&r" (result), "=Q" (*addr) : "r" (value) );
 8005fb0:	e844 2100 	strex	r1, r2, [r4]
 8005fb4:	b139      	cbz	r1, 8005fc6 <HAL_UART_Transmit+0xf2>
   __ASM volatile ("ldrex %0, %1" : "=r" (result) : "Q" (*addr) );
 8005fb6:	e853 2f00 	ldrex	r2, [r3]
 8005fba:	f422 72d0 	bic.w	r2, r2, #416	; 0x1a0
   __ASM volatile ("strex %0, %2, %1" : "=&r" (result), "=Q" (*addr) : "r" (value) );
 8005fbe:	e843 2100 	strex	r1, r2, [r3]
 8005fc2:	2900      	cmp	r1, #0
 8005fc4:	d1f7      	bne.n	8005fb6 <HAL_UART_Transmit+0xe2>
   __ASM volatile ("ldrex %0, %1" : "=r" (result) : "Q" (*addr) );
 8005fc6:	f103 0208 	add.w	r2, r3, #8
 8005fca:	e852 2f00 	ldrex	r2, [r2]
          ATOMIC_CLEAR_BIT(huart->Instance->CR3, USART_CR3_EIE);
 8005fce:	f022 0201 	bic.w	r2, r2, #1
   __ASM volatile ("strex %0, %2, %1" : "=&r" (result), "=Q" (*addr) : "r" (value) );
 8005fd2:	f103 0008 	add.w	r0, r3, #8
 8005fd6:	e840 2100 	strex	r1, r2, [r0]
 8005fda:	2900      	cmp	r1, #0
 8005fdc:	d1f3      	bne.n	8005fc6 <HAL_UART_Transmit+0xf2>
          huart->gState = HAL_UART_STATE_READY;
 8005fde:	2320      	movs	r3, #32
 8005fe0:	67ab      	str	r3, [r5, #120]	; 0x78
          __HAL_UNLOCK(huart);
 8005fe2:	f885 1074 	strb.w	r1, [r5, #116]	; 0x74
          huart->RxState = HAL_UART_STATE_READY;
 8005fe6:	67eb      	str	r3, [r5, #124]	; 0x7c
        return HAL_TIMEOUT;
 8005fe8:	2003      	movs	r0, #3
          huart->ErrorCode = HAL_UART_ERROR_RTO;
 8005fea:	f8c5 3080 	str.w	r3, [r5, #128]	; 0x80
          return HAL_TIMEOUT;
 8005fee:	e7c3      	b.n	8005f78 <HAL_UART_Transmit+0xa4>
        huart->Instance->TDR = (uint16_t)(*pdata16bits & 0x01FFU);
 8005ff0:	f838 3b02 	ldrh.w	r3, [r8], #2
 8005ff4:	f3c3 0308 	ubfx	r3, r3, #0, #9
 8005ff8:	e7a5      	b.n	8005f46 <HAL_UART_Transmit+0x72>
    return HAL_BUSY;
 8005ffa:	2002      	movs	r0, #2
}
 8005ffc:	b003      	add	sp, #12
 8005ffe:	e8bd 83f0 	ldmia.w	sp!, {r4, r5, r6, r7, r8, r9, pc}
    if ((huart->Init.WordLength == UART_WORDLENGTH_9B) && (huart->Init.Parity == UART_PARITY_NONE))
 8006002:	692b      	ldr	r3, [r5, #16]
 8006004:	2b00      	cmp	r3, #0
 8006006:	d18c      	bne.n	8005f22 <HAL_UART_Transmit+0x4e>
 8006008:	46c8      	mov	r8, r9
      pdata8bits  = NULL;
 800600a:	4699      	mov	r9, r3
 800600c:	e789      	b.n	8005f22 <HAL_UART_Transmit+0x4e>
 800600e:	682b      	ldr	r3, [r5, #0]
   __ASM volatile ("ldrex %0, %1" : "=r" (result) : "Q" (*addr) );
 8006010:	e853 2f00 	ldrex	r2, [r3]
        ATOMIC_CLEAR_BIT(huart->Instance->CR1, (USART_CR1_RXNEIE | USART_CR1_PEIE | USART_CR1_TXEIE));
 8006014:	f422 72d0 	bic.w	r2, r2, #416	; 0x1a0
   __ASM volatile ("strex %0, %2, %1" : "=&r" (result), "=Q" (*addr) : "r" (value) );
 8006018:	e843 2100 	strex	r1, r2, [r3]
 800601c:	2900      	cmp	r1, #0
 800601e:	d1f7      	bne.n	8006010 <HAL_UART_Transmit+0x13c>
   __ASM volatile ("ldrex %0, %1" : "=r" (result) : "Q" (*addr) );
 8006020:	f103 0208 	add.w	r2, r3, #8
 8006024:	e852 2f00 	ldrex	r2, [r2]
        ATOMIC_CLEAR_BIT(huart->Instance->CR3, USART_CR3_EIE);
 8006028:	f022 0201 	bic.w	r2, r2, #1
   __ASM volatile ("strex %0, %2, %1" : "=&r" (result), "=Q" (*addr) : "r" (value) );
 800602c:	f103 0008 	add.w	r0, r3, #8
 8006030:	e840 2100 	strex	r1, r2, [r0]
 8006034:	2900      	cmp	r1, #0
 8006036:	d1f3      	bne.n	8006020 <HAL_UART_Transmit+0x14c>
        huart->gState = HAL_UART_STATE_READY;
 8006038:	2320      	movs	r3, #32
        return HAL_TIMEOUT;
 800603a:	2003      	movs	r0, #3
        huart->gState = HAL_UART_STATE_READY;
 800603c:	67ab      	str	r3, [r5, #120]	; 0x78
        __HAL_UNLOCK(huart);
 800603e:	f885 1074 	strb.w	r1, [r5, #116]	; 0x74
        huart->RxState = HAL_UART_STATE_READY;
 8006042:	67eb      	str	r3, [r5, #124]	; 0x7c
}
 8006044:	b003      	add	sp, #12
 8006046:	e8bd 83f0 	ldmia.w	sp!, {r4, r5, r6, r7, r8, r9, pc}
      return HAL_TIMEOUT;
 800604a:	2003      	movs	r0, #3
 800604c:	e794      	b.n	8005f78 <HAL_UART_Transmit+0xa4>
 800604e:	bf00      	nop

08006050 <HAL_UART_Init>:
  if (huart == NULL)
 8006050:	2800      	cmp	r0, #0
 8006052:	d062      	beq.n	800611a <HAL_UART_Init+0xca>
{
 8006054:	b570      	push	{r4, r5, r6, lr}
  if (huart->gState == HAL_UART_STATE_RESET)
 8006056:	6f83      	ldr	r3, [r0, #120]	; 0x78
{
 8006058:	b082      	sub	sp, #8
 800605a:	4604      	mov	r4, r0
  if (huart->gState == HAL_UART_STATE_RESET)
 800605c:	2b00      	cmp	r3, #0
 800605e:	d049      	beq.n	80060f4 <HAL_UART_Init+0xa4>
  __HAL_UART_DISABLE(huart);
 8006060:	6822      	ldr	r2, [r4, #0]
  huart->gState = HAL_UART_STATE_BUSY;
 8006062:	2324      	movs	r3, #36	; 0x24
 8006064:	67a3      	str	r3, [r4, #120]	; 0x78
  __HAL_UART_DISABLE(huart);
 8006066:	6813      	ldr	r3, [r2, #0]
 8006068:	f023 0301 	bic.w	r3, r3, #1
  if (UART_SetConfig(huart) == HAL_ERROR)
 800606c:	4620      	mov	r0, r4
  __HAL_UART_DISABLE(huart);
 800606e:	6013      	str	r3, [r2, #0]
  if (UART_SetConfig(huart) == HAL_ERROR)
 8006070:	f7ff fd38 	bl	8005ae4 <UART_SetConfig>
 8006074:	2801      	cmp	r0, #1
 8006076:	d03a      	beq.n	80060ee <HAL_UART_Init+0x9e>
  if (huart->AdvancedInit.AdvFeatureInit != UART_ADVFEATURE_NO_INIT)
 8006078:	6a63      	ldr	r3, [r4, #36]	; 0x24
 800607a:	2b00      	cmp	r3, #0
 800607c:	d133      	bne.n	80060e6 <HAL_UART_Init+0x96>
  CLEAR_BIT(huart->Instance->CR2, (USART_CR2_LINEN | USART_CR2_CLKEN));
 800607e:	6823      	ldr	r3, [r4, #0]
 8006080:	6859      	ldr	r1, [r3, #4]
 8006082:	f421 4190 	bic.w	r1, r1, #18432	; 0x4800
 8006086:	6059      	str	r1, [r3, #4]
  CLEAR_BIT(huart->Instance->CR3, (USART_CR3_SCEN | USART_CR3_HDSEL | USART_CR3_IREN));
 8006088:	6899      	ldr	r1, [r3, #8]
 800608a:	f021 012a 	bic.w	r1, r1, #42	; 0x2a
 800608e:	6099      	str	r1, [r3, #8]
  __HAL_UART_ENABLE(huart);
 8006090:	6819      	ldr	r1, [r3, #0]
  huart->ErrorCode = HAL_UART_ERROR_NONE;
 8006092:	2500      	movs	r5, #0
  __HAL_UART_ENABLE(huart);
 8006094:	f041 0101 	orr.w	r1, r1, #1
 8006098:	6019      	str	r1, [r3, #0]
  huart->ErrorCode = HAL_UART_ERROR_NONE;
 800609a:	f8c4 5080 	str.w	r5, [r4, #128]	; 0x80
  tickstart = HAL_GetTick();
 800609e:	f7fc fae7 	bl	8002670 <HAL_GetTick>
  if ((huart->Instance->CR1 & USART_CR1_TE) == USART_CR1_TE)
 80060a2:	6823      	ldr	r3, [r4, #0]
 80060a4:	681a      	ldr	r2, [r3, #0]
 80060a6:	0712      	lsls	r2, r2, #28
  tickstart = HAL_GetTick();
 80060a8:	4606      	mov	r6, r0
  if ((huart->Instance->CR1 & USART_CR1_TE) == USART_CR1_TE)
 80060aa:	d40c      	bmi.n	80060c6 <HAL_UART_Init+0x76>
  if ((huart->Instance->CR1 & USART_CR1_RE) == USART_CR1_RE)
 80060ac:	681b      	ldr	r3, [r3, #0]
 80060ae:	075b      	lsls	r3, r3, #29
 80060b0:	d425      	bmi.n	80060fe <HAL_UART_Init+0xae>
  huart->ReceptionType = HAL_UART_RECEPTION_STANDARD;
 80060b2:	2300      	movs	r3, #0
  huart->gState = HAL_UART_STATE_READY;
 80060b4:	2220      	movs	r2, #32
 80060b6:	67a2      	str	r2, [r4, #120]	; 0x78
  __HAL_UNLOCK(huart);
 80060b8:	f884 3074 	strb.w	r3, [r4, #116]	; 0x74
  huart->RxState = HAL_UART_STATE_READY;
 80060bc:	67e2      	str	r2, [r4, #124]	; 0x7c
  return HAL_OK;
 80060be:	4618      	mov	r0, r3
  huart->ReceptionType = HAL_UART_RECEPTION_STANDARD;
 80060c0:	6623      	str	r3, [r4, #96]	; 0x60
}
 80060c2:	b002      	add	sp, #8
 80060c4:	bd70      	pop	{r4, r5, r6, pc}
    if (UART_WaitOnFlagUntilTimeout(huart, USART_ISR_TEACK, RESET, tickstart, HAL_UART_TIMEOUT_VALUE) != HAL_OK)
 80060c6:	f06f 437e 	mvn.w	r3, #4261412864	; 0xfe000000
 80060ca:	9300      	str	r3, [sp, #0]
 80060cc:	462a      	mov	r2, r5
 80060ce:	4603      	mov	r3, r0
 80060d0:	f44f 1100 	mov.w	r1, #2097152	; 0x200000
 80060d4:	4620      	mov	r0, r4
 80060d6:	f7ff fe89 	bl	8005dec <UART_WaitOnFlagUntilTimeout>
 80060da:	b9e0      	cbnz	r0, 8006116 <HAL_UART_Init+0xc6>
  if ((huart->Instance->CR1 & USART_CR1_RE) == USART_CR1_RE)
 80060dc:	6823      	ldr	r3, [r4, #0]
 80060de:	681b      	ldr	r3, [r3, #0]
 80060e0:	075b      	lsls	r3, r3, #29
 80060e2:	d40c      	bmi.n	80060fe <HAL_UART_Init+0xae>
 80060e4:	e7e5      	b.n	80060b2 <HAL_UART_Init+0x62>
    UART_AdvFeatureConfig(huart);
 80060e6:	4620      	mov	r0, r4
 80060e8:	f7ff fe28 	bl	8005d3c <UART_AdvFeatureConfig>
 80060ec:	e7c7      	b.n	800607e <HAL_UART_Init+0x2e>
    return HAL_ERROR;
 80060ee:	2001      	movs	r0, #1
}
 80060f0:	b002      	add	sp, #8
 80060f2:	bd70      	pop	{r4, r5, r6, pc}
    huart->Lock = HAL_UNLOCKED;
 80060f4:	f880 3074 	strb.w	r3, [r0, #116]	; 0x74
    HAL_UART_MspInit(huart);
 80060f8:	f7fc fa12 	bl	8002520 <HAL_UART_MspInit>
 80060fc:	e7b0      	b.n	8006060 <HAL_UART_Init+0x10>
    if (UART_WaitOnFlagUntilTimeout(huart, USART_ISR_REACK, RESET, tickstart, HAL_UART_TIMEOUT_VALUE) != HAL_OK)
 80060fe:	f06f 437e 	mvn.w	r3, #4261412864	; 0xfe000000
 8006102:	9300      	str	r3, [sp, #0]
 8006104:	2200      	movs	r2, #0
 8006106:	4633      	mov	r3, r6
 8006108:	f44f 0180 	mov.w	r1, #4194304	; 0x400000
 800610c:	4620      	mov	r0, r4
 800610e:	f7ff fe6d 	bl	8005dec <UART_WaitOnFlagUntilTimeout>
 8006112:	2800      	cmp	r0, #0
 8006114:	d0cd      	beq.n	80060b2 <HAL_UART_Init+0x62>
      return HAL_TIMEOUT;
 8006116:	2003      	movs	r0, #3
 8006118:	e7d3      	b.n	80060c2 <HAL_UART_Init+0x72>
    return HAL_ERROR;
 800611a:	2001      	movs	r0, #1
}
 800611c:	4770      	bx	lr
 800611e:	bf00      	nop

08006120 <HAL_UARTEx_WakeupCallback>:
  UNUSED(huart);

  /* NOTE : This function should not be modified, when the callback is needed,
            the HAL_UARTEx_WakeupCallback can be implemented in the user file.
   */
}
 8006120:	4770      	bx	lr
 8006122:	bf00      	nop
 8006124:	0000      	movs	r0, r0
	...

08006128 <sin>:
 8006128:	b51f      	push	{r0, r1, r2, r3, r4, lr}
 800612a:	ec53 2b10 	vmov	r2, r3, d0
 800612e:	4828      	ldr	r0, [pc, #160]	; (80061d0 <sin+0xa8>)
 8006130:	f023 4100 	bic.w	r1, r3, #2147483648	; 0x80000000
 8006134:	4281      	cmp	r1, r0
 8006136:	dc07      	bgt.n	8006148 <sin+0x20>
 8006138:	ed9f 1b23 	vldr	d1, [pc, #140]	; 80061c8 <sin+0xa0>
 800613c:	2000      	movs	r0, #0
 800613e:	b005      	add	sp, #20
 8006140:	f85d eb04 	ldr.w	lr, [sp], #4
 8006144:	f000 be6c 	b.w	8006e20 <__kernel_sin>
 8006148:	4822      	ldr	r0, [pc, #136]	; (80061d4 <sin+0xac>)
 800614a:	4281      	cmp	r1, r0
 800614c:	dd09      	ble.n	8006162 <sin+0x3a>
 800614e:	ee10 0a10 	vmov	r0, s0
 8006152:	4619      	mov	r1, r3
 8006154:	f7fa f898 	bl	8000288 <__aeabi_dsub>
 8006158:	ec41 0b10 	vmov	d0, r0, r1
 800615c:	b005      	add	sp, #20
 800615e:	f85d fb04 	ldr.w	pc, [sp], #4
 8006162:	4668      	mov	r0, sp
 8006164:	f000 f838 	bl	80061d8 <__ieee754_rem_pio2>
 8006168:	f000 0003 	and.w	r0, r0, #3
 800616c:	2801      	cmp	r0, #1
 800616e:	d00c      	beq.n	800618a <sin+0x62>
 8006170:	2802      	cmp	r0, #2
 8006172:	d011      	beq.n	8006198 <sin+0x70>
 8006174:	b9f0      	cbnz	r0, 80061b4 <sin+0x8c>
 8006176:	ed9d 1b02 	vldr	d1, [sp, #8]
 800617a:	ed9d 0b00 	vldr	d0, [sp]
 800617e:	2001      	movs	r0, #1
 8006180:	f000 fe4e 	bl	8006e20 <__kernel_sin>
 8006184:	ec51 0b10 	vmov	r0, r1, d0
 8006188:	e7e6      	b.n	8006158 <sin+0x30>
 800618a:	ed9d 1b02 	vldr	d1, [sp, #8]
 800618e:	ed9d 0b00 	vldr	d0, [sp]
 8006192:	f000 fa2d 	bl	80065f0 <__kernel_cos>
 8006196:	e7f5      	b.n	8006184 <sin+0x5c>
 8006198:	ed9d 1b02 	vldr	d1, [sp, #8]
 800619c:	ed9d 0b00 	vldr	d0, [sp]
 80061a0:	2001      	movs	r0, #1
 80061a2:	f000 fe3d 	bl	8006e20 <__kernel_sin>
 80061a6:	ec53 2b10 	vmov	r2, r3, d0
 80061aa:	ee10 0a10 	vmov	r0, s0
 80061ae:	f103 4100 	add.w	r1, r3, #2147483648	; 0x80000000
 80061b2:	e7d1      	b.n	8006158 <sin+0x30>
 80061b4:	ed9d 1b02 	vldr	d1, [sp, #8]
 80061b8:	ed9d 0b00 	vldr	d0, [sp]
 80061bc:	f000 fa18 	bl	80065f0 <__kernel_cos>
 80061c0:	e7f1      	b.n	80061a6 <sin+0x7e>
 80061c2:	bf00      	nop
 80061c4:	f3af 8000 	nop.w
	...
 80061d0:	3fe921fb 	.word	0x3fe921fb
 80061d4:	7fefffff 	.word	0x7fefffff

080061d8 <__ieee754_rem_pio2>:
 80061d8:	e92d 4ff0 	stmdb	sp!, {r4, r5, r6, r7, r8, r9, sl, fp, lr}
 80061dc:	ed2d 8b02 	vpush	{d8}
 80061e0:	ec55 4b10 	vmov	r4, r5, d0
 80061e4:	4bca      	ldr	r3, [pc, #808]	; (8006510 <__ieee754_rem_pio2+0x338>)
 80061e6:	b08b      	sub	sp, #44	; 0x2c
 80061e8:	f025 4800 	bic.w	r8, r5, #2147483648	; 0x80000000
 80061ec:	4598      	cmp	r8, r3
 80061ee:	4682      	mov	sl, r0
 80061f0:	9502      	str	r5, [sp, #8]
 80061f2:	dc08      	bgt.n	8006206 <__ieee754_rem_pio2+0x2e>
 80061f4:	2200      	movs	r2, #0
 80061f6:	2300      	movs	r3, #0
 80061f8:	ed80 0b00 	vstr	d0, [r0]
 80061fc:	e9c0 2302 	strd	r2, r3, [r0, #8]
 8006200:	f04f 0b00 	mov.w	fp, #0
 8006204:	e028      	b.n	8006258 <__ieee754_rem_pio2+0x80>
 8006206:	4bc3      	ldr	r3, [pc, #780]	; (8006514 <__ieee754_rem_pio2+0x33c>)
 8006208:	4598      	cmp	r8, r3
 800620a:	dc78      	bgt.n	80062fe <__ieee754_rem_pio2+0x126>
 800620c:	9b02      	ldr	r3, [sp, #8]
 800620e:	4ec2      	ldr	r6, [pc, #776]	; (8006518 <__ieee754_rem_pio2+0x340>)
 8006210:	2b00      	cmp	r3, #0
 8006212:	ee10 0a10 	vmov	r0, s0
 8006216:	a3b0      	add	r3, pc, #704	; (adr r3, 80064d8 <__ieee754_rem_pio2+0x300>)
 8006218:	e9d3 2300 	ldrd	r2, r3, [r3]
 800621c:	4629      	mov	r1, r5
 800621e:	dd39      	ble.n	8006294 <__ieee754_rem_pio2+0xbc>
 8006220:	f7fa f832 	bl	8000288 <__aeabi_dsub>
 8006224:	45b0      	cmp	r8, r6
 8006226:	4604      	mov	r4, r0
 8006228:	460d      	mov	r5, r1
 800622a:	d01b      	beq.n	8006264 <__ieee754_rem_pio2+0x8c>
 800622c:	a3ac      	add	r3, pc, #688	; (adr r3, 80064e0 <__ieee754_rem_pio2+0x308>)
 800622e:	e9d3 2300 	ldrd	r2, r3, [r3]
 8006232:	f7fa f829 	bl	8000288 <__aeabi_dsub>
 8006236:	4602      	mov	r2, r0
 8006238:	460b      	mov	r3, r1
 800623a:	e9ca 2300 	strd	r2, r3, [sl]
 800623e:	4620      	mov	r0, r4
 8006240:	4629      	mov	r1, r5
 8006242:	f7fa f821 	bl	8000288 <__aeabi_dsub>
 8006246:	a3a6      	add	r3, pc, #664	; (adr r3, 80064e0 <__ieee754_rem_pio2+0x308>)
 8006248:	e9d3 2300 	ldrd	r2, r3, [r3]
 800624c:	f7fa f81c 	bl	8000288 <__aeabi_dsub>
 8006250:	e9ca 0102 	strd	r0, r1, [sl, #8]
 8006254:	f04f 0b01 	mov.w	fp, #1
 8006258:	4658      	mov	r0, fp
 800625a:	b00b      	add	sp, #44	; 0x2c
 800625c:	ecbd 8b02 	vpop	{d8}
 8006260:	e8bd 8ff0 	ldmia.w	sp!, {r4, r5, r6, r7, r8, r9, sl, fp, pc}
 8006264:	a3a0      	add	r3, pc, #640	; (adr r3, 80064e8 <__ieee754_rem_pio2+0x310>)
 8006266:	e9d3 2300 	ldrd	r2, r3, [r3]
 800626a:	f7fa f80d 	bl	8000288 <__aeabi_dsub>
 800626e:	a3a0      	add	r3, pc, #640	; (adr r3, 80064f0 <__ieee754_rem_pio2+0x318>)
 8006270:	e9d3 2300 	ldrd	r2, r3, [r3]
 8006274:	4604      	mov	r4, r0
 8006276:	460d      	mov	r5, r1
 8006278:	f7fa f806 	bl	8000288 <__aeabi_dsub>
 800627c:	4602      	mov	r2, r0
 800627e:	460b      	mov	r3, r1
 8006280:	e9ca 2300 	strd	r2, r3, [sl]
 8006284:	4620      	mov	r0, r4
 8006286:	4629      	mov	r1, r5
 8006288:	f7f9 fffe 	bl	8000288 <__aeabi_dsub>
 800628c:	a398      	add	r3, pc, #608	; (adr r3, 80064f0 <__ieee754_rem_pio2+0x318>)
 800628e:	e9d3 2300 	ldrd	r2, r3, [r3]
 8006292:	e7db      	b.n	800624c <__ieee754_rem_pio2+0x74>
 8006294:	f7f9 fffa 	bl	800028c <__adddf3>
 8006298:	45b0      	cmp	r8, r6
 800629a:	4604      	mov	r4, r0
 800629c:	460d      	mov	r5, r1
 800629e:	d016      	beq.n	80062ce <__ieee754_rem_pio2+0xf6>
 80062a0:	a38f      	add	r3, pc, #572	; (adr r3, 80064e0 <__ieee754_rem_pio2+0x308>)
 80062a2:	e9d3 2300 	ldrd	r2, r3, [r3]
 80062a6:	f7f9 fff1 	bl	800028c <__adddf3>
 80062aa:	4602      	mov	r2, r0
 80062ac:	460b      	mov	r3, r1
 80062ae:	e9ca 2300 	strd	r2, r3, [sl]
 80062b2:	4620      	mov	r0, r4
 80062b4:	4629      	mov	r1, r5
 80062b6:	f7f9 ffe7 	bl	8000288 <__aeabi_dsub>
 80062ba:	a389      	add	r3, pc, #548	; (adr r3, 80064e0 <__ieee754_rem_pio2+0x308>)
 80062bc:	e9d3 2300 	ldrd	r2, r3, [r3]
 80062c0:	f7f9 ffe4 	bl	800028c <__adddf3>
 80062c4:	f04f 3bff 	mov.w	fp, #4294967295
 80062c8:	e9ca 0102 	strd	r0, r1, [sl, #8]
 80062cc:	e7c4      	b.n	8006258 <__ieee754_rem_pio2+0x80>
 80062ce:	a386      	add	r3, pc, #536	; (adr r3, 80064e8 <__ieee754_rem_pio2+0x310>)
 80062d0:	e9d3 2300 	ldrd	r2, r3, [r3]
 80062d4:	f7f9 ffda 	bl	800028c <__adddf3>
 80062d8:	a385      	add	r3, pc, #532	; (adr r3, 80064f0 <__ieee754_rem_pio2+0x318>)
 80062da:	e9d3 2300 	ldrd	r2, r3, [r3]
 80062de:	4604      	mov	r4, r0
 80062e0:	460d      	mov	r5, r1
 80062e2:	f7f9 ffd3 	bl	800028c <__adddf3>
 80062e6:	4602      	mov	r2, r0
 80062e8:	460b      	mov	r3, r1
 80062ea:	e9ca 2300 	strd	r2, r3, [sl]
 80062ee:	4620      	mov	r0, r4
 80062f0:	4629      	mov	r1, r5
 80062f2:	f7f9 ffc9 	bl	8000288 <__aeabi_dsub>
 80062f6:	a37e      	add	r3, pc, #504	; (adr r3, 80064f0 <__ieee754_rem_pio2+0x318>)
 80062f8:	e9d3 2300 	ldrd	r2, r3, [r3]
 80062fc:	e7e0      	b.n	80062c0 <__ieee754_rem_pio2+0xe8>
 80062fe:	4b87      	ldr	r3, [pc, #540]	; (800651c <__ieee754_rem_pio2+0x344>)
 8006300:	4598      	cmp	r8, r3
 8006302:	f300 80d9 	bgt.w	80064b8 <__ieee754_rem_pio2+0x2e0>
 8006306:	f000 fe49 	bl	8006f9c <fabs>
 800630a:	ec55 4b10 	vmov	r4, r5, d0
 800630e:	ee10 0a10 	vmov	r0, s0
 8006312:	a379      	add	r3, pc, #484	; (adr r3, 80064f8 <__ieee754_rem_pio2+0x320>)
 8006314:	e9d3 2300 	ldrd	r2, r3, [r3]
 8006318:	4629      	mov	r1, r5
 800631a:	f7fa f96d 	bl	80005f8 <__aeabi_dmul>
 800631e:	4b80      	ldr	r3, [pc, #512]	; (8006520 <__ieee754_rem_pio2+0x348>)
 8006320:	2200      	movs	r2, #0
 8006322:	f7f9 ffb3 	bl	800028c <__adddf3>
 8006326:	f7fa fc17 	bl	8000b58 <__aeabi_d2iz>
 800632a:	4683      	mov	fp, r0
 800632c:	f7fa f8fa 	bl	8000524 <__aeabi_i2d>
 8006330:	4602      	mov	r2, r0
 8006332:	460b      	mov	r3, r1
 8006334:	ec43 2b18 	vmov	d8, r2, r3
 8006338:	a367      	add	r3, pc, #412	; (adr r3, 80064d8 <__ieee754_rem_pio2+0x300>)
 800633a:	e9d3 2300 	ldrd	r2, r3, [r3]
 800633e:	f7fa f95b 	bl	80005f8 <__aeabi_dmul>
 8006342:	4602      	mov	r2, r0
 8006344:	460b      	mov	r3, r1
 8006346:	4620      	mov	r0, r4
 8006348:	4629      	mov	r1, r5
 800634a:	f7f9 ff9d 	bl	8000288 <__aeabi_dsub>
 800634e:	a364      	add	r3, pc, #400	; (adr r3, 80064e0 <__ieee754_rem_pio2+0x308>)
 8006350:	e9d3 2300 	ldrd	r2, r3, [r3]
 8006354:	4606      	mov	r6, r0
 8006356:	460f      	mov	r7, r1
 8006358:	ec51 0b18 	vmov	r0, r1, d8
 800635c:	f7fa f94c 	bl	80005f8 <__aeabi_dmul>
 8006360:	f1bb 0f1f 	cmp.w	fp, #31
 8006364:	4604      	mov	r4, r0
 8006366:	460d      	mov	r5, r1
 8006368:	dc0d      	bgt.n	8006386 <__ieee754_rem_pio2+0x1ae>
 800636a:	4b6e      	ldr	r3, [pc, #440]	; (8006524 <__ieee754_rem_pio2+0x34c>)
 800636c:	f10b 32ff 	add.w	r2, fp, #4294967295
 8006370:	f853 3022 	ldr.w	r3, [r3, r2, lsl #2]
 8006374:	4543      	cmp	r3, r8
 8006376:	d006      	beq.n	8006386 <__ieee754_rem_pio2+0x1ae>
 8006378:	4622      	mov	r2, r4
 800637a:	462b      	mov	r3, r5
 800637c:	4630      	mov	r0, r6
 800637e:	4639      	mov	r1, r7
 8006380:	f7f9 ff82 	bl	8000288 <__aeabi_dsub>
 8006384:	e00f      	b.n	80063a6 <__ieee754_rem_pio2+0x1ce>
 8006386:	462b      	mov	r3, r5
 8006388:	4622      	mov	r2, r4
 800638a:	4630      	mov	r0, r6
 800638c:	4639      	mov	r1, r7
 800638e:	f7f9 ff7b 	bl	8000288 <__aeabi_dsub>
 8006392:	ea4f 5328 	mov.w	r3, r8, asr #20
 8006396:	9303      	str	r3, [sp, #12]
 8006398:	f3c1 530a 	ubfx	r3, r1, #20, #11
 800639c:	ebc3 5818 	rsb	r8, r3, r8, lsr #20
 80063a0:	f1b8 0f10 	cmp.w	r8, #16
 80063a4:	dc02      	bgt.n	80063ac <__ieee754_rem_pio2+0x1d4>
 80063a6:	e9ca 0100 	strd	r0, r1, [sl]
 80063aa:	e039      	b.n	8006420 <__ieee754_rem_pio2+0x248>
 80063ac:	a34e      	add	r3, pc, #312	; (adr r3, 80064e8 <__ieee754_rem_pio2+0x310>)
 80063ae:	e9d3 2300 	ldrd	r2, r3, [r3]
 80063b2:	ec51 0b18 	vmov	r0, r1, d8
 80063b6:	f7fa f91f 	bl	80005f8 <__aeabi_dmul>
 80063ba:	4604      	mov	r4, r0
 80063bc:	460d      	mov	r5, r1
 80063be:	4602      	mov	r2, r0
 80063c0:	460b      	mov	r3, r1
 80063c2:	4630      	mov	r0, r6
 80063c4:	4639      	mov	r1, r7
 80063c6:	f7f9 ff5f 	bl	8000288 <__aeabi_dsub>
 80063ca:	4602      	mov	r2, r0
 80063cc:	460b      	mov	r3, r1
 80063ce:	4680      	mov	r8, r0
 80063d0:	4689      	mov	r9, r1
 80063d2:	4630      	mov	r0, r6
 80063d4:	4639      	mov	r1, r7
 80063d6:	f7f9 ff57 	bl	8000288 <__aeabi_dsub>
 80063da:	4622      	mov	r2, r4
 80063dc:	462b      	mov	r3, r5
 80063de:	f7f9 ff53 	bl	8000288 <__aeabi_dsub>
 80063e2:	a343      	add	r3, pc, #268	; (adr r3, 80064f0 <__ieee754_rem_pio2+0x318>)
 80063e4:	e9d3 2300 	ldrd	r2, r3, [r3]
 80063e8:	4604      	mov	r4, r0
 80063ea:	460d      	mov	r5, r1
 80063ec:	ec51 0b18 	vmov	r0, r1, d8
 80063f0:	f7fa f902 	bl	80005f8 <__aeabi_dmul>
 80063f4:	4622      	mov	r2, r4
 80063f6:	462b      	mov	r3, r5
 80063f8:	f7f9 ff46 	bl	8000288 <__aeabi_dsub>
 80063fc:	4602      	mov	r2, r0
 80063fe:	460b      	mov	r3, r1
 8006400:	4604      	mov	r4, r0
 8006402:	460d      	mov	r5, r1
 8006404:	4640      	mov	r0, r8
 8006406:	4649      	mov	r1, r9
 8006408:	f7f9 ff3e 	bl	8000288 <__aeabi_dsub>
 800640c:	9a03      	ldr	r2, [sp, #12]
 800640e:	f3c1 530a 	ubfx	r3, r1, #20, #11
 8006412:	1ad3      	subs	r3, r2, r3
 8006414:	2b31      	cmp	r3, #49	; 0x31
 8006416:	dc24      	bgt.n	8006462 <__ieee754_rem_pio2+0x28a>
 8006418:	e9ca 0100 	strd	r0, r1, [sl]
 800641c:	4646      	mov	r6, r8
 800641e:	464f      	mov	r7, r9
 8006420:	e9da 8900 	ldrd	r8, r9, [sl]
 8006424:	4630      	mov	r0, r6
 8006426:	4642      	mov	r2, r8
 8006428:	464b      	mov	r3, r9
 800642a:	4639      	mov	r1, r7
 800642c:	f7f9 ff2c 	bl	8000288 <__aeabi_dsub>
 8006430:	462b      	mov	r3, r5
 8006432:	4622      	mov	r2, r4
 8006434:	f7f9 ff28 	bl	8000288 <__aeabi_dsub>
 8006438:	9b02      	ldr	r3, [sp, #8]
 800643a:	2b00      	cmp	r3, #0
 800643c:	e9ca 0102 	strd	r0, r1, [sl, #8]
 8006440:	f6bf af0a 	bge.w	8006258 <__ieee754_rem_pio2+0x80>
 8006444:	f109 4300 	add.w	r3, r9, #2147483648	; 0x80000000
 8006448:	f8ca 3004 	str.w	r3, [sl, #4]
 800644c:	f101 4300 	add.w	r3, r1, #2147483648	; 0x80000000
 8006450:	f8ca 8000 	str.w	r8, [sl]
 8006454:	f8ca 0008 	str.w	r0, [sl, #8]
 8006458:	f8ca 300c 	str.w	r3, [sl, #12]
 800645c:	f1cb 0b00 	rsb	fp, fp, #0
 8006460:	e6fa      	b.n	8006258 <__ieee754_rem_pio2+0x80>
 8006462:	a327      	add	r3, pc, #156	; (adr r3, 8006500 <__ieee754_rem_pio2+0x328>)
 8006464:	e9d3 2300 	ldrd	r2, r3, [r3]
 8006468:	ec51 0b18 	vmov	r0, r1, d8
 800646c:	f7fa f8c4 	bl	80005f8 <__aeabi_dmul>
 8006470:	4604      	mov	r4, r0
 8006472:	460d      	mov	r5, r1
 8006474:	4602      	mov	r2, r0
 8006476:	460b      	mov	r3, r1
 8006478:	4640      	mov	r0, r8
 800647a:	4649      	mov	r1, r9
 800647c:	f7f9 ff04 	bl	8000288 <__aeabi_dsub>
 8006480:	4602      	mov	r2, r0
 8006482:	460b      	mov	r3, r1
 8006484:	4606      	mov	r6, r0
 8006486:	460f      	mov	r7, r1
 8006488:	4640      	mov	r0, r8
 800648a:	4649      	mov	r1, r9
 800648c:	f7f9 fefc 	bl	8000288 <__aeabi_dsub>
 8006490:	4622      	mov	r2, r4
 8006492:	462b      	mov	r3, r5
 8006494:	f7f9 fef8 	bl	8000288 <__aeabi_dsub>
 8006498:	a31b      	add	r3, pc, #108	; (adr r3, 8006508 <__ieee754_rem_pio2+0x330>)
 800649a:	e9d3 2300 	ldrd	r2, r3, [r3]
 800649e:	4604      	mov	r4, r0
 80064a0:	460d      	mov	r5, r1
 80064a2:	ec51 0b18 	vmov	r0, r1, d8
 80064a6:	f7fa f8a7 	bl	80005f8 <__aeabi_dmul>
 80064aa:	4622      	mov	r2, r4
 80064ac:	462b      	mov	r3, r5
 80064ae:	f7f9 feeb 	bl	8000288 <__aeabi_dsub>
 80064b2:	4604      	mov	r4, r0
 80064b4:	460d      	mov	r5, r1
 80064b6:	e75f      	b.n	8006378 <__ieee754_rem_pio2+0x1a0>
 80064b8:	4b1b      	ldr	r3, [pc, #108]	; (8006528 <__ieee754_rem_pio2+0x350>)
 80064ba:	4598      	cmp	r8, r3
 80064bc:	dd36      	ble.n	800652c <__ieee754_rem_pio2+0x354>
 80064be:	ee10 2a10 	vmov	r2, s0
 80064c2:	462b      	mov	r3, r5
 80064c4:	4620      	mov	r0, r4
 80064c6:	4629      	mov	r1, r5
 80064c8:	f7f9 fede 	bl	8000288 <__aeabi_dsub>
 80064cc:	e9ca 0102 	strd	r0, r1, [sl, #8]
 80064d0:	e9ca 0100 	strd	r0, r1, [sl]
 80064d4:	e694      	b.n	8006200 <__ieee754_rem_pio2+0x28>
 80064d6:	bf00      	nop
 80064d8:	54400000 	.word	0x54400000
 80064dc:	3ff921fb 	.word	0x3ff921fb
 80064e0:	1a626331 	.word	0x1a626331
 80064e4:	3dd0b461 	.word	0x3dd0b461
 80064e8:	1a600000 	.word	0x1a600000
 80064ec:	3dd0b461 	.word	0x3dd0b461
 80064f0:	2e037073 	.word	0x2e037073
 80064f4:	3ba3198a 	.word	0x3ba3198a
 80064f8:	6dc9c883 	.word	0x6dc9c883
 80064fc:	3fe45f30 	.word	0x3fe45f30
 8006500:	2e000000 	.word	0x2e000000
 8006504:	3ba3198a 	.word	0x3ba3198a
 8006508:	252049c1 	.word	0x252049c1
 800650c:	397b839a 	.word	0x397b839a
 8006510:	3fe921fb 	.word	0x3fe921fb
 8006514:	4002d97b 	.word	0x4002d97b
 8006518:	3ff921fb 	.word	0x3ff921fb
 800651c:	413921fb 	.word	0x413921fb
 8006520:	3fe00000 	.word	0x3fe00000
 8006524:	08009e84 	.word	0x08009e84
 8006528:	7fefffff 	.word	0x7fefffff
 800652c:	ea4f 5428 	mov.w	r4, r8, asr #20
 8006530:	f2a4 4416 	subw	r4, r4, #1046	; 0x416
 8006534:	ee10 0a10 	vmov	r0, s0
 8006538:	eba8 5104 	sub.w	r1, r8, r4, lsl #20
 800653c:	ee10 6a10 	vmov	r6, s0
 8006540:	460f      	mov	r7, r1
 8006542:	f7fa fb09 	bl	8000b58 <__aeabi_d2iz>
 8006546:	f7f9 ffed 	bl	8000524 <__aeabi_i2d>
 800654a:	4602      	mov	r2, r0
 800654c:	460b      	mov	r3, r1
 800654e:	4630      	mov	r0, r6
 8006550:	4639      	mov	r1, r7
 8006552:	e9cd 2304 	strd	r2, r3, [sp, #16]
 8006556:	f7f9 fe97 	bl	8000288 <__aeabi_dsub>
 800655a:	4b23      	ldr	r3, [pc, #140]	; (80065e8 <__ieee754_rem_pio2+0x410>)
 800655c:	2200      	movs	r2, #0
 800655e:	f7fa f84b 	bl	80005f8 <__aeabi_dmul>
 8006562:	460f      	mov	r7, r1
 8006564:	4606      	mov	r6, r0
 8006566:	f7fa faf7 	bl	8000b58 <__aeabi_d2iz>
 800656a:	f7f9 ffdb 	bl	8000524 <__aeabi_i2d>
 800656e:	4602      	mov	r2, r0
 8006570:	460b      	mov	r3, r1
 8006572:	4630      	mov	r0, r6
 8006574:	4639      	mov	r1, r7
 8006576:	e9cd 2306 	strd	r2, r3, [sp, #24]
 800657a:	f7f9 fe85 	bl	8000288 <__aeabi_dsub>
 800657e:	4b1a      	ldr	r3, [pc, #104]	; (80065e8 <__ieee754_rem_pio2+0x410>)
 8006580:	2200      	movs	r2, #0
 8006582:	f7fa f839 	bl	80005f8 <__aeabi_dmul>
 8006586:	e9cd 0108 	strd	r0, r1, [sp, #32]
 800658a:	ad04      	add	r5, sp, #16
 800658c:	f04f 0803 	mov.w	r8, #3
 8006590:	46a9      	mov	r9, r5
 8006592:	2600      	movs	r6, #0
 8006594:	2700      	movs	r7, #0
 8006596:	4632      	mov	r2, r6
 8006598:	463b      	mov	r3, r7
 800659a:	e9d5 0104 	ldrd	r0, r1, [r5, #16]
 800659e:	46c3      	mov	fp, r8
 80065a0:	3d08      	subs	r5, #8
 80065a2:	f108 38ff 	add.w	r8, r8, #4294967295
 80065a6:	f7fa fa8f 	bl	8000ac8 <__aeabi_dcmpeq>
 80065aa:	2800      	cmp	r0, #0
 80065ac:	d1f3      	bne.n	8006596 <__ieee754_rem_pio2+0x3be>
 80065ae:	4b0f      	ldr	r3, [pc, #60]	; (80065ec <__ieee754_rem_pio2+0x414>)
 80065b0:	9301      	str	r3, [sp, #4]
 80065b2:	2302      	movs	r3, #2
 80065b4:	9300      	str	r3, [sp, #0]
 80065b6:	4622      	mov	r2, r4
 80065b8:	465b      	mov	r3, fp
 80065ba:	4651      	mov	r1, sl
 80065bc:	4648      	mov	r0, r9
 80065be:	f000 f8df 	bl	8006780 <__kernel_rem_pio2>
 80065c2:	9b02      	ldr	r3, [sp, #8]
 80065c4:	2b00      	cmp	r3, #0
 80065c6:	4683      	mov	fp, r0
 80065c8:	f6bf ae46 	bge.w	8006258 <__ieee754_rem_pio2+0x80>
 80065cc:	e9da 2100 	ldrd	r2, r1, [sl]
 80065d0:	f101 4300 	add.w	r3, r1, #2147483648	; 0x80000000
 80065d4:	e9ca 2300 	strd	r2, r3, [sl]
 80065d8:	e9da 2102 	ldrd	r2, r1, [sl, #8]
 80065dc:	f101 4300 	add.w	r3, r1, #2147483648	; 0x80000000
 80065e0:	e9ca 2302 	strd	r2, r3, [sl, #8]
 80065e4:	e73a      	b.n	800645c <__ieee754_rem_pio2+0x284>
 80065e6:	bf00      	nop
 80065e8:	41700000 	.word	0x41700000
 80065ec:	08009f04 	.word	0x08009f04

080065f0 <__kernel_cos>:
 80065f0:	e92d 4ff7 	stmdb	sp!, {r0, r1, r2, r4, r5, r6, r7, r8, r9, sl, fp, lr}
 80065f4:	ec57 6b10 	vmov	r6, r7, d0
 80065f8:	f027 4800 	bic.w	r8, r7, #2147483648	; 0x80000000
 80065fc:	f1b8 5f79 	cmp.w	r8, #1044381696	; 0x3e400000
 8006600:	ed8d 1b00 	vstr	d1, [sp]
 8006604:	da07      	bge.n	8006616 <__kernel_cos+0x26>
 8006606:	ee10 0a10 	vmov	r0, s0
 800660a:	4639      	mov	r1, r7
 800660c:	f7fa faa4 	bl	8000b58 <__aeabi_d2iz>
 8006610:	2800      	cmp	r0, #0
 8006612:	f000 8088 	beq.w	8006726 <__kernel_cos+0x136>
 8006616:	4632      	mov	r2, r6
 8006618:	463b      	mov	r3, r7
 800661a:	4630      	mov	r0, r6
 800661c:	4639      	mov	r1, r7
 800661e:	f7f9 ffeb 	bl	80005f8 <__aeabi_dmul>
 8006622:	4b51      	ldr	r3, [pc, #324]	; (8006768 <__kernel_cos+0x178>)
 8006624:	2200      	movs	r2, #0
 8006626:	4604      	mov	r4, r0
 8006628:	460d      	mov	r5, r1
 800662a:	f7f9 ffe5 	bl	80005f8 <__aeabi_dmul>
 800662e:	a340      	add	r3, pc, #256	; (adr r3, 8006730 <__kernel_cos+0x140>)
 8006630:	e9d3 2300 	ldrd	r2, r3, [r3]
 8006634:	4682      	mov	sl, r0
 8006636:	468b      	mov	fp, r1
 8006638:	4620      	mov	r0, r4
 800663a:	4629      	mov	r1, r5
 800663c:	f7f9 ffdc 	bl	80005f8 <__aeabi_dmul>
 8006640:	a33d      	add	r3, pc, #244	; (adr r3, 8006738 <__kernel_cos+0x148>)
 8006642:	e9d3 2300 	ldrd	r2, r3, [r3]
 8006646:	f7f9 fe21 	bl	800028c <__adddf3>
 800664a:	4622      	mov	r2, r4
 800664c:	462b      	mov	r3, r5
 800664e:	f7f9 ffd3 	bl	80005f8 <__aeabi_dmul>
 8006652:	a33b      	add	r3, pc, #236	; (adr r3, 8006740 <__kernel_cos+0x150>)
 8006654:	e9d3 2300 	ldrd	r2, r3, [r3]
 8006658:	f7f9 fe16 	bl	8000288 <__aeabi_dsub>
 800665c:	4622      	mov	r2, r4
 800665e:	462b      	mov	r3, r5
 8006660:	f7f9 ffca 	bl	80005f8 <__aeabi_dmul>
 8006664:	a338      	add	r3, pc, #224	; (adr r3, 8006748 <__kernel_cos+0x158>)
 8006666:	e9d3 2300 	ldrd	r2, r3, [r3]
 800666a:	f7f9 fe0f 	bl	800028c <__adddf3>
 800666e:	4622      	mov	r2, r4
 8006670:	462b      	mov	r3, r5
 8006672:	f7f9 ffc1 	bl	80005f8 <__aeabi_dmul>
 8006676:	a336      	add	r3, pc, #216	; (adr r3, 8006750 <__kernel_cos+0x160>)
 8006678:	e9d3 2300 	ldrd	r2, r3, [r3]
 800667c:	f7f9 fe04 	bl	8000288 <__aeabi_dsub>
 8006680:	4622      	mov	r2, r4
 8006682:	462b      	mov	r3, r5
 8006684:	f7f9 ffb8 	bl	80005f8 <__aeabi_dmul>
 8006688:	a333      	add	r3, pc, #204	; (adr r3, 8006758 <__kernel_cos+0x168>)
 800668a:	e9d3 2300 	ldrd	r2, r3, [r3]
 800668e:	f7f9 fdfd 	bl	800028c <__adddf3>
 8006692:	4622      	mov	r2, r4
 8006694:	462b      	mov	r3, r5
 8006696:	f7f9 ffaf 	bl	80005f8 <__aeabi_dmul>
 800669a:	4622      	mov	r2, r4
 800669c:	462b      	mov	r3, r5
 800669e:	f7f9 ffab 	bl	80005f8 <__aeabi_dmul>
 80066a2:	e9dd 2300 	ldrd	r2, r3, [sp]
 80066a6:	4604      	mov	r4, r0
 80066a8:	460d      	mov	r5, r1
 80066aa:	4630      	mov	r0, r6
 80066ac:	4639      	mov	r1, r7
 80066ae:	f7f9 ffa3 	bl	80005f8 <__aeabi_dmul>
 80066b2:	460b      	mov	r3, r1
 80066b4:	4602      	mov	r2, r0
 80066b6:	4629      	mov	r1, r5
 80066b8:	4620      	mov	r0, r4
 80066ba:	f7f9 fde5 	bl	8000288 <__aeabi_dsub>
 80066be:	4b2b      	ldr	r3, [pc, #172]	; (800676c <__kernel_cos+0x17c>)
 80066c0:	4598      	cmp	r8, r3
 80066c2:	4606      	mov	r6, r0
 80066c4:	460f      	mov	r7, r1
 80066c6:	dc10      	bgt.n	80066ea <__kernel_cos+0xfa>
 80066c8:	4602      	mov	r2, r0
 80066ca:	460b      	mov	r3, r1
 80066cc:	4650      	mov	r0, sl
 80066ce:	4659      	mov	r1, fp
 80066d0:	f7f9 fdda 	bl	8000288 <__aeabi_dsub>
 80066d4:	460b      	mov	r3, r1
 80066d6:	4926      	ldr	r1, [pc, #152]	; (8006770 <__kernel_cos+0x180>)
 80066d8:	4602      	mov	r2, r0
 80066da:	2000      	movs	r0, #0
 80066dc:	f7f9 fdd4 	bl	8000288 <__aeabi_dsub>
 80066e0:	ec41 0b10 	vmov	d0, r0, r1
 80066e4:	b003      	add	sp, #12
 80066e6:	e8bd 8ff0 	ldmia.w	sp!, {r4, r5, r6, r7, r8, r9, sl, fp, pc}
 80066ea:	4b22      	ldr	r3, [pc, #136]	; (8006774 <__kernel_cos+0x184>)
 80066ec:	4920      	ldr	r1, [pc, #128]	; (8006770 <__kernel_cos+0x180>)
 80066ee:	4598      	cmp	r8, r3
 80066f0:	bfcc      	ite	gt
 80066f2:	4d21      	ldrgt	r5, [pc, #132]	; (8006778 <__kernel_cos+0x188>)
 80066f4:	f5a8 1500 	suble.w	r5, r8, #2097152	; 0x200000
 80066f8:	2400      	movs	r4, #0
 80066fa:	4622      	mov	r2, r4
 80066fc:	462b      	mov	r3, r5
 80066fe:	2000      	movs	r0, #0
 8006700:	f7f9 fdc2 	bl	8000288 <__aeabi_dsub>
 8006704:	4622      	mov	r2, r4
 8006706:	4680      	mov	r8, r0
 8006708:	4689      	mov	r9, r1
 800670a:	462b      	mov	r3, r5
 800670c:	4650      	mov	r0, sl
 800670e:	4659      	mov	r1, fp
 8006710:	f7f9 fdba 	bl	8000288 <__aeabi_dsub>
 8006714:	4632      	mov	r2, r6
 8006716:	463b      	mov	r3, r7
 8006718:	f7f9 fdb6 	bl	8000288 <__aeabi_dsub>
 800671c:	4602      	mov	r2, r0
 800671e:	460b      	mov	r3, r1
 8006720:	4640      	mov	r0, r8
 8006722:	4649      	mov	r1, r9
 8006724:	e7da      	b.n	80066dc <__kernel_cos+0xec>
 8006726:	ed9f 0b0e 	vldr	d0, [pc, #56]	; 8006760 <__kernel_cos+0x170>
 800672a:	e7db      	b.n	80066e4 <__kernel_cos+0xf4>
 800672c:	f3af 8000 	nop.w
 8006730:	be8838d4 	.word	0xbe8838d4
 8006734:	bda8fae9 	.word	0xbda8fae9
 8006738:	bdb4b1c4 	.word	0xbdb4b1c4
 800673c:	3e21ee9e 	.word	0x3e21ee9e
 8006740:	809c52ad 	.word	0x809c52ad
 8006744:	3e927e4f 	.word	0x3e927e4f
 8006748:	19cb1590 	.word	0x19cb1590
 800674c:	3efa01a0 	.word	0x3efa01a0
 8006750:	16c15177 	.word	0x16c15177
 8006754:	3f56c16c 	.word	0x3f56c16c
 8006758:	5555554c 	.word	0x5555554c
 800675c:	3fa55555 	.word	0x3fa55555
 8006760:	00000000 	.word	0x00000000
 8006764:	3ff00000 	.word	0x3ff00000
 8006768:	3fe00000 	.word	0x3fe00000
 800676c:	3fd33332 	.word	0x3fd33332
 8006770:	3ff00000 	.word	0x3ff00000
 8006774:	3fe90000 	.word	0x3fe90000
 8006778:	3fd20000 	.word	0x3fd20000
 800677c:	00000000 	.word	0x00000000

08006780 <__kernel_rem_pio2>:
 8006780:	e92d 4ff0 	stmdb	sp!, {r4, r5, r6, r7, r8, r9, sl, fp, lr}
 8006784:	ed2d 8b02 	vpush	{d8}
 8006788:	f5ad 7d1b 	sub.w	sp, sp, #620	; 0x26c
 800678c:	f112 0f14 	cmn.w	r2, #20
 8006790:	9308      	str	r3, [sp, #32]
 8006792:	9101      	str	r1, [sp, #4]
 8006794:	4bc4      	ldr	r3, [pc, #784]	; (8006aa8 <__kernel_rem_pio2+0x328>)
 8006796:	99a6      	ldr	r1, [sp, #664]	; 0x298
 8006798:	900b      	str	r0, [sp, #44]	; 0x2c
 800679a:	f853 3021 	ldr.w	r3, [r3, r1, lsl #2]
 800679e:	9302      	str	r3, [sp, #8]
 80067a0:	9b08      	ldr	r3, [sp, #32]
 80067a2:	f103 33ff 	add.w	r3, r3, #4294967295
 80067a6:	bfa8      	it	ge
 80067a8:	1ed4      	subge	r4, r2, #3
 80067aa:	9306      	str	r3, [sp, #24]
 80067ac:	bfb2      	itee	lt
 80067ae:	2400      	movlt	r4, #0
 80067b0:	2318      	movge	r3, #24
 80067b2:	fb94 f4f3 	sdivge	r4, r4, r3
 80067b6:	f06f 0317 	mvn.w	r3, #23
 80067ba:	fb04 3303 	mla	r3, r4, r3, r3
 80067be:	eb03 0a02 	add.w	sl, r3, r2
 80067c2:	9b02      	ldr	r3, [sp, #8]
 80067c4:	9a06      	ldr	r2, [sp, #24]
 80067c6:	ed9f 8bb4 	vldr	d8, [pc, #720]	; 8006a98 <__kernel_rem_pio2+0x318>
 80067ca:	eb03 0802 	add.w	r8, r3, r2
 80067ce:	9ba7      	ldr	r3, [sp, #668]	; 0x29c
 80067d0:	1aa7      	subs	r7, r4, r2
 80067d2:	ae22      	add	r6, sp, #136	; 0x88
 80067d4:	eb03 0987 	add.w	r9, r3, r7, lsl #2
 80067d8:	2500      	movs	r5, #0
 80067da:	4545      	cmp	r5, r8
 80067dc:	dd13      	ble.n	8006806 <__kernel_rem_pio2+0x86>
 80067de:	9b08      	ldr	r3, [sp, #32]
 80067e0:	ed9f 8bad 	vldr	d8, [pc, #692]	; 8006a98 <__kernel_rem_pio2+0x318>
 80067e4:	aa22      	add	r2, sp, #136	; 0x88
 80067e6:	eb02 05c3 	add.w	r5, r2, r3, lsl #3
 80067ea:	f50d 7be4 	add.w	fp, sp, #456	; 0x1c8
 80067ee:	f04f 0800 	mov.w	r8, #0
 80067f2:	9b02      	ldr	r3, [sp, #8]
 80067f4:	4598      	cmp	r8, r3
 80067f6:	dc2f      	bgt.n	8006858 <__kernel_rem_pio2+0xd8>
 80067f8:	ed8d 8b04 	vstr	d8, [sp, #16]
 80067fc:	f8dd 902c 	ldr.w	r9, [sp, #44]	; 0x2c
 8006800:	462f      	mov	r7, r5
 8006802:	2600      	movs	r6, #0
 8006804:	e01b      	b.n	800683e <__kernel_rem_pio2+0xbe>
 8006806:	42ef      	cmn	r7, r5
 8006808:	d407      	bmi.n	800681a <__kernel_rem_pio2+0x9a>
 800680a:	f859 0025 	ldr.w	r0, [r9, r5, lsl #2]
 800680e:	f7f9 fe89 	bl	8000524 <__aeabi_i2d>
 8006812:	e8e6 0102 	strd	r0, r1, [r6], #8
 8006816:	3501      	adds	r5, #1
 8006818:	e7df      	b.n	80067da <__kernel_rem_pio2+0x5a>
 800681a:	ec51 0b18 	vmov	r0, r1, d8
 800681e:	e7f8      	b.n	8006812 <__kernel_rem_pio2+0x92>
 8006820:	e9d7 2300 	ldrd	r2, r3, [r7]
 8006824:	e8f9 0102 	ldrd	r0, r1, [r9], #8
 8006828:	f7f9 fee6 	bl	80005f8 <__aeabi_dmul>
 800682c:	4602      	mov	r2, r0
 800682e:	460b      	mov	r3, r1
 8006830:	e9dd 0104 	ldrd	r0, r1, [sp, #16]
 8006834:	f7f9 fd2a 	bl	800028c <__adddf3>
 8006838:	e9cd 0104 	strd	r0, r1, [sp, #16]
 800683c:	3601      	adds	r6, #1
 800683e:	9b06      	ldr	r3, [sp, #24]
 8006840:	429e      	cmp	r6, r3
 8006842:	f1a7 0708 	sub.w	r7, r7, #8
 8006846:	ddeb      	ble.n	8006820 <__kernel_rem_pio2+0xa0>
 8006848:	ed9d 7b04 	vldr	d7, [sp, #16]
 800684c:	f108 0801 	add.w	r8, r8, #1
 8006850:	ecab 7b02 	vstmia	fp!, {d7}
 8006854:	3508      	adds	r5, #8
 8006856:	e7cc      	b.n	80067f2 <__kernel_rem_pio2+0x72>
 8006858:	9b02      	ldr	r3, [sp, #8]
 800685a:	aa0e      	add	r2, sp, #56	; 0x38
 800685c:	eb02 0383 	add.w	r3, r2, r3, lsl #2
 8006860:	930d      	str	r3, [sp, #52]	; 0x34
 8006862:	9ba7      	ldr	r3, [sp, #668]	; 0x29c
 8006864:	eb03 0384 	add.w	r3, r3, r4, lsl #2
 8006868:	9c02      	ldr	r4, [sp, #8]
 800686a:	930c      	str	r3, [sp, #48]	; 0x30
 800686c:	00e3      	lsls	r3, r4, #3
 800686e:	930a      	str	r3, [sp, #40]	; 0x28
 8006870:	ab9a      	add	r3, sp, #616	; 0x268
 8006872:	eb03 03c4 	add.w	r3, r3, r4, lsl #3
 8006876:	e953 6728 	ldrd	r6, r7, [r3, #-160]	; 0xa0
 800687a:	f10d 0838 	add.w	r8, sp, #56	; 0x38
 800687e:	ab72      	add	r3, sp, #456	; 0x1c8
 8006880:	eb03 05c4 	add.w	r5, r3, r4, lsl #3
 8006884:	46c3      	mov	fp, r8
 8006886:	46a1      	mov	r9, r4
 8006888:	f1b9 0f00 	cmp.w	r9, #0
 800688c:	f1a5 0508 	sub.w	r5, r5, #8
 8006890:	dc77      	bgt.n	8006982 <__kernel_rem_pio2+0x202>
 8006892:	ec47 6b10 	vmov	d0, r6, r7
 8006896:	4650      	mov	r0, sl
 8006898:	f000 fc0a 	bl	80070b0 <scalbn>
 800689c:	ec57 6b10 	vmov	r6, r7, d0
 80068a0:	2200      	movs	r2, #0
 80068a2:	f04f 537f 	mov.w	r3, #1069547520	; 0x3fc00000
 80068a6:	ee10 0a10 	vmov	r0, s0
 80068aa:	4639      	mov	r1, r7
 80068ac:	f7f9 fea4 	bl	80005f8 <__aeabi_dmul>
 80068b0:	ec41 0b10 	vmov	d0, r0, r1
 80068b4:	f000 fb7c 	bl	8006fb0 <floor>
 80068b8:	4b7c      	ldr	r3, [pc, #496]	; (8006aac <__kernel_rem_pio2+0x32c>)
 80068ba:	ec51 0b10 	vmov	r0, r1, d0
 80068be:	2200      	movs	r2, #0
 80068c0:	f7f9 fe9a 	bl	80005f8 <__aeabi_dmul>
 80068c4:	4602      	mov	r2, r0
 80068c6:	460b      	mov	r3, r1
 80068c8:	4630      	mov	r0, r6
 80068ca:	4639      	mov	r1, r7
 80068cc:	f7f9 fcdc 	bl	8000288 <__aeabi_dsub>
 80068d0:	460f      	mov	r7, r1
 80068d2:	4606      	mov	r6, r0
 80068d4:	f7fa f940 	bl	8000b58 <__aeabi_d2iz>
 80068d8:	9004      	str	r0, [sp, #16]
 80068da:	f7f9 fe23 	bl	8000524 <__aeabi_i2d>
 80068de:	4602      	mov	r2, r0
 80068e0:	460b      	mov	r3, r1
 80068e2:	4630      	mov	r0, r6
 80068e4:	4639      	mov	r1, r7
 80068e6:	f7f9 fccf 	bl	8000288 <__aeabi_dsub>
 80068ea:	f1ba 0f00 	cmp.w	sl, #0
 80068ee:	4606      	mov	r6, r0
 80068f0:	460f      	mov	r7, r1
 80068f2:	dd6d      	ble.n	80069d0 <__kernel_rem_pio2+0x250>
 80068f4:	1e62      	subs	r2, r4, #1
 80068f6:	ab0e      	add	r3, sp, #56	; 0x38
 80068f8:	9d04      	ldr	r5, [sp, #16]
 80068fa:	f853 0022 	ldr.w	r0, [r3, r2, lsl #2]
 80068fe:	f1ca 0118 	rsb	r1, sl, #24
 8006902:	fa40 f301 	asr.w	r3, r0, r1
 8006906:	441d      	add	r5, r3
 8006908:	408b      	lsls	r3, r1
 800690a:	1ac0      	subs	r0, r0, r3
 800690c:	ab0e      	add	r3, sp, #56	; 0x38
 800690e:	9504      	str	r5, [sp, #16]
 8006910:	f843 0022 	str.w	r0, [r3, r2, lsl #2]
 8006914:	f1ca 0317 	rsb	r3, sl, #23
 8006918:	fa40 fb03 	asr.w	fp, r0, r3
 800691c:	f1bb 0f00 	cmp.w	fp, #0
 8006920:	dd65      	ble.n	80069ee <__kernel_rem_pio2+0x26e>
 8006922:	9b04      	ldr	r3, [sp, #16]
 8006924:	2200      	movs	r2, #0
 8006926:	3301      	adds	r3, #1
 8006928:	9304      	str	r3, [sp, #16]
 800692a:	4615      	mov	r5, r2
 800692c:	f06f 417f 	mvn.w	r1, #4278190080	; 0xff000000
 8006930:	4294      	cmp	r4, r2
 8006932:	f300 809c 	bgt.w	8006a6e <__kernel_rem_pio2+0x2ee>
 8006936:	f1ba 0f00 	cmp.w	sl, #0
 800693a:	dd07      	ble.n	800694c <__kernel_rem_pio2+0x1cc>
 800693c:	f1ba 0f01 	cmp.w	sl, #1
 8006940:	f000 80c0 	beq.w	8006ac4 <__kernel_rem_pio2+0x344>
 8006944:	f1ba 0f02 	cmp.w	sl, #2
 8006948:	f000 80c6 	beq.w	8006ad8 <__kernel_rem_pio2+0x358>
 800694c:	f1bb 0f02 	cmp.w	fp, #2
 8006950:	d14d      	bne.n	80069ee <__kernel_rem_pio2+0x26e>
 8006952:	4632      	mov	r2, r6
 8006954:	463b      	mov	r3, r7
 8006956:	4956      	ldr	r1, [pc, #344]	; (8006ab0 <__kernel_rem_pio2+0x330>)
 8006958:	2000      	movs	r0, #0
 800695a:	f7f9 fc95 	bl	8000288 <__aeabi_dsub>
 800695e:	4606      	mov	r6, r0
 8006960:	460f      	mov	r7, r1
 8006962:	2d00      	cmp	r5, #0
 8006964:	d043      	beq.n	80069ee <__kernel_rem_pio2+0x26e>
 8006966:	4650      	mov	r0, sl
 8006968:	ed9f 0b4d 	vldr	d0, [pc, #308]	; 8006aa0 <__kernel_rem_pio2+0x320>
 800696c:	f000 fba0 	bl	80070b0 <scalbn>
 8006970:	4630      	mov	r0, r6
 8006972:	4639      	mov	r1, r7
 8006974:	ec53 2b10 	vmov	r2, r3, d0
 8006978:	f7f9 fc86 	bl	8000288 <__aeabi_dsub>
 800697c:	4606      	mov	r6, r0
 800697e:	460f      	mov	r7, r1
 8006980:	e035      	b.n	80069ee <__kernel_rem_pio2+0x26e>
 8006982:	4b4c      	ldr	r3, [pc, #304]	; (8006ab4 <__kernel_rem_pio2+0x334>)
 8006984:	2200      	movs	r2, #0
 8006986:	4630      	mov	r0, r6
 8006988:	4639      	mov	r1, r7
 800698a:	f7f9 fe35 	bl	80005f8 <__aeabi_dmul>
 800698e:	f7fa f8e3 	bl	8000b58 <__aeabi_d2iz>
 8006992:	f7f9 fdc7 	bl	8000524 <__aeabi_i2d>
 8006996:	4602      	mov	r2, r0
 8006998:	460b      	mov	r3, r1
 800699a:	ec43 2b18 	vmov	d8, r2, r3
 800699e:	4b46      	ldr	r3, [pc, #280]	; (8006ab8 <__kernel_rem_pio2+0x338>)
 80069a0:	2200      	movs	r2, #0
 80069a2:	f7f9 fe29 	bl	80005f8 <__aeabi_dmul>
 80069a6:	4602      	mov	r2, r0
 80069a8:	460b      	mov	r3, r1
 80069aa:	4630      	mov	r0, r6
 80069ac:	4639      	mov	r1, r7
 80069ae:	f7f9 fc6b 	bl	8000288 <__aeabi_dsub>
 80069b2:	f7fa f8d1 	bl	8000b58 <__aeabi_d2iz>
 80069b6:	e9d5 2300 	ldrd	r2, r3, [r5]
 80069ba:	f84b 0b04 	str.w	r0, [fp], #4
 80069be:	ec51 0b18 	vmov	r0, r1, d8
 80069c2:	f7f9 fc63 	bl	800028c <__adddf3>
 80069c6:	f109 39ff 	add.w	r9, r9, #4294967295
 80069ca:	4606      	mov	r6, r0
 80069cc:	460f      	mov	r7, r1
 80069ce:	e75b      	b.n	8006888 <__kernel_rem_pio2+0x108>
 80069d0:	d106      	bne.n	80069e0 <__kernel_rem_pio2+0x260>
 80069d2:	1e63      	subs	r3, r4, #1
 80069d4:	aa0e      	add	r2, sp, #56	; 0x38
 80069d6:	f852 0023 	ldr.w	r0, [r2, r3, lsl #2]
 80069da:	ea4f 5be0 	mov.w	fp, r0, asr #23
 80069de:	e79d      	b.n	800691c <__kernel_rem_pio2+0x19c>
 80069e0:	4b36      	ldr	r3, [pc, #216]	; (8006abc <__kernel_rem_pio2+0x33c>)
 80069e2:	2200      	movs	r2, #0
 80069e4:	f7fa f88e 	bl	8000b04 <__aeabi_dcmpge>
 80069e8:	2800      	cmp	r0, #0
 80069ea:	d13d      	bne.n	8006a68 <__kernel_rem_pio2+0x2e8>
 80069ec:	4683      	mov	fp, r0
 80069ee:	2200      	movs	r2, #0
 80069f0:	2300      	movs	r3, #0
 80069f2:	4630      	mov	r0, r6
 80069f4:	4639      	mov	r1, r7
 80069f6:	f7fa f867 	bl	8000ac8 <__aeabi_dcmpeq>
 80069fa:	2800      	cmp	r0, #0
 80069fc:	f000 80c0 	beq.w	8006b80 <__kernel_rem_pio2+0x400>
 8006a00:	1e65      	subs	r5, r4, #1
 8006a02:	462b      	mov	r3, r5
 8006a04:	2200      	movs	r2, #0
 8006a06:	9902      	ldr	r1, [sp, #8]
 8006a08:	428b      	cmp	r3, r1
 8006a0a:	da6c      	bge.n	8006ae6 <__kernel_rem_pio2+0x366>
 8006a0c:	2a00      	cmp	r2, #0
 8006a0e:	f000 8089 	beq.w	8006b24 <__kernel_rem_pio2+0x3a4>
 8006a12:	ab0e      	add	r3, sp, #56	; 0x38
 8006a14:	f1aa 0a18 	sub.w	sl, sl, #24
 8006a18:	f853 3025 	ldr.w	r3, [r3, r5, lsl #2]
 8006a1c:	2b00      	cmp	r3, #0
 8006a1e:	f000 80ad 	beq.w	8006b7c <__kernel_rem_pio2+0x3fc>
 8006a22:	4650      	mov	r0, sl
 8006a24:	ed9f 0b1e 	vldr	d0, [pc, #120]	; 8006aa0 <__kernel_rem_pio2+0x320>
 8006a28:	f000 fb42 	bl	80070b0 <scalbn>
 8006a2c:	ab9a      	add	r3, sp, #616	; 0x268
 8006a2e:	eb03 03c5 	add.w	r3, r3, r5, lsl #3
 8006a32:	ec57 6b10 	vmov	r6, r7, d0
 8006a36:	00ec      	lsls	r4, r5, #3
 8006a38:	f1a3 0898 	sub.w	r8, r3, #152	; 0x98
 8006a3c:	46aa      	mov	sl, r5
 8006a3e:	f1ba 0f00 	cmp.w	sl, #0
 8006a42:	f280 80d6 	bge.w	8006bf2 <__kernel_rem_pio2+0x472>
 8006a46:	ed9f 8b14 	vldr	d8, [pc, #80]	; 8006a98 <__kernel_rem_pio2+0x318>
 8006a4a:	462e      	mov	r6, r5
 8006a4c:	2e00      	cmp	r6, #0
 8006a4e:	f2c0 8104 	blt.w	8006c5a <__kernel_rem_pio2+0x4da>
 8006a52:	ab72      	add	r3, sp, #456	; 0x1c8
 8006a54:	ed8d 8b06 	vstr	d8, [sp, #24]
 8006a58:	f8df a064 	ldr.w	sl, [pc, #100]	; 8006ac0 <__kernel_rem_pio2+0x340>
 8006a5c:	eb03 09c6 	add.w	r9, r3, r6, lsl #3
 8006a60:	f04f 0800 	mov.w	r8, #0
 8006a64:	1baf      	subs	r7, r5, r6
 8006a66:	e0ea      	b.n	8006c3e <__kernel_rem_pio2+0x4be>
 8006a68:	f04f 0b02 	mov.w	fp, #2
 8006a6c:	e759      	b.n	8006922 <__kernel_rem_pio2+0x1a2>
 8006a6e:	f8d8 3000 	ldr.w	r3, [r8]
 8006a72:	b955      	cbnz	r5, 8006a8a <__kernel_rem_pio2+0x30a>
 8006a74:	b123      	cbz	r3, 8006a80 <__kernel_rem_pio2+0x300>
 8006a76:	f1c3 7380 	rsb	r3, r3, #16777216	; 0x1000000
 8006a7a:	f8c8 3000 	str.w	r3, [r8]
 8006a7e:	2301      	movs	r3, #1
 8006a80:	3201      	adds	r2, #1
 8006a82:	f108 0804 	add.w	r8, r8, #4
 8006a86:	461d      	mov	r5, r3
 8006a88:	e752      	b.n	8006930 <__kernel_rem_pio2+0x1b0>
 8006a8a:	1acb      	subs	r3, r1, r3
 8006a8c:	f8c8 3000 	str.w	r3, [r8]
 8006a90:	462b      	mov	r3, r5
 8006a92:	e7f5      	b.n	8006a80 <__kernel_rem_pio2+0x300>
 8006a94:	f3af 8000 	nop.w
	...
 8006aa4:	3ff00000 	.word	0x3ff00000
 8006aa8:	0800a050 	.word	0x0800a050
 8006aac:	40200000 	.word	0x40200000
 8006ab0:	3ff00000 	.word	0x3ff00000
 8006ab4:	3e700000 	.word	0x3e700000
 8006ab8:	41700000 	.word	0x41700000
 8006abc:	3fe00000 	.word	0x3fe00000
 8006ac0:	0800a010 	.word	0x0800a010
 8006ac4:	1e62      	subs	r2, r4, #1
 8006ac6:	ab0e      	add	r3, sp, #56	; 0x38
 8006ac8:	f853 3022 	ldr.w	r3, [r3, r2, lsl #2]
 8006acc:	f3c3 0316 	ubfx	r3, r3, #0, #23
 8006ad0:	a90e      	add	r1, sp, #56	; 0x38
 8006ad2:	f841 3022 	str.w	r3, [r1, r2, lsl #2]
 8006ad6:	e739      	b.n	800694c <__kernel_rem_pio2+0x1cc>
 8006ad8:	1e62      	subs	r2, r4, #1
 8006ada:	ab0e      	add	r3, sp, #56	; 0x38
 8006adc:	f853 3022 	ldr.w	r3, [r3, r2, lsl #2]
 8006ae0:	f3c3 0315 	ubfx	r3, r3, #0, #22
 8006ae4:	e7f4      	b.n	8006ad0 <__kernel_rem_pio2+0x350>
 8006ae6:	a90e      	add	r1, sp, #56	; 0x38
 8006ae8:	f851 1023 	ldr.w	r1, [r1, r3, lsl #2]
 8006aec:	3b01      	subs	r3, #1
 8006aee:	430a      	orrs	r2, r1
 8006af0:	e789      	b.n	8006a06 <__kernel_rem_pio2+0x286>
 8006af2:	3301      	adds	r3, #1
 8006af4:	f852 1d04 	ldr.w	r1, [r2, #-4]!
 8006af8:	2900      	cmp	r1, #0
 8006afa:	d0fa      	beq.n	8006af2 <__kernel_rem_pio2+0x372>
 8006afc:	9a0a      	ldr	r2, [sp, #40]	; 0x28
 8006afe:	f502 721a 	add.w	r2, r2, #616	; 0x268
 8006b02:	446a      	add	r2, sp
 8006b04:	3a98      	subs	r2, #152	; 0x98
 8006b06:	920a      	str	r2, [sp, #40]	; 0x28
 8006b08:	9a08      	ldr	r2, [sp, #32]
 8006b0a:	18e3      	adds	r3, r4, r3
 8006b0c:	18a5      	adds	r5, r4, r2
 8006b0e:	aa22      	add	r2, sp, #136	; 0x88
 8006b10:	f104 0801 	add.w	r8, r4, #1
 8006b14:	eb02 05c5 	add.w	r5, r2, r5, lsl #3
 8006b18:	9304      	str	r3, [sp, #16]
 8006b1a:	9b04      	ldr	r3, [sp, #16]
 8006b1c:	4543      	cmp	r3, r8
 8006b1e:	da04      	bge.n	8006b2a <__kernel_rem_pio2+0x3aa>
 8006b20:	461c      	mov	r4, r3
 8006b22:	e6a3      	b.n	800686c <__kernel_rem_pio2+0xec>
 8006b24:	9a0d      	ldr	r2, [sp, #52]	; 0x34
 8006b26:	2301      	movs	r3, #1
 8006b28:	e7e4      	b.n	8006af4 <__kernel_rem_pio2+0x374>
 8006b2a:	9b0c      	ldr	r3, [sp, #48]	; 0x30
 8006b2c:	f853 0028 	ldr.w	r0, [r3, r8, lsl #2]
 8006b30:	f7f9 fcf8 	bl	8000524 <__aeabi_i2d>
 8006b34:	e8e5 0102 	strd	r0, r1, [r5], #8
 8006b38:	9b0b      	ldr	r3, [sp, #44]	; 0x2c
 8006b3a:	46ab      	mov	fp, r5
 8006b3c:	461c      	mov	r4, r3
 8006b3e:	f04f 0900 	mov.w	r9, #0
 8006b42:	2600      	movs	r6, #0
 8006b44:	2700      	movs	r7, #0
 8006b46:	9b06      	ldr	r3, [sp, #24]
 8006b48:	4599      	cmp	r9, r3
 8006b4a:	dd06      	ble.n	8006b5a <__kernel_rem_pio2+0x3da>
 8006b4c:	9b0a      	ldr	r3, [sp, #40]	; 0x28
 8006b4e:	e8e3 6702 	strd	r6, r7, [r3], #8
 8006b52:	f108 0801 	add.w	r8, r8, #1
 8006b56:	930a      	str	r3, [sp, #40]	; 0x28
 8006b58:	e7df      	b.n	8006b1a <__kernel_rem_pio2+0x39a>
 8006b5a:	e97b 2302 	ldrd	r2, r3, [fp, #-8]!
 8006b5e:	e8f4 0102 	ldrd	r0, r1, [r4], #8
 8006b62:	f7f9 fd49 	bl	80005f8 <__aeabi_dmul>
 8006b66:	4602      	mov	r2, r0
 8006b68:	460b      	mov	r3, r1
 8006b6a:	4630      	mov	r0, r6
 8006b6c:	4639      	mov	r1, r7
 8006b6e:	f7f9 fb8d 	bl	800028c <__adddf3>
 8006b72:	f109 0901 	add.w	r9, r9, #1
 8006b76:	4606      	mov	r6, r0
 8006b78:	460f      	mov	r7, r1
 8006b7a:	e7e4      	b.n	8006b46 <__kernel_rem_pio2+0x3c6>
 8006b7c:	3d01      	subs	r5, #1
 8006b7e:	e748      	b.n	8006a12 <__kernel_rem_pio2+0x292>
 8006b80:	ec47 6b10 	vmov	d0, r6, r7
 8006b84:	f1ca 0000 	rsb	r0, sl, #0
 8006b88:	f000 fa92 	bl	80070b0 <scalbn>
 8006b8c:	ec57 6b10 	vmov	r6, r7, d0
 8006b90:	4ba0      	ldr	r3, [pc, #640]	; (8006e14 <__kernel_rem_pio2+0x694>)
 8006b92:	ee10 0a10 	vmov	r0, s0
 8006b96:	2200      	movs	r2, #0
 8006b98:	4639      	mov	r1, r7
 8006b9a:	f7f9 ffb3 	bl	8000b04 <__aeabi_dcmpge>
 8006b9e:	b1f8      	cbz	r0, 8006be0 <__kernel_rem_pio2+0x460>
 8006ba0:	4b9d      	ldr	r3, [pc, #628]	; (8006e18 <__kernel_rem_pio2+0x698>)
 8006ba2:	2200      	movs	r2, #0
 8006ba4:	4630      	mov	r0, r6
 8006ba6:	4639      	mov	r1, r7
 8006ba8:	f7f9 fd26 	bl	80005f8 <__aeabi_dmul>
 8006bac:	f7f9 ffd4 	bl	8000b58 <__aeabi_d2iz>
 8006bb0:	4680      	mov	r8, r0
 8006bb2:	f7f9 fcb7 	bl	8000524 <__aeabi_i2d>
 8006bb6:	4b97      	ldr	r3, [pc, #604]	; (8006e14 <__kernel_rem_pio2+0x694>)
 8006bb8:	2200      	movs	r2, #0
 8006bba:	f7f9 fd1d 	bl	80005f8 <__aeabi_dmul>
 8006bbe:	460b      	mov	r3, r1
 8006bc0:	4602      	mov	r2, r0
 8006bc2:	4639      	mov	r1, r7
 8006bc4:	4630      	mov	r0, r6
 8006bc6:	f7f9 fb5f 	bl	8000288 <__aeabi_dsub>
 8006bca:	f7f9 ffc5 	bl	8000b58 <__aeabi_d2iz>
 8006bce:	1c65      	adds	r5, r4, #1
 8006bd0:	ab0e      	add	r3, sp, #56	; 0x38
 8006bd2:	f10a 0a18 	add.w	sl, sl, #24
 8006bd6:	f843 0024 	str.w	r0, [r3, r4, lsl #2]
 8006bda:	f843 8025 	str.w	r8, [r3, r5, lsl #2]
 8006bde:	e720      	b.n	8006a22 <__kernel_rem_pio2+0x2a2>
 8006be0:	4630      	mov	r0, r6
 8006be2:	4639      	mov	r1, r7
 8006be4:	f7f9 ffb8 	bl	8000b58 <__aeabi_d2iz>
 8006be8:	ab0e      	add	r3, sp, #56	; 0x38
 8006bea:	4625      	mov	r5, r4
 8006bec:	f843 0024 	str.w	r0, [r3, r4, lsl #2]
 8006bf0:	e717      	b.n	8006a22 <__kernel_rem_pio2+0x2a2>
 8006bf2:	ab0e      	add	r3, sp, #56	; 0x38
 8006bf4:	f853 002a 	ldr.w	r0, [r3, sl, lsl #2]
 8006bf8:	f7f9 fc94 	bl	8000524 <__aeabi_i2d>
 8006bfc:	4632      	mov	r2, r6
 8006bfe:	463b      	mov	r3, r7
 8006c00:	f7f9 fcfa 	bl	80005f8 <__aeabi_dmul>
 8006c04:	4b84      	ldr	r3, [pc, #528]	; (8006e18 <__kernel_rem_pio2+0x698>)
 8006c06:	e968 0102 	strd	r0, r1, [r8, #-8]!
 8006c0a:	2200      	movs	r2, #0
 8006c0c:	4630      	mov	r0, r6
 8006c0e:	4639      	mov	r1, r7
 8006c10:	f7f9 fcf2 	bl	80005f8 <__aeabi_dmul>
 8006c14:	f10a 3aff 	add.w	sl, sl, #4294967295
 8006c18:	4606      	mov	r6, r0
 8006c1a:	460f      	mov	r7, r1
 8006c1c:	e70f      	b.n	8006a3e <__kernel_rem_pio2+0x2be>
 8006c1e:	e8f9 2302 	ldrd	r2, r3, [r9], #8
 8006c22:	e8fa 0102 	ldrd	r0, r1, [sl], #8
 8006c26:	f7f9 fce7 	bl	80005f8 <__aeabi_dmul>
 8006c2a:	4602      	mov	r2, r0
 8006c2c:	460b      	mov	r3, r1
 8006c2e:	e9dd 0106 	ldrd	r0, r1, [sp, #24]
 8006c32:	f7f9 fb2b 	bl	800028c <__adddf3>
 8006c36:	e9cd 0106 	strd	r0, r1, [sp, #24]
 8006c3a:	f108 0801 	add.w	r8, r8, #1
 8006c3e:	9b02      	ldr	r3, [sp, #8]
 8006c40:	4598      	cmp	r8, r3
 8006c42:	dc01      	bgt.n	8006c48 <__kernel_rem_pio2+0x4c8>
 8006c44:	45b8      	cmp	r8, r7
 8006c46:	ddea      	ble.n	8006c1e <__kernel_rem_pio2+0x49e>
 8006c48:	ed9d 7b06 	vldr	d7, [sp, #24]
 8006c4c:	ab4a      	add	r3, sp, #296	; 0x128
 8006c4e:	eb03 07c7 	add.w	r7, r3, r7, lsl #3
 8006c52:	ed87 7b00 	vstr	d7, [r7]
 8006c56:	3e01      	subs	r6, #1
 8006c58:	e6f8      	b.n	8006a4c <__kernel_rem_pio2+0x2cc>
 8006c5a:	9ba6      	ldr	r3, [sp, #664]	; 0x298
 8006c5c:	2b02      	cmp	r3, #2
 8006c5e:	dc0b      	bgt.n	8006c78 <__kernel_rem_pio2+0x4f8>
 8006c60:	2b00      	cmp	r3, #0
 8006c62:	dc35      	bgt.n	8006cd0 <__kernel_rem_pio2+0x550>
 8006c64:	d059      	beq.n	8006d1a <__kernel_rem_pio2+0x59a>
 8006c66:	9b04      	ldr	r3, [sp, #16]
 8006c68:	f003 0007 	and.w	r0, r3, #7
 8006c6c:	f50d 7d1b 	add.w	sp, sp, #620	; 0x26c
 8006c70:	ecbd 8b02 	vpop	{d8}
 8006c74:	e8bd 8ff0 	ldmia.w	sp!, {r4, r5, r6, r7, r8, r9, sl, fp, pc}
 8006c78:	9ba6      	ldr	r3, [sp, #664]	; 0x298
 8006c7a:	2b03      	cmp	r3, #3
 8006c7c:	d1f3      	bne.n	8006c66 <__kernel_rem_pio2+0x4e6>
 8006c7e:	ab4a      	add	r3, sp, #296	; 0x128
 8006c80:	4423      	add	r3, r4
 8006c82:	9306      	str	r3, [sp, #24]
 8006c84:	461c      	mov	r4, r3
 8006c86:	469a      	mov	sl, r3
 8006c88:	9502      	str	r5, [sp, #8]
 8006c8a:	9b02      	ldr	r3, [sp, #8]
 8006c8c:	2b00      	cmp	r3, #0
 8006c8e:	f1aa 0a08 	sub.w	sl, sl, #8
 8006c92:	dc6b      	bgt.n	8006d6c <__kernel_rem_pio2+0x5ec>
 8006c94:	46aa      	mov	sl, r5
 8006c96:	f1ba 0f01 	cmp.w	sl, #1
 8006c9a:	f1a4 0408 	sub.w	r4, r4, #8
 8006c9e:	f300 8085 	bgt.w	8006dac <__kernel_rem_pio2+0x62c>
 8006ca2:	9c06      	ldr	r4, [sp, #24]
 8006ca4:	2000      	movs	r0, #0
 8006ca6:	3408      	adds	r4, #8
 8006ca8:	2100      	movs	r1, #0
 8006caa:	2d01      	cmp	r5, #1
 8006cac:	f300 809d 	bgt.w	8006dea <__kernel_rem_pio2+0x66a>
 8006cb0:	e9dd 564a 	ldrd	r5, r6, [sp, #296]	; 0x128
 8006cb4:	e9dd 784c 	ldrd	r7, r8, [sp, #304]	; 0x130
 8006cb8:	f1bb 0f00 	cmp.w	fp, #0
 8006cbc:	f040 809b 	bne.w	8006df6 <__kernel_rem_pio2+0x676>
 8006cc0:	9b01      	ldr	r3, [sp, #4]
 8006cc2:	e9c3 5600 	strd	r5, r6, [r3]
 8006cc6:	e9c3 7802 	strd	r7, r8, [r3, #8]
 8006cca:	e9c3 0104 	strd	r0, r1, [r3, #16]
 8006cce:	e7ca      	b.n	8006c66 <__kernel_rem_pio2+0x4e6>
 8006cd0:	3408      	adds	r4, #8
 8006cd2:	ab4a      	add	r3, sp, #296	; 0x128
 8006cd4:	441c      	add	r4, r3
 8006cd6:	462e      	mov	r6, r5
 8006cd8:	2000      	movs	r0, #0
 8006cda:	2100      	movs	r1, #0
 8006cdc:	2e00      	cmp	r6, #0
 8006cde:	da36      	bge.n	8006d4e <__kernel_rem_pio2+0x5ce>
 8006ce0:	f1bb 0f00 	cmp.w	fp, #0
 8006ce4:	d039      	beq.n	8006d5a <__kernel_rem_pio2+0x5da>
 8006ce6:	4602      	mov	r2, r0
 8006ce8:	f101 4300 	add.w	r3, r1, #2147483648	; 0x80000000
 8006cec:	9c01      	ldr	r4, [sp, #4]
 8006cee:	e9c4 2300 	strd	r2, r3, [r4]
 8006cf2:	4602      	mov	r2, r0
 8006cf4:	460b      	mov	r3, r1
 8006cf6:	e9dd 014a 	ldrd	r0, r1, [sp, #296]	; 0x128
 8006cfa:	f7f9 fac5 	bl	8000288 <__aeabi_dsub>
 8006cfe:	ae4c      	add	r6, sp, #304	; 0x130
 8006d00:	2401      	movs	r4, #1
 8006d02:	42a5      	cmp	r5, r4
 8006d04:	da2c      	bge.n	8006d60 <__kernel_rem_pio2+0x5e0>
 8006d06:	f1bb 0f00 	cmp.w	fp, #0
 8006d0a:	d002      	beq.n	8006d12 <__kernel_rem_pio2+0x592>
 8006d0c:	f101 4300 	add.w	r3, r1, #2147483648	; 0x80000000
 8006d10:	4619      	mov	r1, r3
 8006d12:	9b01      	ldr	r3, [sp, #4]
 8006d14:	e9c3 0102 	strd	r0, r1, [r3, #8]
 8006d18:	e7a5      	b.n	8006c66 <__kernel_rem_pio2+0x4e6>
 8006d1a:	f504 731a 	add.w	r3, r4, #616	; 0x268
 8006d1e:	eb0d 0403 	add.w	r4, sp, r3
 8006d22:	f5a4 749c 	sub.w	r4, r4, #312	; 0x138
 8006d26:	2000      	movs	r0, #0
 8006d28:	2100      	movs	r1, #0
 8006d2a:	2d00      	cmp	r5, #0
 8006d2c:	da09      	bge.n	8006d42 <__kernel_rem_pio2+0x5c2>
 8006d2e:	f1bb 0f00 	cmp.w	fp, #0
 8006d32:	d002      	beq.n	8006d3a <__kernel_rem_pio2+0x5ba>
 8006d34:	f101 4300 	add.w	r3, r1, #2147483648	; 0x80000000
 8006d38:	4619      	mov	r1, r3
 8006d3a:	9b01      	ldr	r3, [sp, #4]
 8006d3c:	e9c3 0100 	strd	r0, r1, [r3]
 8006d40:	e791      	b.n	8006c66 <__kernel_rem_pio2+0x4e6>
 8006d42:	e974 2302 	ldrd	r2, r3, [r4, #-8]!
 8006d46:	f7f9 faa1 	bl	800028c <__adddf3>
 8006d4a:	3d01      	subs	r5, #1
 8006d4c:	e7ed      	b.n	8006d2a <__kernel_rem_pio2+0x5aa>
 8006d4e:	e974 2302 	ldrd	r2, r3, [r4, #-8]!
 8006d52:	f7f9 fa9b 	bl	800028c <__adddf3>
 8006d56:	3e01      	subs	r6, #1
 8006d58:	e7c0      	b.n	8006cdc <__kernel_rem_pio2+0x55c>
 8006d5a:	4602      	mov	r2, r0
 8006d5c:	460b      	mov	r3, r1
 8006d5e:	e7c5      	b.n	8006cec <__kernel_rem_pio2+0x56c>
 8006d60:	e8f6 2302 	ldrd	r2, r3, [r6], #8
 8006d64:	f7f9 fa92 	bl	800028c <__adddf3>
 8006d68:	3401      	adds	r4, #1
 8006d6a:	e7ca      	b.n	8006d02 <__kernel_rem_pio2+0x582>
 8006d6c:	e9da 8900 	ldrd	r8, r9, [sl]
 8006d70:	e9da 6702 	ldrd	r6, r7, [sl, #8]
 8006d74:	9b02      	ldr	r3, [sp, #8]
 8006d76:	3b01      	subs	r3, #1
 8006d78:	9302      	str	r3, [sp, #8]
 8006d7a:	4632      	mov	r2, r6
 8006d7c:	463b      	mov	r3, r7
 8006d7e:	4640      	mov	r0, r8
 8006d80:	4649      	mov	r1, r9
 8006d82:	f7f9 fa83 	bl	800028c <__adddf3>
 8006d86:	e9cd 0108 	strd	r0, r1, [sp, #32]
 8006d8a:	4602      	mov	r2, r0
 8006d8c:	460b      	mov	r3, r1
 8006d8e:	4640      	mov	r0, r8
 8006d90:	4649      	mov	r1, r9
 8006d92:	f7f9 fa79 	bl	8000288 <__aeabi_dsub>
 8006d96:	4632      	mov	r2, r6
 8006d98:	463b      	mov	r3, r7
 8006d9a:	f7f9 fa77 	bl	800028c <__adddf3>
 8006d9e:	ed9d 7b08 	vldr	d7, [sp, #32]
 8006da2:	e9ca 0102 	strd	r0, r1, [sl, #8]
 8006da6:	ed8a 7b00 	vstr	d7, [sl]
 8006daa:	e76e      	b.n	8006c8a <__kernel_rem_pio2+0x50a>
 8006dac:	e9d4 8900 	ldrd	r8, r9, [r4]
 8006db0:	e9d4 6702 	ldrd	r6, r7, [r4, #8]
 8006db4:	4640      	mov	r0, r8
 8006db6:	4632      	mov	r2, r6
 8006db8:	463b      	mov	r3, r7
 8006dba:	4649      	mov	r1, r9
 8006dbc:	f7f9 fa66 	bl	800028c <__adddf3>
 8006dc0:	e9cd 0102 	strd	r0, r1, [sp, #8]
 8006dc4:	4602      	mov	r2, r0
 8006dc6:	460b      	mov	r3, r1
 8006dc8:	4640      	mov	r0, r8
 8006dca:	4649      	mov	r1, r9
 8006dcc:	f7f9 fa5c 	bl	8000288 <__aeabi_dsub>
 8006dd0:	4632      	mov	r2, r6
 8006dd2:	463b      	mov	r3, r7
 8006dd4:	f7f9 fa5a 	bl	800028c <__adddf3>
 8006dd8:	ed9d 7b02 	vldr	d7, [sp, #8]
 8006ddc:	e9c4 0102 	strd	r0, r1, [r4, #8]
 8006de0:	ed84 7b00 	vstr	d7, [r4]
 8006de4:	f10a 3aff 	add.w	sl, sl, #4294967295
 8006de8:	e755      	b.n	8006c96 <__kernel_rem_pio2+0x516>
 8006dea:	e974 2302 	ldrd	r2, r3, [r4, #-8]!
 8006dee:	f7f9 fa4d 	bl	800028c <__adddf3>
 8006df2:	3d01      	subs	r5, #1
 8006df4:	e759      	b.n	8006caa <__kernel_rem_pio2+0x52a>
 8006df6:	9b01      	ldr	r3, [sp, #4]
 8006df8:	9a01      	ldr	r2, [sp, #4]
 8006dfa:	601d      	str	r5, [r3, #0]
 8006dfc:	f106 4400 	add.w	r4, r6, #2147483648	; 0x80000000
 8006e00:	605c      	str	r4, [r3, #4]
 8006e02:	609f      	str	r7, [r3, #8]
 8006e04:	f108 4300 	add.w	r3, r8, #2147483648	; 0x80000000
 8006e08:	60d3      	str	r3, [r2, #12]
 8006e0a:	f101 4300 	add.w	r3, r1, #2147483648	; 0x80000000
 8006e0e:	6110      	str	r0, [r2, #16]
 8006e10:	6153      	str	r3, [r2, #20]
 8006e12:	e728      	b.n	8006c66 <__kernel_rem_pio2+0x4e6>
 8006e14:	41700000 	.word	0x41700000
 8006e18:	3e700000 	.word	0x3e700000
 8006e1c:	00000000 	.word	0x00000000

08006e20 <__kernel_sin>:
 8006e20:	e92d 4ff0 	stmdb	sp!, {r4, r5, r6, r7, r8, r9, sl, fp, lr}
 8006e24:	ed2d 8b04 	vpush	{d8-d9}
 8006e28:	eeb0 8a41 	vmov.f32	s16, s2
 8006e2c:	eef0 8a61 	vmov.f32	s17, s3
 8006e30:	ec55 4b10 	vmov	r4, r5, d0
 8006e34:	b083      	sub	sp, #12
 8006e36:	f025 4300 	bic.w	r3, r5, #2147483648	; 0x80000000
 8006e3a:	f1b3 5f79 	cmp.w	r3, #1044381696	; 0x3e400000
 8006e3e:	9001      	str	r0, [sp, #4]
 8006e40:	da06      	bge.n	8006e50 <__kernel_sin+0x30>
 8006e42:	ee10 0a10 	vmov	r0, s0
 8006e46:	4629      	mov	r1, r5
 8006e48:	f7f9 fe86 	bl	8000b58 <__aeabi_d2iz>
 8006e4c:	2800      	cmp	r0, #0
 8006e4e:	d051      	beq.n	8006ef4 <__kernel_sin+0xd4>
 8006e50:	4622      	mov	r2, r4
 8006e52:	462b      	mov	r3, r5
 8006e54:	4620      	mov	r0, r4
 8006e56:	4629      	mov	r1, r5
 8006e58:	f7f9 fbce 	bl	80005f8 <__aeabi_dmul>
 8006e5c:	4682      	mov	sl, r0
 8006e5e:	468b      	mov	fp, r1
 8006e60:	4602      	mov	r2, r0
 8006e62:	460b      	mov	r3, r1
 8006e64:	4620      	mov	r0, r4
 8006e66:	4629      	mov	r1, r5
 8006e68:	f7f9 fbc6 	bl	80005f8 <__aeabi_dmul>
 8006e6c:	a341      	add	r3, pc, #260	; (adr r3, 8006f74 <__kernel_sin+0x154>)
 8006e6e:	e9d3 2300 	ldrd	r2, r3, [r3]
 8006e72:	4680      	mov	r8, r0
 8006e74:	4689      	mov	r9, r1
 8006e76:	4650      	mov	r0, sl
 8006e78:	4659      	mov	r1, fp
 8006e7a:	f7f9 fbbd 	bl	80005f8 <__aeabi_dmul>
 8006e7e:	a33f      	add	r3, pc, #252	; (adr r3, 8006f7c <__kernel_sin+0x15c>)
 8006e80:	e9d3 2300 	ldrd	r2, r3, [r3]
 8006e84:	f7f9 fa00 	bl	8000288 <__aeabi_dsub>
 8006e88:	4652      	mov	r2, sl
 8006e8a:	465b      	mov	r3, fp
 8006e8c:	f7f9 fbb4 	bl	80005f8 <__aeabi_dmul>
 8006e90:	a33c      	add	r3, pc, #240	; (adr r3, 8006f84 <__kernel_sin+0x164>)
 8006e92:	e9d3 2300 	ldrd	r2, r3, [r3]
 8006e96:	f7f9 f9f9 	bl	800028c <__adddf3>
 8006e9a:	4652      	mov	r2, sl
 8006e9c:	465b      	mov	r3, fp
 8006e9e:	f7f9 fbab 	bl	80005f8 <__aeabi_dmul>
 8006ea2:	a33a      	add	r3, pc, #232	; (adr r3, 8006f8c <__kernel_sin+0x16c>)
 8006ea4:	e9d3 2300 	ldrd	r2, r3, [r3]
 8006ea8:	f7f9 f9ee 	bl	8000288 <__aeabi_dsub>
 8006eac:	4652      	mov	r2, sl
 8006eae:	465b      	mov	r3, fp
 8006eb0:	f7f9 fba2 	bl	80005f8 <__aeabi_dmul>
 8006eb4:	a337      	add	r3, pc, #220	; (adr r3, 8006f94 <__kernel_sin+0x174>)
 8006eb6:	e9d3 2300 	ldrd	r2, r3, [r3]
 8006eba:	f7f9 f9e7 	bl	800028c <__adddf3>
 8006ebe:	9b01      	ldr	r3, [sp, #4]
 8006ec0:	4606      	mov	r6, r0
 8006ec2:	460f      	mov	r7, r1
 8006ec4:	b9eb      	cbnz	r3, 8006f02 <__kernel_sin+0xe2>
 8006ec6:	4602      	mov	r2, r0
 8006ec8:	460b      	mov	r3, r1
 8006eca:	4650      	mov	r0, sl
 8006ecc:	4659      	mov	r1, fp
 8006ece:	f7f9 fb93 	bl	80005f8 <__aeabi_dmul>
 8006ed2:	a325      	add	r3, pc, #148	; (adr r3, 8006f68 <__kernel_sin+0x148>)
 8006ed4:	e9d3 2300 	ldrd	r2, r3, [r3]
 8006ed8:	f7f9 f9d6 	bl	8000288 <__aeabi_dsub>
 8006edc:	4642      	mov	r2, r8
 8006ede:	464b      	mov	r3, r9
 8006ee0:	f7f9 fb8a 	bl	80005f8 <__aeabi_dmul>
 8006ee4:	4602      	mov	r2, r0
 8006ee6:	460b      	mov	r3, r1
 8006ee8:	4620      	mov	r0, r4
 8006eea:	4629      	mov	r1, r5
 8006eec:	f7f9 f9ce 	bl	800028c <__adddf3>
 8006ef0:	4604      	mov	r4, r0
 8006ef2:	460d      	mov	r5, r1
 8006ef4:	ec45 4b10 	vmov	d0, r4, r5
 8006ef8:	b003      	add	sp, #12
 8006efa:	ecbd 8b04 	vpop	{d8-d9}
 8006efe:	e8bd 8ff0 	ldmia.w	sp!, {r4, r5, r6, r7, r8, r9, sl, fp, pc}
 8006f02:	4b1b      	ldr	r3, [pc, #108]	; (8006f70 <__kernel_sin+0x150>)
 8006f04:	ec51 0b18 	vmov	r0, r1, d8
 8006f08:	2200      	movs	r2, #0
 8006f0a:	f7f9 fb75 	bl	80005f8 <__aeabi_dmul>
 8006f0e:	4632      	mov	r2, r6
 8006f10:	ec41 0b19 	vmov	d9, r0, r1
 8006f14:	463b      	mov	r3, r7
 8006f16:	4640      	mov	r0, r8
 8006f18:	4649      	mov	r1, r9
 8006f1a:	f7f9 fb6d 	bl	80005f8 <__aeabi_dmul>
 8006f1e:	4602      	mov	r2, r0
 8006f20:	460b      	mov	r3, r1
 8006f22:	ec51 0b19 	vmov	r0, r1, d9
 8006f26:	f7f9 f9af 	bl	8000288 <__aeabi_dsub>
 8006f2a:	4652      	mov	r2, sl
 8006f2c:	465b      	mov	r3, fp
 8006f2e:	f7f9 fb63 	bl	80005f8 <__aeabi_dmul>
 8006f32:	ec53 2b18 	vmov	r2, r3, d8
 8006f36:	f7f9 f9a7 	bl	8000288 <__aeabi_dsub>
 8006f3a:	a30b      	add	r3, pc, #44	; (adr r3, 8006f68 <__kernel_sin+0x148>)
 8006f3c:	e9d3 2300 	ldrd	r2, r3, [r3]
 8006f40:	4606      	mov	r6, r0
 8006f42:	460f      	mov	r7, r1
 8006f44:	4640      	mov	r0, r8
 8006f46:	4649      	mov	r1, r9
 8006f48:	f7f9 fb56 	bl	80005f8 <__aeabi_dmul>
 8006f4c:	4602      	mov	r2, r0
 8006f4e:	460b      	mov	r3, r1
 8006f50:	4630      	mov	r0, r6
 8006f52:	4639      	mov	r1, r7
 8006f54:	f7f9 f99a 	bl	800028c <__adddf3>
 8006f58:	4602      	mov	r2, r0
 8006f5a:	460b      	mov	r3, r1
 8006f5c:	4620      	mov	r0, r4
 8006f5e:	4629      	mov	r1, r5
 8006f60:	f7f9 f992 	bl	8000288 <__aeabi_dsub>
 8006f64:	e7c4      	b.n	8006ef0 <__kernel_sin+0xd0>
 8006f66:	bf00      	nop
 8006f68:	55555549 	.word	0x55555549
 8006f6c:	3fc55555 	.word	0x3fc55555
 8006f70:	3fe00000 	.word	0x3fe00000
 8006f74:	5acfd57c 	.word	0x5acfd57c
 8006f78:	3de5d93a 	.word	0x3de5d93a
 8006f7c:	8a2b9ceb 	.word	0x8a2b9ceb
 8006f80:	3e5ae5e6 	.word	0x3e5ae5e6
 8006f84:	57b1fe7d 	.word	0x57b1fe7d
 8006f88:	3ec71de3 	.word	0x3ec71de3
 8006f8c:	19c161d5 	.word	0x19c161d5
 8006f90:	3f2a01a0 	.word	0x3f2a01a0
 8006f94:	1110f8a6 	.word	0x1110f8a6
 8006f98:	3f811111 	.word	0x3f811111

08006f9c <fabs>:
 8006f9c:	ec51 0b10 	vmov	r0, r1, d0
 8006fa0:	ee10 2a10 	vmov	r2, s0
 8006fa4:	f021 4300 	bic.w	r3, r1, #2147483648	; 0x80000000
 8006fa8:	ec43 2b10 	vmov	d0, r2, r3
 8006fac:	4770      	bx	lr
	...

08006fb0 <floor>:
 8006fb0:	ec51 0b10 	vmov	r0, r1, d0
 8006fb4:	e92d 41f0 	stmdb	sp!, {r4, r5, r6, r7, r8, lr}
 8006fb8:	f3c1 570a 	ubfx	r7, r1, #20, #11
 8006fbc:	f2a7 36ff 	subw	r6, r7, #1023	; 0x3ff
 8006fc0:	2e13      	cmp	r6, #19
 8006fc2:	ee10 5a10 	vmov	r5, s0
 8006fc6:	ee10 8a10 	vmov	r8, s0
 8006fca:	460c      	mov	r4, r1
 8006fcc:	dc32      	bgt.n	8007034 <floor+0x84>
 8006fce:	2e00      	cmp	r6, #0
 8006fd0:	da14      	bge.n	8006ffc <floor+0x4c>
 8006fd2:	a333      	add	r3, pc, #204	; (adr r3, 80070a0 <floor+0xf0>)
 8006fd4:	e9d3 2300 	ldrd	r2, r3, [r3]
 8006fd8:	f7f9 f958 	bl	800028c <__adddf3>
 8006fdc:	2200      	movs	r2, #0
 8006fde:	2300      	movs	r3, #0
 8006fe0:	f7f9 fd9a 	bl	8000b18 <__aeabi_dcmpgt>
 8006fe4:	b138      	cbz	r0, 8006ff6 <floor+0x46>
 8006fe6:	2c00      	cmp	r4, #0
 8006fe8:	da57      	bge.n	800709a <floor+0xea>
 8006fea:	f024 4300 	bic.w	r3, r4, #2147483648	; 0x80000000
 8006fee:	431d      	orrs	r5, r3
 8006ff0:	d001      	beq.n	8006ff6 <floor+0x46>
 8006ff2:	4c2d      	ldr	r4, [pc, #180]	; (80070a8 <floor+0xf8>)
 8006ff4:	2500      	movs	r5, #0
 8006ff6:	4621      	mov	r1, r4
 8006ff8:	4628      	mov	r0, r5
 8006ffa:	e025      	b.n	8007048 <floor+0x98>
 8006ffc:	4f2b      	ldr	r7, [pc, #172]	; (80070ac <floor+0xfc>)
 8006ffe:	4137      	asrs	r7, r6
 8007000:	ea01 0307 	and.w	r3, r1, r7
 8007004:	4303      	orrs	r3, r0
 8007006:	d01f      	beq.n	8007048 <floor+0x98>
 8007008:	a325      	add	r3, pc, #148	; (adr r3, 80070a0 <floor+0xf0>)
 800700a:	e9d3 2300 	ldrd	r2, r3, [r3]
 800700e:	f7f9 f93d 	bl	800028c <__adddf3>
 8007012:	2200      	movs	r2, #0
 8007014:	2300      	movs	r3, #0
 8007016:	f7f9 fd7f 	bl	8000b18 <__aeabi_dcmpgt>
 800701a:	2800      	cmp	r0, #0
 800701c:	d0eb      	beq.n	8006ff6 <floor+0x46>
 800701e:	2c00      	cmp	r4, #0
 8007020:	bfbe      	ittt	lt
 8007022:	f44f 1380 	movlt.w	r3, #1048576	; 0x100000
 8007026:	fa43 f606 	asrlt.w	r6, r3, r6
 800702a:	19a4      	addlt	r4, r4, r6
 800702c:	ea24 0407 	bic.w	r4, r4, r7
 8007030:	2500      	movs	r5, #0
 8007032:	e7e0      	b.n	8006ff6 <floor+0x46>
 8007034:	2e33      	cmp	r6, #51	; 0x33
 8007036:	dd0b      	ble.n	8007050 <floor+0xa0>
 8007038:	f5b6 6f80 	cmp.w	r6, #1024	; 0x400
 800703c:	d104      	bne.n	8007048 <floor+0x98>
 800703e:	ee10 2a10 	vmov	r2, s0
 8007042:	460b      	mov	r3, r1
 8007044:	f7f9 f922 	bl	800028c <__adddf3>
 8007048:	ec41 0b10 	vmov	d0, r0, r1
 800704c:	e8bd 81f0 	ldmia.w	sp!, {r4, r5, r6, r7, r8, pc}
 8007050:	f2a7 4713 	subw	r7, r7, #1043	; 0x413
 8007054:	f04f 33ff 	mov.w	r3, #4294967295
 8007058:	fa23 f707 	lsr.w	r7, r3, r7
 800705c:	4207      	tst	r7, r0
 800705e:	d0f3      	beq.n	8007048 <floor+0x98>
 8007060:	a30f      	add	r3, pc, #60	; (adr r3, 80070a0 <floor+0xf0>)
 8007062:	e9d3 2300 	ldrd	r2, r3, [r3]
 8007066:	f7f9 f911 	bl	800028c <__adddf3>
 800706a:	2200      	movs	r2, #0
 800706c:	2300      	movs	r3, #0
 800706e:	f7f9 fd53 	bl	8000b18 <__aeabi_dcmpgt>
 8007072:	2800      	cmp	r0, #0
 8007074:	d0bf      	beq.n	8006ff6 <floor+0x46>
 8007076:	2c00      	cmp	r4, #0
 8007078:	da02      	bge.n	8007080 <floor+0xd0>
 800707a:	2e14      	cmp	r6, #20
 800707c:	d103      	bne.n	8007086 <floor+0xd6>
 800707e:	3401      	adds	r4, #1
 8007080:	ea25 0507 	bic.w	r5, r5, r7
 8007084:	e7b7      	b.n	8006ff6 <floor+0x46>
 8007086:	2301      	movs	r3, #1
 8007088:	f1c6 0634 	rsb	r6, r6, #52	; 0x34
 800708c:	fa03 f606 	lsl.w	r6, r3, r6
 8007090:	4435      	add	r5, r6
 8007092:	4545      	cmp	r5, r8
 8007094:	bf38      	it	cc
 8007096:	18e4      	addcc	r4, r4, r3
 8007098:	e7f2      	b.n	8007080 <floor+0xd0>
 800709a:	2500      	movs	r5, #0
 800709c:	462c      	mov	r4, r5
 800709e:	e7aa      	b.n	8006ff6 <floor+0x46>
 80070a0:	8800759c 	.word	0x8800759c
 80070a4:	7e37e43c 	.word	0x7e37e43c
 80070a8:	bff00000 	.word	0xbff00000
 80070ac:	000fffff 	.word	0x000fffff

080070b0 <scalbn>:
 80070b0:	b570      	push	{r4, r5, r6, lr}
 80070b2:	ec55 4b10 	vmov	r4, r5, d0
 80070b6:	f3c5 520a 	ubfx	r2, r5, #20, #11
 80070ba:	4606      	mov	r6, r0
 80070bc:	462b      	mov	r3, r5
 80070be:	b99a      	cbnz	r2, 80070e8 <scalbn+0x38>
 80070c0:	f025 4300 	bic.w	r3, r5, #2147483648	; 0x80000000
 80070c4:	4323      	orrs	r3, r4
 80070c6:	d036      	beq.n	8007136 <scalbn+0x86>
 80070c8:	4b39      	ldr	r3, [pc, #228]	; (80071b0 <scalbn+0x100>)
 80070ca:	4629      	mov	r1, r5
 80070cc:	ee10 0a10 	vmov	r0, s0
 80070d0:	2200      	movs	r2, #0
 80070d2:	f7f9 fa91 	bl	80005f8 <__aeabi_dmul>
 80070d6:	4b37      	ldr	r3, [pc, #220]	; (80071b4 <scalbn+0x104>)
 80070d8:	429e      	cmp	r6, r3
 80070da:	4604      	mov	r4, r0
 80070dc:	460d      	mov	r5, r1
 80070de:	da10      	bge.n	8007102 <scalbn+0x52>
 80070e0:	a32b      	add	r3, pc, #172	; (adr r3, 8007190 <scalbn+0xe0>)
 80070e2:	e9d3 2300 	ldrd	r2, r3, [r3]
 80070e6:	e03a      	b.n	800715e <scalbn+0xae>
 80070e8:	f240 71ff 	movw	r1, #2047	; 0x7ff
 80070ec:	428a      	cmp	r2, r1
 80070ee:	d10c      	bne.n	800710a <scalbn+0x5a>
 80070f0:	ee10 2a10 	vmov	r2, s0
 80070f4:	4620      	mov	r0, r4
 80070f6:	4629      	mov	r1, r5
 80070f8:	f7f9 f8c8 	bl	800028c <__adddf3>
 80070fc:	4604      	mov	r4, r0
 80070fe:	460d      	mov	r5, r1
 8007100:	e019      	b.n	8007136 <scalbn+0x86>
 8007102:	f3c1 520a 	ubfx	r2, r1, #20, #11
 8007106:	460b      	mov	r3, r1
 8007108:	3a36      	subs	r2, #54	; 0x36
 800710a:	4432      	add	r2, r6
 800710c:	f240 71fe 	movw	r1, #2046	; 0x7fe
 8007110:	428a      	cmp	r2, r1
 8007112:	dd08      	ble.n	8007126 <scalbn+0x76>
 8007114:	2d00      	cmp	r5, #0
 8007116:	a120      	add	r1, pc, #128	; (adr r1, 8007198 <scalbn+0xe8>)
 8007118:	e9d1 0100 	ldrd	r0, r1, [r1]
 800711c:	da1c      	bge.n	8007158 <scalbn+0xa8>
 800711e:	a120      	add	r1, pc, #128	; (adr r1, 80071a0 <scalbn+0xf0>)
 8007120:	e9d1 0100 	ldrd	r0, r1, [r1]
 8007124:	e018      	b.n	8007158 <scalbn+0xa8>
 8007126:	2a00      	cmp	r2, #0
 8007128:	dd08      	ble.n	800713c <scalbn+0x8c>
 800712a:	f023 43ff 	bic.w	r3, r3, #2139095040	; 0x7f800000
 800712e:	f423 03e0 	bic.w	r3, r3, #7340032	; 0x700000
 8007132:	ea43 5502 	orr.w	r5, r3, r2, lsl #20
 8007136:	ec45 4b10 	vmov	d0, r4, r5
 800713a:	bd70      	pop	{r4, r5, r6, pc}
 800713c:	f112 0f35 	cmn.w	r2, #53	; 0x35
 8007140:	da19      	bge.n	8007176 <scalbn+0xc6>
 8007142:	f24c 3350 	movw	r3, #50000	; 0xc350
 8007146:	429e      	cmp	r6, r3
 8007148:	f005 4300 	and.w	r3, r5, #2147483648	; 0x80000000
 800714c:	dd0a      	ble.n	8007164 <scalbn+0xb4>
 800714e:	a112      	add	r1, pc, #72	; (adr r1, 8007198 <scalbn+0xe8>)
 8007150:	e9d1 0100 	ldrd	r0, r1, [r1]
 8007154:	2b00      	cmp	r3, #0
 8007156:	d1e2      	bne.n	800711e <scalbn+0x6e>
 8007158:	a30f      	add	r3, pc, #60	; (adr r3, 8007198 <scalbn+0xe8>)
 800715a:	e9d3 2300 	ldrd	r2, r3, [r3]
 800715e:	f7f9 fa4b 	bl	80005f8 <__aeabi_dmul>
 8007162:	e7cb      	b.n	80070fc <scalbn+0x4c>
 8007164:	a10a      	add	r1, pc, #40	; (adr r1, 8007190 <scalbn+0xe0>)
 8007166:	e9d1 0100 	ldrd	r0, r1, [r1]
 800716a:	2b00      	cmp	r3, #0
 800716c:	d0b8      	beq.n	80070e0 <scalbn+0x30>
 800716e:	a10e      	add	r1, pc, #56	; (adr r1, 80071a8 <scalbn+0xf8>)
 8007170:	e9d1 0100 	ldrd	r0, r1, [r1]
 8007174:	e7b4      	b.n	80070e0 <scalbn+0x30>
 8007176:	f023 43ff 	bic.w	r3, r3, #2139095040	; 0x7f800000
 800717a:	3236      	adds	r2, #54	; 0x36
 800717c:	f423 03e0 	bic.w	r3, r3, #7340032	; 0x700000
 8007180:	ea43 5102 	orr.w	r1, r3, r2, lsl #20
 8007184:	4620      	mov	r0, r4
 8007186:	4b0c      	ldr	r3, [pc, #48]	; (80071b8 <scalbn+0x108>)
 8007188:	2200      	movs	r2, #0
 800718a:	e7e8      	b.n	800715e <scalbn+0xae>
 800718c:	f3af 8000 	nop.w
 8007190:	c2f8f359 	.word	0xc2f8f359
 8007194:	01a56e1f 	.word	0x01a56e1f
 8007198:	8800759c 	.word	0x8800759c
 800719c:	7e37e43c 	.word	0x7e37e43c
 80071a0:	8800759c 	.word	0x8800759c
 80071a4:	fe37e43c 	.word	0xfe37e43c
 80071a8:	c2f8f359 	.word	0xc2f8f359
 80071ac:	81a56e1f 	.word	0x81a56e1f
 80071b0:	43500000 	.word	0x43500000
 80071b4:	ffff3cb0 	.word	0xffff3cb0
 80071b8:	3c900000 	.word	0x3c900000

080071bc <__errno>:
 80071bc:	4b01      	ldr	r3, [pc, #4]	; (80071c4 <__errno+0x8>)
 80071be:	6818      	ldr	r0, [r3, #0]
 80071c0:	4770      	bx	lr
 80071c2:	bf00      	nop
 80071c4:	2000000c 	.word	0x2000000c

080071c8 <__libc_init_array>:
 80071c8:	b570      	push	{r4, r5, r6, lr}
 80071ca:	4d0d      	ldr	r5, [pc, #52]	; (8007200 <__libc_init_array+0x38>)
 80071cc:	4c0d      	ldr	r4, [pc, #52]	; (8007204 <__libc_init_array+0x3c>)
 80071ce:	1b64      	subs	r4, r4, r5
 80071d0:	10a4      	asrs	r4, r4, #2
 80071d2:	2600      	movs	r6, #0
 80071d4:	42a6      	cmp	r6, r4
 80071d6:	d109      	bne.n	80071ec <__libc_init_array+0x24>
 80071d8:	4d0b      	ldr	r5, [pc, #44]	; (8007208 <__libc_init_array+0x40>)
 80071da:	4c0c      	ldr	r4, [pc, #48]	; (800720c <__libc_init_array+0x44>)
 80071dc:	f002 fdc2 	bl	8009d64 <_init>
 80071e0:	1b64      	subs	r4, r4, r5
 80071e2:	10a4      	asrs	r4, r4, #2
 80071e4:	2600      	movs	r6, #0
 80071e6:	42a6      	cmp	r6, r4
 80071e8:	d105      	bne.n	80071f6 <__libc_init_array+0x2e>
 80071ea:	bd70      	pop	{r4, r5, r6, pc}
 80071ec:	f855 3b04 	ldr.w	r3, [r5], #4
 80071f0:	4798      	blx	r3
 80071f2:	3601      	adds	r6, #1
 80071f4:	e7ee      	b.n	80071d4 <__libc_init_array+0xc>
 80071f6:	f855 3b04 	ldr.w	r3, [r5], #4
 80071fa:	4798      	blx	r3
 80071fc:	3601      	adds	r6, #1
 80071fe:	e7f2      	b.n	80071e6 <__libc_init_array+0x1e>
 8007200:	0800a43c 	.word	0x0800a43c
 8007204:	0800a43c 	.word	0x0800a43c
 8007208:	0800a43c 	.word	0x0800a43c
 800720c:	0800a440 	.word	0x0800a440

08007210 <memset>:
 8007210:	4402      	add	r2, r0
 8007212:	4603      	mov	r3, r0
 8007214:	4293      	cmp	r3, r2
 8007216:	d100      	bne.n	800721a <memset+0xa>
 8007218:	4770      	bx	lr
 800721a:	f803 1b01 	strb.w	r1, [r3], #1
 800721e:	e7f9      	b.n	8007214 <memset+0x4>

08007220 <__cvt>:
 8007220:	e92d 47ff 	stmdb	sp!, {r0, r1, r2, r3, r4, r5, r6, r7, r8, r9, sl, lr}
 8007224:	ec55 4b10 	vmov	r4, r5, d0
 8007228:	2d00      	cmp	r5, #0
 800722a:	460e      	mov	r6, r1
 800722c:	4619      	mov	r1, r3
 800722e:	462b      	mov	r3, r5
 8007230:	bfbb      	ittet	lt
 8007232:	f105 4300 	addlt.w	r3, r5, #2147483648	; 0x80000000
 8007236:	461d      	movlt	r5, r3
 8007238:	2300      	movge	r3, #0
 800723a:	232d      	movlt	r3, #45	; 0x2d
 800723c:	700b      	strb	r3, [r1, #0]
 800723e:	9b0d      	ldr	r3, [sp, #52]	; 0x34
 8007240:	f8dd a030 	ldr.w	sl, [sp, #48]	; 0x30
 8007244:	4691      	mov	r9, r2
 8007246:	f023 0820 	bic.w	r8, r3, #32
 800724a:	bfbc      	itt	lt
 800724c:	4622      	movlt	r2, r4
 800724e:	4614      	movlt	r4, r2
 8007250:	f1b8 0f46 	cmp.w	r8, #70	; 0x46
 8007254:	d005      	beq.n	8007262 <__cvt+0x42>
 8007256:	f1b8 0f45 	cmp.w	r8, #69	; 0x45
 800725a:	d100      	bne.n	800725e <__cvt+0x3e>
 800725c:	3601      	adds	r6, #1
 800725e:	2102      	movs	r1, #2
 8007260:	e000      	b.n	8007264 <__cvt+0x44>
 8007262:	2103      	movs	r1, #3
 8007264:	ab03      	add	r3, sp, #12
 8007266:	9301      	str	r3, [sp, #4]
 8007268:	ab02      	add	r3, sp, #8
 800726a:	9300      	str	r3, [sp, #0]
 800726c:	ec45 4b10 	vmov	d0, r4, r5
 8007270:	4653      	mov	r3, sl
 8007272:	4632      	mov	r2, r6
 8007274:	f000 fe18 	bl	8007ea8 <_dtoa_r>
 8007278:	f1b8 0f47 	cmp.w	r8, #71	; 0x47
 800727c:	4607      	mov	r7, r0
 800727e:	d102      	bne.n	8007286 <__cvt+0x66>
 8007280:	f019 0f01 	tst.w	r9, #1
 8007284:	d022      	beq.n	80072cc <__cvt+0xac>
 8007286:	f1b8 0f46 	cmp.w	r8, #70	; 0x46
 800728a:	eb07 0906 	add.w	r9, r7, r6
 800728e:	d110      	bne.n	80072b2 <__cvt+0x92>
 8007290:	783b      	ldrb	r3, [r7, #0]
 8007292:	2b30      	cmp	r3, #48	; 0x30
 8007294:	d10a      	bne.n	80072ac <__cvt+0x8c>
 8007296:	2200      	movs	r2, #0
 8007298:	2300      	movs	r3, #0
 800729a:	4620      	mov	r0, r4
 800729c:	4629      	mov	r1, r5
 800729e:	f7f9 fc13 	bl	8000ac8 <__aeabi_dcmpeq>
 80072a2:	b918      	cbnz	r0, 80072ac <__cvt+0x8c>
 80072a4:	f1c6 0601 	rsb	r6, r6, #1
 80072a8:	f8ca 6000 	str.w	r6, [sl]
 80072ac:	f8da 3000 	ldr.w	r3, [sl]
 80072b0:	4499      	add	r9, r3
 80072b2:	2200      	movs	r2, #0
 80072b4:	2300      	movs	r3, #0
 80072b6:	4620      	mov	r0, r4
 80072b8:	4629      	mov	r1, r5
 80072ba:	f7f9 fc05 	bl	8000ac8 <__aeabi_dcmpeq>
 80072be:	b108      	cbz	r0, 80072c4 <__cvt+0xa4>
 80072c0:	f8cd 900c 	str.w	r9, [sp, #12]
 80072c4:	2230      	movs	r2, #48	; 0x30
 80072c6:	9b03      	ldr	r3, [sp, #12]
 80072c8:	454b      	cmp	r3, r9
 80072ca:	d307      	bcc.n	80072dc <__cvt+0xbc>
 80072cc:	9b03      	ldr	r3, [sp, #12]
 80072ce:	9a0e      	ldr	r2, [sp, #56]	; 0x38
 80072d0:	1bdb      	subs	r3, r3, r7
 80072d2:	4638      	mov	r0, r7
 80072d4:	6013      	str	r3, [r2, #0]
 80072d6:	b004      	add	sp, #16
 80072d8:	e8bd 87f0 	ldmia.w	sp!, {r4, r5, r6, r7, r8, r9, sl, pc}
 80072dc:	1c59      	adds	r1, r3, #1
 80072de:	9103      	str	r1, [sp, #12]
 80072e0:	701a      	strb	r2, [r3, #0]
 80072e2:	e7f0      	b.n	80072c6 <__cvt+0xa6>

080072e4 <__exponent>:
 80072e4:	b5f7      	push	{r0, r1, r2, r4, r5, r6, r7, lr}
 80072e6:	4603      	mov	r3, r0
 80072e8:	2900      	cmp	r1, #0
 80072ea:	bfb8      	it	lt
 80072ec:	4249      	neglt	r1, r1
 80072ee:	f803 2b02 	strb.w	r2, [r3], #2
 80072f2:	bfb4      	ite	lt
 80072f4:	222d      	movlt	r2, #45	; 0x2d
 80072f6:	222b      	movge	r2, #43	; 0x2b
 80072f8:	2909      	cmp	r1, #9
 80072fa:	7042      	strb	r2, [r0, #1]
 80072fc:	dd2a      	ble.n	8007354 <__exponent+0x70>
 80072fe:	f10d 0407 	add.w	r4, sp, #7
 8007302:	46a4      	mov	ip, r4
 8007304:	270a      	movs	r7, #10
 8007306:	46a6      	mov	lr, r4
 8007308:	460a      	mov	r2, r1
 800730a:	fb91 f6f7 	sdiv	r6, r1, r7
 800730e:	fb07 1516 	mls	r5, r7, r6, r1
 8007312:	3530      	adds	r5, #48	; 0x30
 8007314:	2a63      	cmp	r2, #99	; 0x63
 8007316:	f104 34ff 	add.w	r4, r4, #4294967295
 800731a:	f80e 5c01 	strb.w	r5, [lr, #-1]
 800731e:	4631      	mov	r1, r6
 8007320:	dcf1      	bgt.n	8007306 <__exponent+0x22>
 8007322:	3130      	adds	r1, #48	; 0x30
 8007324:	f1ae 0502 	sub.w	r5, lr, #2
 8007328:	f804 1c01 	strb.w	r1, [r4, #-1]
 800732c:	1c44      	adds	r4, r0, #1
 800732e:	4629      	mov	r1, r5
 8007330:	4561      	cmp	r1, ip
 8007332:	d30a      	bcc.n	800734a <__exponent+0x66>
 8007334:	f10d 0209 	add.w	r2, sp, #9
 8007338:	eba2 020e 	sub.w	r2, r2, lr
 800733c:	4565      	cmp	r5, ip
 800733e:	bf88      	it	hi
 8007340:	2200      	movhi	r2, #0
 8007342:	4413      	add	r3, r2
 8007344:	1a18      	subs	r0, r3, r0
 8007346:	b003      	add	sp, #12
 8007348:	bdf0      	pop	{r4, r5, r6, r7, pc}
 800734a:	f811 2b01 	ldrb.w	r2, [r1], #1
 800734e:	f804 2f01 	strb.w	r2, [r4, #1]!
 8007352:	e7ed      	b.n	8007330 <__exponent+0x4c>
 8007354:	2330      	movs	r3, #48	; 0x30
 8007356:	3130      	adds	r1, #48	; 0x30
 8007358:	7083      	strb	r3, [r0, #2]
 800735a:	70c1      	strb	r1, [r0, #3]
 800735c:	1d03      	adds	r3, r0, #4
 800735e:	e7f1      	b.n	8007344 <__exponent+0x60>

08007360 <_printf_float>:
 8007360:	e92d 4ff0 	stmdb	sp!, {r4, r5, r6, r7, r8, r9, sl, fp, lr}
 8007364:	ed2d 8b02 	vpush	{d8}
 8007368:	b08d      	sub	sp, #52	; 0x34
 800736a:	460c      	mov	r4, r1
 800736c:	f8dd 8060 	ldr.w	r8, [sp, #96]	; 0x60
 8007370:	4616      	mov	r6, r2
 8007372:	461f      	mov	r7, r3
 8007374:	4605      	mov	r5, r0
 8007376:	f001 fd3d 	bl	8008df4 <_localeconv_r>
 800737a:	f8d0 a000 	ldr.w	sl, [r0]
 800737e:	4650      	mov	r0, sl
 8007380:	f7f8 ff26 	bl	80001d0 <strlen>
 8007384:	2300      	movs	r3, #0
 8007386:	930a      	str	r3, [sp, #40]	; 0x28
 8007388:	6823      	ldr	r3, [r4, #0]
 800738a:	9305      	str	r3, [sp, #20]
 800738c:	f8d8 3000 	ldr.w	r3, [r8]
 8007390:	f894 b018 	ldrb.w	fp, [r4, #24]
 8007394:	3307      	adds	r3, #7
 8007396:	f023 0307 	bic.w	r3, r3, #7
 800739a:	f103 0208 	add.w	r2, r3, #8
 800739e:	f8c8 2000 	str.w	r2, [r8]
 80073a2:	e9d3 2300 	ldrd	r2, r3, [r3]
 80073a6:	e9c4 2312 	strd	r2, r3, [r4, #72]	; 0x48
 80073aa:	e9d4 8912 	ldrd	r8, r9, [r4, #72]	; 0x48
 80073ae:	f029 4300 	bic.w	r3, r9, #2147483648	; 0x80000000
 80073b2:	9307      	str	r3, [sp, #28]
 80073b4:	f8cd 8018 	str.w	r8, [sp, #24]
 80073b8:	ee08 0a10 	vmov	s16, r0
 80073bc:	4b9f      	ldr	r3, [pc, #636]	; (800763c <_printf_float+0x2dc>)
 80073be:	e9dd 0106 	ldrd	r0, r1, [sp, #24]
 80073c2:	f04f 32ff 	mov.w	r2, #4294967295
 80073c6:	f7f9 fbb1 	bl	8000b2c <__aeabi_dcmpun>
 80073ca:	bb88      	cbnz	r0, 8007430 <_printf_float+0xd0>
 80073cc:	e9dd 0106 	ldrd	r0, r1, [sp, #24]
 80073d0:	4b9a      	ldr	r3, [pc, #616]	; (800763c <_printf_float+0x2dc>)
 80073d2:	f04f 32ff 	mov.w	r2, #4294967295
 80073d6:	f7f9 fb8b 	bl	8000af0 <__aeabi_dcmple>
 80073da:	bb48      	cbnz	r0, 8007430 <_printf_float+0xd0>
 80073dc:	2200      	movs	r2, #0
 80073de:	2300      	movs	r3, #0
 80073e0:	4640      	mov	r0, r8
 80073e2:	4649      	mov	r1, r9
 80073e4:	f7f9 fb7a 	bl	8000adc <__aeabi_dcmplt>
 80073e8:	b110      	cbz	r0, 80073f0 <_printf_float+0x90>
 80073ea:	232d      	movs	r3, #45	; 0x2d
 80073ec:	f884 3043 	strb.w	r3, [r4, #67]	; 0x43
 80073f0:	4b93      	ldr	r3, [pc, #588]	; (8007640 <_printf_float+0x2e0>)
 80073f2:	4894      	ldr	r0, [pc, #592]	; (8007644 <_printf_float+0x2e4>)
 80073f4:	f1bb 0f47 	cmp.w	fp, #71	; 0x47
 80073f8:	bf94      	ite	ls
 80073fa:	4698      	movls	r8, r3
 80073fc:	4680      	movhi	r8, r0
 80073fe:	2303      	movs	r3, #3
 8007400:	6123      	str	r3, [r4, #16]
 8007402:	9b05      	ldr	r3, [sp, #20]
 8007404:	f023 0204 	bic.w	r2, r3, #4
 8007408:	6022      	str	r2, [r4, #0]
 800740a:	f04f 0900 	mov.w	r9, #0
 800740e:	9700      	str	r7, [sp, #0]
 8007410:	4633      	mov	r3, r6
 8007412:	aa0b      	add	r2, sp, #44	; 0x2c
 8007414:	4621      	mov	r1, r4
 8007416:	4628      	mov	r0, r5
 8007418:	f000 f9d8 	bl	80077cc <_printf_common>
 800741c:	3001      	adds	r0, #1
 800741e:	f040 8090 	bne.w	8007542 <_printf_float+0x1e2>
 8007422:	f04f 30ff 	mov.w	r0, #4294967295
 8007426:	b00d      	add	sp, #52	; 0x34
 8007428:	ecbd 8b02 	vpop	{d8}
 800742c:	e8bd 8ff0 	ldmia.w	sp!, {r4, r5, r6, r7, r8, r9, sl, fp, pc}
 8007430:	4642      	mov	r2, r8
 8007432:	464b      	mov	r3, r9
 8007434:	4640      	mov	r0, r8
 8007436:	4649      	mov	r1, r9
 8007438:	f7f9 fb78 	bl	8000b2c <__aeabi_dcmpun>
 800743c:	b140      	cbz	r0, 8007450 <_printf_float+0xf0>
 800743e:	464b      	mov	r3, r9
 8007440:	2b00      	cmp	r3, #0
 8007442:	bfbc      	itt	lt
 8007444:	232d      	movlt	r3, #45	; 0x2d
 8007446:	f884 3043 	strblt.w	r3, [r4, #67]	; 0x43
 800744a:	487f      	ldr	r0, [pc, #508]	; (8007648 <_printf_float+0x2e8>)
 800744c:	4b7f      	ldr	r3, [pc, #508]	; (800764c <_printf_float+0x2ec>)
 800744e:	e7d1      	b.n	80073f4 <_printf_float+0x94>
 8007450:	6863      	ldr	r3, [r4, #4]
 8007452:	f00b 02df 	and.w	r2, fp, #223	; 0xdf
 8007456:	9206      	str	r2, [sp, #24]
 8007458:	1c5a      	adds	r2, r3, #1
 800745a:	d13f      	bne.n	80074dc <_printf_float+0x17c>
 800745c:	2306      	movs	r3, #6
 800745e:	6063      	str	r3, [r4, #4]
 8007460:	9b05      	ldr	r3, [sp, #20]
 8007462:	6861      	ldr	r1, [r4, #4]
 8007464:	f443 6280 	orr.w	r2, r3, #1024	; 0x400
 8007468:	2300      	movs	r3, #0
 800746a:	9303      	str	r3, [sp, #12]
 800746c:	ab0a      	add	r3, sp, #40	; 0x28
 800746e:	e9cd b301 	strd	fp, r3, [sp, #4]
 8007472:	ab09      	add	r3, sp, #36	; 0x24
 8007474:	ec49 8b10 	vmov	d0, r8, r9
 8007478:	9300      	str	r3, [sp, #0]
 800747a:	6022      	str	r2, [r4, #0]
 800747c:	f10d 0323 	add.w	r3, sp, #35	; 0x23
 8007480:	4628      	mov	r0, r5
 8007482:	f7ff fecd 	bl	8007220 <__cvt>
 8007486:	9b06      	ldr	r3, [sp, #24]
 8007488:	9909      	ldr	r1, [sp, #36]	; 0x24
 800748a:	2b47      	cmp	r3, #71	; 0x47
 800748c:	4680      	mov	r8, r0
 800748e:	d108      	bne.n	80074a2 <_printf_float+0x142>
 8007490:	1cc8      	adds	r0, r1, #3
 8007492:	db02      	blt.n	800749a <_printf_float+0x13a>
 8007494:	6863      	ldr	r3, [r4, #4]
 8007496:	4299      	cmp	r1, r3
 8007498:	dd41      	ble.n	800751e <_printf_float+0x1be>
 800749a:	f1ab 0b02 	sub.w	fp, fp, #2
 800749e:	fa5f fb8b 	uxtb.w	fp, fp
 80074a2:	f1bb 0f65 	cmp.w	fp, #101	; 0x65
 80074a6:	d820      	bhi.n	80074ea <_printf_float+0x18a>
 80074a8:	3901      	subs	r1, #1
 80074aa:	465a      	mov	r2, fp
 80074ac:	f104 0050 	add.w	r0, r4, #80	; 0x50
 80074b0:	9109      	str	r1, [sp, #36]	; 0x24
 80074b2:	f7ff ff17 	bl	80072e4 <__exponent>
 80074b6:	9a0a      	ldr	r2, [sp, #40]	; 0x28
 80074b8:	1813      	adds	r3, r2, r0
 80074ba:	2a01      	cmp	r2, #1
 80074bc:	4681      	mov	r9, r0
 80074be:	6123      	str	r3, [r4, #16]
 80074c0:	dc02      	bgt.n	80074c8 <_printf_float+0x168>
 80074c2:	6822      	ldr	r2, [r4, #0]
 80074c4:	07d2      	lsls	r2, r2, #31
 80074c6:	d501      	bpl.n	80074cc <_printf_float+0x16c>
 80074c8:	3301      	adds	r3, #1
 80074ca:	6123      	str	r3, [r4, #16]
 80074cc:	f89d 3023 	ldrb.w	r3, [sp, #35]	; 0x23
 80074d0:	2b00      	cmp	r3, #0
 80074d2:	d09c      	beq.n	800740e <_printf_float+0xae>
 80074d4:	232d      	movs	r3, #45	; 0x2d
 80074d6:	f884 3043 	strb.w	r3, [r4, #67]	; 0x43
 80074da:	e798      	b.n	800740e <_printf_float+0xae>
 80074dc:	9a06      	ldr	r2, [sp, #24]
 80074de:	2a47      	cmp	r2, #71	; 0x47
 80074e0:	d1be      	bne.n	8007460 <_printf_float+0x100>
 80074e2:	2b00      	cmp	r3, #0
 80074e4:	d1bc      	bne.n	8007460 <_printf_float+0x100>
 80074e6:	2301      	movs	r3, #1
 80074e8:	e7b9      	b.n	800745e <_printf_float+0xfe>
 80074ea:	f1bb 0f66 	cmp.w	fp, #102	; 0x66
 80074ee:	d118      	bne.n	8007522 <_printf_float+0x1c2>
 80074f0:	2900      	cmp	r1, #0
 80074f2:	6863      	ldr	r3, [r4, #4]
 80074f4:	dd0b      	ble.n	800750e <_printf_float+0x1ae>
 80074f6:	6121      	str	r1, [r4, #16]
 80074f8:	b913      	cbnz	r3, 8007500 <_printf_float+0x1a0>
 80074fa:	6822      	ldr	r2, [r4, #0]
 80074fc:	07d0      	lsls	r0, r2, #31
 80074fe:	d502      	bpl.n	8007506 <_printf_float+0x1a6>
 8007500:	3301      	adds	r3, #1
 8007502:	440b      	add	r3, r1
 8007504:	6123      	str	r3, [r4, #16]
 8007506:	65a1      	str	r1, [r4, #88]	; 0x58
 8007508:	f04f 0900 	mov.w	r9, #0
 800750c:	e7de      	b.n	80074cc <_printf_float+0x16c>
 800750e:	b913      	cbnz	r3, 8007516 <_printf_float+0x1b6>
 8007510:	6822      	ldr	r2, [r4, #0]
 8007512:	07d2      	lsls	r2, r2, #31
 8007514:	d501      	bpl.n	800751a <_printf_float+0x1ba>
 8007516:	3302      	adds	r3, #2
 8007518:	e7f4      	b.n	8007504 <_printf_float+0x1a4>
 800751a:	2301      	movs	r3, #1
 800751c:	e7f2      	b.n	8007504 <_printf_float+0x1a4>
 800751e:	f04f 0b67 	mov.w	fp, #103	; 0x67
 8007522:	9b0a      	ldr	r3, [sp, #40]	; 0x28
 8007524:	4299      	cmp	r1, r3
 8007526:	db05      	blt.n	8007534 <_printf_float+0x1d4>
 8007528:	6823      	ldr	r3, [r4, #0]
 800752a:	6121      	str	r1, [r4, #16]
 800752c:	07d8      	lsls	r0, r3, #31
 800752e:	d5ea      	bpl.n	8007506 <_printf_float+0x1a6>
 8007530:	1c4b      	adds	r3, r1, #1
 8007532:	e7e7      	b.n	8007504 <_printf_float+0x1a4>
 8007534:	2900      	cmp	r1, #0
 8007536:	bfd4      	ite	le
 8007538:	f1c1 0202 	rsble	r2, r1, #2
 800753c:	2201      	movgt	r2, #1
 800753e:	4413      	add	r3, r2
 8007540:	e7e0      	b.n	8007504 <_printf_float+0x1a4>
 8007542:	6823      	ldr	r3, [r4, #0]
 8007544:	055a      	lsls	r2, r3, #21
 8007546:	d407      	bmi.n	8007558 <_printf_float+0x1f8>
 8007548:	6923      	ldr	r3, [r4, #16]
 800754a:	4642      	mov	r2, r8
 800754c:	4631      	mov	r1, r6
 800754e:	4628      	mov	r0, r5
 8007550:	47b8      	blx	r7
 8007552:	3001      	adds	r0, #1
 8007554:	d12c      	bne.n	80075b0 <_printf_float+0x250>
 8007556:	e764      	b.n	8007422 <_printf_float+0xc2>
 8007558:	f1bb 0f65 	cmp.w	fp, #101	; 0x65
 800755c:	f240 80e0 	bls.w	8007720 <_printf_float+0x3c0>
 8007560:	e9d4 0112 	ldrd	r0, r1, [r4, #72]	; 0x48
 8007564:	2200      	movs	r2, #0
 8007566:	2300      	movs	r3, #0
 8007568:	f7f9 faae 	bl	8000ac8 <__aeabi_dcmpeq>
 800756c:	2800      	cmp	r0, #0
 800756e:	d034      	beq.n	80075da <_printf_float+0x27a>
 8007570:	4a37      	ldr	r2, [pc, #220]	; (8007650 <_printf_float+0x2f0>)
 8007572:	2301      	movs	r3, #1
 8007574:	4631      	mov	r1, r6
 8007576:	4628      	mov	r0, r5
 8007578:	47b8      	blx	r7
 800757a:	3001      	adds	r0, #1
 800757c:	f43f af51 	beq.w	8007422 <_printf_float+0xc2>
 8007580:	e9dd 2309 	ldrd	r2, r3, [sp, #36]	; 0x24
 8007584:	429a      	cmp	r2, r3
 8007586:	db02      	blt.n	800758e <_printf_float+0x22e>
 8007588:	6823      	ldr	r3, [r4, #0]
 800758a:	07d8      	lsls	r0, r3, #31
 800758c:	d510      	bpl.n	80075b0 <_printf_float+0x250>
 800758e:	ee18 3a10 	vmov	r3, s16
 8007592:	4652      	mov	r2, sl
 8007594:	4631      	mov	r1, r6
 8007596:	4628      	mov	r0, r5
 8007598:	47b8      	blx	r7
 800759a:	3001      	adds	r0, #1
 800759c:	f43f af41 	beq.w	8007422 <_printf_float+0xc2>
 80075a0:	f04f 0800 	mov.w	r8, #0
 80075a4:	f104 091a 	add.w	r9, r4, #26
 80075a8:	9b0a      	ldr	r3, [sp, #40]	; 0x28
 80075aa:	3b01      	subs	r3, #1
 80075ac:	4543      	cmp	r3, r8
 80075ae:	dc09      	bgt.n	80075c4 <_printf_float+0x264>
 80075b0:	6823      	ldr	r3, [r4, #0]
 80075b2:	079b      	lsls	r3, r3, #30
 80075b4:	f100 8105 	bmi.w	80077c2 <_printf_float+0x462>
 80075b8:	68e0      	ldr	r0, [r4, #12]
 80075ba:	9b0b      	ldr	r3, [sp, #44]	; 0x2c
 80075bc:	4298      	cmp	r0, r3
 80075be:	bfb8      	it	lt
 80075c0:	4618      	movlt	r0, r3
 80075c2:	e730      	b.n	8007426 <_printf_float+0xc6>
 80075c4:	2301      	movs	r3, #1
 80075c6:	464a      	mov	r2, r9
 80075c8:	4631      	mov	r1, r6
 80075ca:	4628      	mov	r0, r5
 80075cc:	47b8      	blx	r7
 80075ce:	3001      	adds	r0, #1
 80075d0:	f43f af27 	beq.w	8007422 <_printf_float+0xc2>
 80075d4:	f108 0801 	add.w	r8, r8, #1
 80075d8:	e7e6      	b.n	80075a8 <_printf_float+0x248>
 80075da:	9b09      	ldr	r3, [sp, #36]	; 0x24
 80075dc:	2b00      	cmp	r3, #0
 80075de:	dc39      	bgt.n	8007654 <_printf_float+0x2f4>
 80075e0:	4a1b      	ldr	r2, [pc, #108]	; (8007650 <_printf_float+0x2f0>)
 80075e2:	2301      	movs	r3, #1
 80075e4:	4631      	mov	r1, r6
 80075e6:	4628      	mov	r0, r5
 80075e8:	47b8      	blx	r7
 80075ea:	3001      	adds	r0, #1
 80075ec:	f43f af19 	beq.w	8007422 <_printf_float+0xc2>
 80075f0:	e9dd 2309 	ldrd	r2, r3, [sp, #36]	; 0x24
 80075f4:	4313      	orrs	r3, r2
 80075f6:	d102      	bne.n	80075fe <_printf_float+0x29e>
 80075f8:	6823      	ldr	r3, [r4, #0]
 80075fa:	07d9      	lsls	r1, r3, #31
 80075fc:	d5d8      	bpl.n	80075b0 <_printf_float+0x250>
 80075fe:	ee18 3a10 	vmov	r3, s16
 8007602:	4652      	mov	r2, sl
 8007604:	4631      	mov	r1, r6
 8007606:	4628      	mov	r0, r5
 8007608:	47b8      	blx	r7
 800760a:	3001      	adds	r0, #1
 800760c:	f43f af09 	beq.w	8007422 <_printf_float+0xc2>
 8007610:	f04f 0900 	mov.w	r9, #0
 8007614:	f104 0a1a 	add.w	sl, r4, #26
 8007618:	9b09      	ldr	r3, [sp, #36]	; 0x24
 800761a:	425b      	negs	r3, r3
 800761c:	454b      	cmp	r3, r9
 800761e:	dc01      	bgt.n	8007624 <_printf_float+0x2c4>
 8007620:	9b0a      	ldr	r3, [sp, #40]	; 0x28
 8007622:	e792      	b.n	800754a <_printf_float+0x1ea>
 8007624:	2301      	movs	r3, #1
 8007626:	4652      	mov	r2, sl
 8007628:	4631      	mov	r1, r6
 800762a:	4628      	mov	r0, r5
 800762c:	47b8      	blx	r7
 800762e:	3001      	adds	r0, #1
 8007630:	f43f aef7 	beq.w	8007422 <_printf_float+0xc2>
 8007634:	f109 0901 	add.w	r9, r9, #1
 8007638:	e7ee      	b.n	8007618 <_printf_float+0x2b8>
 800763a:	bf00      	nop
 800763c:	7fefffff 	.word	0x7fefffff
 8007640:	0800a064 	.word	0x0800a064
 8007644:	0800a068 	.word	0x0800a068
 8007648:	0800a070 	.word	0x0800a070
 800764c:	0800a06c 	.word	0x0800a06c
 8007650:	0800a074 	.word	0x0800a074
 8007654:	9a0a      	ldr	r2, [sp, #40]	; 0x28
 8007656:	6da3      	ldr	r3, [r4, #88]	; 0x58
 8007658:	429a      	cmp	r2, r3
 800765a:	bfa8      	it	ge
 800765c:	461a      	movge	r2, r3
 800765e:	2a00      	cmp	r2, #0
 8007660:	4691      	mov	r9, r2
 8007662:	dc37      	bgt.n	80076d4 <_printf_float+0x374>
 8007664:	f04f 0b00 	mov.w	fp, #0
 8007668:	ea29 79e9 	bic.w	r9, r9, r9, asr #31
 800766c:	f104 021a 	add.w	r2, r4, #26
 8007670:	6da3      	ldr	r3, [r4, #88]	; 0x58
 8007672:	9305      	str	r3, [sp, #20]
 8007674:	eba3 0309 	sub.w	r3, r3, r9
 8007678:	455b      	cmp	r3, fp
 800767a:	dc33      	bgt.n	80076e4 <_printf_float+0x384>
 800767c:	e9dd 2309 	ldrd	r2, r3, [sp, #36]	; 0x24
 8007680:	429a      	cmp	r2, r3
 8007682:	db3b      	blt.n	80076fc <_printf_float+0x39c>
 8007684:	6823      	ldr	r3, [r4, #0]
 8007686:	07da      	lsls	r2, r3, #31
 8007688:	d438      	bmi.n	80076fc <_printf_float+0x39c>
 800768a:	9b0a      	ldr	r3, [sp, #40]	; 0x28
 800768c:	9a05      	ldr	r2, [sp, #20]
 800768e:	9909      	ldr	r1, [sp, #36]	; 0x24
 8007690:	1a9a      	subs	r2, r3, r2
 8007692:	eba3 0901 	sub.w	r9, r3, r1
 8007696:	4591      	cmp	r9, r2
 8007698:	bfa8      	it	ge
 800769a:	4691      	movge	r9, r2
 800769c:	f1b9 0f00 	cmp.w	r9, #0
 80076a0:	dc35      	bgt.n	800770e <_printf_float+0x3ae>
 80076a2:	f04f 0800 	mov.w	r8, #0
 80076a6:	ea29 79e9 	bic.w	r9, r9, r9, asr #31
 80076aa:	f104 0a1a 	add.w	sl, r4, #26
 80076ae:	e9dd 2309 	ldrd	r2, r3, [sp, #36]	; 0x24
 80076b2:	1a9b      	subs	r3, r3, r2
 80076b4:	eba3 0309 	sub.w	r3, r3, r9
 80076b8:	4543      	cmp	r3, r8
 80076ba:	f77f af79 	ble.w	80075b0 <_printf_float+0x250>
 80076be:	2301      	movs	r3, #1
 80076c0:	4652      	mov	r2, sl
 80076c2:	4631      	mov	r1, r6
 80076c4:	4628      	mov	r0, r5
 80076c6:	47b8      	blx	r7
 80076c8:	3001      	adds	r0, #1
 80076ca:	f43f aeaa 	beq.w	8007422 <_printf_float+0xc2>
 80076ce:	f108 0801 	add.w	r8, r8, #1
 80076d2:	e7ec      	b.n	80076ae <_printf_float+0x34e>
 80076d4:	4613      	mov	r3, r2
 80076d6:	4631      	mov	r1, r6
 80076d8:	4642      	mov	r2, r8
 80076da:	4628      	mov	r0, r5
 80076dc:	47b8      	blx	r7
 80076de:	3001      	adds	r0, #1
 80076e0:	d1c0      	bne.n	8007664 <_printf_float+0x304>
 80076e2:	e69e      	b.n	8007422 <_printf_float+0xc2>
 80076e4:	2301      	movs	r3, #1
 80076e6:	4631      	mov	r1, r6
 80076e8:	4628      	mov	r0, r5
 80076ea:	9205      	str	r2, [sp, #20]
 80076ec:	47b8      	blx	r7
 80076ee:	3001      	adds	r0, #1
 80076f0:	f43f ae97 	beq.w	8007422 <_printf_float+0xc2>
 80076f4:	9a05      	ldr	r2, [sp, #20]
 80076f6:	f10b 0b01 	add.w	fp, fp, #1
 80076fa:	e7b9      	b.n	8007670 <_printf_float+0x310>
 80076fc:	ee18 3a10 	vmov	r3, s16
 8007700:	4652      	mov	r2, sl
 8007702:	4631      	mov	r1, r6
 8007704:	4628      	mov	r0, r5
 8007706:	47b8      	blx	r7
 8007708:	3001      	adds	r0, #1
 800770a:	d1be      	bne.n	800768a <_printf_float+0x32a>
 800770c:	e689      	b.n	8007422 <_printf_float+0xc2>
 800770e:	9a05      	ldr	r2, [sp, #20]
 8007710:	464b      	mov	r3, r9
 8007712:	4442      	add	r2, r8
 8007714:	4631      	mov	r1, r6
 8007716:	4628      	mov	r0, r5
 8007718:	47b8      	blx	r7
 800771a:	3001      	adds	r0, #1
 800771c:	d1c1      	bne.n	80076a2 <_printf_float+0x342>
 800771e:	e680      	b.n	8007422 <_printf_float+0xc2>
 8007720:	9a0a      	ldr	r2, [sp, #40]	; 0x28
 8007722:	2a01      	cmp	r2, #1
 8007724:	dc01      	bgt.n	800772a <_printf_float+0x3ca>
 8007726:	07db      	lsls	r3, r3, #31
 8007728:	d538      	bpl.n	800779c <_printf_float+0x43c>
 800772a:	2301      	movs	r3, #1
 800772c:	4642      	mov	r2, r8
 800772e:	4631      	mov	r1, r6
 8007730:	4628      	mov	r0, r5
 8007732:	47b8      	blx	r7
 8007734:	3001      	adds	r0, #1
 8007736:	f43f ae74 	beq.w	8007422 <_printf_float+0xc2>
 800773a:	ee18 3a10 	vmov	r3, s16
 800773e:	4652      	mov	r2, sl
 8007740:	4631      	mov	r1, r6
 8007742:	4628      	mov	r0, r5
 8007744:	47b8      	blx	r7
 8007746:	3001      	adds	r0, #1
 8007748:	f43f ae6b 	beq.w	8007422 <_printf_float+0xc2>
 800774c:	e9d4 0112 	ldrd	r0, r1, [r4, #72]	; 0x48
 8007750:	2200      	movs	r2, #0
 8007752:	2300      	movs	r3, #0
 8007754:	f7f9 f9b8 	bl	8000ac8 <__aeabi_dcmpeq>
 8007758:	b9d8      	cbnz	r0, 8007792 <_printf_float+0x432>
 800775a:	9b0a      	ldr	r3, [sp, #40]	; 0x28
 800775c:	f108 0201 	add.w	r2, r8, #1
 8007760:	3b01      	subs	r3, #1
 8007762:	4631      	mov	r1, r6
 8007764:	4628      	mov	r0, r5
 8007766:	47b8      	blx	r7
 8007768:	3001      	adds	r0, #1
 800776a:	d10e      	bne.n	800778a <_printf_float+0x42a>
 800776c:	e659      	b.n	8007422 <_printf_float+0xc2>
 800776e:	2301      	movs	r3, #1
 8007770:	4652      	mov	r2, sl
 8007772:	4631      	mov	r1, r6
 8007774:	4628      	mov	r0, r5
 8007776:	47b8      	blx	r7
 8007778:	3001      	adds	r0, #1
 800777a:	f43f ae52 	beq.w	8007422 <_printf_float+0xc2>
 800777e:	f108 0801 	add.w	r8, r8, #1
 8007782:	9b0a      	ldr	r3, [sp, #40]	; 0x28
 8007784:	3b01      	subs	r3, #1
 8007786:	4543      	cmp	r3, r8
 8007788:	dcf1      	bgt.n	800776e <_printf_float+0x40e>
 800778a:	464b      	mov	r3, r9
 800778c:	f104 0250 	add.w	r2, r4, #80	; 0x50
 8007790:	e6dc      	b.n	800754c <_printf_float+0x1ec>
 8007792:	f04f 0800 	mov.w	r8, #0
 8007796:	f104 0a1a 	add.w	sl, r4, #26
 800779a:	e7f2      	b.n	8007782 <_printf_float+0x422>
 800779c:	2301      	movs	r3, #1
 800779e:	4642      	mov	r2, r8
 80077a0:	e7df      	b.n	8007762 <_printf_float+0x402>
 80077a2:	2301      	movs	r3, #1
 80077a4:	464a      	mov	r2, r9
 80077a6:	4631      	mov	r1, r6
 80077a8:	4628      	mov	r0, r5
 80077aa:	47b8      	blx	r7
 80077ac:	3001      	adds	r0, #1
 80077ae:	f43f ae38 	beq.w	8007422 <_printf_float+0xc2>
 80077b2:	f108 0801 	add.w	r8, r8, #1
 80077b6:	68e3      	ldr	r3, [r4, #12]
 80077b8:	990b      	ldr	r1, [sp, #44]	; 0x2c
 80077ba:	1a5b      	subs	r3, r3, r1
 80077bc:	4543      	cmp	r3, r8
 80077be:	dcf0      	bgt.n	80077a2 <_printf_float+0x442>
 80077c0:	e6fa      	b.n	80075b8 <_printf_float+0x258>
 80077c2:	f04f 0800 	mov.w	r8, #0
 80077c6:	f104 0919 	add.w	r9, r4, #25
 80077ca:	e7f4      	b.n	80077b6 <_printf_float+0x456>

080077cc <_printf_common>:
 80077cc:	e92d 47f0 	stmdb	sp!, {r4, r5, r6, r7, r8, r9, sl, lr}
 80077d0:	4616      	mov	r6, r2
 80077d2:	4699      	mov	r9, r3
 80077d4:	688a      	ldr	r2, [r1, #8]
 80077d6:	690b      	ldr	r3, [r1, #16]
 80077d8:	f8dd 8020 	ldr.w	r8, [sp, #32]
 80077dc:	4293      	cmp	r3, r2
 80077de:	bfb8      	it	lt
 80077e0:	4613      	movlt	r3, r2
 80077e2:	6033      	str	r3, [r6, #0]
 80077e4:	f891 2043 	ldrb.w	r2, [r1, #67]	; 0x43
 80077e8:	4607      	mov	r7, r0
 80077ea:	460c      	mov	r4, r1
 80077ec:	b10a      	cbz	r2, 80077f2 <_printf_common+0x26>
 80077ee:	3301      	adds	r3, #1
 80077f0:	6033      	str	r3, [r6, #0]
 80077f2:	6823      	ldr	r3, [r4, #0]
 80077f4:	0699      	lsls	r1, r3, #26
 80077f6:	bf42      	ittt	mi
 80077f8:	6833      	ldrmi	r3, [r6, #0]
 80077fa:	3302      	addmi	r3, #2
 80077fc:	6033      	strmi	r3, [r6, #0]
 80077fe:	6825      	ldr	r5, [r4, #0]
 8007800:	f015 0506 	ands.w	r5, r5, #6
 8007804:	d106      	bne.n	8007814 <_printf_common+0x48>
 8007806:	f104 0a19 	add.w	sl, r4, #25
 800780a:	68e3      	ldr	r3, [r4, #12]
 800780c:	6832      	ldr	r2, [r6, #0]
 800780e:	1a9b      	subs	r3, r3, r2
 8007810:	42ab      	cmp	r3, r5
 8007812:	dc26      	bgt.n	8007862 <_printf_common+0x96>
 8007814:	f894 2043 	ldrb.w	r2, [r4, #67]	; 0x43
 8007818:	1e13      	subs	r3, r2, #0
 800781a:	6822      	ldr	r2, [r4, #0]
 800781c:	bf18      	it	ne
 800781e:	2301      	movne	r3, #1
 8007820:	0692      	lsls	r2, r2, #26
 8007822:	d42b      	bmi.n	800787c <_printf_common+0xb0>
 8007824:	f104 0243 	add.w	r2, r4, #67	; 0x43
 8007828:	4649      	mov	r1, r9
 800782a:	4638      	mov	r0, r7
 800782c:	47c0      	blx	r8
 800782e:	3001      	adds	r0, #1
 8007830:	d01e      	beq.n	8007870 <_printf_common+0xa4>
 8007832:	6823      	ldr	r3, [r4, #0]
 8007834:	68e5      	ldr	r5, [r4, #12]
 8007836:	6832      	ldr	r2, [r6, #0]
 8007838:	f003 0306 	and.w	r3, r3, #6
 800783c:	2b04      	cmp	r3, #4
 800783e:	bf08      	it	eq
 8007840:	1aad      	subeq	r5, r5, r2
 8007842:	68a3      	ldr	r3, [r4, #8]
 8007844:	6922      	ldr	r2, [r4, #16]
 8007846:	bf0c      	ite	eq
 8007848:	ea25 75e5 	biceq.w	r5, r5, r5, asr #31
 800784c:	2500      	movne	r5, #0
 800784e:	4293      	cmp	r3, r2
 8007850:	bfc4      	itt	gt
 8007852:	1a9b      	subgt	r3, r3, r2
 8007854:	18ed      	addgt	r5, r5, r3
 8007856:	2600      	movs	r6, #0
 8007858:	341a      	adds	r4, #26
 800785a:	42b5      	cmp	r5, r6
 800785c:	d11a      	bne.n	8007894 <_printf_common+0xc8>
 800785e:	2000      	movs	r0, #0
 8007860:	e008      	b.n	8007874 <_printf_common+0xa8>
 8007862:	2301      	movs	r3, #1
 8007864:	4652      	mov	r2, sl
 8007866:	4649      	mov	r1, r9
 8007868:	4638      	mov	r0, r7
 800786a:	47c0      	blx	r8
 800786c:	3001      	adds	r0, #1
 800786e:	d103      	bne.n	8007878 <_printf_common+0xac>
 8007870:	f04f 30ff 	mov.w	r0, #4294967295
 8007874:	e8bd 87f0 	ldmia.w	sp!, {r4, r5, r6, r7, r8, r9, sl, pc}
 8007878:	3501      	adds	r5, #1
 800787a:	e7c6      	b.n	800780a <_printf_common+0x3e>
 800787c:	18e1      	adds	r1, r4, r3
 800787e:	1c5a      	adds	r2, r3, #1
 8007880:	2030      	movs	r0, #48	; 0x30
 8007882:	f881 0043 	strb.w	r0, [r1, #67]	; 0x43
 8007886:	4422      	add	r2, r4
 8007888:	f894 1045 	ldrb.w	r1, [r4, #69]	; 0x45
 800788c:	f882 1043 	strb.w	r1, [r2, #67]	; 0x43
 8007890:	3302      	adds	r3, #2
 8007892:	e7c7      	b.n	8007824 <_printf_common+0x58>
 8007894:	2301      	movs	r3, #1
 8007896:	4622      	mov	r2, r4
 8007898:	4649      	mov	r1, r9
 800789a:	4638      	mov	r0, r7
 800789c:	47c0      	blx	r8
 800789e:	3001      	adds	r0, #1
 80078a0:	d0e6      	beq.n	8007870 <_printf_common+0xa4>
 80078a2:	3601      	adds	r6, #1
 80078a4:	e7d9      	b.n	800785a <_printf_common+0x8e>
	...

080078a8 <_printf_i>:
 80078a8:	e92d 47ff 	stmdb	sp!, {r0, r1, r2, r3, r4, r5, r6, r7, r8, r9, sl, lr}
 80078ac:	7e0f      	ldrb	r7, [r1, #24]
 80078ae:	9d0c      	ldr	r5, [sp, #48]	; 0x30
 80078b0:	2f78      	cmp	r7, #120	; 0x78
 80078b2:	4691      	mov	r9, r2
 80078b4:	4680      	mov	r8, r0
 80078b6:	460c      	mov	r4, r1
 80078b8:	469a      	mov	sl, r3
 80078ba:	f101 0243 	add.w	r2, r1, #67	; 0x43
 80078be:	d807      	bhi.n	80078d0 <_printf_i+0x28>
 80078c0:	2f62      	cmp	r7, #98	; 0x62
 80078c2:	d80a      	bhi.n	80078da <_printf_i+0x32>
 80078c4:	2f00      	cmp	r7, #0
 80078c6:	f000 80d8 	beq.w	8007a7a <_printf_i+0x1d2>
 80078ca:	2f58      	cmp	r7, #88	; 0x58
 80078cc:	f000 80a3 	beq.w	8007a16 <_printf_i+0x16e>
 80078d0:	f104 0542 	add.w	r5, r4, #66	; 0x42
 80078d4:	f884 7042 	strb.w	r7, [r4, #66]	; 0x42
 80078d8:	e03a      	b.n	8007950 <_printf_i+0xa8>
 80078da:	f1a7 0363 	sub.w	r3, r7, #99	; 0x63
 80078de:	2b15      	cmp	r3, #21
 80078e0:	d8f6      	bhi.n	80078d0 <_printf_i+0x28>
 80078e2:	a101      	add	r1, pc, #4	; (adr r1, 80078e8 <_printf_i+0x40>)
 80078e4:	f851 f023 	ldr.w	pc, [r1, r3, lsl #2]
 80078e8:	08007941 	.word	0x08007941
 80078ec:	08007955 	.word	0x08007955
 80078f0:	080078d1 	.word	0x080078d1
 80078f4:	080078d1 	.word	0x080078d1
 80078f8:	080078d1 	.word	0x080078d1
 80078fc:	080078d1 	.word	0x080078d1
 8007900:	08007955 	.word	0x08007955
 8007904:	080078d1 	.word	0x080078d1
 8007908:	080078d1 	.word	0x080078d1
 800790c:	080078d1 	.word	0x080078d1
 8007910:	080078d1 	.word	0x080078d1
 8007914:	08007a61 	.word	0x08007a61
 8007918:	08007985 	.word	0x08007985
 800791c:	08007a43 	.word	0x08007a43
 8007920:	080078d1 	.word	0x080078d1
 8007924:	080078d1 	.word	0x080078d1
 8007928:	08007a83 	.word	0x08007a83
 800792c:	080078d1 	.word	0x080078d1
 8007930:	08007985 	.word	0x08007985
 8007934:	080078d1 	.word	0x080078d1
 8007938:	080078d1 	.word	0x080078d1
 800793c:	08007a4b 	.word	0x08007a4b
 8007940:	682b      	ldr	r3, [r5, #0]
 8007942:	1d1a      	adds	r2, r3, #4
 8007944:	681b      	ldr	r3, [r3, #0]
 8007946:	602a      	str	r2, [r5, #0]
 8007948:	f104 0542 	add.w	r5, r4, #66	; 0x42
 800794c:	f884 3042 	strb.w	r3, [r4, #66]	; 0x42
 8007950:	2301      	movs	r3, #1
 8007952:	e0a3      	b.n	8007a9c <_printf_i+0x1f4>
 8007954:	6820      	ldr	r0, [r4, #0]
 8007956:	6829      	ldr	r1, [r5, #0]
 8007958:	0606      	lsls	r6, r0, #24
 800795a:	f101 0304 	add.w	r3, r1, #4
 800795e:	d50a      	bpl.n	8007976 <_printf_i+0xce>
 8007960:	680e      	ldr	r6, [r1, #0]
 8007962:	602b      	str	r3, [r5, #0]
 8007964:	2e00      	cmp	r6, #0
 8007966:	da03      	bge.n	8007970 <_printf_i+0xc8>
 8007968:	232d      	movs	r3, #45	; 0x2d
 800796a:	4276      	negs	r6, r6
 800796c:	f884 3043 	strb.w	r3, [r4, #67]	; 0x43
 8007970:	485e      	ldr	r0, [pc, #376]	; (8007aec <_printf_i+0x244>)
 8007972:	230a      	movs	r3, #10
 8007974:	e019      	b.n	80079aa <_printf_i+0x102>
 8007976:	680e      	ldr	r6, [r1, #0]
 8007978:	602b      	str	r3, [r5, #0]
 800797a:	f010 0f40 	tst.w	r0, #64	; 0x40
 800797e:	bf18      	it	ne
 8007980:	b236      	sxthne	r6, r6
 8007982:	e7ef      	b.n	8007964 <_printf_i+0xbc>
 8007984:	682b      	ldr	r3, [r5, #0]
 8007986:	6820      	ldr	r0, [r4, #0]
 8007988:	1d19      	adds	r1, r3, #4
 800798a:	6029      	str	r1, [r5, #0]
 800798c:	0601      	lsls	r1, r0, #24
 800798e:	d501      	bpl.n	8007994 <_printf_i+0xec>
 8007990:	681e      	ldr	r6, [r3, #0]
 8007992:	e002      	b.n	800799a <_printf_i+0xf2>
 8007994:	0646      	lsls	r6, r0, #25
 8007996:	d5fb      	bpl.n	8007990 <_printf_i+0xe8>
 8007998:	881e      	ldrh	r6, [r3, #0]
 800799a:	4854      	ldr	r0, [pc, #336]	; (8007aec <_printf_i+0x244>)
 800799c:	2f6f      	cmp	r7, #111	; 0x6f
 800799e:	bf0c      	ite	eq
 80079a0:	2308      	moveq	r3, #8
 80079a2:	230a      	movne	r3, #10
 80079a4:	2100      	movs	r1, #0
 80079a6:	f884 1043 	strb.w	r1, [r4, #67]	; 0x43
 80079aa:	6865      	ldr	r5, [r4, #4]
 80079ac:	60a5      	str	r5, [r4, #8]
 80079ae:	2d00      	cmp	r5, #0
 80079b0:	bfa2      	ittt	ge
 80079b2:	6821      	ldrge	r1, [r4, #0]
 80079b4:	f021 0104 	bicge.w	r1, r1, #4
 80079b8:	6021      	strge	r1, [r4, #0]
 80079ba:	b90e      	cbnz	r6, 80079c0 <_printf_i+0x118>
 80079bc:	2d00      	cmp	r5, #0
 80079be:	d04d      	beq.n	8007a5c <_printf_i+0x1b4>
 80079c0:	4615      	mov	r5, r2
 80079c2:	fbb6 f1f3 	udiv	r1, r6, r3
 80079c6:	fb03 6711 	mls	r7, r3, r1, r6
 80079ca:	5dc7      	ldrb	r7, [r0, r7]
 80079cc:	f805 7d01 	strb.w	r7, [r5, #-1]!
 80079d0:	4637      	mov	r7, r6
 80079d2:	42bb      	cmp	r3, r7
 80079d4:	460e      	mov	r6, r1
 80079d6:	d9f4      	bls.n	80079c2 <_printf_i+0x11a>
 80079d8:	2b08      	cmp	r3, #8
 80079da:	d10b      	bne.n	80079f4 <_printf_i+0x14c>
 80079dc:	6823      	ldr	r3, [r4, #0]
 80079de:	07de      	lsls	r6, r3, #31
 80079e0:	d508      	bpl.n	80079f4 <_printf_i+0x14c>
 80079e2:	6923      	ldr	r3, [r4, #16]
 80079e4:	6861      	ldr	r1, [r4, #4]
 80079e6:	4299      	cmp	r1, r3
 80079e8:	bfde      	ittt	le
 80079ea:	2330      	movle	r3, #48	; 0x30
 80079ec:	f805 3c01 	strble.w	r3, [r5, #-1]
 80079f0:	f105 35ff 	addle.w	r5, r5, #4294967295
 80079f4:	1b52      	subs	r2, r2, r5
 80079f6:	6122      	str	r2, [r4, #16]
 80079f8:	f8cd a000 	str.w	sl, [sp]
 80079fc:	464b      	mov	r3, r9
 80079fe:	aa03      	add	r2, sp, #12
 8007a00:	4621      	mov	r1, r4
 8007a02:	4640      	mov	r0, r8
 8007a04:	f7ff fee2 	bl	80077cc <_printf_common>
 8007a08:	3001      	adds	r0, #1
 8007a0a:	d14c      	bne.n	8007aa6 <_printf_i+0x1fe>
 8007a0c:	f04f 30ff 	mov.w	r0, #4294967295
 8007a10:	b004      	add	sp, #16
 8007a12:	e8bd 87f0 	ldmia.w	sp!, {r4, r5, r6, r7, r8, r9, sl, pc}
 8007a16:	4835      	ldr	r0, [pc, #212]	; (8007aec <_printf_i+0x244>)
 8007a18:	f881 7045 	strb.w	r7, [r1, #69]	; 0x45
 8007a1c:	6829      	ldr	r1, [r5, #0]
 8007a1e:	6823      	ldr	r3, [r4, #0]
 8007a20:	f851 6b04 	ldr.w	r6, [r1], #4
 8007a24:	6029      	str	r1, [r5, #0]
 8007a26:	061d      	lsls	r5, r3, #24
 8007a28:	d514      	bpl.n	8007a54 <_printf_i+0x1ac>
 8007a2a:	07df      	lsls	r7, r3, #31
 8007a2c:	bf44      	itt	mi
 8007a2e:	f043 0320 	orrmi.w	r3, r3, #32
 8007a32:	6023      	strmi	r3, [r4, #0]
 8007a34:	b91e      	cbnz	r6, 8007a3e <_printf_i+0x196>
 8007a36:	6823      	ldr	r3, [r4, #0]
 8007a38:	f023 0320 	bic.w	r3, r3, #32
 8007a3c:	6023      	str	r3, [r4, #0]
 8007a3e:	2310      	movs	r3, #16
 8007a40:	e7b0      	b.n	80079a4 <_printf_i+0xfc>
 8007a42:	6823      	ldr	r3, [r4, #0]
 8007a44:	f043 0320 	orr.w	r3, r3, #32
 8007a48:	6023      	str	r3, [r4, #0]
 8007a4a:	2378      	movs	r3, #120	; 0x78
 8007a4c:	4828      	ldr	r0, [pc, #160]	; (8007af0 <_printf_i+0x248>)
 8007a4e:	f884 3045 	strb.w	r3, [r4, #69]	; 0x45
 8007a52:	e7e3      	b.n	8007a1c <_printf_i+0x174>
 8007a54:	0659      	lsls	r1, r3, #25
 8007a56:	bf48      	it	mi
 8007a58:	b2b6      	uxthmi	r6, r6
 8007a5a:	e7e6      	b.n	8007a2a <_printf_i+0x182>
 8007a5c:	4615      	mov	r5, r2
 8007a5e:	e7bb      	b.n	80079d8 <_printf_i+0x130>
 8007a60:	682b      	ldr	r3, [r5, #0]
 8007a62:	6826      	ldr	r6, [r4, #0]
 8007a64:	6961      	ldr	r1, [r4, #20]
 8007a66:	1d18      	adds	r0, r3, #4
 8007a68:	6028      	str	r0, [r5, #0]
 8007a6a:	0635      	lsls	r5, r6, #24
 8007a6c:	681b      	ldr	r3, [r3, #0]
 8007a6e:	d501      	bpl.n	8007a74 <_printf_i+0x1cc>
 8007a70:	6019      	str	r1, [r3, #0]
 8007a72:	e002      	b.n	8007a7a <_printf_i+0x1d2>
 8007a74:	0670      	lsls	r0, r6, #25
 8007a76:	d5fb      	bpl.n	8007a70 <_printf_i+0x1c8>
 8007a78:	8019      	strh	r1, [r3, #0]
 8007a7a:	2300      	movs	r3, #0
 8007a7c:	6123      	str	r3, [r4, #16]
 8007a7e:	4615      	mov	r5, r2
 8007a80:	e7ba      	b.n	80079f8 <_printf_i+0x150>
 8007a82:	682b      	ldr	r3, [r5, #0]
 8007a84:	1d1a      	adds	r2, r3, #4
 8007a86:	602a      	str	r2, [r5, #0]
 8007a88:	681d      	ldr	r5, [r3, #0]
 8007a8a:	6862      	ldr	r2, [r4, #4]
 8007a8c:	2100      	movs	r1, #0
 8007a8e:	4628      	mov	r0, r5
 8007a90:	f7f8 fba6 	bl	80001e0 <memchr>
 8007a94:	b108      	cbz	r0, 8007a9a <_printf_i+0x1f2>
 8007a96:	1b40      	subs	r0, r0, r5
 8007a98:	6060      	str	r0, [r4, #4]
 8007a9a:	6863      	ldr	r3, [r4, #4]
 8007a9c:	6123      	str	r3, [r4, #16]
 8007a9e:	2300      	movs	r3, #0
 8007aa0:	f884 3043 	strb.w	r3, [r4, #67]	; 0x43
 8007aa4:	e7a8      	b.n	80079f8 <_printf_i+0x150>
 8007aa6:	6923      	ldr	r3, [r4, #16]
 8007aa8:	462a      	mov	r2, r5
 8007aaa:	4649      	mov	r1, r9
 8007aac:	4640      	mov	r0, r8
 8007aae:	47d0      	blx	sl
 8007ab0:	3001      	adds	r0, #1
 8007ab2:	d0ab      	beq.n	8007a0c <_printf_i+0x164>
 8007ab4:	6823      	ldr	r3, [r4, #0]
 8007ab6:	079b      	lsls	r3, r3, #30
 8007ab8:	d413      	bmi.n	8007ae2 <_printf_i+0x23a>
 8007aba:	68e0      	ldr	r0, [r4, #12]
 8007abc:	9b03      	ldr	r3, [sp, #12]
 8007abe:	4298      	cmp	r0, r3
 8007ac0:	bfb8      	it	lt
 8007ac2:	4618      	movlt	r0, r3
 8007ac4:	e7a4      	b.n	8007a10 <_printf_i+0x168>
 8007ac6:	2301      	movs	r3, #1
 8007ac8:	4632      	mov	r2, r6
 8007aca:	4649      	mov	r1, r9
 8007acc:	4640      	mov	r0, r8
 8007ace:	47d0      	blx	sl
 8007ad0:	3001      	adds	r0, #1
 8007ad2:	d09b      	beq.n	8007a0c <_printf_i+0x164>
 8007ad4:	3501      	adds	r5, #1
 8007ad6:	68e3      	ldr	r3, [r4, #12]
 8007ad8:	9903      	ldr	r1, [sp, #12]
 8007ada:	1a5b      	subs	r3, r3, r1
 8007adc:	42ab      	cmp	r3, r5
 8007ade:	dcf2      	bgt.n	8007ac6 <_printf_i+0x21e>
 8007ae0:	e7eb      	b.n	8007aba <_printf_i+0x212>
 8007ae2:	2500      	movs	r5, #0
 8007ae4:	f104 0619 	add.w	r6, r4, #25
 8007ae8:	e7f5      	b.n	8007ad6 <_printf_i+0x22e>
 8007aea:	bf00      	nop
 8007aec:	0800a076 	.word	0x0800a076
 8007af0:	0800a087 	.word	0x0800a087

08007af4 <iprintf>:
 8007af4:	b40f      	push	{r0, r1, r2, r3}
 8007af6:	4b0a      	ldr	r3, [pc, #40]	; (8007b20 <iprintf+0x2c>)
 8007af8:	b513      	push	{r0, r1, r4, lr}
 8007afa:	681c      	ldr	r4, [r3, #0]
 8007afc:	b124      	cbz	r4, 8007b08 <iprintf+0x14>
 8007afe:	69a3      	ldr	r3, [r4, #24]
 8007b00:	b913      	cbnz	r3, 8007b08 <iprintf+0x14>
 8007b02:	4620      	mov	r0, r4
 8007b04:	f001 f8d8 	bl	8008cb8 <__sinit>
 8007b08:	ab05      	add	r3, sp, #20
 8007b0a:	9a04      	ldr	r2, [sp, #16]
 8007b0c:	68a1      	ldr	r1, [r4, #8]
 8007b0e:	9301      	str	r3, [sp, #4]
 8007b10:	4620      	mov	r0, r4
 8007b12:	f001 fe95 	bl	8009840 <_vfiprintf_r>
 8007b16:	b002      	add	sp, #8
 8007b18:	e8bd 4010 	ldmia.w	sp!, {r4, lr}
 8007b1c:	b004      	add	sp, #16
 8007b1e:	4770      	bx	lr
 8007b20:	2000000c 	.word	0x2000000c

08007b24 <_puts_r>:
 8007b24:	b570      	push	{r4, r5, r6, lr}
 8007b26:	460e      	mov	r6, r1
 8007b28:	4605      	mov	r5, r0
 8007b2a:	b118      	cbz	r0, 8007b34 <_puts_r+0x10>
 8007b2c:	6983      	ldr	r3, [r0, #24]
 8007b2e:	b90b      	cbnz	r3, 8007b34 <_puts_r+0x10>
 8007b30:	f001 f8c2 	bl	8008cb8 <__sinit>
 8007b34:	69ab      	ldr	r3, [r5, #24]
 8007b36:	68ac      	ldr	r4, [r5, #8]
 8007b38:	b913      	cbnz	r3, 8007b40 <_puts_r+0x1c>
 8007b3a:	4628      	mov	r0, r5
 8007b3c:	f001 f8bc 	bl	8008cb8 <__sinit>
 8007b40:	4b2c      	ldr	r3, [pc, #176]	; (8007bf4 <_puts_r+0xd0>)
 8007b42:	429c      	cmp	r4, r3
 8007b44:	d120      	bne.n	8007b88 <_puts_r+0x64>
 8007b46:	686c      	ldr	r4, [r5, #4]
 8007b48:	6e63      	ldr	r3, [r4, #100]	; 0x64
 8007b4a:	07db      	lsls	r3, r3, #31
 8007b4c:	d405      	bmi.n	8007b5a <_puts_r+0x36>
 8007b4e:	89a3      	ldrh	r3, [r4, #12]
 8007b50:	0598      	lsls	r0, r3, #22
 8007b52:	d402      	bmi.n	8007b5a <_puts_r+0x36>
 8007b54:	6da0      	ldr	r0, [r4, #88]	; 0x58
 8007b56:	f001 f952 	bl	8008dfe <__retarget_lock_acquire_recursive>
 8007b5a:	89a3      	ldrh	r3, [r4, #12]
 8007b5c:	0719      	lsls	r1, r3, #28
 8007b5e:	d51d      	bpl.n	8007b9c <_puts_r+0x78>
 8007b60:	6923      	ldr	r3, [r4, #16]
 8007b62:	b1db      	cbz	r3, 8007b9c <_puts_r+0x78>
 8007b64:	3e01      	subs	r6, #1
 8007b66:	68a3      	ldr	r3, [r4, #8]
 8007b68:	f816 1f01 	ldrb.w	r1, [r6, #1]!
 8007b6c:	3b01      	subs	r3, #1
 8007b6e:	60a3      	str	r3, [r4, #8]
 8007b70:	bb39      	cbnz	r1, 8007bc2 <_puts_r+0x9e>
 8007b72:	2b00      	cmp	r3, #0
 8007b74:	da38      	bge.n	8007be8 <_puts_r+0xc4>
 8007b76:	4622      	mov	r2, r4
 8007b78:	210a      	movs	r1, #10
 8007b7a:	4628      	mov	r0, r5
 8007b7c:	f000 f848 	bl	8007c10 <__swbuf_r>
 8007b80:	3001      	adds	r0, #1
 8007b82:	d011      	beq.n	8007ba8 <_puts_r+0x84>
 8007b84:	250a      	movs	r5, #10
 8007b86:	e011      	b.n	8007bac <_puts_r+0x88>
 8007b88:	4b1b      	ldr	r3, [pc, #108]	; (8007bf8 <_puts_r+0xd4>)
 8007b8a:	429c      	cmp	r4, r3
 8007b8c:	d101      	bne.n	8007b92 <_puts_r+0x6e>
 8007b8e:	68ac      	ldr	r4, [r5, #8]
 8007b90:	e7da      	b.n	8007b48 <_puts_r+0x24>
 8007b92:	4b1a      	ldr	r3, [pc, #104]	; (8007bfc <_puts_r+0xd8>)
 8007b94:	429c      	cmp	r4, r3
 8007b96:	bf08      	it	eq
 8007b98:	68ec      	ldreq	r4, [r5, #12]
 8007b9a:	e7d5      	b.n	8007b48 <_puts_r+0x24>
 8007b9c:	4621      	mov	r1, r4
 8007b9e:	4628      	mov	r0, r5
 8007ba0:	f000 f888 	bl	8007cb4 <__swsetup_r>
 8007ba4:	2800      	cmp	r0, #0
 8007ba6:	d0dd      	beq.n	8007b64 <_puts_r+0x40>
 8007ba8:	f04f 35ff 	mov.w	r5, #4294967295
 8007bac:	6e63      	ldr	r3, [r4, #100]	; 0x64
 8007bae:	07da      	lsls	r2, r3, #31
 8007bb0:	d405      	bmi.n	8007bbe <_puts_r+0x9a>
 8007bb2:	89a3      	ldrh	r3, [r4, #12]
 8007bb4:	059b      	lsls	r3, r3, #22
 8007bb6:	d402      	bmi.n	8007bbe <_puts_r+0x9a>
 8007bb8:	6da0      	ldr	r0, [r4, #88]	; 0x58
 8007bba:	f001 f921 	bl	8008e00 <__retarget_lock_release_recursive>
 8007bbe:	4628      	mov	r0, r5
 8007bc0:	bd70      	pop	{r4, r5, r6, pc}
 8007bc2:	2b00      	cmp	r3, #0
 8007bc4:	da04      	bge.n	8007bd0 <_puts_r+0xac>
 8007bc6:	69a2      	ldr	r2, [r4, #24]
 8007bc8:	429a      	cmp	r2, r3
 8007bca:	dc06      	bgt.n	8007bda <_puts_r+0xb6>
 8007bcc:	290a      	cmp	r1, #10
 8007bce:	d004      	beq.n	8007bda <_puts_r+0xb6>
 8007bd0:	6823      	ldr	r3, [r4, #0]
 8007bd2:	1c5a      	adds	r2, r3, #1
 8007bd4:	6022      	str	r2, [r4, #0]
 8007bd6:	7019      	strb	r1, [r3, #0]
 8007bd8:	e7c5      	b.n	8007b66 <_puts_r+0x42>
 8007bda:	4622      	mov	r2, r4
 8007bdc:	4628      	mov	r0, r5
 8007bde:	f000 f817 	bl	8007c10 <__swbuf_r>
 8007be2:	3001      	adds	r0, #1
 8007be4:	d1bf      	bne.n	8007b66 <_puts_r+0x42>
 8007be6:	e7df      	b.n	8007ba8 <_puts_r+0x84>
 8007be8:	6823      	ldr	r3, [r4, #0]
 8007bea:	250a      	movs	r5, #10
 8007bec:	1c5a      	adds	r2, r3, #1
 8007bee:	6022      	str	r2, [r4, #0]
 8007bf0:	701d      	strb	r5, [r3, #0]
 8007bf2:	e7db      	b.n	8007bac <_puts_r+0x88>
 8007bf4:	0800a148 	.word	0x0800a148
 8007bf8:	0800a168 	.word	0x0800a168
 8007bfc:	0800a128 	.word	0x0800a128

08007c00 <puts>:
 8007c00:	4b02      	ldr	r3, [pc, #8]	; (8007c0c <puts+0xc>)
 8007c02:	4601      	mov	r1, r0
 8007c04:	6818      	ldr	r0, [r3, #0]
 8007c06:	f7ff bf8d 	b.w	8007b24 <_puts_r>
 8007c0a:	bf00      	nop
 8007c0c:	2000000c 	.word	0x2000000c

08007c10 <__swbuf_r>:
 8007c10:	b5f8      	push	{r3, r4, r5, r6, r7, lr}
 8007c12:	460e      	mov	r6, r1
 8007c14:	4614      	mov	r4, r2
 8007c16:	4605      	mov	r5, r0
 8007c18:	b118      	cbz	r0, 8007c22 <__swbuf_r+0x12>
 8007c1a:	6983      	ldr	r3, [r0, #24]
 8007c1c:	b90b      	cbnz	r3, 8007c22 <__swbuf_r+0x12>
 8007c1e:	f001 f84b 	bl	8008cb8 <__sinit>
 8007c22:	4b21      	ldr	r3, [pc, #132]	; (8007ca8 <__swbuf_r+0x98>)
 8007c24:	429c      	cmp	r4, r3
 8007c26:	d12b      	bne.n	8007c80 <__swbuf_r+0x70>
 8007c28:	686c      	ldr	r4, [r5, #4]
 8007c2a:	69a3      	ldr	r3, [r4, #24]
 8007c2c:	60a3      	str	r3, [r4, #8]
 8007c2e:	89a3      	ldrh	r3, [r4, #12]
 8007c30:	071a      	lsls	r2, r3, #28
 8007c32:	d52f      	bpl.n	8007c94 <__swbuf_r+0x84>
 8007c34:	6923      	ldr	r3, [r4, #16]
 8007c36:	b36b      	cbz	r3, 8007c94 <__swbuf_r+0x84>
 8007c38:	6923      	ldr	r3, [r4, #16]
 8007c3a:	6820      	ldr	r0, [r4, #0]
 8007c3c:	1ac0      	subs	r0, r0, r3
 8007c3e:	6963      	ldr	r3, [r4, #20]
 8007c40:	b2f6      	uxtb	r6, r6
 8007c42:	4283      	cmp	r3, r0
 8007c44:	4637      	mov	r7, r6
 8007c46:	dc04      	bgt.n	8007c52 <__swbuf_r+0x42>
 8007c48:	4621      	mov	r1, r4
 8007c4a:	4628      	mov	r0, r5
 8007c4c:	f000 ffa0 	bl	8008b90 <_fflush_r>
 8007c50:	bb30      	cbnz	r0, 8007ca0 <__swbuf_r+0x90>
 8007c52:	68a3      	ldr	r3, [r4, #8]
 8007c54:	3b01      	subs	r3, #1
 8007c56:	60a3      	str	r3, [r4, #8]
 8007c58:	6823      	ldr	r3, [r4, #0]
 8007c5a:	1c5a      	adds	r2, r3, #1
 8007c5c:	6022      	str	r2, [r4, #0]
 8007c5e:	701e      	strb	r6, [r3, #0]
 8007c60:	6963      	ldr	r3, [r4, #20]
 8007c62:	3001      	adds	r0, #1
 8007c64:	4283      	cmp	r3, r0
 8007c66:	d004      	beq.n	8007c72 <__swbuf_r+0x62>
 8007c68:	89a3      	ldrh	r3, [r4, #12]
 8007c6a:	07db      	lsls	r3, r3, #31
 8007c6c:	d506      	bpl.n	8007c7c <__swbuf_r+0x6c>
 8007c6e:	2e0a      	cmp	r6, #10
 8007c70:	d104      	bne.n	8007c7c <__swbuf_r+0x6c>
 8007c72:	4621      	mov	r1, r4
 8007c74:	4628      	mov	r0, r5
 8007c76:	f000 ff8b 	bl	8008b90 <_fflush_r>
 8007c7a:	b988      	cbnz	r0, 8007ca0 <__swbuf_r+0x90>
 8007c7c:	4638      	mov	r0, r7
 8007c7e:	bdf8      	pop	{r3, r4, r5, r6, r7, pc}
 8007c80:	4b0a      	ldr	r3, [pc, #40]	; (8007cac <__swbuf_r+0x9c>)
 8007c82:	429c      	cmp	r4, r3
 8007c84:	d101      	bne.n	8007c8a <__swbuf_r+0x7a>
 8007c86:	68ac      	ldr	r4, [r5, #8]
 8007c88:	e7cf      	b.n	8007c2a <__swbuf_r+0x1a>
 8007c8a:	4b09      	ldr	r3, [pc, #36]	; (8007cb0 <__swbuf_r+0xa0>)
 8007c8c:	429c      	cmp	r4, r3
 8007c8e:	bf08      	it	eq
 8007c90:	68ec      	ldreq	r4, [r5, #12]
 8007c92:	e7ca      	b.n	8007c2a <__swbuf_r+0x1a>
 8007c94:	4621      	mov	r1, r4
 8007c96:	4628      	mov	r0, r5
 8007c98:	f000 f80c 	bl	8007cb4 <__swsetup_r>
 8007c9c:	2800      	cmp	r0, #0
 8007c9e:	d0cb      	beq.n	8007c38 <__swbuf_r+0x28>
 8007ca0:	f04f 37ff 	mov.w	r7, #4294967295
 8007ca4:	e7ea      	b.n	8007c7c <__swbuf_r+0x6c>
 8007ca6:	bf00      	nop
 8007ca8:	0800a148 	.word	0x0800a148
 8007cac:	0800a168 	.word	0x0800a168
 8007cb0:	0800a128 	.word	0x0800a128

08007cb4 <__swsetup_r>:
 8007cb4:	4b32      	ldr	r3, [pc, #200]	; (8007d80 <__swsetup_r+0xcc>)
 8007cb6:	b570      	push	{r4, r5, r6, lr}
 8007cb8:	681d      	ldr	r5, [r3, #0]
 8007cba:	4606      	mov	r6, r0
 8007cbc:	460c      	mov	r4, r1
 8007cbe:	b125      	cbz	r5, 8007cca <__swsetup_r+0x16>
 8007cc0:	69ab      	ldr	r3, [r5, #24]
 8007cc2:	b913      	cbnz	r3, 8007cca <__swsetup_r+0x16>
 8007cc4:	4628      	mov	r0, r5
 8007cc6:	f000 fff7 	bl	8008cb8 <__sinit>
 8007cca:	4b2e      	ldr	r3, [pc, #184]	; (8007d84 <__swsetup_r+0xd0>)
 8007ccc:	429c      	cmp	r4, r3
 8007cce:	d10f      	bne.n	8007cf0 <__swsetup_r+0x3c>
 8007cd0:	686c      	ldr	r4, [r5, #4]
 8007cd2:	89a3      	ldrh	r3, [r4, #12]
 8007cd4:	f9b4 200c 	ldrsh.w	r2, [r4, #12]
 8007cd8:	0719      	lsls	r1, r3, #28
 8007cda:	d42c      	bmi.n	8007d36 <__swsetup_r+0x82>
 8007cdc:	06dd      	lsls	r5, r3, #27
 8007cde:	d411      	bmi.n	8007d04 <__swsetup_r+0x50>
 8007ce0:	2309      	movs	r3, #9
 8007ce2:	6033      	str	r3, [r6, #0]
 8007ce4:	f042 0340 	orr.w	r3, r2, #64	; 0x40
 8007ce8:	81a3      	strh	r3, [r4, #12]
 8007cea:	f04f 30ff 	mov.w	r0, #4294967295
 8007cee:	e03e      	b.n	8007d6e <__swsetup_r+0xba>
 8007cf0:	4b25      	ldr	r3, [pc, #148]	; (8007d88 <__swsetup_r+0xd4>)
 8007cf2:	429c      	cmp	r4, r3
 8007cf4:	d101      	bne.n	8007cfa <__swsetup_r+0x46>
 8007cf6:	68ac      	ldr	r4, [r5, #8]
 8007cf8:	e7eb      	b.n	8007cd2 <__swsetup_r+0x1e>
 8007cfa:	4b24      	ldr	r3, [pc, #144]	; (8007d8c <__swsetup_r+0xd8>)
 8007cfc:	429c      	cmp	r4, r3
 8007cfe:	bf08      	it	eq
 8007d00:	68ec      	ldreq	r4, [r5, #12]
 8007d02:	e7e6      	b.n	8007cd2 <__swsetup_r+0x1e>
 8007d04:	0758      	lsls	r0, r3, #29
 8007d06:	d512      	bpl.n	8007d2e <__swsetup_r+0x7a>
 8007d08:	6b61      	ldr	r1, [r4, #52]	; 0x34
 8007d0a:	b141      	cbz	r1, 8007d1e <__swsetup_r+0x6a>
 8007d0c:	f104 0344 	add.w	r3, r4, #68	; 0x44
 8007d10:	4299      	cmp	r1, r3
 8007d12:	d002      	beq.n	8007d1a <__swsetup_r+0x66>
 8007d14:	4630      	mov	r0, r6
 8007d16:	f001 fc89 	bl	800962c <_free_r>
 8007d1a:	2300      	movs	r3, #0
 8007d1c:	6363      	str	r3, [r4, #52]	; 0x34
 8007d1e:	89a3      	ldrh	r3, [r4, #12]
 8007d20:	f023 0324 	bic.w	r3, r3, #36	; 0x24
 8007d24:	81a3      	strh	r3, [r4, #12]
 8007d26:	2300      	movs	r3, #0
 8007d28:	6063      	str	r3, [r4, #4]
 8007d2a:	6923      	ldr	r3, [r4, #16]
 8007d2c:	6023      	str	r3, [r4, #0]
 8007d2e:	89a3      	ldrh	r3, [r4, #12]
 8007d30:	f043 0308 	orr.w	r3, r3, #8
 8007d34:	81a3      	strh	r3, [r4, #12]
 8007d36:	6923      	ldr	r3, [r4, #16]
 8007d38:	b94b      	cbnz	r3, 8007d4e <__swsetup_r+0x9a>
 8007d3a:	89a3      	ldrh	r3, [r4, #12]
 8007d3c:	f403 7320 	and.w	r3, r3, #640	; 0x280
 8007d40:	f5b3 7f00 	cmp.w	r3, #512	; 0x200
 8007d44:	d003      	beq.n	8007d4e <__swsetup_r+0x9a>
 8007d46:	4621      	mov	r1, r4
 8007d48:	4630      	mov	r0, r6
 8007d4a:	f001 f87f 	bl	8008e4c <__smakebuf_r>
 8007d4e:	89a0      	ldrh	r0, [r4, #12]
 8007d50:	f9b4 200c 	ldrsh.w	r2, [r4, #12]
 8007d54:	f010 0301 	ands.w	r3, r0, #1
 8007d58:	d00a      	beq.n	8007d70 <__swsetup_r+0xbc>
 8007d5a:	2300      	movs	r3, #0
 8007d5c:	60a3      	str	r3, [r4, #8]
 8007d5e:	6963      	ldr	r3, [r4, #20]
 8007d60:	425b      	negs	r3, r3
 8007d62:	61a3      	str	r3, [r4, #24]
 8007d64:	6923      	ldr	r3, [r4, #16]
 8007d66:	b943      	cbnz	r3, 8007d7a <__swsetup_r+0xc6>
 8007d68:	f010 0080 	ands.w	r0, r0, #128	; 0x80
 8007d6c:	d1ba      	bne.n	8007ce4 <__swsetup_r+0x30>
 8007d6e:	bd70      	pop	{r4, r5, r6, pc}
 8007d70:	0781      	lsls	r1, r0, #30
 8007d72:	bf58      	it	pl
 8007d74:	6963      	ldrpl	r3, [r4, #20]
 8007d76:	60a3      	str	r3, [r4, #8]
 8007d78:	e7f4      	b.n	8007d64 <__swsetup_r+0xb0>
 8007d7a:	2000      	movs	r0, #0
 8007d7c:	e7f7      	b.n	8007d6e <__swsetup_r+0xba>
 8007d7e:	bf00      	nop
 8007d80:	2000000c 	.word	0x2000000c
 8007d84:	0800a148 	.word	0x0800a148
 8007d88:	0800a168 	.word	0x0800a168
 8007d8c:	0800a128 	.word	0x0800a128

08007d90 <quorem>:
 8007d90:	e92d 4ff7 	stmdb	sp!, {r0, r1, r2, r4, r5, r6, r7, r8, r9, sl, fp, lr}
 8007d94:	6903      	ldr	r3, [r0, #16]
 8007d96:	690c      	ldr	r4, [r1, #16]
 8007d98:	42a3      	cmp	r3, r4
 8007d9a:	4607      	mov	r7, r0
 8007d9c:	f2c0 8081 	blt.w	8007ea2 <quorem+0x112>
 8007da0:	3c01      	subs	r4, #1
 8007da2:	f101 0814 	add.w	r8, r1, #20
 8007da6:	f100 0514 	add.w	r5, r0, #20
 8007daa:	eb05 0384 	add.w	r3, r5, r4, lsl #2
 8007dae:	9301      	str	r3, [sp, #4]
 8007db0:	f858 3024 	ldr.w	r3, [r8, r4, lsl #2]
 8007db4:	f855 2024 	ldr.w	r2, [r5, r4, lsl #2]
 8007db8:	3301      	adds	r3, #1
 8007dba:	429a      	cmp	r2, r3
 8007dbc:	ea4f 0b84 	mov.w	fp, r4, lsl #2
 8007dc0:	eb08 0984 	add.w	r9, r8, r4, lsl #2
 8007dc4:	fbb2 f6f3 	udiv	r6, r2, r3
 8007dc8:	d331      	bcc.n	8007e2e <quorem+0x9e>
 8007dca:	f04f 0e00 	mov.w	lr, #0
 8007dce:	4640      	mov	r0, r8
 8007dd0:	46ac      	mov	ip, r5
 8007dd2:	46f2      	mov	sl, lr
 8007dd4:	f850 2b04 	ldr.w	r2, [r0], #4
 8007dd8:	b293      	uxth	r3, r2
 8007dda:	fb06 e303 	mla	r3, r6, r3, lr
 8007dde:	ea4f 4e13 	mov.w	lr, r3, lsr #16
 8007de2:	b29b      	uxth	r3, r3
 8007de4:	ebaa 0303 	sub.w	r3, sl, r3
 8007de8:	f8dc a000 	ldr.w	sl, [ip]
 8007dec:	0c12      	lsrs	r2, r2, #16
 8007dee:	fa13 f38a 	uxtah	r3, r3, sl
 8007df2:	fb06 e202 	mla	r2, r6, r2, lr
 8007df6:	9300      	str	r3, [sp, #0]
 8007df8:	9b00      	ldr	r3, [sp, #0]
 8007dfa:	ea4f 4e12 	mov.w	lr, r2, lsr #16
 8007dfe:	b292      	uxth	r2, r2
 8007e00:	ebc2 421a 	rsb	r2, r2, sl, lsr #16
 8007e04:	eb02 4223 	add.w	r2, r2, r3, asr #16
 8007e08:	f8bd 3000 	ldrh.w	r3, [sp]
 8007e0c:	4581      	cmp	r9, r0
 8007e0e:	ea43 4302 	orr.w	r3, r3, r2, lsl #16
 8007e12:	f84c 3b04 	str.w	r3, [ip], #4
 8007e16:	ea4f 4a22 	mov.w	sl, r2, asr #16
 8007e1a:	d2db      	bcs.n	8007dd4 <quorem+0x44>
 8007e1c:	f855 300b 	ldr.w	r3, [r5, fp]
 8007e20:	b92b      	cbnz	r3, 8007e2e <quorem+0x9e>
 8007e22:	9b01      	ldr	r3, [sp, #4]
 8007e24:	3b04      	subs	r3, #4
 8007e26:	429d      	cmp	r5, r3
 8007e28:	461a      	mov	r2, r3
 8007e2a:	d32e      	bcc.n	8007e8a <quorem+0xfa>
 8007e2c:	613c      	str	r4, [r7, #16]
 8007e2e:	4638      	mov	r0, r7
 8007e30:	f001 fae4 	bl	80093fc <__mcmp>
 8007e34:	2800      	cmp	r0, #0
 8007e36:	db24      	blt.n	8007e82 <quorem+0xf2>
 8007e38:	3601      	adds	r6, #1
 8007e3a:	4628      	mov	r0, r5
 8007e3c:	f04f 0c00 	mov.w	ip, #0
 8007e40:	f858 2b04 	ldr.w	r2, [r8], #4
 8007e44:	f8d0 e000 	ldr.w	lr, [r0]
 8007e48:	b293      	uxth	r3, r2
 8007e4a:	ebac 0303 	sub.w	r3, ip, r3
 8007e4e:	0c12      	lsrs	r2, r2, #16
 8007e50:	fa13 f38e 	uxtah	r3, r3, lr
 8007e54:	ebc2 421e 	rsb	r2, r2, lr, lsr #16
 8007e58:	eb02 4223 	add.w	r2, r2, r3, asr #16
 8007e5c:	b29b      	uxth	r3, r3
 8007e5e:	ea43 4302 	orr.w	r3, r3, r2, lsl #16
 8007e62:	45c1      	cmp	r9, r8
 8007e64:	f840 3b04 	str.w	r3, [r0], #4
 8007e68:	ea4f 4c22 	mov.w	ip, r2, asr #16
 8007e6c:	d2e8      	bcs.n	8007e40 <quorem+0xb0>
 8007e6e:	f855 2024 	ldr.w	r2, [r5, r4, lsl #2]
 8007e72:	eb05 0384 	add.w	r3, r5, r4, lsl #2
 8007e76:	b922      	cbnz	r2, 8007e82 <quorem+0xf2>
 8007e78:	3b04      	subs	r3, #4
 8007e7a:	429d      	cmp	r5, r3
 8007e7c:	461a      	mov	r2, r3
 8007e7e:	d30a      	bcc.n	8007e96 <quorem+0x106>
 8007e80:	613c      	str	r4, [r7, #16]
 8007e82:	4630      	mov	r0, r6
 8007e84:	b003      	add	sp, #12
 8007e86:	e8bd 8ff0 	ldmia.w	sp!, {r4, r5, r6, r7, r8, r9, sl, fp, pc}
 8007e8a:	6812      	ldr	r2, [r2, #0]
 8007e8c:	3b04      	subs	r3, #4
 8007e8e:	2a00      	cmp	r2, #0
 8007e90:	d1cc      	bne.n	8007e2c <quorem+0x9c>
 8007e92:	3c01      	subs	r4, #1
 8007e94:	e7c7      	b.n	8007e26 <quorem+0x96>
 8007e96:	6812      	ldr	r2, [r2, #0]
 8007e98:	3b04      	subs	r3, #4
 8007e9a:	2a00      	cmp	r2, #0
 8007e9c:	d1f0      	bne.n	8007e80 <quorem+0xf0>
 8007e9e:	3c01      	subs	r4, #1
 8007ea0:	e7eb      	b.n	8007e7a <quorem+0xea>
 8007ea2:	2000      	movs	r0, #0
 8007ea4:	e7ee      	b.n	8007e84 <quorem+0xf4>
	...

08007ea8 <_dtoa_r>:
 8007ea8:	e92d 4ff0 	stmdb	sp!, {r4, r5, r6, r7, r8, r9, sl, fp, lr}
 8007eac:	ed2d 8b04 	vpush	{d8-d9}
 8007eb0:	ec57 6b10 	vmov	r6, r7, d0
 8007eb4:	b093      	sub	sp, #76	; 0x4c
 8007eb6:	6a45      	ldr	r5, [r0, #36]	; 0x24
 8007eb8:	f8dd 8080 	ldr.w	r8, [sp, #128]	; 0x80
 8007ebc:	9106      	str	r1, [sp, #24]
 8007ebe:	ee10 aa10 	vmov	sl, s0
 8007ec2:	4604      	mov	r4, r0
 8007ec4:	9209      	str	r2, [sp, #36]	; 0x24
 8007ec6:	930c      	str	r3, [sp, #48]	; 0x30
 8007ec8:	46bb      	mov	fp, r7
 8007eca:	b975      	cbnz	r5, 8007eea <_dtoa_r+0x42>
 8007ecc:	2010      	movs	r0, #16
 8007ece:	f000 fffd 	bl	8008ecc <malloc>
 8007ed2:	4602      	mov	r2, r0
 8007ed4:	6260      	str	r0, [r4, #36]	; 0x24
 8007ed6:	b920      	cbnz	r0, 8007ee2 <_dtoa_r+0x3a>
 8007ed8:	4ba7      	ldr	r3, [pc, #668]	; (8008178 <_dtoa_r+0x2d0>)
 8007eda:	21ea      	movs	r1, #234	; 0xea
 8007edc:	48a7      	ldr	r0, [pc, #668]	; (800817c <_dtoa_r+0x2d4>)
 8007ede:	f001 fe45 	bl	8009b6c <__assert_func>
 8007ee2:	e9c0 5501 	strd	r5, r5, [r0, #4]
 8007ee6:	6005      	str	r5, [r0, #0]
 8007ee8:	60c5      	str	r5, [r0, #12]
 8007eea:	6a63      	ldr	r3, [r4, #36]	; 0x24
 8007eec:	6819      	ldr	r1, [r3, #0]
 8007eee:	b151      	cbz	r1, 8007f06 <_dtoa_r+0x5e>
 8007ef0:	685a      	ldr	r2, [r3, #4]
 8007ef2:	604a      	str	r2, [r1, #4]
 8007ef4:	2301      	movs	r3, #1
 8007ef6:	4093      	lsls	r3, r2
 8007ef8:	608b      	str	r3, [r1, #8]
 8007efa:	4620      	mov	r0, r4
 8007efc:	f001 f83c 	bl	8008f78 <_Bfree>
 8007f00:	6a63      	ldr	r3, [r4, #36]	; 0x24
 8007f02:	2200      	movs	r2, #0
 8007f04:	601a      	str	r2, [r3, #0]
 8007f06:	1e3b      	subs	r3, r7, #0
 8007f08:	bfaa      	itet	ge
 8007f0a:	2300      	movge	r3, #0
 8007f0c:	f023 4b00 	biclt.w	fp, r3, #2147483648	; 0x80000000
 8007f10:	f8c8 3000 	strge.w	r3, [r8]
 8007f14:	4b9a      	ldr	r3, [pc, #616]	; (8008180 <_dtoa_r+0x2d8>)
 8007f16:	bfbc      	itt	lt
 8007f18:	2201      	movlt	r2, #1
 8007f1a:	f8c8 2000 	strlt.w	r2, [r8]
 8007f1e:	ea33 030b 	bics.w	r3, r3, fp
 8007f22:	d11b      	bne.n	8007f5c <_dtoa_r+0xb4>
 8007f24:	9a0c      	ldr	r2, [sp, #48]	; 0x30
 8007f26:	f242 730f 	movw	r3, #9999	; 0x270f
 8007f2a:	6013      	str	r3, [r2, #0]
 8007f2c:	f3cb 0313 	ubfx	r3, fp, #0, #20
 8007f30:	4333      	orrs	r3, r6
 8007f32:	f000 8592 	beq.w	8008a5a <_dtoa_r+0xbb2>
 8007f36:	9b21      	ldr	r3, [sp, #132]	; 0x84
 8007f38:	b963      	cbnz	r3, 8007f54 <_dtoa_r+0xac>
 8007f3a:	4b92      	ldr	r3, [pc, #584]	; (8008184 <_dtoa_r+0x2dc>)
 8007f3c:	e022      	b.n	8007f84 <_dtoa_r+0xdc>
 8007f3e:	4b92      	ldr	r3, [pc, #584]	; (8008188 <_dtoa_r+0x2e0>)
 8007f40:	9301      	str	r3, [sp, #4]
 8007f42:	3308      	adds	r3, #8
 8007f44:	9a21      	ldr	r2, [sp, #132]	; 0x84
 8007f46:	6013      	str	r3, [r2, #0]
 8007f48:	9801      	ldr	r0, [sp, #4]
 8007f4a:	b013      	add	sp, #76	; 0x4c
 8007f4c:	ecbd 8b04 	vpop	{d8-d9}
 8007f50:	e8bd 8ff0 	ldmia.w	sp!, {r4, r5, r6, r7, r8, r9, sl, fp, pc}
 8007f54:	4b8b      	ldr	r3, [pc, #556]	; (8008184 <_dtoa_r+0x2dc>)
 8007f56:	9301      	str	r3, [sp, #4]
 8007f58:	3303      	adds	r3, #3
 8007f5a:	e7f3      	b.n	8007f44 <_dtoa_r+0x9c>
 8007f5c:	2200      	movs	r2, #0
 8007f5e:	2300      	movs	r3, #0
 8007f60:	4650      	mov	r0, sl
 8007f62:	4659      	mov	r1, fp
 8007f64:	f7f8 fdb0 	bl	8000ac8 <__aeabi_dcmpeq>
 8007f68:	ec4b ab19 	vmov	d9, sl, fp
 8007f6c:	4680      	mov	r8, r0
 8007f6e:	b158      	cbz	r0, 8007f88 <_dtoa_r+0xe0>
 8007f70:	9a0c      	ldr	r2, [sp, #48]	; 0x30
 8007f72:	2301      	movs	r3, #1
 8007f74:	6013      	str	r3, [r2, #0]
 8007f76:	9b21      	ldr	r3, [sp, #132]	; 0x84
 8007f78:	2b00      	cmp	r3, #0
 8007f7a:	f000 856b 	beq.w	8008a54 <_dtoa_r+0xbac>
 8007f7e:	4883      	ldr	r0, [pc, #524]	; (800818c <_dtoa_r+0x2e4>)
 8007f80:	6018      	str	r0, [r3, #0]
 8007f82:	1e43      	subs	r3, r0, #1
 8007f84:	9301      	str	r3, [sp, #4]
 8007f86:	e7df      	b.n	8007f48 <_dtoa_r+0xa0>
 8007f88:	ec4b ab10 	vmov	d0, sl, fp
 8007f8c:	aa10      	add	r2, sp, #64	; 0x40
 8007f8e:	a911      	add	r1, sp, #68	; 0x44
 8007f90:	4620      	mov	r0, r4
 8007f92:	f001 fad9 	bl	8009548 <__d2b>
 8007f96:	f3cb 550a 	ubfx	r5, fp, #20, #11
 8007f9a:	ee08 0a10 	vmov	s16, r0
 8007f9e:	2d00      	cmp	r5, #0
 8007fa0:	f000 8084 	beq.w	80080ac <_dtoa_r+0x204>
 8007fa4:	ee19 3a90 	vmov	r3, s19
 8007fa8:	f3c3 0313 	ubfx	r3, r3, #0, #20
 8007fac:	f043 577f 	orr.w	r7, r3, #1069547520	; 0x3fc00000
 8007fb0:	4656      	mov	r6, sl
 8007fb2:	f447 1740 	orr.w	r7, r7, #3145728	; 0x300000
 8007fb6:	f2a5 35ff 	subw	r5, r5, #1023	; 0x3ff
 8007fba:	f8cd 8038 	str.w	r8, [sp, #56]	; 0x38
 8007fbe:	4b74      	ldr	r3, [pc, #464]	; (8008190 <_dtoa_r+0x2e8>)
 8007fc0:	2200      	movs	r2, #0
 8007fc2:	4630      	mov	r0, r6
 8007fc4:	4639      	mov	r1, r7
 8007fc6:	f7f8 f95f 	bl	8000288 <__aeabi_dsub>
 8007fca:	a365      	add	r3, pc, #404	; (adr r3, 8008160 <_dtoa_r+0x2b8>)
 8007fcc:	e9d3 2300 	ldrd	r2, r3, [r3]
 8007fd0:	f7f8 fb12 	bl	80005f8 <__aeabi_dmul>
 8007fd4:	a364      	add	r3, pc, #400	; (adr r3, 8008168 <_dtoa_r+0x2c0>)
 8007fd6:	e9d3 2300 	ldrd	r2, r3, [r3]
 8007fda:	f7f8 f957 	bl	800028c <__adddf3>
 8007fde:	4606      	mov	r6, r0
 8007fe0:	4628      	mov	r0, r5
 8007fe2:	460f      	mov	r7, r1
 8007fe4:	f7f8 fa9e 	bl	8000524 <__aeabi_i2d>
 8007fe8:	a361      	add	r3, pc, #388	; (adr r3, 8008170 <_dtoa_r+0x2c8>)
 8007fea:	e9d3 2300 	ldrd	r2, r3, [r3]
 8007fee:	f7f8 fb03 	bl	80005f8 <__aeabi_dmul>
 8007ff2:	4602      	mov	r2, r0
 8007ff4:	460b      	mov	r3, r1
 8007ff6:	4630      	mov	r0, r6
 8007ff8:	4639      	mov	r1, r7
 8007ffa:	f7f8 f947 	bl	800028c <__adddf3>
 8007ffe:	4606      	mov	r6, r0
 8008000:	460f      	mov	r7, r1
 8008002:	f7f8 fda9 	bl	8000b58 <__aeabi_d2iz>
 8008006:	2200      	movs	r2, #0
 8008008:	9000      	str	r0, [sp, #0]
 800800a:	2300      	movs	r3, #0
 800800c:	4630      	mov	r0, r6
 800800e:	4639      	mov	r1, r7
 8008010:	f7f8 fd64 	bl	8000adc <__aeabi_dcmplt>
 8008014:	b150      	cbz	r0, 800802c <_dtoa_r+0x184>
 8008016:	9800      	ldr	r0, [sp, #0]
 8008018:	f7f8 fa84 	bl	8000524 <__aeabi_i2d>
 800801c:	4632      	mov	r2, r6
 800801e:	463b      	mov	r3, r7
 8008020:	f7f8 fd52 	bl	8000ac8 <__aeabi_dcmpeq>
 8008024:	b910      	cbnz	r0, 800802c <_dtoa_r+0x184>
 8008026:	9b00      	ldr	r3, [sp, #0]
 8008028:	3b01      	subs	r3, #1
 800802a:	9300      	str	r3, [sp, #0]
 800802c:	9b00      	ldr	r3, [sp, #0]
 800802e:	2b16      	cmp	r3, #22
 8008030:	d85a      	bhi.n	80080e8 <_dtoa_r+0x240>
 8008032:	9a00      	ldr	r2, [sp, #0]
 8008034:	4b57      	ldr	r3, [pc, #348]	; (8008194 <_dtoa_r+0x2ec>)
 8008036:	eb03 03c2 	add.w	r3, r3, r2, lsl #3
 800803a:	e9d3 2300 	ldrd	r2, r3, [r3]
 800803e:	ec51 0b19 	vmov	r0, r1, d9
 8008042:	f7f8 fd4b 	bl	8000adc <__aeabi_dcmplt>
 8008046:	2800      	cmp	r0, #0
 8008048:	d050      	beq.n	80080ec <_dtoa_r+0x244>
 800804a:	9b00      	ldr	r3, [sp, #0]
 800804c:	3b01      	subs	r3, #1
 800804e:	9300      	str	r3, [sp, #0]
 8008050:	2300      	movs	r3, #0
 8008052:	930b      	str	r3, [sp, #44]	; 0x2c
 8008054:	9b10      	ldr	r3, [sp, #64]	; 0x40
 8008056:	1b5d      	subs	r5, r3, r5
 8008058:	1e6b      	subs	r3, r5, #1
 800805a:	9305      	str	r3, [sp, #20]
 800805c:	bf45      	ittet	mi
 800805e:	f1c5 0301 	rsbmi	r3, r5, #1
 8008062:	9304      	strmi	r3, [sp, #16]
 8008064:	2300      	movpl	r3, #0
 8008066:	2300      	movmi	r3, #0
 8008068:	bf4c      	ite	mi
 800806a:	9305      	strmi	r3, [sp, #20]
 800806c:	9304      	strpl	r3, [sp, #16]
 800806e:	9b00      	ldr	r3, [sp, #0]
 8008070:	2b00      	cmp	r3, #0
 8008072:	db3d      	blt.n	80080f0 <_dtoa_r+0x248>
 8008074:	9b05      	ldr	r3, [sp, #20]
 8008076:	9a00      	ldr	r2, [sp, #0]
 8008078:	920a      	str	r2, [sp, #40]	; 0x28
 800807a:	4413      	add	r3, r2
 800807c:	9305      	str	r3, [sp, #20]
 800807e:	2300      	movs	r3, #0
 8008080:	9307      	str	r3, [sp, #28]
 8008082:	9b06      	ldr	r3, [sp, #24]
 8008084:	2b09      	cmp	r3, #9
 8008086:	f200 8089 	bhi.w	800819c <_dtoa_r+0x2f4>
 800808a:	2b05      	cmp	r3, #5
 800808c:	bfc4      	itt	gt
 800808e:	3b04      	subgt	r3, #4
 8008090:	9306      	strgt	r3, [sp, #24]
 8008092:	9b06      	ldr	r3, [sp, #24]
 8008094:	f1a3 0302 	sub.w	r3, r3, #2
 8008098:	bfcc      	ite	gt
 800809a:	2500      	movgt	r5, #0
 800809c:	2501      	movle	r5, #1
 800809e:	2b03      	cmp	r3, #3
 80080a0:	f200 8087 	bhi.w	80081b2 <_dtoa_r+0x30a>
 80080a4:	e8df f003 	tbb	[pc, r3]
 80080a8:	59383a2d 	.word	0x59383a2d
 80080ac:	e9dd 5310 	ldrd	r5, r3, [sp, #64]	; 0x40
 80080b0:	441d      	add	r5, r3
 80080b2:	f205 4332 	addw	r3, r5, #1074	; 0x432
 80080b6:	2b20      	cmp	r3, #32
 80080b8:	bfc1      	itttt	gt
 80080ba:	f1c3 0340 	rsbgt	r3, r3, #64	; 0x40
 80080be:	f205 4012 	addwgt	r0, r5, #1042	; 0x412
 80080c2:	fa0b f303 	lslgt.w	r3, fp, r3
 80080c6:	fa26 f000 	lsrgt.w	r0, r6, r0
 80080ca:	bfda      	itte	le
 80080cc:	f1c3 0320 	rsble	r3, r3, #32
 80080d0:	fa06 f003 	lslle.w	r0, r6, r3
 80080d4:	4318      	orrgt	r0, r3
 80080d6:	f7f8 fa15 	bl	8000504 <__aeabi_ui2d>
 80080da:	2301      	movs	r3, #1
 80080dc:	4606      	mov	r6, r0
 80080de:	f1a1 77f8 	sub.w	r7, r1, #32505856	; 0x1f00000
 80080e2:	3d01      	subs	r5, #1
 80080e4:	930e      	str	r3, [sp, #56]	; 0x38
 80080e6:	e76a      	b.n	8007fbe <_dtoa_r+0x116>
 80080e8:	2301      	movs	r3, #1
 80080ea:	e7b2      	b.n	8008052 <_dtoa_r+0x1aa>
 80080ec:	900b      	str	r0, [sp, #44]	; 0x2c
 80080ee:	e7b1      	b.n	8008054 <_dtoa_r+0x1ac>
 80080f0:	9b04      	ldr	r3, [sp, #16]
 80080f2:	9a00      	ldr	r2, [sp, #0]
 80080f4:	1a9b      	subs	r3, r3, r2
 80080f6:	9304      	str	r3, [sp, #16]
 80080f8:	4253      	negs	r3, r2
 80080fa:	9307      	str	r3, [sp, #28]
 80080fc:	2300      	movs	r3, #0
 80080fe:	930a      	str	r3, [sp, #40]	; 0x28
 8008100:	e7bf      	b.n	8008082 <_dtoa_r+0x1da>
 8008102:	2300      	movs	r3, #0
 8008104:	9308      	str	r3, [sp, #32]
 8008106:	9b09      	ldr	r3, [sp, #36]	; 0x24
 8008108:	2b00      	cmp	r3, #0
 800810a:	dc55      	bgt.n	80081b8 <_dtoa_r+0x310>
 800810c:	2301      	movs	r3, #1
 800810e:	e9cd 3302 	strd	r3, r3, [sp, #8]
 8008112:	461a      	mov	r2, r3
 8008114:	9209      	str	r2, [sp, #36]	; 0x24
 8008116:	e00c      	b.n	8008132 <_dtoa_r+0x28a>
 8008118:	2301      	movs	r3, #1
 800811a:	e7f3      	b.n	8008104 <_dtoa_r+0x25c>
 800811c:	2300      	movs	r3, #0
 800811e:	9a09      	ldr	r2, [sp, #36]	; 0x24
 8008120:	9308      	str	r3, [sp, #32]
 8008122:	9b00      	ldr	r3, [sp, #0]
 8008124:	4413      	add	r3, r2
 8008126:	9302      	str	r3, [sp, #8]
 8008128:	3301      	adds	r3, #1
 800812a:	2b01      	cmp	r3, #1
 800812c:	9303      	str	r3, [sp, #12]
 800812e:	bfb8      	it	lt
 8008130:	2301      	movlt	r3, #1
 8008132:	6a60      	ldr	r0, [r4, #36]	; 0x24
 8008134:	2200      	movs	r2, #0
 8008136:	6042      	str	r2, [r0, #4]
 8008138:	2204      	movs	r2, #4
 800813a:	f102 0614 	add.w	r6, r2, #20
 800813e:	429e      	cmp	r6, r3
 8008140:	6841      	ldr	r1, [r0, #4]
 8008142:	d93d      	bls.n	80081c0 <_dtoa_r+0x318>
 8008144:	4620      	mov	r0, r4
 8008146:	f000 fed7 	bl	8008ef8 <_Balloc>
 800814a:	9001      	str	r0, [sp, #4]
 800814c:	2800      	cmp	r0, #0
 800814e:	d13b      	bne.n	80081c8 <_dtoa_r+0x320>
 8008150:	4b11      	ldr	r3, [pc, #68]	; (8008198 <_dtoa_r+0x2f0>)
 8008152:	4602      	mov	r2, r0
 8008154:	f44f 71d5 	mov.w	r1, #426	; 0x1aa
 8008158:	e6c0      	b.n	8007edc <_dtoa_r+0x34>
 800815a:	2301      	movs	r3, #1
 800815c:	e7df      	b.n	800811e <_dtoa_r+0x276>
 800815e:	bf00      	nop
 8008160:	636f4361 	.word	0x636f4361
 8008164:	3fd287a7 	.word	0x3fd287a7
 8008168:	8b60c8b3 	.word	0x8b60c8b3
 800816c:	3fc68a28 	.word	0x3fc68a28
 8008170:	509f79fb 	.word	0x509f79fb
 8008174:	3fd34413 	.word	0x3fd34413
 8008178:	0800a0a5 	.word	0x0800a0a5
 800817c:	0800a0bc 	.word	0x0800a0bc
 8008180:	7ff00000 	.word	0x7ff00000
 8008184:	0800a0a1 	.word	0x0800a0a1
 8008188:	0800a098 	.word	0x0800a098
 800818c:	0800a075 	.word	0x0800a075
 8008190:	3ff80000 	.word	0x3ff80000
 8008194:	0800a210 	.word	0x0800a210
 8008198:	0800a117 	.word	0x0800a117
 800819c:	2501      	movs	r5, #1
 800819e:	2300      	movs	r3, #0
 80081a0:	9306      	str	r3, [sp, #24]
 80081a2:	9508      	str	r5, [sp, #32]
 80081a4:	f04f 33ff 	mov.w	r3, #4294967295
 80081a8:	e9cd 3302 	strd	r3, r3, [sp, #8]
 80081ac:	2200      	movs	r2, #0
 80081ae:	2312      	movs	r3, #18
 80081b0:	e7b0      	b.n	8008114 <_dtoa_r+0x26c>
 80081b2:	2301      	movs	r3, #1
 80081b4:	9308      	str	r3, [sp, #32]
 80081b6:	e7f5      	b.n	80081a4 <_dtoa_r+0x2fc>
 80081b8:	9b09      	ldr	r3, [sp, #36]	; 0x24
 80081ba:	e9cd 3302 	strd	r3, r3, [sp, #8]
 80081be:	e7b8      	b.n	8008132 <_dtoa_r+0x28a>
 80081c0:	3101      	adds	r1, #1
 80081c2:	6041      	str	r1, [r0, #4]
 80081c4:	0052      	lsls	r2, r2, #1
 80081c6:	e7b8      	b.n	800813a <_dtoa_r+0x292>
 80081c8:	6a63      	ldr	r3, [r4, #36]	; 0x24
 80081ca:	9a01      	ldr	r2, [sp, #4]
 80081cc:	601a      	str	r2, [r3, #0]
 80081ce:	9b03      	ldr	r3, [sp, #12]
 80081d0:	2b0e      	cmp	r3, #14
 80081d2:	f200 809d 	bhi.w	8008310 <_dtoa_r+0x468>
 80081d6:	2d00      	cmp	r5, #0
 80081d8:	f000 809a 	beq.w	8008310 <_dtoa_r+0x468>
 80081dc:	9b00      	ldr	r3, [sp, #0]
 80081de:	2b00      	cmp	r3, #0
 80081e0:	dd32      	ble.n	8008248 <_dtoa_r+0x3a0>
 80081e2:	4ab7      	ldr	r2, [pc, #732]	; (80084c0 <_dtoa_r+0x618>)
 80081e4:	f003 030f 	and.w	r3, r3, #15
 80081e8:	eb02 03c3 	add.w	r3, r2, r3, lsl #3
 80081ec:	e9d3 8900 	ldrd	r8, r9, [r3]
 80081f0:	9b00      	ldr	r3, [sp, #0]
 80081f2:	05d8      	lsls	r0, r3, #23
 80081f4:	ea4f 1723 	mov.w	r7, r3, asr #4
 80081f8:	d516      	bpl.n	8008228 <_dtoa_r+0x380>
 80081fa:	4bb2      	ldr	r3, [pc, #712]	; (80084c4 <_dtoa_r+0x61c>)
 80081fc:	ec51 0b19 	vmov	r0, r1, d9
 8008200:	e9d3 2308 	ldrd	r2, r3, [r3, #32]
 8008204:	f7f8 fb22 	bl	800084c <__aeabi_ddiv>
 8008208:	f007 070f 	and.w	r7, r7, #15
 800820c:	4682      	mov	sl, r0
 800820e:	468b      	mov	fp, r1
 8008210:	2503      	movs	r5, #3
 8008212:	4eac      	ldr	r6, [pc, #688]	; (80084c4 <_dtoa_r+0x61c>)
 8008214:	b957      	cbnz	r7, 800822c <_dtoa_r+0x384>
 8008216:	4642      	mov	r2, r8
 8008218:	464b      	mov	r3, r9
 800821a:	4650      	mov	r0, sl
 800821c:	4659      	mov	r1, fp
 800821e:	f7f8 fb15 	bl	800084c <__aeabi_ddiv>
 8008222:	4682      	mov	sl, r0
 8008224:	468b      	mov	fp, r1
 8008226:	e028      	b.n	800827a <_dtoa_r+0x3d2>
 8008228:	2502      	movs	r5, #2
 800822a:	e7f2      	b.n	8008212 <_dtoa_r+0x36a>
 800822c:	07f9      	lsls	r1, r7, #31
 800822e:	d508      	bpl.n	8008242 <_dtoa_r+0x39a>
 8008230:	4640      	mov	r0, r8
 8008232:	4649      	mov	r1, r9
 8008234:	e9d6 2300 	ldrd	r2, r3, [r6]
 8008238:	f7f8 f9de 	bl	80005f8 <__aeabi_dmul>
 800823c:	3501      	adds	r5, #1
 800823e:	4680      	mov	r8, r0
 8008240:	4689      	mov	r9, r1
 8008242:	107f      	asrs	r7, r7, #1
 8008244:	3608      	adds	r6, #8
 8008246:	e7e5      	b.n	8008214 <_dtoa_r+0x36c>
 8008248:	f000 809b 	beq.w	8008382 <_dtoa_r+0x4da>
 800824c:	9b00      	ldr	r3, [sp, #0]
 800824e:	4f9d      	ldr	r7, [pc, #628]	; (80084c4 <_dtoa_r+0x61c>)
 8008250:	425e      	negs	r6, r3
 8008252:	4b9b      	ldr	r3, [pc, #620]	; (80084c0 <_dtoa_r+0x618>)
 8008254:	f006 020f 	and.w	r2, r6, #15
 8008258:	eb03 03c2 	add.w	r3, r3, r2, lsl #3
 800825c:	e9d3 2300 	ldrd	r2, r3, [r3]
 8008260:	ec51 0b19 	vmov	r0, r1, d9
 8008264:	f7f8 f9c8 	bl	80005f8 <__aeabi_dmul>
 8008268:	1136      	asrs	r6, r6, #4
 800826a:	4682      	mov	sl, r0
 800826c:	468b      	mov	fp, r1
 800826e:	2300      	movs	r3, #0
 8008270:	2502      	movs	r5, #2
 8008272:	2e00      	cmp	r6, #0
 8008274:	d17a      	bne.n	800836c <_dtoa_r+0x4c4>
 8008276:	2b00      	cmp	r3, #0
 8008278:	d1d3      	bne.n	8008222 <_dtoa_r+0x37a>
 800827a:	9b0b      	ldr	r3, [sp, #44]	; 0x2c
 800827c:	2b00      	cmp	r3, #0
 800827e:	f000 8082 	beq.w	8008386 <_dtoa_r+0x4de>
 8008282:	4b91      	ldr	r3, [pc, #580]	; (80084c8 <_dtoa_r+0x620>)
 8008284:	2200      	movs	r2, #0
 8008286:	4650      	mov	r0, sl
 8008288:	4659      	mov	r1, fp
 800828a:	f7f8 fc27 	bl	8000adc <__aeabi_dcmplt>
 800828e:	2800      	cmp	r0, #0
 8008290:	d079      	beq.n	8008386 <_dtoa_r+0x4de>
 8008292:	9b03      	ldr	r3, [sp, #12]
 8008294:	2b00      	cmp	r3, #0
 8008296:	d076      	beq.n	8008386 <_dtoa_r+0x4de>
 8008298:	9b02      	ldr	r3, [sp, #8]
 800829a:	2b00      	cmp	r3, #0
 800829c:	dd36      	ble.n	800830c <_dtoa_r+0x464>
 800829e:	9b00      	ldr	r3, [sp, #0]
 80082a0:	4650      	mov	r0, sl
 80082a2:	4659      	mov	r1, fp
 80082a4:	1e5f      	subs	r7, r3, #1
 80082a6:	2200      	movs	r2, #0
 80082a8:	4b88      	ldr	r3, [pc, #544]	; (80084cc <_dtoa_r+0x624>)
 80082aa:	f7f8 f9a5 	bl	80005f8 <__aeabi_dmul>
 80082ae:	9e02      	ldr	r6, [sp, #8]
 80082b0:	4682      	mov	sl, r0
 80082b2:	468b      	mov	fp, r1
 80082b4:	3501      	adds	r5, #1
 80082b6:	4628      	mov	r0, r5
 80082b8:	f7f8 f934 	bl	8000524 <__aeabi_i2d>
 80082bc:	4652      	mov	r2, sl
 80082be:	465b      	mov	r3, fp
 80082c0:	f7f8 f99a 	bl	80005f8 <__aeabi_dmul>
 80082c4:	4b82      	ldr	r3, [pc, #520]	; (80084d0 <_dtoa_r+0x628>)
 80082c6:	2200      	movs	r2, #0
 80082c8:	f7f7 ffe0 	bl	800028c <__adddf3>
 80082cc:	46d0      	mov	r8, sl
 80082ce:	46d9      	mov	r9, fp
 80082d0:	4682      	mov	sl, r0
 80082d2:	f1a1 7b50 	sub.w	fp, r1, #54525952	; 0x3400000
 80082d6:	2e00      	cmp	r6, #0
 80082d8:	d158      	bne.n	800838c <_dtoa_r+0x4e4>
 80082da:	4b7e      	ldr	r3, [pc, #504]	; (80084d4 <_dtoa_r+0x62c>)
 80082dc:	2200      	movs	r2, #0
 80082de:	4640      	mov	r0, r8
 80082e0:	4649      	mov	r1, r9
 80082e2:	f7f7 ffd1 	bl	8000288 <__aeabi_dsub>
 80082e6:	4652      	mov	r2, sl
 80082e8:	465b      	mov	r3, fp
 80082ea:	4680      	mov	r8, r0
 80082ec:	4689      	mov	r9, r1
 80082ee:	f7f8 fc13 	bl	8000b18 <__aeabi_dcmpgt>
 80082f2:	2800      	cmp	r0, #0
 80082f4:	f040 8295 	bne.w	8008822 <_dtoa_r+0x97a>
 80082f8:	4652      	mov	r2, sl
 80082fa:	f10b 4300 	add.w	r3, fp, #2147483648	; 0x80000000
 80082fe:	4640      	mov	r0, r8
 8008300:	4649      	mov	r1, r9
 8008302:	f7f8 fbeb 	bl	8000adc <__aeabi_dcmplt>
 8008306:	2800      	cmp	r0, #0
 8008308:	f040 8289 	bne.w	800881e <_dtoa_r+0x976>
 800830c:	ec5b ab19 	vmov	sl, fp, d9
 8008310:	9b11      	ldr	r3, [sp, #68]	; 0x44
 8008312:	2b00      	cmp	r3, #0
 8008314:	f2c0 8148 	blt.w	80085a8 <_dtoa_r+0x700>
 8008318:	9a00      	ldr	r2, [sp, #0]
 800831a:	2a0e      	cmp	r2, #14
 800831c:	f300 8144 	bgt.w	80085a8 <_dtoa_r+0x700>
 8008320:	4b67      	ldr	r3, [pc, #412]	; (80084c0 <_dtoa_r+0x618>)
 8008322:	eb03 03c2 	add.w	r3, r3, r2, lsl #3
 8008326:	e9d3 8900 	ldrd	r8, r9, [r3]
 800832a:	9b09      	ldr	r3, [sp, #36]	; 0x24
 800832c:	2b00      	cmp	r3, #0
 800832e:	f280 80d5 	bge.w	80084dc <_dtoa_r+0x634>
 8008332:	9b03      	ldr	r3, [sp, #12]
 8008334:	2b00      	cmp	r3, #0
 8008336:	f300 80d1 	bgt.w	80084dc <_dtoa_r+0x634>
 800833a:	f040 826f 	bne.w	800881c <_dtoa_r+0x974>
 800833e:	4b65      	ldr	r3, [pc, #404]	; (80084d4 <_dtoa_r+0x62c>)
 8008340:	2200      	movs	r2, #0
 8008342:	4640      	mov	r0, r8
 8008344:	4649      	mov	r1, r9
 8008346:	f7f8 f957 	bl	80005f8 <__aeabi_dmul>
 800834a:	4652      	mov	r2, sl
 800834c:	465b      	mov	r3, fp
 800834e:	f7f8 fbd9 	bl	8000b04 <__aeabi_dcmpge>
 8008352:	9e03      	ldr	r6, [sp, #12]
 8008354:	4637      	mov	r7, r6
 8008356:	2800      	cmp	r0, #0
 8008358:	f040 8245 	bne.w	80087e6 <_dtoa_r+0x93e>
 800835c:	9d01      	ldr	r5, [sp, #4]
 800835e:	2331      	movs	r3, #49	; 0x31
 8008360:	f805 3b01 	strb.w	r3, [r5], #1
 8008364:	9b00      	ldr	r3, [sp, #0]
 8008366:	3301      	adds	r3, #1
 8008368:	9300      	str	r3, [sp, #0]
 800836a:	e240      	b.n	80087ee <_dtoa_r+0x946>
 800836c:	07f2      	lsls	r2, r6, #31
 800836e:	d505      	bpl.n	800837c <_dtoa_r+0x4d4>
 8008370:	e9d7 2300 	ldrd	r2, r3, [r7]
 8008374:	f7f8 f940 	bl	80005f8 <__aeabi_dmul>
 8008378:	3501      	adds	r5, #1
 800837a:	2301      	movs	r3, #1
 800837c:	1076      	asrs	r6, r6, #1
 800837e:	3708      	adds	r7, #8
 8008380:	e777      	b.n	8008272 <_dtoa_r+0x3ca>
 8008382:	2502      	movs	r5, #2
 8008384:	e779      	b.n	800827a <_dtoa_r+0x3d2>
 8008386:	9f00      	ldr	r7, [sp, #0]
 8008388:	9e03      	ldr	r6, [sp, #12]
 800838a:	e794      	b.n	80082b6 <_dtoa_r+0x40e>
 800838c:	9901      	ldr	r1, [sp, #4]
 800838e:	4b4c      	ldr	r3, [pc, #304]	; (80084c0 <_dtoa_r+0x618>)
 8008390:	4431      	add	r1, r6
 8008392:	910d      	str	r1, [sp, #52]	; 0x34
 8008394:	9908      	ldr	r1, [sp, #32]
 8008396:	eb03 03c6 	add.w	r3, r3, r6, lsl #3
 800839a:	e953 2302 	ldrd	r2, r3, [r3, #-8]
 800839e:	2900      	cmp	r1, #0
 80083a0:	d043      	beq.n	800842a <_dtoa_r+0x582>
 80083a2:	494d      	ldr	r1, [pc, #308]	; (80084d8 <_dtoa_r+0x630>)
 80083a4:	2000      	movs	r0, #0
 80083a6:	f7f8 fa51 	bl	800084c <__aeabi_ddiv>
 80083aa:	4652      	mov	r2, sl
 80083ac:	465b      	mov	r3, fp
 80083ae:	f7f7 ff6b 	bl	8000288 <__aeabi_dsub>
 80083b2:	9d01      	ldr	r5, [sp, #4]
 80083b4:	4682      	mov	sl, r0
 80083b6:	468b      	mov	fp, r1
 80083b8:	4649      	mov	r1, r9
 80083ba:	4640      	mov	r0, r8
 80083bc:	f7f8 fbcc 	bl	8000b58 <__aeabi_d2iz>
 80083c0:	4606      	mov	r6, r0
 80083c2:	f7f8 f8af 	bl	8000524 <__aeabi_i2d>
 80083c6:	4602      	mov	r2, r0
 80083c8:	460b      	mov	r3, r1
 80083ca:	4640      	mov	r0, r8
 80083cc:	4649      	mov	r1, r9
 80083ce:	f7f7 ff5b 	bl	8000288 <__aeabi_dsub>
 80083d2:	3630      	adds	r6, #48	; 0x30
 80083d4:	f805 6b01 	strb.w	r6, [r5], #1
 80083d8:	4652      	mov	r2, sl
 80083da:	465b      	mov	r3, fp
 80083dc:	4680      	mov	r8, r0
 80083de:	4689      	mov	r9, r1
 80083e0:	f7f8 fb7c 	bl	8000adc <__aeabi_dcmplt>
 80083e4:	2800      	cmp	r0, #0
 80083e6:	d163      	bne.n	80084b0 <_dtoa_r+0x608>
 80083e8:	4642      	mov	r2, r8
 80083ea:	464b      	mov	r3, r9
 80083ec:	4936      	ldr	r1, [pc, #216]	; (80084c8 <_dtoa_r+0x620>)
 80083ee:	2000      	movs	r0, #0
 80083f0:	f7f7 ff4a 	bl	8000288 <__aeabi_dsub>
 80083f4:	4652      	mov	r2, sl
 80083f6:	465b      	mov	r3, fp
 80083f8:	f7f8 fb70 	bl	8000adc <__aeabi_dcmplt>
 80083fc:	2800      	cmp	r0, #0
 80083fe:	f040 80b5 	bne.w	800856c <_dtoa_r+0x6c4>
 8008402:	9b0d      	ldr	r3, [sp, #52]	; 0x34
 8008404:	429d      	cmp	r5, r3
 8008406:	d081      	beq.n	800830c <_dtoa_r+0x464>
 8008408:	4b30      	ldr	r3, [pc, #192]	; (80084cc <_dtoa_r+0x624>)
 800840a:	2200      	movs	r2, #0
 800840c:	4650      	mov	r0, sl
 800840e:	4659      	mov	r1, fp
 8008410:	f7f8 f8f2 	bl	80005f8 <__aeabi_dmul>
 8008414:	4b2d      	ldr	r3, [pc, #180]	; (80084cc <_dtoa_r+0x624>)
 8008416:	4682      	mov	sl, r0
 8008418:	468b      	mov	fp, r1
 800841a:	4640      	mov	r0, r8
 800841c:	4649      	mov	r1, r9
 800841e:	2200      	movs	r2, #0
 8008420:	f7f8 f8ea 	bl	80005f8 <__aeabi_dmul>
 8008424:	4680      	mov	r8, r0
 8008426:	4689      	mov	r9, r1
 8008428:	e7c6      	b.n	80083b8 <_dtoa_r+0x510>
 800842a:	4650      	mov	r0, sl
 800842c:	4659      	mov	r1, fp
 800842e:	f7f8 f8e3 	bl	80005f8 <__aeabi_dmul>
 8008432:	9b0d      	ldr	r3, [sp, #52]	; 0x34
 8008434:	9d01      	ldr	r5, [sp, #4]
 8008436:	930f      	str	r3, [sp, #60]	; 0x3c
 8008438:	4682      	mov	sl, r0
 800843a:	468b      	mov	fp, r1
 800843c:	4649      	mov	r1, r9
 800843e:	4640      	mov	r0, r8
 8008440:	f7f8 fb8a 	bl	8000b58 <__aeabi_d2iz>
 8008444:	4606      	mov	r6, r0
 8008446:	f7f8 f86d 	bl	8000524 <__aeabi_i2d>
 800844a:	3630      	adds	r6, #48	; 0x30
 800844c:	4602      	mov	r2, r0
 800844e:	460b      	mov	r3, r1
 8008450:	4640      	mov	r0, r8
 8008452:	4649      	mov	r1, r9
 8008454:	f7f7 ff18 	bl	8000288 <__aeabi_dsub>
 8008458:	f805 6b01 	strb.w	r6, [r5], #1
 800845c:	9b0d      	ldr	r3, [sp, #52]	; 0x34
 800845e:	429d      	cmp	r5, r3
 8008460:	4680      	mov	r8, r0
 8008462:	4689      	mov	r9, r1
 8008464:	f04f 0200 	mov.w	r2, #0
 8008468:	d124      	bne.n	80084b4 <_dtoa_r+0x60c>
 800846a:	4b1b      	ldr	r3, [pc, #108]	; (80084d8 <_dtoa_r+0x630>)
 800846c:	4650      	mov	r0, sl
 800846e:	4659      	mov	r1, fp
 8008470:	f7f7 ff0c 	bl	800028c <__adddf3>
 8008474:	4602      	mov	r2, r0
 8008476:	460b      	mov	r3, r1
 8008478:	4640      	mov	r0, r8
 800847a:	4649      	mov	r1, r9
 800847c:	f7f8 fb4c 	bl	8000b18 <__aeabi_dcmpgt>
 8008480:	2800      	cmp	r0, #0
 8008482:	d173      	bne.n	800856c <_dtoa_r+0x6c4>
 8008484:	4652      	mov	r2, sl
 8008486:	465b      	mov	r3, fp
 8008488:	4913      	ldr	r1, [pc, #76]	; (80084d8 <_dtoa_r+0x630>)
 800848a:	2000      	movs	r0, #0
 800848c:	f7f7 fefc 	bl	8000288 <__aeabi_dsub>
 8008490:	4602      	mov	r2, r0
 8008492:	460b      	mov	r3, r1
 8008494:	4640      	mov	r0, r8
 8008496:	4649      	mov	r1, r9
 8008498:	f7f8 fb20 	bl	8000adc <__aeabi_dcmplt>
 800849c:	2800      	cmp	r0, #0
 800849e:	f43f af35 	beq.w	800830c <_dtoa_r+0x464>
 80084a2:	9d0f      	ldr	r5, [sp, #60]	; 0x3c
 80084a4:	1e6b      	subs	r3, r5, #1
 80084a6:	930f      	str	r3, [sp, #60]	; 0x3c
 80084a8:	f815 3c01 	ldrb.w	r3, [r5, #-1]
 80084ac:	2b30      	cmp	r3, #48	; 0x30
 80084ae:	d0f8      	beq.n	80084a2 <_dtoa_r+0x5fa>
 80084b0:	9700      	str	r7, [sp, #0]
 80084b2:	e049      	b.n	8008548 <_dtoa_r+0x6a0>
 80084b4:	4b05      	ldr	r3, [pc, #20]	; (80084cc <_dtoa_r+0x624>)
 80084b6:	f7f8 f89f 	bl	80005f8 <__aeabi_dmul>
 80084ba:	4680      	mov	r8, r0
 80084bc:	4689      	mov	r9, r1
 80084be:	e7bd      	b.n	800843c <_dtoa_r+0x594>
 80084c0:	0800a210 	.word	0x0800a210
 80084c4:	0800a1e8 	.word	0x0800a1e8
 80084c8:	3ff00000 	.word	0x3ff00000
 80084cc:	40240000 	.word	0x40240000
 80084d0:	401c0000 	.word	0x401c0000
 80084d4:	40140000 	.word	0x40140000
 80084d8:	3fe00000 	.word	0x3fe00000
 80084dc:	9d01      	ldr	r5, [sp, #4]
 80084de:	4656      	mov	r6, sl
 80084e0:	465f      	mov	r7, fp
 80084e2:	4642      	mov	r2, r8
 80084e4:	464b      	mov	r3, r9
 80084e6:	4630      	mov	r0, r6
 80084e8:	4639      	mov	r1, r7
 80084ea:	f7f8 f9af 	bl	800084c <__aeabi_ddiv>
 80084ee:	f7f8 fb33 	bl	8000b58 <__aeabi_d2iz>
 80084f2:	4682      	mov	sl, r0
 80084f4:	f7f8 f816 	bl	8000524 <__aeabi_i2d>
 80084f8:	4642      	mov	r2, r8
 80084fa:	464b      	mov	r3, r9
 80084fc:	f7f8 f87c 	bl	80005f8 <__aeabi_dmul>
 8008500:	4602      	mov	r2, r0
 8008502:	460b      	mov	r3, r1
 8008504:	4630      	mov	r0, r6
 8008506:	4639      	mov	r1, r7
 8008508:	f10a 0630 	add.w	r6, sl, #48	; 0x30
 800850c:	f7f7 febc 	bl	8000288 <__aeabi_dsub>
 8008510:	f805 6b01 	strb.w	r6, [r5], #1
 8008514:	9e01      	ldr	r6, [sp, #4]
 8008516:	9f03      	ldr	r7, [sp, #12]
 8008518:	1bae      	subs	r6, r5, r6
 800851a:	42b7      	cmp	r7, r6
 800851c:	4602      	mov	r2, r0
 800851e:	460b      	mov	r3, r1
 8008520:	d135      	bne.n	800858e <_dtoa_r+0x6e6>
 8008522:	f7f7 feb3 	bl	800028c <__adddf3>
 8008526:	4642      	mov	r2, r8
 8008528:	464b      	mov	r3, r9
 800852a:	4606      	mov	r6, r0
 800852c:	460f      	mov	r7, r1
 800852e:	f7f8 faf3 	bl	8000b18 <__aeabi_dcmpgt>
 8008532:	b9d0      	cbnz	r0, 800856a <_dtoa_r+0x6c2>
 8008534:	4642      	mov	r2, r8
 8008536:	464b      	mov	r3, r9
 8008538:	4630      	mov	r0, r6
 800853a:	4639      	mov	r1, r7
 800853c:	f7f8 fac4 	bl	8000ac8 <__aeabi_dcmpeq>
 8008540:	b110      	cbz	r0, 8008548 <_dtoa_r+0x6a0>
 8008542:	f01a 0f01 	tst.w	sl, #1
 8008546:	d110      	bne.n	800856a <_dtoa_r+0x6c2>
 8008548:	4620      	mov	r0, r4
 800854a:	ee18 1a10 	vmov	r1, s16
 800854e:	f000 fd13 	bl	8008f78 <_Bfree>
 8008552:	2300      	movs	r3, #0
 8008554:	9800      	ldr	r0, [sp, #0]
 8008556:	702b      	strb	r3, [r5, #0]
 8008558:	9b0c      	ldr	r3, [sp, #48]	; 0x30
 800855a:	3001      	adds	r0, #1
 800855c:	6018      	str	r0, [r3, #0]
 800855e:	9b21      	ldr	r3, [sp, #132]	; 0x84
 8008560:	2b00      	cmp	r3, #0
 8008562:	f43f acf1 	beq.w	8007f48 <_dtoa_r+0xa0>
 8008566:	601d      	str	r5, [r3, #0]
 8008568:	e4ee      	b.n	8007f48 <_dtoa_r+0xa0>
 800856a:	9f00      	ldr	r7, [sp, #0]
 800856c:	462b      	mov	r3, r5
 800856e:	461d      	mov	r5, r3
 8008570:	f813 2d01 	ldrb.w	r2, [r3, #-1]!
 8008574:	2a39      	cmp	r2, #57	; 0x39
 8008576:	d106      	bne.n	8008586 <_dtoa_r+0x6de>
 8008578:	9a01      	ldr	r2, [sp, #4]
 800857a:	429a      	cmp	r2, r3
 800857c:	d1f7      	bne.n	800856e <_dtoa_r+0x6c6>
 800857e:	9901      	ldr	r1, [sp, #4]
 8008580:	2230      	movs	r2, #48	; 0x30
 8008582:	3701      	adds	r7, #1
 8008584:	700a      	strb	r2, [r1, #0]
 8008586:	781a      	ldrb	r2, [r3, #0]
 8008588:	3201      	adds	r2, #1
 800858a:	701a      	strb	r2, [r3, #0]
 800858c:	e790      	b.n	80084b0 <_dtoa_r+0x608>
 800858e:	4ba6      	ldr	r3, [pc, #664]	; (8008828 <_dtoa_r+0x980>)
 8008590:	2200      	movs	r2, #0
 8008592:	f7f8 f831 	bl	80005f8 <__aeabi_dmul>
 8008596:	2200      	movs	r2, #0
 8008598:	2300      	movs	r3, #0
 800859a:	4606      	mov	r6, r0
 800859c:	460f      	mov	r7, r1
 800859e:	f7f8 fa93 	bl	8000ac8 <__aeabi_dcmpeq>
 80085a2:	2800      	cmp	r0, #0
 80085a4:	d09d      	beq.n	80084e2 <_dtoa_r+0x63a>
 80085a6:	e7cf      	b.n	8008548 <_dtoa_r+0x6a0>
 80085a8:	9a08      	ldr	r2, [sp, #32]
 80085aa:	2a00      	cmp	r2, #0
 80085ac:	f000 80d7 	beq.w	800875e <_dtoa_r+0x8b6>
 80085b0:	9a06      	ldr	r2, [sp, #24]
 80085b2:	2a01      	cmp	r2, #1
 80085b4:	f300 80ba 	bgt.w	800872c <_dtoa_r+0x884>
 80085b8:	9a0e      	ldr	r2, [sp, #56]	; 0x38
 80085ba:	2a00      	cmp	r2, #0
 80085bc:	f000 80b2 	beq.w	8008724 <_dtoa_r+0x87c>
 80085c0:	f203 4333 	addw	r3, r3, #1075	; 0x433
 80085c4:	9e07      	ldr	r6, [sp, #28]
 80085c6:	9d04      	ldr	r5, [sp, #16]
 80085c8:	9a04      	ldr	r2, [sp, #16]
 80085ca:	441a      	add	r2, r3
 80085cc:	9204      	str	r2, [sp, #16]
 80085ce:	9a05      	ldr	r2, [sp, #20]
 80085d0:	2101      	movs	r1, #1
 80085d2:	441a      	add	r2, r3
 80085d4:	4620      	mov	r0, r4
 80085d6:	9205      	str	r2, [sp, #20]
 80085d8:	f000 fd86 	bl	80090e8 <__i2b>
 80085dc:	4607      	mov	r7, r0
 80085de:	2d00      	cmp	r5, #0
 80085e0:	dd0c      	ble.n	80085fc <_dtoa_r+0x754>
 80085e2:	9b05      	ldr	r3, [sp, #20]
 80085e4:	2b00      	cmp	r3, #0
 80085e6:	dd09      	ble.n	80085fc <_dtoa_r+0x754>
 80085e8:	42ab      	cmp	r3, r5
 80085ea:	9a04      	ldr	r2, [sp, #16]
 80085ec:	bfa8      	it	ge
 80085ee:	462b      	movge	r3, r5
 80085f0:	1ad2      	subs	r2, r2, r3
 80085f2:	9204      	str	r2, [sp, #16]
 80085f4:	9a05      	ldr	r2, [sp, #20]
 80085f6:	1aed      	subs	r5, r5, r3
 80085f8:	1ad3      	subs	r3, r2, r3
 80085fa:	9305      	str	r3, [sp, #20]
 80085fc:	9b07      	ldr	r3, [sp, #28]
 80085fe:	b31b      	cbz	r3, 8008648 <_dtoa_r+0x7a0>
 8008600:	9b08      	ldr	r3, [sp, #32]
 8008602:	2b00      	cmp	r3, #0
 8008604:	f000 80af 	beq.w	8008766 <_dtoa_r+0x8be>
 8008608:	2e00      	cmp	r6, #0
 800860a:	dd13      	ble.n	8008634 <_dtoa_r+0x78c>
 800860c:	4639      	mov	r1, r7
 800860e:	4632      	mov	r2, r6
 8008610:	4620      	mov	r0, r4
 8008612:	f000 fe29 	bl	8009268 <__pow5mult>
 8008616:	ee18 2a10 	vmov	r2, s16
 800861a:	4601      	mov	r1, r0
 800861c:	4607      	mov	r7, r0
 800861e:	4620      	mov	r0, r4
 8008620:	f000 fd78 	bl	8009114 <__multiply>
 8008624:	ee18 1a10 	vmov	r1, s16
 8008628:	4680      	mov	r8, r0
 800862a:	4620      	mov	r0, r4
 800862c:	f000 fca4 	bl	8008f78 <_Bfree>
 8008630:	ee08 8a10 	vmov	s16, r8
 8008634:	9b07      	ldr	r3, [sp, #28]
 8008636:	1b9a      	subs	r2, r3, r6
 8008638:	d006      	beq.n	8008648 <_dtoa_r+0x7a0>
 800863a:	ee18 1a10 	vmov	r1, s16
 800863e:	4620      	mov	r0, r4
 8008640:	f000 fe12 	bl	8009268 <__pow5mult>
 8008644:	ee08 0a10 	vmov	s16, r0
 8008648:	2101      	movs	r1, #1
 800864a:	4620      	mov	r0, r4
 800864c:	f000 fd4c 	bl	80090e8 <__i2b>
 8008650:	9b0a      	ldr	r3, [sp, #40]	; 0x28
 8008652:	2b00      	cmp	r3, #0
 8008654:	4606      	mov	r6, r0
 8008656:	f340 8088 	ble.w	800876a <_dtoa_r+0x8c2>
 800865a:	461a      	mov	r2, r3
 800865c:	4601      	mov	r1, r0
 800865e:	4620      	mov	r0, r4
 8008660:	f000 fe02 	bl	8009268 <__pow5mult>
 8008664:	9b06      	ldr	r3, [sp, #24]
 8008666:	2b01      	cmp	r3, #1
 8008668:	4606      	mov	r6, r0
 800866a:	f340 8081 	ble.w	8008770 <_dtoa_r+0x8c8>
 800866e:	f04f 0800 	mov.w	r8, #0
 8008672:	6933      	ldr	r3, [r6, #16]
 8008674:	eb06 0383 	add.w	r3, r6, r3, lsl #2
 8008678:	6918      	ldr	r0, [r3, #16]
 800867a:	f000 fce5 	bl	8009048 <__hi0bits>
 800867e:	f1c0 0020 	rsb	r0, r0, #32
 8008682:	9b05      	ldr	r3, [sp, #20]
 8008684:	4418      	add	r0, r3
 8008686:	f010 001f 	ands.w	r0, r0, #31
 800868a:	f000 8092 	beq.w	80087b2 <_dtoa_r+0x90a>
 800868e:	f1c0 0320 	rsb	r3, r0, #32
 8008692:	2b04      	cmp	r3, #4
 8008694:	f340 808a 	ble.w	80087ac <_dtoa_r+0x904>
 8008698:	f1c0 001c 	rsb	r0, r0, #28
 800869c:	9b04      	ldr	r3, [sp, #16]
 800869e:	4403      	add	r3, r0
 80086a0:	9304      	str	r3, [sp, #16]
 80086a2:	9b05      	ldr	r3, [sp, #20]
 80086a4:	4403      	add	r3, r0
 80086a6:	4405      	add	r5, r0
 80086a8:	9305      	str	r3, [sp, #20]
 80086aa:	9b04      	ldr	r3, [sp, #16]
 80086ac:	2b00      	cmp	r3, #0
 80086ae:	dd07      	ble.n	80086c0 <_dtoa_r+0x818>
 80086b0:	ee18 1a10 	vmov	r1, s16
 80086b4:	461a      	mov	r2, r3
 80086b6:	4620      	mov	r0, r4
 80086b8:	f000 fe30 	bl	800931c <__lshift>
 80086bc:	ee08 0a10 	vmov	s16, r0
 80086c0:	9b05      	ldr	r3, [sp, #20]
 80086c2:	2b00      	cmp	r3, #0
 80086c4:	dd05      	ble.n	80086d2 <_dtoa_r+0x82a>
 80086c6:	4631      	mov	r1, r6
 80086c8:	461a      	mov	r2, r3
 80086ca:	4620      	mov	r0, r4
 80086cc:	f000 fe26 	bl	800931c <__lshift>
 80086d0:	4606      	mov	r6, r0
 80086d2:	9b0b      	ldr	r3, [sp, #44]	; 0x2c
 80086d4:	2b00      	cmp	r3, #0
 80086d6:	d06e      	beq.n	80087b6 <_dtoa_r+0x90e>
 80086d8:	ee18 0a10 	vmov	r0, s16
 80086dc:	4631      	mov	r1, r6
 80086de:	f000 fe8d 	bl	80093fc <__mcmp>
 80086e2:	2800      	cmp	r0, #0
 80086e4:	da67      	bge.n	80087b6 <_dtoa_r+0x90e>
 80086e6:	9b00      	ldr	r3, [sp, #0]
 80086e8:	3b01      	subs	r3, #1
 80086ea:	ee18 1a10 	vmov	r1, s16
 80086ee:	9300      	str	r3, [sp, #0]
 80086f0:	220a      	movs	r2, #10
 80086f2:	2300      	movs	r3, #0
 80086f4:	4620      	mov	r0, r4
 80086f6:	f000 fc61 	bl	8008fbc <__multadd>
 80086fa:	9b08      	ldr	r3, [sp, #32]
 80086fc:	ee08 0a10 	vmov	s16, r0
 8008700:	2b00      	cmp	r3, #0
 8008702:	f000 81b1 	beq.w	8008a68 <_dtoa_r+0xbc0>
 8008706:	2300      	movs	r3, #0
 8008708:	4639      	mov	r1, r7
 800870a:	220a      	movs	r2, #10
 800870c:	4620      	mov	r0, r4
 800870e:	f000 fc55 	bl	8008fbc <__multadd>
 8008712:	9b02      	ldr	r3, [sp, #8]
 8008714:	2b00      	cmp	r3, #0
 8008716:	4607      	mov	r7, r0
 8008718:	f300 808e 	bgt.w	8008838 <_dtoa_r+0x990>
 800871c:	9b06      	ldr	r3, [sp, #24]
 800871e:	2b02      	cmp	r3, #2
 8008720:	dc51      	bgt.n	80087c6 <_dtoa_r+0x91e>
 8008722:	e089      	b.n	8008838 <_dtoa_r+0x990>
 8008724:	9b10      	ldr	r3, [sp, #64]	; 0x40
 8008726:	f1c3 0336 	rsb	r3, r3, #54	; 0x36
 800872a:	e74b      	b.n	80085c4 <_dtoa_r+0x71c>
 800872c:	9b03      	ldr	r3, [sp, #12]
 800872e:	1e5e      	subs	r6, r3, #1
 8008730:	9b07      	ldr	r3, [sp, #28]
 8008732:	42b3      	cmp	r3, r6
 8008734:	bfbf      	itttt	lt
 8008736:	9b07      	ldrlt	r3, [sp, #28]
 8008738:	9607      	strlt	r6, [sp, #28]
 800873a:	1af2      	sublt	r2, r6, r3
 800873c:	9b0a      	ldrlt	r3, [sp, #40]	; 0x28
 800873e:	bfb6      	itet	lt
 8008740:	189b      	addlt	r3, r3, r2
 8008742:	1b9e      	subge	r6, r3, r6
 8008744:	930a      	strlt	r3, [sp, #40]	; 0x28
 8008746:	9b03      	ldr	r3, [sp, #12]
 8008748:	bfb8      	it	lt
 800874a:	2600      	movlt	r6, #0
 800874c:	2b00      	cmp	r3, #0
 800874e:	bfb7      	itett	lt
 8008750:	e9dd 2303 	ldrdlt	r2, r3, [sp, #12]
 8008754:	e9dd 3503 	ldrdge	r3, r5, [sp, #12]
 8008758:	1a9d      	sublt	r5, r3, r2
 800875a:	2300      	movlt	r3, #0
 800875c:	e734      	b.n	80085c8 <_dtoa_r+0x720>
 800875e:	9e07      	ldr	r6, [sp, #28]
 8008760:	9d04      	ldr	r5, [sp, #16]
 8008762:	9f08      	ldr	r7, [sp, #32]
 8008764:	e73b      	b.n	80085de <_dtoa_r+0x736>
 8008766:	9a07      	ldr	r2, [sp, #28]
 8008768:	e767      	b.n	800863a <_dtoa_r+0x792>
 800876a:	9b06      	ldr	r3, [sp, #24]
 800876c:	2b01      	cmp	r3, #1
 800876e:	dc18      	bgt.n	80087a2 <_dtoa_r+0x8fa>
 8008770:	f1ba 0f00 	cmp.w	sl, #0
 8008774:	d115      	bne.n	80087a2 <_dtoa_r+0x8fa>
 8008776:	f3cb 0313 	ubfx	r3, fp, #0, #20
 800877a:	b993      	cbnz	r3, 80087a2 <_dtoa_r+0x8fa>
 800877c:	f02b 4300 	bic.w	r3, fp, #2147483648	; 0x80000000
 8008780:	0d1b      	lsrs	r3, r3, #20
 8008782:	051b      	lsls	r3, r3, #20
 8008784:	b183      	cbz	r3, 80087a8 <_dtoa_r+0x900>
 8008786:	9b04      	ldr	r3, [sp, #16]
 8008788:	3301      	adds	r3, #1
 800878a:	9304      	str	r3, [sp, #16]
 800878c:	9b05      	ldr	r3, [sp, #20]
 800878e:	3301      	adds	r3, #1
 8008790:	9305      	str	r3, [sp, #20]
 8008792:	f04f 0801 	mov.w	r8, #1
 8008796:	9b0a      	ldr	r3, [sp, #40]	; 0x28
 8008798:	2b00      	cmp	r3, #0
 800879a:	f47f af6a 	bne.w	8008672 <_dtoa_r+0x7ca>
 800879e:	2001      	movs	r0, #1
 80087a0:	e76f      	b.n	8008682 <_dtoa_r+0x7da>
 80087a2:	f04f 0800 	mov.w	r8, #0
 80087a6:	e7f6      	b.n	8008796 <_dtoa_r+0x8ee>
 80087a8:	4698      	mov	r8, r3
 80087aa:	e7f4      	b.n	8008796 <_dtoa_r+0x8ee>
 80087ac:	f43f af7d 	beq.w	80086aa <_dtoa_r+0x802>
 80087b0:	4618      	mov	r0, r3
 80087b2:	301c      	adds	r0, #28
 80087b4:	e772      	b.n	800869c <_dtoa_r+0x7f4>
 80087b6:	9b03      	ldr	r3, [sp, #12]
 80087b8:	2b00      	cmp	r3, #0
 80087ba:	dc37      	bgt.n	800882c <_dtoa_r+0x984>
 80087bc:	9b06      	ldr	r3, [sp, #24]
 80087be:	2b02      	cmp	r3, #2
 80087c0:	dd34      	ble.n	800882c <_dtoa_r+0x984>
 80087c2:	9b03      	ldr	r3, [sp, #12]
 80087c4:	9302      	str	r3, [sp, #8]
 80087c6:	9b02      	ldr	r3, [sp, #8]
 80087c8:	b96b      	cbnz	r3, 80087e6 <_dtoa_r+0x93e>
 80087ca:	4631      	mov	r1, r6
 80087cc:	2205      	movs	r2, #5
 80087ce:	4620      	mov	r0, r4
 80087d0:	f000 fbf4 	bl	8008fbc <__multadd>
 80087d4:	4601      	mov	r1, r0
 80087d6:	4606      	mov	r6, r0
 80087d8:	ee18 0a10 	vmov	r0, s16
 80087dc:	f000 fe0e 	bl	80093fc <__mcmp>
 80087e0:	2800      	cmp	r0, #0
 80087e2:	f73f adbb 	bgt.w	800835c <_dtoa_r+0x4b4>
 80087e6:	9b09      	ldr	r3, [sp, #36]	; 0x24
 80087e8:	9d01      	ldr	r5, [sp, #4]
 80087ea:	43db      	mvns	r3, r3
 80087ec:	9300      	str	r3, [sp, #0]
 80087ee:	f04f 0800 	mov.w	r8, #0
 80087f2:	4631      	mov	r1, r6
 80087f4:	4620      	mov	r0, r4
 80087f6:	f000 fbbf 	bl	8008f78 <_Bfree>
 80087fa:	2f00      	cmp	r7, #0
 80087fc:	f43f aea4 	beq.w	8008548 <_dtoa_r+0x6a0>
 8008800:	f1b8 0f00 	cmp.w	r8, #0
 8008804:	d005      	beq.n	8008812 <_dtoa_r+0x96a>
 8008806:	45b8      	cmp	r8, r7
 8008808:	d003      	beq.n	8008812 <_dtoa_r+0x96a>
 800880a:	4641      	mov	r1, r8
 800880c:	4620      	mov	r0, r4
 800880e:	f000 fbb3 	bl	8008f78 <_Bfree>
 8008812:	4639      	mov	r1, r7
 8008814:	4620      	mov	r0, r4
 8008816:	f000 fbaf 	bl	8008f78 <_Bfree>
 800881a:	e695      	b.n	8008548 <_dtoa_r+0x6a0>
 800881c:	2600      	movs	r6, #0
 800881e:	4637      	mov	r7, r6
 8008820:	e7e1      	b.n	80087e6 <_dtoa_r+0x93e>
 8008822:	9700      	str	r7, [sp, #0]
 8008824:	4637      	mov	r7, r6
 8008826:	e599      	b.n	800835c <_dtoa_r+0x4b4>
 8008828:	40240000 	.word	0x40240000
 800882c:	9b08      	ldr	r3, [sp, #32]
 800882e:	2b00      	cmp	r3, #0
 8008830:	f000 80ca 	beq.w	80089c8 <_dtoa_r+0xb20>
 8008834:	9b03      	ldr	r3, [sp, #12]
 8008836:	9302      	str	r3, [sp, #8]
 8008838:	2d00      	cmp	r5, #0
 800883a:	dd05      	ble.n	8008848 <_dtoa_r+0x9a0>
 800883c:	4639      	mov	r1, r7
 800883e:	462a      	mov	r2, r5
 8008840:	4620      	mov	r0, r4
 8008842:	f000 fd6b 	bl	800931c <__lshift>
 8008846:	4607      	mov	r7, r0
 8008848:	f1b8 0f00 	cmp.w	r8, #0
 800884c:	d05b      	beq.n	8008906 <_dtoa_r+0xa5e>
 800884e:	6879      	ldr	r1, [r7, #4]
 8008850:	4620      	mov	r0, r4
 8008852:	f000 fb51 	bl	8008ef8 <_Balloc>
 8008856:	4605      	mov	r5, r0
 8008858:	b928      	cbnz	r0, 8008866 <_dtoa_r+0x9be>
 800885a:	4b87      	ldr	r3, [pc, #540]	; (8008a78 <_dtoa_r+0xbd0>)
 800885c:	4602      	mov	r2, r0
 800885e:	f240 21ea 	movw	r1, #746	; 0x2ea
 8008862:	f7ff bb3b 	b.w	8007edc <_dtoa_r+0x34>
 8008866:	693a      	ldr	r2, [r7, #16]
 8008868:	3202      	adds	r2, #2
 800886a:	0092      	lsls	r2, r2, #2
 800886c:	f107 010c 	add.w	r1, r7, #12
 8008870:	300c      	adds	r0, #12
 8008872:	f000 fb33 	bl	8008edc <memcpy>
 8008876:	2201      	movs	r2, #1
 8008878:	4629      	mov	r1, r5
 800887a:	4620      	mov	r0, r4
 800887c:	f000 fd4e 	bl	800931c <__lshift>
 8008880:	9b01      	ldr	r3, [sp, #4]
 8008882:	f103 0901 	add.w	r9, r3, #1
 8008886:	e9dd 2301 	ldrd	r2, r3, [sp, #4]
 800888a:	4413      	add	r3, r2
 800888c:	9305      	str	r3, [sp, #20]
 800888e:	f00a 0301 	and.w	r3, sl, #1
 8008892:	46b8      	mov	r8, r7
 8008894:	9304      	str	r3, [sp, #16]
 8008896:	4607      	mov	r7, r0
 8008898:	4631      	mov	r1, r6
 800889a:	ee18 0a10 	vmov	r0, s16
 800889e:	f7ff fa77 	bl	8007d90 <quorem>
 80088a2:	4641      	mov	r1, r8
 80088a4:	9002      	str	r0, [sp, #8]
 80088a6:	f100 0a30 	add.w	sl, r0, #48	; 0x30
 80088aa:	ee18 0a10 	vmov	r0, s16
 80088ae:	f000 fda5 	bl	80093fc <__mcmp>
 80088b2:	463a      	mov	r2, r7
 80088b4:	9003      	str	r0, [sp, #12]
 80088b6:	4631      	mov	r1, r6
 80088b8:	4620      	mov	r0, r4
 80088ba:	f000 fdbb 	bl	8009434 <__mdiff>
 80088be:	68c2      	ldr	r2, [r0, #12]
 80088c0:	f109 3bff 	add.w	fp, r9, #4294967295
 80088c4:	4605      	mov	r5, r0
 80088c6:	bb02      	cbnz	r2, 800890a <_dtoa_r+0xa62>
 80088c8:	4601      	mov	r1, r0
 80088ca:	ee18 0a10 	vmov	r0, s16
 80088ce:	f000 fd95 	bl	80093fc <__mcmp>
 80088d2:	4602      	mov	r2, r0
 80088d4:	4629      	mov	r1, r5
 80088d6:	4620      	mov	r0, r4
 80088d8:	9207      	str	r2, [sp, #28]
 80088da:	f000 fb4d 	bl	8008f78 <_Bfree>
 80088de:	e9dd 3206 	ldrd	r3, r2, [sp, #24]
 80088e2:	ea43 0102 	orr.w	r1, r3, r2
 80088e6:	9b04      	ldr	r3, [sp, #16]
 80088e8:	430b      	orrs	r3, r1
 80088ea:	464d      	mov	r5, r9
 80088ec:	d10f      	bne.n	800890e <_dtoa_r+0xa66>
 80088ee:	f1ba 0f39 	cmp.w	sl, #57	; 0x39
 80088f2:	d02a      	beq.n	800894a <_dtoa_r+0xaa2>
 80088f4:	9b03      	ldr	r3, [sp, #12]
 80088f6:	2b00      	cmp	r3, #0
 80088f8:	dd02      	ble.n	8008900 <_dtoa_r+0xa58>
 80088fa:	9b02      	ldr	r3, [sp, #8]
 80088fc:	f103 0a31 	add.w	sl, r3, #49	; 0x31
 8008900:	f88b a000 	strb.w	sl, [fp]
 8008904:	e775      	b.n	80087f2 <_dtoa_r+0x94a>
 8008906:	4638      	mov	r0, r7
 8008908:	e7ba      	b.n	8008880 <_dtoa_r+0x9d8>
 800890a:	2201      	movs	r2, #1
 800890c:	e7e2      	b.n	80088d4 <_dtoa_r+0xa2c>
 800890e:	9b03      	ldr	r3, [sp, #12]
 8008910:	2b00      	cmp	r3, #0
 8008912:	db04      	blt.n	800891e <_dtoa_r+0xa76>
 8008914:	9906      	ldr	r1, [sp, #24]
 8008916:	430b      	orrs	r3, r1
 8008918:	9904      	ldr	r1, [sp, #16]
 800891a:	430b      	orrs	r3, r1
 800891c:	d122      	bne.n	8008964 <_dtoa_r+0xabc>
 800891e:	2a00      	cmp	r2, #0
 8008920:	ddee      	ble.n	8008900 <_dtoa_r+0xa58>
 8008922:	ee18 1a10 	vmov	r1, s16
 8008926:	2201      	movs	r2, #1
 8008928:	4620      	mov	r0, r4
 800892a:	f000 fcf7 	bl	800931c <__lshift>
 800892e:	4631      	mov	r1, r6
 8008930:	ee08 0a10 	vmov	s16, r0
 8008934:	f000 fd62 	bl	80093fc <__mcmp>
 8008938:	2800      	cmp	r0, #0
 800893a:	dc03      	bgt.n	8008944 <_dtoa_r+0xa9c>
 800893c:	d1e0      	bne.n	8008900 <_dtoa_r+0xa58>
 800893e:	f01a 0f01 	tst.w	sl, #1
 8008942:	d0dd      	beq.n	8008900 <_dtoa_r+0xa58>
 8008944:	f1ba 0f39 	cmp.w	sl, #57	; 0x39
 8008948:	d1d7      	bne.n	80088fa <_dtoa_r+0xa52>
 800894a:	2339      	movs	r3, #57	; 0x39
 800894c:	f88b 3000 	strb.w	r3, [fp]
 8008950:	462b      	mov	r3, r5
 8008952:	461d      	mov	r5, r3
 8008954:	3b01      	subs	r3, #1
 8008956:	f815 2c01 	ldrb.w	r2, [r5, #-1]
 800895a:	2a39      	cmp	r2, #57	; 0x39
 800895c:	d071      	beq.n	8008a42 <_dtoa_r+0xb9a>
 800895e:	3201      	adds	r2, #1
 8008960:	701a      	strb	r2, [r3, #0]
 8008962:	e746      	b.n	80087f2 <_dtoa_r+0x94a>
 8008964:	2a00      	cmp	r2, #0
 8008966:	dd07      	ble.n	8008978 <_dtoa_r+0xad0>
 8008968:	f1ba 0f39 	cmp.w	sl, #57	; 0x39
 800896c:	d0ed      	beq.n	800894a <_dtoa_r+0xaa2>
 800896e:	f10a 0301 	add.w	r3, sl, #1
 8008972:	f88b 3000 	strb.w	r3, [fp]
 8008976:	e73c      	b.n	80087f2 <_dtoa_r+0x94a>
 8008978:	9b05      	ldr	r3, [sp, #20]
 800897a:	f809 ac01 	strb.w	sl, [r9, #-1]
 800897e:	4599      	cmp	r9, r3
 8008980:	d047      	beq.n	8008a12 <_dtoa_r+0xb6a>
 8008982:	ee18 1a10 	vmov	r1, s16
 8008986:	2300      	movs	r3, #0
 8008988:	220a      	movs	r2, #10
 800898a:	4620      	mov	r0, r4
 800898c:	f000 fb16 	bl	8008fbc <__multadd>
 8008990:	45b8      	cmp	r8, r7
 8008992:	ee08 0a10 	vmov	s16, r0
 8008996:	f04f 0300 	mov.w	r3, #0
 800899a:	f04f 020a 	mov.w	r2, #10
 800899e:	4641      	mov	r1, r8
 80089a0:	4620      	mov	r0, r4
 80089a2:	d106      	bne.n	80089b2 <_dtoa_r+0xb0a>
 80089a4:	f000 fb0a 	bl	8008fbc <__multadd>
 80089a8:	4680      	mov	r8, r0
 80089aa:	4607      	mov	r7, r0
 80089ac:	f109 0901 	add.w	r9, r9, #1
 80089b0:	e772      	b.n	8008898 <_dtoa_r+0x9f0>
 80089b2:	f000 fb03 	bl	8008fbc <__multadd>
 80089b6:	4639      	mov	r1, r7
 80089b8:	4680      	mov	r8, r0
 80089ba:	2300      	movs	r3, #0
 80089bc:	220a      	movs	r2, #10
 80089be:	4620      	mov	r0, r4
 80089c0:	f000 fafc 	bl	8008fbc <__multadd>
 80089c4:	4607      	mov	r7, r0
 80089c6:	e7f1      	b.n	80089ac <_dtoa_r+0xb04>
 80089c8:	9b03      	ldr	r3, [sp, #12]
 80089ca:	9302      	str	r3, [sp, #8]
 80089cc:	9d01      	ldr	r5, [sp, #4]
 80089ce:	ee18 0a10 	vmov	r0, s16
 80089d2:	4631      	mov	r1, r6
 80089d4:	f7ff f9dc 	bl	8007d90 <quorem>
 80089d8:	f100 0a30 	add.w	sl, r0, #48	; 0x30
 80089dc:	9b01      	ldr	r3, [sp, #4]
 80089de:	f805 ab01 	strb.w	sl, [r5], #1
 80089e2:	1aea      	subs	r2, r5, r3
 80089e4:	9b02      	ldr	r3, [sp, #8]
 80089e6:	4293      	cmp	r3, r2
 80089e8:	dd09      	ble.n	80089fe <_dtoa_r+0xb56>
 80089ea:	ee18 1a10 	vmov	r1, s16
 80089ee:	2300      	movs	r3, #0
 80089f0:	220a      	movs	r2, #10
 80089f2:	4620      	mov	r0, r4
 80089f4:	f000 fae2 	bl	8008fbc <__multadd>
 80089f8:	ee08 0a10 	vmov	s16, r0
 80089fc:	e7e7      	b.n	80089ce <_dtoa_r+0xb26>
 80089fe:	9b02      	ldr	r3, [sp, #8]
 8008a00:	2b00      	cmp	r3, #0
 8008a02:	bfc8      	it	gt
 8008a04:	461d      	movgt	r5, r3
 8008a06:	9b01      	ldr	r3, [sp, #4]
 8008a08:	bfd8      	it	le
 8008a0a:	2501      	movle	r5, #1
 8008a0c:	441d      	add	r5, r3
 8008a0e:	f04f 0800 	mov.w	r8, #0
 8008a12:	ee18 1a10 	vmov	r1, s16
 8008a16:	2201      	movs	r2, #1
 8008a18:	4620      	mov	r0, r4
 8008a1a:	f000 fc7f 	bl	800931c <__lshift>
 8008a1e:	4631      	mov	r1, r6
 8008a20:	ee08 0a10 	vmov	s16, r0
 8008a24:	f000 fcea 	bl	80093fc <__mcmp>
 8008a28:	2800      	cmp	r0, #0
 8008a2a:	dc91      	bgt.n	8008950 <_dtoa_r+0xaa8>
 8008a2c:	d102      	bne.n	8008a34 <_dtoa_r+0xb8c>
 8008a2e:	f01a 0f01 	tst.w	sl, #1
 8008a32:	d18d      	bne.n	8008950 <_dtoa_r+0xaa8>
 8008a34:	462b      	mov	r3, r5
 8008a36:	461d      	mov	r5, r3
 8008a38:	f813 2d01 	ldrb.w	r2, [r3, #-1]!
 8008a3c:	2a30      	cmp	r2, #48	; 0x30
 8008a3e:	d0fa      	beq.n	8008a36 <_dtoa_r+0xb8e>
 8008a40:	e6d7      	b.n	80087f2 <_dtoa_r+0x94a>
 8008a42:	9a01      	ldr	r2, [sp, #4]
 8008a44:	429a      	cmp	r2, r3
 8008a46:	d184      	bne.n	8008952 <_dtoa_r+0xaaa>
 8008a48:	9b00      	ldr	r3, [sp, #0]
 8008a4a:	3301      	adds	r3, #1
 8008a4c:	9300      	str	r3, [sp, #0]
 8008a4e:	2331      	movs	r3, #49	; 0x31
 8008a50:	7013      	strb	r3, [r2, #0]
 8008a52:	e6ce      	b.n	80087f2 <_dtoa_r+0x94a>
 8008a54:	4b09      	ldr	r3, [pc, #36]	; (8008a7c <_dtoa_r+0xbd4>)
 8008a56:	f7ff ba95 	b.w	8007f84 <_dtoa_r+0xdc>
 8008a5a:	9b21      	ldr	r3, [sp, #132]	; 0x84
 8008a5c:	2b00      	cmp	r3, #0
 8008a5e:	f47f aa6e 	bne.w	8007f3e <_dtoa_r+0x96>
 8008a62:	4b07      	ldr	r3, [pc, #28]	; (8008a80 <_dtoa_r+0xbd8>)
 8008a64:	f7ff ba8e 	b.w	8007f84 <_dtoa_r+0xdc>
 8008a68:	9b02      	ldr	r3, [sp, #8]
 8008a6a:	2b00      	cmp	r3, #0
 8008a6c:	dcae      	bgt.n	80089cc <_dtoa_r+0xb24>
 8008a6e:	9b06      	ldr	r3, [sp, #24]
 8008a70:	2b02      	cmp	r3, #2
 8008a72:	f73f aea8 	bgt.w	80087c6 <_dtoa_r+0x91e>
 8008a76:	e7a9      	b.n	80089cc <_dtoa_r+0xb24>
 8008a78:	0800a117 	.word	0x0800a117
 8008a7c:	0800a074 	.word	0x0800a074
 8008a80:	0800a098 	.word	0x0800a098

08008a84 <__sflush_r>:
 8008a84:	898a      	ldrh	r2, [r1, #12]
 8008a86:	e92d 41f0 	stmdb	sp!, {r4, r5, r6, r7, r8, lr}
 8008a8a:	4605      	mov	r5, r0
 8008a8c:	0710      	lsls	r0, r2, #28
 8008a8e:	460c      	mov	r4, r1
 8008a90:	d458      	bmi.n	8008b44 <__sflush_r+0xc0>
 8008a92:	684b      	ldr	r3, [r1, #4]
 8008a94:	2b00      	cmp	r3, #0
 8008a96:	dc05      	bgt.n	8008aa4 <__sflush_r+0x20>
 8008a98:	6c0b      	ldr	r3, [r1, #64]	; 0x40
 8008a9a:	2b00      	cmp	r3, #0
 8008a9c:	dc02      	bgt.n	8008aa4 <__sflush_r+0x20>
 8008a9e:	2000      	movs	r0, #0
 8008aa0:	e8bd 81f0 	ldmia.w	sp!, {r4, r5, r6, r7, r8, pc}
 8008aa4:	6ae6      	ldr	r6, [r4, #44]	; 0x2c
 8008aa6:	2e00      	cmp	r6, #0
 8008aa8:	d0f9      	beq.n	8008a9e <__sflush_r+0x1a>
 8008aaa:	2300      	movs	r3, #0
 8008aac:	f412 5280 	ands.w	r2, r2, #4096	; 0x1000
 8008ab0:	682f      	ldr	r7, [r5, #0]
 8008ab2:	602b      	str	r3, [r5, #0]
 8008ab4:	d032      	beq.n	8008b1c <__sflush_r+0x98>
 8008ab6:	6d60      	ldr	r0, [r4, #84]	; 0x54
 8008ab8:	89a3      	ldrh	r3, [r4, #12]
 8008aba:	075a      	lsls	r2, r3, #29
 8008abc:	d505      	bpl.n	8008aca <__sflush_r+0x46>
 8008abe:	6863      	ldr	r3, [r4, #4]
 8008ac0:	1ac0      	subs	r0, r0, r3
 8008ac2:	6b63      	ldr	r3, [r4, #52]	; 0x34
 8008ac4:	b10b      	cbz	r3, 8008aca <__sflush_r+0x46>
 8008ac6:	6c23      	ldr	r3, [r4, #64]	; 0x40
 8008ac8:	1ac0      	subs	r0, r0, r3
 8008aca:	2300      	movs	r3, #0
 8008acc:	4602      	mov	r2, r0
 8008ace:	6ae6      	ldr	r6, [r4, #44]	; 0x2c
 8008ad0:	6a21      	ldr	r1, [r4, #32]
 8008ad2:	4628      	mov	r0, r5
 8008ad4:	47b0      	blx	r6
 8008ad6:	1c43      	adds	r3, r0, #1
 8008ad8:	89a3      	ldrh	r3, [r4, #12]
 8008ada:	d106      	bne.n	8008aea <__sflush_r+0x66>
 8008adc:	6829      	ldr	r1, [r5, #0]
 8008ade:	291d      	cmp	r1, #29
 8008ae0:	d82c      	bhi.n	8008b3c <__sflush_r+0xb8>
 8008ae2:	4a2a      	ldr	r2, [pc, #168]	; (8008b8c <__sflush_r+0x108>)
 8008ae4:	40ca      	lsrs	r2, r1
 8008ae6:	07d6      	lsls	r6, r2, #31
 8008ae8:	d528      	bpl.n	8008b3c <__sflush_r+0xb8>
 8008aea:	2200      	movs	r2, #0
 8008aec:	6062      	str	r2, [r4, #4]
 8008aee:	04d9      	lsls	r1, r3, #19
 8008af0:	6922      	ldr	r2, [r4, #16]
 8008af2:	6022      	str	r2, [r4, #0]
 8008af4:	d504      	bpl.n	8008b00 <__sflush_r+0x7c>
 8008af6:	1c42      	adds	r2, r0, #1
 8008af8:	d101      	bne.n	8008afe <__sflush_r+0x7a>
 8008afa:	682b      	ldr	r3, [r5, #0]
 8008afc:	b903      	cbnz	r3, 8008b00 <__sflush_r+0x7c>
 8008afe:	6560      	str	r0, [r4, #84]	; 0x54
 8008b00:	6b61      	ldr	r1, [r4, #52]	; 0x34
 8008b02:	602f      	str	r7, [r5, #0]
 8008b04:	2900      	cmp	r1, #0
 8008b06:	d0ca      	beq.n	8008a9e <__sflush_r+0x1a>
 8008b08:	f104 0344 	add.w	r3, r4, #68	; 0x44
 8008b0c:	4299      	cmp	r1, r3
 8008b0e:	d002      	beq.n	8008b16 <__sflush_r+0x92>
 8008b10:	4628      	mov	r0, r5
 8008b12:	f000 fd8b 	bl	800962c <_free_r>
 8008b16:	2000      	movs	r0, #0
 8008b18:	6360      	str	r0, [r4, #52]	; 0x34
 8008b1a:	e7c1      	b.n	8008aa0 <__sflush_r+0x1c>
 8008b1c:	6a21      	ldr	r1, [r4, #32]
 8008b1e:	2301      	movs	r3, #1
 8008b20:	4628      	mov	r0, r5
 8008b22:	47b0      	blx	r6
 8008b24:	1c41      	adds	r1, r0, #1
 8008b26:	d1c7      	bne.n	8008ab8 <__sflush_r+0x34>
 8008b28:	682b      	ldr	r3, [r5, #0]
 8008b2a:	2b00      	cmp	r3, #0
 8008b2c:	d0c4      	beq.n	8008ab8 <__sflush_r+0x34>
 8008b2e:	2b1d      	cmp	r3, #29
 8008b30:	d001      	beq.n	8008b36 <__sflush_r+0xb2>
 8008b32:	2b16      	cmp	r3, #22
 8008b34:	d101      	bne.n	8008b3a <__sflush_r+0xb6>
 8008b36:	602f      	str	r7, [r5, #0]
 8008b38:	e7b1      	b.n	8008a9e <__sflush_r+0x1a>
 8008b3a:	89a3      	ldrh	r3, [r4, #12]
 8008b3c:	f043 0340 	orr.w	r3, r3, #64	; 0x40
 8008b40:	81a3      	strh	r3, [r4, #12]
 8008b42:	e7ad      	b.n	8008aa0 <__sflush_r+0x1c>
 8008b44:	690f      	ldr	r7, [r1, #16]
 8008b46:	2f00      	cmp	r7, #0
 8008b48:	d0a9      	beq.n	8008a9e <__sflush_r+0x1a>
 8008b4a:	0793      	lsls	r3, r2, #30
 8008b4c:	680e      	ldr	r6, [r1, #0]
 8008b4e:	bf08      	it	eq
 8008b50:	694b      	ldreq	r3, [r1, #20]
 8008b52:	600f      	str	r7, [r1, #0]
 8008b54:	bf18      	it	ne
 8008b56:	2300      	movne	r3, #0
 8008b58:	eba6 0807 	sub.w	r8, r6, r7
 8008b5c:	608b      	str	r3, [r1, #8]
 8008b5e:	f1b8 0f00 	cmp.w	r8, #0
 8008b62:	dd9c      	ble.n	8008a9e <__sflush_r+0x1a>
 8008b64:	6a21      	ldr	r1, [r4, #32]
 8008b66:	6aa6      	ldr	r6, [r4, #40]	; 0x28
 8008b68:	4643      	mov	r3, r8
 8008b6a:	463a      	mov	r2, r7
 8008b6c:	4628      	mov	r0, r5
 8008b6e:	47b0      	blx	r6
 8008b70:	2800      	cmp	r0, #0
 8008b72:	dc06      	bgt.n	8008b82 <__sflush_r+0xfe>
 8008b74:	89a3      	ldrh	r3, [r4, #12]
 8008b76:	f043 0340 	orr.w	r3, r3, #64	; 0x40
 8008b7a:	81a3      	strh	r3, [r4, #12]
 8008b7c:	f04f 30ff 	mov.w	r0, #4294967295
 8008b80:	e78e      	b.n	8008aa0 <__sflush_r+0x1c>
 8008b82:	4407      	add	r7, r0
 8008b84:	eba8 0800 	sub.w	r8, r8, r0
 8008b88:	e7e9      	b.n	8008b5e <__sflush_r+0xda>
 8008b8a:	bf00      	nop
 8008b8c:	20400001 	.word	0x20400001

08008b90 <_fflush_r>:
 8008b90:	b538      	push	{r3, r4, r5, lr}
 8008b92:	690b      	ldr	r3, [r1, #16]
 8008b94:	4605      	mov	r5, r0
 8008b96:	460c      	mov	r4, r1
 8008b98:	b913      	cbnz	r3, 8008ba0 <_fflush_r+0x10>
 8008b9a:	2500      	movs	r5, #0
 8008b9c:	4628      	mov	r0, r5
 8008b9e:	bd38      	pop	{r3, r4, r5, pc}
 8008ba0:	b118      	cbz	r0, 8008baa <_fflush_r+0x1a>
 8008ba2:	6983      	ldr	r3, [r0, #24]
 8008ba4:	b90b      	cbnz	r3, 8008baa <_fflush_r+0x1a>
 8008ba6:	f000 f887 	bl	8008cb8 <__sinit>
 8008baa:	4b14      	ldr	r3, [pc, #80]	; (8008bfc <_fflush_r+0x6c>)
 8008bac:	429c      	cmp	r4, r3
 8008bae:	d11b      	bne.n	8008be8 <_fflush_r+0x58>
 8008bb0:	686c      	ldr	r4, [r5, #4]
 8008bb2:	f9b4 300c 	ldrsh.w	r3, [r4, #12]
 8008bb6:	2b00      	cmp	r3, #0
 8008bb8:	d0ef      	beq.n	8008b9a <_fflush_r+0xa>
 8008bba:	6e62      	ldr	r2, [r4, #100]	; 0x64
 8008bbc:	07d0      	lsls	r0, r2, #31
 8008bbe:	d404      	bmi.n	8008bca <_fflush_r+0x3a>
 8008bc0:	0599      	lsls	r1, r3, #22
 8008bc2:	d402      	bmi.n	8008bca <_fflush_r+0x3a>
 8008bc4:	6da0      	ldr	r0, [r4, #88]	; 0x58
 8008bc6:	f000 f91a 	bl	8008dfe <__retarget_lock_acquire_recursive>
 8008bca:	4628      	mov	r0, r5
 8008bcc:	4621      	mov	r1, r4
 8008bce:	f7ff ff59 	bl	8008a84 <__sflush_r>
 8008bd2:	6e63      	ldr	r3, [r4, #100]	; 0x64
 8008bd4:	07da      	lsls	r2, r3, #31
 8008bd6:	4605      	mov	r5, r0
 8008bd8:	d4e0      	bmi.n	8008b9c <_fflush_r+0xc>
 8008bda:	89a3      	ldrh	r3, [r4, #12]
 8008bdc:	059b      	lsls	r3, r3, #22
 8008bde:	d4dd      	bmi.n	8008b9c <_fflush_r+0xc>
 8008be0:	6da0      	ldr	r0, [r4, #88]	; 0x58
 8008be2:	f000 f90d 	bl	8008e00 <__retarget_lock_release_recursive>
 8008be6:	e7d9      	b.n	8008b9c <_fflush_r+0xc>
 8008be8:	4b05      	ldr	r3, [pc, #20]	; (8008c00 <_fflush_r+0x70>)
 8008bea:	429c      	cmp	r4, r3
 8008bec:	d101      	bne.n	8008bf2 <_fflush_r+0x62>
 8008bee:	68ac      	ldr	r4, [r5, #8]
 8008bf0:	e7df      	b.n	8008bb2 <_fflush_r+0x22>
 8008bf2:	4b04      	ldr	r3, [pc, #16]	; (8008c04 <_fflush_r+0x74>)
 8008bf4:	429c      	cmp	r4, r3
 8008bf6:	bf08      	it	eq
 8008bf8:	68ec      	ldreq	r4, [r5, #12]
 8008bfa:	e7da      	b.n	8008bb2 <_fflush_r+0x22>
 8008bfc:	0800a148 	.word	0x0800a148
 8008c00:	0800a168 	.word	0x0800a168
 8008c04:	0800a128 	.word	0x0800a128

08008c08 <std>:
 8008c08:	2300      	movs	r3, #0
 8008c0a:	b510      	push	{r4, lr}
 8008c0c:	4604      	mov	r4, r0
 8008c0e:	e9c0 3300 	strd	r3, r3, [r0]
 8008c12:	e9c0 3304 	strd	r3, r3, [r0, #16]
 8008c16:	6083      	str	r3, [r0, #8]
 8008c18:	8181      	strh	r1, [r0, #12]
 8008c1a:	6643      	str	r3, [r0, #100]	; 0x64
 8008c1c:	81c2      	strh	r2, [r0, #14]
 8008c1e:	6183      	str	r3, [r0, #24]
 8008c20:	4619      	mov	r1, r3
 8008c22:	2208      	movs	r2, #8
 8008c24:	305c      	adds	r0, #92	; 0x5c
 8008c26:	f7fe faf3 	bl	8007210 <memset>
 8008c2a:	4b05      	ldr	r3, [pc, #20]	; (8008c40 <std+0x38>)
 8008c2c:	6263      	str	r3, [r4, #36]	; 0x24
 8008c2e:	4b05      	ldr	r3, [pc, #20]	; (8008c44 <std+0x3c>)
 8008c30:	62a3      	str	r3, [r4, #40]	; 0x28
 8008c32:	4b05      	ldr	r3, [pc, #20]	; (8008c48 <std+0x40>)
 8008c34:	62e3      	str	r3, [r4, #44]	; 0x2c
 8008c36:	4b05      	ldr	r3, [pc, #20]	; (8008c4c <std+0x44>)
 8008c38:	6224      	str	r4, [r4, #32]
 8008c3a:	6323      	str	r3, [r4, #48]	; 0x30
 8008c3c:	bd10      	pop	{r4, pc}
 8008c3e:	bf00      	nop
 8008c40:	08009ac1 	.word	0x08009ac1
 8008c44:	08009ae3 	.word	0x08009ae3
 8008c48:	08009b1b 	.word	0x08009b1b
 8008c4c:	08009b3f 	.word	0x08009b3f

08008c50 <_cleanup_r>:
 8008c50:	4901      	ldr	r1, [pc, #4]	; (8008c58 <_cleanup_r+0x8>)
 8008c52:	f000 b8af 	b.w	8008db4 <_fwalk_reent>
 8008c56:	bf00      	nop
 8008c58:	08008b91 	.word	0x08008b91

08008c5c <__sfmoreglue>:
 8008c5c:	b570      	push	{r4, r5, r6, lr}
 8008c5e:	2268      	movs	r2, #104	; 0x68
 8008c60:	1e4d      	subs	r5, r1, #1
 8008c62:	4355      	muls	r5, r2
 8008c64:	460e      	mov	r6, r1
 8008c66:	f105 0174 	add.w	r1, r5, #116	; 0x74
 8008c6a:	f000 fd4b 	bl	8009704 <_malloc_r>
 8008c6e:	4604      	mov	r4, r0
 8008c70:	b140      	cbz	r0, 8008c84 <__sfmoreglue+0x28>
 8008c72:	2100      	movs	r1, #0
 8008c74:	e9c0 1600 	strd	r1, r6, [r0]
 8008c78:	300c      	adds	r0, #12
 8008c7a:	60a0      	str	r0, [r4, #8]
 8008c7c:	f105 0268 	add.w	r2, r5, #104	; 0x68
 8008c80:	f7fe fac6 	bl	8007210 <memset>
 8008c84:	4620      	mov	r0, r4
 8008c86:	bd70      	pop	{r4, r5, r6, pc}

08008c88 <__sfp_lock_acquire>:
 8008c88:	4801      	ldr	r0, [pc, #4]	; (8008c90 <__sfp_lock_acquire+0x8>)
 8008c8a:	f000 b8b8 	b.w	8008dfe <__retarget_lock_acquire_recursive>
 8008c8e:	bf00      	nop
 8008c90:	20001595 	.word	0x20001595

08008c94 <__sfp_lock_release>:
 8008c94:	4801      	ldr	r0, [pc, #4]	; (8008c9c <__sfp_lock_release+0x8>)
 8008c96:	f000 b8b3 	b.w	8008e00 <__retarget_lock_release_recursive>
 8008c9a:	bf00      	nop
 8008c9c:	20001595 	.word	0x20001595

08008ca0 <__sinit_lock_acquire>:
 8008ca0:	4801      	ldr	r0, [pc, #4]	; (8008ca8 <__sinit_lock_acquire+0x8>)
 8008ca2:	f000 b8ac 	b.w	8008dfe <__retarget_lock_acquire_recursive>
 8008ca6:	bf00      	nop
 8008ca8:	20001596 	.word	0x20001596

08008cac <__sinit_lock_release>:
 8008cac:	4801      	ldr	r0, [pc, #4]	; (8008cb4 <__sinit_lock_release+0x8>)
 8008cae:	f000 b8a7 	b.w	8008e00 <__retarget_lock_release_recursive>
 8008cb2:	bf00      	nop
 8008cb4:	20001596 	.word	0x20001596

08008cb8 <__sinit>:
 8008cb8:	b510      	push	{r4, lr}
 8008cba:	4604      	mov	r4, r0
 8008cbc:	f7ff fff0 	bl	8008ca0 <__sinit_lock_acquire>
 8008cc0:	69a3      	ldr	r3, [r4, #24]
 8008cc2:	b11b      	cbz	r3, 8008ccc <__sinit+0x14>
 8008cc4:	e8bd 4010 	ldmia.w	sp!, {r4, lr}
 8008cc8:	f7ff bff0 	b.w	8008cac <__sinit_lock_release>
 8008ccc:	e9c4 3312 	strd	r3, r3, [r4, #72]	; 0x48
 8008cd0:	6523      	str	r3, [r4, #80]	; 0x50
 8008cd2:	4b13      	ldr	r3, [pc, #76]	; (8008d20 <__sinit+0x68>)
 8008cd4:	4a13      	ldr	r2, [pc, #76]	; (8008d24 <__sinit+0x6c>)
 8008cd6:	681b      	ldr	r3, [r3, #0]
 8008cd8:	62a2      	str	r2, [r4, #40]	; 0x28
 8008cda:	42a3      	cmp	r3, r4
 8008cdc:	bf04      	itt	eq
 8008cde:	2301      	moveq	r3, #1
 8008ce0:	61a3      	streq	r3, [r4, #24]
 8008ce2:	4620      	mov	r0, r4
 8008ce4:	f000 f820 	bl	8008d28 <__sfp>
 8008ce8:	6060      	str	r0, [r4, #4]
 8008cea:	4620      	mov	r0, r4
 8008cec:	f000 f81c 	bl	8008d28 <__sfp>
 8008cf0:	60a0      	str	r0, [r4, #8]
 8008cf2:	4620      	mov	r0, r4
 8008cf4:	f000 f818 	bl	8008d28 <__sfp>
 8008cf8:	2200      	movs	r2, #0
 8008cfa:	60e0      	str	r0, [r4, #12]
 8008cfc:	2104      	movs	r1, #4
 8008cfe:	6860      	ldr	r0, [r4, #4]
 8008d00:	f7ff ff82 	bl	8008c08 <std>
 8008d04:	68a0      	ldr	r0, [r4, #8]
 8008d06:	2201      	movs	r2, #1
 8008d08:	2109      	movs	r1, #9
 8008d0a:	f7ff ff7d 	bl	8008c08 <std>
 8008d0e:	68e0      	ldr	r0, [r4, #12]
 8008d10:	2202      	movs	r2, #2
 8008d12:	2112      	movs	r1, #18
 8008d14:	f7ff ff78 	bl	8008c08 <std>
 8008d18:	2301      	movs	r3, #1
 8008d1a:	61a3      	str	r3, [r4, #24]
 8008d1c:	e7d2      	b.n	8008cc4 <__sinit+0xc>
 8008d1e:	bf00      	nop
 8008d20:	0800a060 	.word	0x0800a060
 8008d24:	08008c51 	.word	0x08008c51

08008d28 <__sfp>:
 8008d28:	b5f8      	push	{r3, r4, r5, r6, r7, lr}
 8008d2a:	4607      	mov	r7, r0
 8008d2c:	f7ff ffac 	bl	8008c88 <__sfp_lock_acquire>
 8008d30:	4b1e      	ldr	r3, [pc, #120]	; (8008dac <__sfp+0x84>)
 8008d32:	681e      	ldr	r6, [r3, #0]
 8008d34:	69b3      	ldr	r3, [r6, #24]
 8008d36:	b913      	cbnz	r3, 8008d3e <__sfp+0x16>
 8008d38:	4630      	mov	r0, r6
 8008d3a:	f7ff ffbd 	bl	8008cb8 <__sinit>
 8008d3e:	3648      	adds	r6, #72	; 0x48
 8008d40:	e9d6 3401 	ldrd	r3, r4, [r6, #4]
 8008d44:	3b01      	subs	r3, #1
 8008d46:	d503      	bpl.n	8008d50 <__sfp+0x28>
 8008d48:	6833      	ldr	r3, [r6, #0]
 8008d4a:	b30b      	cbz	r3, 8008d90 <__sfp+0x68>
 8008d4c:	6836      	ldr	r6, [r6, #0]
 8008d4e:	e7f7      	b.n	8008d40 <__sfp+0x18>
 8008d50:	f9b4 500c 	ldrsh.w	r5, [r4, #12]
 8008d54:	b9d5      	cbnz	r5, 8008d8c <__sfp+0x64>
 8008d56:	4b16      	ldr	r3, [pc, #88]	; (8008db0 <__sfp+0x88>)
 8008d58:	60e3      	str	r3, [r4, #12]
 8008d5a:	f104 0058 	add.w	r0, r4, #88	; 0x58
 8008d5e:	6665      	str	r5, [r4, #100]	; 0x64
 8008d60:	f000 f84c 	bl	8008dfc <__retarget_lock_init_recursive>
 8008d64:	f7ff ff96 	bl	8008c94 <__sfp_lock_release>
 8008d68:	e9c4 5501 	strd	r5, r5, [r4, #4]
 8008d6c:	e9c4 5504 	strd	r5, r5, [r4, #16]
 8008d70:	6025      	str	r5, [r4, #0]
 8008d72:	61a5      	str	r5, [r4, #24]
 8008d74:	2208      	movs	r2, #8
 8008d76:	4629      	mov	r1, r5
 8008d78:	f104 005c 	add.w	r0, r4, #92	; 0x5c
 8008d7c:	f7fe fa48 	bl	8007210 <memset>
 8008d80:	e9c4 550d 	strd	r5, r5, [r4, #52]	; 0x34
 8008d84:	e9c4 5512 	strd	r5, r5, [r4, #72]	; 0x48
 8008d88:	4620      	mov	r0, r4
 8008d8a:	bdf8      	pop	{r3, r4, r5, r6, r7, pc}
 8008d8c:	3468      	adds	r4, #104	; 0x68
 8008d8e:	e7d9      	b.n	8008d44 <__sfp+0x1c>
 8008d90:	2104      	movs	r1, #4
 8008d92:	4638      	mov	r0, r7
 8008d94:	f7ff ff62 	bl	8008c5c <__sfmoreglue>
 8008d98:	4604      	mov	r4, r0
 8008d9a:	6030      	str	r0, [r6, #0]
 8008d9c:	2800      	cmp	r0, #0
 8008d9e:	d1d5      	bne.n	8008d4c <__sfp+0x24>
 8008da0:	f7ff ff78 	bl	8008c94 <__sfp_lock_release>
 8008da4:	230c      	movs	r3, #12
 8008da6:	603b      	str	r3, [r7, #0]
 8008da8:	e7ee      	b.n	8008d88 <__sfp+0x60>
 8008daa:	bf00      	nop
 8008dac:	0800a060 	.word	0x0800a060
 8008db0:	ffff0001 	.word	0xffff0001

08008db4 <_fwalk_reent>:
 8008db4:	e92d 43f8 	stmdb	sp!, {r3, r4, r5, r6, r7, r8, r9, lr}
 8008db8:	4606      	mov	r6, r0
 8008dba:	4688      	mov	r8, r1
 8008dbc:	f100 0448 	add.w	r4, r0, #72	; 0x48
 8008dc0:	2700      	movs	r7, #0
 8008dc2:	e9d4 9501 	ldrd	r9, r5, [r4, #4]
 8008dc6:	f1b9 0901 	subs.w	r9, r9, #1
 8008dca:	d505      	bpl.n	8008dd8 <_fwalk_reent+0x24>
 8008dcc:	6824      	ldr	r4, [r4, #0]
 8008dce:	2c00      	cmp	r4, #0
 8008dd0:	d1f7      	bne.n	8008dc2 <_fwalk_reent+0xe>
 8008dd2:	4638      	mov	r0, r7
 8008dd4:	e8bd 83f8 	ldmia.w	sp!, {r3, r4, r5, r6, r7, r8, r9, pc}
 8008dd8:	89ab      	ldrh	r3, [r5, #12]
 8008dda:	2b01      	cmp	r3, #1
 8008ddc:	d907      	bls.n	8008dee <_fwalk_reent+0x3a>
 8008dde:	f9b5 300e 	ldrsh.w	r3, [r5, #14]
 8008de2:	3301      	adds	r3, #1
 8008de4:	d003      	beq.n	8008dee <_fwalk_reent+0x3a>
 8008de6:	4629      	mov	r1, r5
 8008de8:	4630      	mov	r0, r6
 8008dea:	47c0      	blx	r8
 8008dec:	4307      	orrs	r7, r0
 8008dee:	3568      	adds	r5, #104	; 0x68
 8008df0:	e7e9      	b.n	8008dc6 <_fwalk_reent+0x12>
	...

08008df4 <_localeconv_r>:
 8008df4:	4800      	ldr	r0, [pc, #0]	; (8008df8 <_localeconv_r+0x4>)
 8008df6:	4770      	bx	lr
 8008df8:	20000160 	.word	0x20000160

08008dfc <__retarget_lock_init_recursive>:
 8008dfc:	4770      	bx	lr

08008dfe <__retarget_lock_acquire_recursive>:
 8008dfe:	4770      	bx	lr

08008e00 <__retarget_lock_release_recursive>:
 8008e00:	4770      	bx	lr

08008e02 <__swhatbuf_r>:
 8008e02:	b570      	push	{r4, r5, r6, lr}
 8008e04:	460e      	mov	r6, r1
 8008e06:	f9b1 100e 	ldrsh.w	r1, [r1, #14]
 8008e0a:	2900      	cmp	r1, #0
 8008e0c:	b096      	sub	sp, #88	; 0x58
 8008e0e:	4614      	mov	r4, r2
 8008e10:	461d      	mov	r5, r3
 8008e12:	da08      	bge.n	8008e26 <__swhatbuf_r+0x24>
 8008e14:	f9b6 300c 	ldrsh.w	r3, [r6, #12]
 8008e18:	2200      	movs	r2, #0
 8008e1a:	602a      	str	r2, [r5, #0]
 8008e1c:	061a      	lsls	r2, r3, #24
 8008e1e:	d410      	bmi.n	8008e42 <__swhatbuf_r+0x40>
 8008e20:	f44f 6380 	mov.w	r3, #1024	; 0x400
 8008e24:	e00e      	b.n	8008e44 <__swhatbuf_r+0x42>
 8008e26:	466a      	mov	r2, sp
 8008e28:	f000 fee0 	bl	8009bec <_fstat_r>
 8008e2c:	2800      	cmp	r0, #0
 8008e2e:	dbf1      	blt.n	8008e14 <__swhatbuf_r+0x12>
 8008e30:	9a01      	ldr	r2, [sp, #4]
 8008e32:	f402 4270 	and.w	r2, r2, #61440	; 0xf000
 8008e36:	f5a2 5300 	sub.w	r3, r2, #8192	; 0x2000
 8008e3a:	425a      	negs	r2, r3
 8008e3c:	415a      	adcs	r2, r3
 8008e3e:	602a      	str	r2, [r5, #0]
 8008e40:	e7ee      	b.n	8008e20 <__swhatbuf_r+0x1e>
 8008e42:	2340      	movs	r3, #64	; 0x40
 8008e44:	2000      	movs	r0, #0
 8008e46:	6023      	str	r3, [r4, #0]
 8008e48:	b016      	add	sp, #88	; 0x58
 8008e4a:	bd70      	pop	{r4, r5, r6, pc}

08008e4c <__smakebuf_r>:
 8008e4c:	898b      	ldrh	r3, [r1, #12]
 8008e4e:	b573      	push	{r0, r1, r4, r5, r6, lr}
 8008e50:	079d      	lsls	r5, r3, #30
 8008e52:	4606      	mov	r6, r0
 8008e54:	460c      	mov	r4, r1
 8008e56:	d507      	bpl.n	8008e68 <__smakebuf_r+0x1c>
 8008e58:	f104 0347 	add.w	r3, r4, #71	; 0x47
 8008e5c:	6023      	str	r3, [r4, #0]
 8008e5e:	6123      	str	r3, [r4, #16]
 8008e60:	2301      	movs	r3, #1
 8008e62:	6163      	str	r3, [r4, #20]
 8008e64:	b002      	add	sp, #8
 8008e66:	bd70      	pop	{r4, r5, r6, pc}
 8008e68:	ab01      	add	r3, sp, #4
 8008e6a:	466a      	mov	r2, sp
 8008e6c:	f7ff ffc9 	bl	8008e02 <__swhatbuf_r>
 8008e70:	9900      	ldr	r1, [sp, #0]
 8008e72:	4605      	mov	r5, r0
 8008e74:	4630      	mov	r0, r6
 8008e76:	f000 fc45 	bl	8009704 <_malloc_r>
 8008e7a:	b948      	cbnz	r0, 8008e90 <__smakebuf_r+0x44>
 8008e7c:	f9b4 300c 	ldrsh.w	r3, [r4, #12]
 8008e80:	059a      	lsls	r2, r3, #22
 8008e82:	d4ef      	bmi.n	8008e64 <__smakebuf_r+0x18>
 8008e84:	f023 0303 	bic.w	r3, r3, #3
 8008e88:	f043 0302 	orr.w	r3, r3, #2
 8008e8c:	81a3      	strh	r3, [r4, #12]
 8008e8e:	e7e3      	b.n	8008e58 <__smakebuf_r+0xc>
 8008e90:	4b0d      	ldr	r3, [pc, #52]	; (8008ec8 <__smakebuf_r+0x7c>)
 8008e92:	62b3      	str	r3, [r6, #40]	; 0x28
 8008e94:	89a3      	ldrh	r3, [r4, #12]
 8008e96:	6020      	str	r0, [r4, #0]
 8008e98:	f043 0380 	orr.w	r3, r3, #128	; 0x80
 8008e9c:	81a3      	strh	r3, [r4, #12]
 8008e9e:	9b00      	ldr	r3, [sp, #0]
 8008ea0:	6163      	str	r3, [r4, #20]
 8008ea2:	9b01      	ldr	r3, [sp, #4]
 8008ea4:	6120      	str	r0, [r4, #16]
 8008ea6:	b15b      	cbz	r3, 8008ec0 <__smakebuf_r+0x74>
 8008ea8:	f9b4 100e 	ldrsh.w	r1, [r4, #14]
 8008eac:	4630      	mov	r0, r6
 8008eae:	f000 feaf 	bl	8009c10 <_isatty_r>
 8008eb2:	b128      	cbz	r0, 8008ec0 <__smakebuf_r+0x74>
 8008eb4:	89a3      	ldrh	r3, [r4, #12]
 8008eb6:	f023 0303 	bic.w	r3, r3, #3
 8008eba:	f043 0301 	orr.w	r3, r3, #1
 8008ebe:	81a3      	strh	r3, [r4, #12]
 8008ec0:	89a0      	ldrh	r0, [r4, #12]
 8008ec2:	4305      	orrs	r5, r0
 8008ec4:	81a5      	strh	r5, [r4, #12]
 8008ec6:	e7cd      	b.n	8008e64 <__smakebuf_r+0x18>
 8008ec8:	08008c51 	.word	0x08008c51

08008ecc <malloc>:
 8008ecc:	4b02      	ldr	r3, [pc, #8]	; (8008ed8 <malloc+0xc>)
 8008ece:	4601      	mov	r1, r0
 8008ed0:	6818      	ldr	r0, [r3, #0]
 8008ed2:	f000 bc17 	b.w	8009704 <_malloc_r>
 8008ed6:	bf00      	nop
 8008ed8:	2000000c 	.word	0x2000000c

08008edc <memcpy>:
 8008edc:	440a      	add	r2, r1
 8008ede:	4291      	cmp	r1, r2
 8008ee0:	f100 33ff 	add.w	r3, r0, #4294967295
 8008ee4:	d100      	bne.n	8008ee8 <memcpy+0xc>
 8008ee6:	4770      	bx	lr
 8008ee8:	b510      	push	{r4, lr}
 8008eea:	f811 4b01 	ldrb.w	r4, [r1], #1
 8008eee:	f803 4f01 	strb.w	r4, [r3, #1]!
 8008ef2:	4291      	cmp	r1, r2
 8008ef4:	d1f9      	bne.n	8008eea <memcpy+0xe>
 8008ef6:	bd10      	pop	{r4, pc}

08008ef8 <_Balloc>:
 8008ef8:	b570      	push	{r4, r5, r6, lr}
 8008efa:	6a46      	ldr	r6, [r0, #36]	; 0x24
 8008efc:	4604      	mov	r4, r0
 8008efe:	460d      	mov	r5, r1
 8008f00:	b976      	cbnz	r6, 8008f20 <_Balloc+0x28>
 8008f02:	2010      	movs	r0, #16
 8008f04:	f7ff ffe2 	bl	8008ecc <malloc>
 8008f08:	4602      	mov	r2, r0
 8008f0a:	6260      	str	r0, [r4, #36]	; 0x24
 8008f0c:	b920      	cbnz	r0, 8008f18 <_Balloc+0x20>
 8008f0e:	4b18      	ldr	r3, [pc, #96]	; (8008f70 <_Balloc+0x78>)
 8008f10:	4818      	ldr	r0, [pc, #96]	; (8008f74 <_Balloc+0x7c>)
 8008f12:	2166      	movs	r1, #102	; 0x66
 8008f14:	f000 fe2a 	bl	8009b6c <__assert_func>
 8008f18:	e9c0 6601 	strd	r6, r6, [r0, #4]
 8008f1c:	6006      	str	r6, [r0, #0]
 8008f1e:	60c6      	str	r6, [r0, #12]
 8008f20:	6a66      	ldr	r6, [r4, #36]	; 0x24
 8008f22:	68f3      	ldr	r3, [r6, #12]
 8008f24:	b183      	cbz	r3, 8008f48 <_Balloc+0x50>
 8008f26:	6a63      	ldr	r3, [r4, #36]	; 0x24
 8008f28:	68db      	ldr	r3, [r3, #12]
 8008f2a:	f853 0025 	ldr.w	r0, [r3, r5, lsl #2]
 8008f2e:	b9b8      	cbnz	r0, 8008f60 <_Balloc+0x68>
 8008f30:	2101      	movs	r1, #1
 8008f32:	fa01 f605 	lsl.w	r6, r1, r5
 8008f36:	1d72      	adds	r2, r6, #5
 8008f38:	0092      	lsls	r2, r2, #2
 8008f3a:	4620      	mov	r0, r4
 8008f3c:	f000 fb60 	bl	8009600 <_calloc_r>
 8008f40:	b160      	cbz	r0, 8008f5c <_Balloc+0x64>
 8008f42:	e9c0 5601 	strd	r5, r6, [r0, #4]
 8008f46:	e00e      	b.n	8008f66 <_Balloc+0x6e>
 8008f48:	2221      	movs	r2, #33	; 0x21
 8008f4a:	2104      	movs	r1, #4
 8008f4c:	4620      	mov	r0, r4
 8008f4e:	f000 fb57 	bl	8009600 <_calloc_r>
 8008f52:	6a63      	ldr	r3, [r4, #36]	; 0x24
 8008f54:	60f0      	str	r0, [r6, #12]
 8008f56:	68db      	ldr	r3, [r3, #12]
 8008f58:	2b00      	cmp	r3, #0
 8008f5a:	d1e4      	bne.n	8008f26 <_Balloc+0x2e>
 8008f5c:	2000      	movs	r0, #0
 8008f5e:	bd70      	pop	{r4, r5, r6, pc}
 8008f60:	6802      	ldr	r2, [r0, #0]
 8008f62:	f843 2025 	str.w	r2, [r3, r5, lsl #2]
 8008f66:	2300      	movs	r3, #0
 8008f68:	e9c0 3303 	strd	r3, r3, [r0, #12]
 8008f6c:	e7f7      	b.n	8008f5e <_Balloc+0x66>
 8008f6e:	bf00      	nop
 8008f70:	0800a0a5 	.word	0x0800a0a5
 8008f74:	0800a188 	.word	0x0800a188

08008f78 <_Bfree>:
 8008f78:	b570      	push	{r4, r5, r6, lr}
 8008f7a:	6a46      	ldr	r6, [r0, #36]	; 0x24
 8008f7c:	4605      	mov	r5, r0
 8008f7e:	460c      	mov	r4, r1
 8008f80:	b976      	cbnz	r6, 8008fa0 <_Bfree+0x28>
 8008f82:	2010      	movs	r0, #16
 8008f84:	f7ff ffa2 	bl	8008ecc <malloc>
 8008f88:	4602      	mov	r2, r0
 8008f8a:	6268      	str	r0, [r5, #36]	; 0x24
 8008f8c:	b920      	cbnz	r0, 8008f98 <_Bfree+0x20>
 8008f8e:	4b09      	ldr	r3, [pc, #36]	; (8008fb4 <_Bfree+0x3c>)
 8008f90:	4809      	ldr	r0, [pc, #36]	; (8008fb8 <_Bfree+0x40>)
 8008f92:	218a      	movs	r1, #138	; 0x8a
 8008f94:	f000 fdea 	bl	8009b6c <__assert_func>
 8008f98:	e9c0 6601 	strd	r6, r6, [r0, #4]
 8008f9c:	6006      	str	r6, [r0, #0]
 8008f9e:	60c6      	str	r6, [r0, #12]
 8008fa0:	b13c      	cbz	r4, 8008fb2 <_Bfree+0x3a>
 8008fa2:	6a6b      	ldr	r3, [r5, #36]	; 0x24
 8008fa4:	6862      	ldr	r2, [r4, #4]
 8008fa6:	68db      	ldr	r3, [r3, #12]
 8008fa8:	f853 1022 	ldr.w	r1, [r3, r2, lsl #2]
 8008fac:	6021      	str	r1, [r4, #0]
 8008fae:	f843 4022 	str.w	r4, [r3, r2, lsl #2]
 8008fb2:	bd70      	pop	{r4, r5, r6, pc}
 8008fb4:	0800a0a5 	.word	0x0800a0a5
 8008fb8:	0800a188 	.word	0x0800a188

08008fbc <__multadd>:
 8008fbc:	e92d 41f0 	stmdb	sp!, {r4, r5, r6, r7, r8, lr}
 8008fc0:	690d      	ldr	r5, [r1, #16]
 8008fc2:	4607      	mov	r7, r0
 8008fc4:	460c      	mov	r4, r1
 8008fc6:	461e      	mov	r6, r3
 8008fc8:	f101 0c14 	add.w	ip, r1, #20
 8008fcc:	2000      	movs	r0, #0
 8008fce:	f8dc 3000 	ldr.w	r3, [ip]
 8008fd2:	b299      	uxth	r1, r3
 8008fd4:	fb02 6101 	mla	r1, r2, r1, r6
 8008fd8:	0c1e      	lsrs	r6, r3, #16
 8008fda:	0c0b      	lsrs	r3, r1, #16
 8008fdc:	fb02 3306 	mla	r3, r2, r6, r3
 8008fe0:	b289      	uxth	r1, r1
 8008fe2:	3001      	adds	r0, #1
 8008fe4:	eb01 4103 	add.w	r1, r1, r3, lsl #16
 8008fe8:	4285      	cmp	r5, r0
 8008fea:	f84c 1b04 	str.w	r1, [ip], #4
 8008fee:	ea4f 4613 	mov.w	r6, r3, lsr #16
 8008ff2:	dcec      	bgt.n	8008fce <__multadd+0x12>
 8008ff4:	b30e      	cbz	r6, 800903a <__multadd+0x7e>
 8008ff6:	68a3      	ldr	r3, [r4, #8]
 8008ff8:	42ab      	cmp	r3, r5
 8008ffa:	dc19      	bgt.n	8009030 <__multadd+0x74>
 8008ffc:	6861      	ldr	r1, [r4, #4]
 8008ffe:	4638      	mov	r0, r7
 8009000:	3101      	adds	r1, #1
 8009002:	f7ff ff79 	bl	8008ef8 <_Balloc>
 8009006:	4680      	mov	r8, r0
 8009008:	b928      	cbnz	r0, 8009016 <__multadd+0x5a>
 800900a:	4602      	mov	r2, r0
 800900c:	4b0c      	ldr	r3, [pc, #48]	; (8009040 <__multadd+0x84>)
 800900e:	480d      	ldr	r0, [pc, #52]	; (8009044 <__multadd+0x88>)
 8009010:	21b5      	movs	r1, #181	; 0xb5
 8009012:	f000 fdab 	bl	8009b6c <__assert_func>
 8009016:	6922      	ldr	r2, [r4, #16]
 8009018:	3202      	adds	r2, #2
 800901a:	f104 010c 	add.w	r1, r4, #12
 800901e:	0092      	lsls	r2, r2, #2
 8009020:	300c      	adds	r0, #12
 8009022:	f7ff ff5b 	bl	8008edc <memcpy>
 8009026:	4621      	mov	r1, r4
 8009028:	4638      	mov	r0, r7
 800902a:	f7ff ffa5 	bl	8008f78 <_Bfree>
 800902e:	4644      	mov	r4, r8
 8009030:	eb04 0385 	add.w	r3, r4, r5, lsl #2
 8009034:	3501      	adds	r5, #1
 8009036:	615e      	str	r6, [r3, #20]
 8009038:	6125      	str	r5, [r4, #16]
 800903a:	4620      	mov	r0, r4
 800903c:	e8bd 81f0 	ldmia.w	sp!, {r4, r5, r6, r7, r8, pc}
 8009040:	0800a117 	.word	0x0800a117
 8009044:	0800a188 	.word	0x0800a188

08009048 <__hi0bits>:
 8009048:	0c03      	lsrs	r3, r0, #16
 800904a:	041b      	lsls	r3, r3, #16
 800904c:	b9d3      	cbnz	r3, 8009084 <__hi0bits+0x3c>
 800904e:	0400      	lsls	r0, r0, #16
 8009050:	2310      	movs	r3, #16
 8009052:	f010 4f7f 	tst.w	r0, #4278190080	; 0xff000000
 8009056:	bf04      	itt	eq
 8009058:	0200      	lsleq	r0, r0, #8
 800905a:	3308      	addeq	r3, #8
 800905c:	f010 4f70 	tst.w	r0, #4026531840	; 0xf0000000
 8009060:	bf04      	itt	eq
 8009062:	0100      	lsleq	r0, r0, #4
 8009064:	3304      	addeq	r3, #4
 8009066:	f010 4f40 	tst.w	r0, #3221225472	; 0xc0000000
 800906a:	bf04      	itt	eq
 800906c:	0080      	lsleq	r0, r0, #2
 800906e:	3302      	addeq	r3, #2
 8009070:	2800      	cmp	r0, #0
 8009072:	db05      	blt.n	8009080 <__hi0bits+0x38>
 8009074:	f010 4f80 	tst.w	r0, #1073741824	; 0x40000000
 8009078:	f103 0301 	add.w	r3, r3, #1
 800907c:	bf08      	it	eq
 800907e:	2320      	moveq	r3, #32
 8009080:	4618      	mov	r0, r3
 8009082:	4770      	bx	lr
 8009084:	2300      	movs	r3, #0
 8009086:	e7e4      	b.n	8009052 <__hi0bits+0xa>

08009088 <__lo0bits>:
 8009088:	6803      	ldr	r3, [r0, #0]
 800908a:	f013 0207 	ands.w	r2, r3, #7
 800908e:	4601      	mov	r1, r0
 8009090:	d00b      	beq.n	80090aa <__lo0bits+0x22>
 8009092:	07da      	lsls	r2, r3, #31
 8009094:	d423      	bmi.n	80090de <__lo0bits+0x56>
 8009096:	0798      	lsls	r0, r3, #30
 8009098:	bf49      	itett	mi
 800909a:	085b      	lsrmi	r3, r3, #1
 800909c:	089b      	lsrpl	r3, r3, #2
 800909e:	2001      	movmi	r0, #1
 80090a0:	600b      	strmi	r3, [r1, #0]
 80090a2:	bf5c      	itt	pl
 80090a4:	600b      	strpl	r3, [r1, #0]
 80090a6:	2002      	movpl	r0, #2
 80090a8:	4770      	bx	lr
 80090aa:	b298      	uxth	r0, r3
 80090ac:	b9a8      	cbnz	r0, 80090da <__lo0bits+0x52>
 80090ae:	0c1b      	lsrs	r3, r3, #16
 80090b0:	2010      	movs	r0, #16
 80090b2:	b2da      	uxtb	r2, r3
 80090b4:	b90a      	cbnz	r2, 80090ba <__lo0bits+0x32>
 80090b6:	3008      	adds	r0, #8
 80090b8:	0a1b      	lsrs	r3, r3, #8
 80090ba:	071a      	lsls	r2, r3, #28
 80090bc:	bf04      	itt	eq
 80090be:	091b      	lsreq	r3, r3, #4
 80090c0:	3004      	addeq	r0, #4
 80090c2:	079a      	lsls	r2, r3, #30
 80090c4:	bf04      	itt	eq
 80090c6:	089b      	lsreq	r3, r3, #2
 80090c8:	3002      	addeq	r0, #2
 80090ca:	07da      	lsls	r2, r3, #31
 80090cc:	d403      	bmi.n	80090d6 <__lo0bits+0x4e>
 80090ce:	085b      	lsrs	r3, r3, #1
 80090d0:	f100 0001 	add.w	r0, r0, #1
 80090d4:	d005      	beq.n	80090e2 <__lo0bits+0x5a>
 80090d6:	600b      	str	r3, [r1, #0]
 80090d8:	4770      	bx	lr
 80090da:	4610      	mov	r0, r2
 80090dc:	e7e9      	b.n	80090b2 <__lo0bits+0x2a>
 80090de:	2000      	movs	r0, #0
 80090e0:	4770      	bx	lr
 80090e2:	2020      	movs	r0, #32
 80090e4:	4770      	bx	lr
	...

080090e8 <__i2b>:
 80090e8:	b510      	push	{r4, lr}
 80090ea:	460c      	mov	r4, r1
 80090ec:	2101      	movs	r1, #1
 80090ee:	f7ff ff03 	bl	8008ef8 <_Balloc>
 80090f2:	4602      	mov	r2, r0
 80090f4:	b928      	cbnz	r0, 8009102 <__i2b+0x1a>
 80090f6:	4b05      	ldr	r3, [pc, #20]	; (800910c <__i2b+0x24>)
 80090f8:	4805      	ldr	r0, [pc, #20]	; (8009110 <__i2b+0x28>)
 80090fa:	f44f 71a0 	mov.w	r1, #320	; 0x140
 80090fe:	f000 fd35 	bl	8009b6c <__assert_func>
 8009102:	2301      	movs	r3, #1
 8009104:	6144      	str	r4, [r0, #20]
 8009106:	6103      	str	r3, [r0, #16]
 8009108:	bd10      	pop	{r4, pc}
 800910a:	bf00      	nop
 800910c:	0800a117 	.word	0x0800a117
 8009110:	0800a188 	.word	0x0800a188

08009114 <__multiply>:
 8009114:	e92d 4ff0 	stmdb	sp!, {r4, r5, r6, r7, r8, r9, sl, fp, lr}
 8009118:	4691      	mov	r9, r2
 800911a:	690a      	ldr	r2, [r1, #16]
 800911c:	f8d9 3010 	ldr.w	r3, [r9, #16]
 8009120:	429a      	cmp	r2, r3
 8009122:	bfb8      	it	lt
 8009124:	460b      	movlt	r3, r1
 8009126:	460c      	mov	r4, r1
 8009128:	bfbc      	itt	lt
 800912a:	464c      	movlt	r4, r9
 800912c:	4699      	movlt	r9, r3
 800912e:	6927      	ldr	r7, [r4, #16]
 8009130:	f8d9 a010 	ldr.w	sl, [r9, #16]
 8009134:	68a3      	ldr	r3, [r4, #8]
 8009136:	6861      	ldr	r1, [r4, #4]
 8009138:	eb07 060a 	add.w	r6, r7, sl
 800913c:	42b3      	cmp	r3, r6
 800913e:	b085      	sub	sp, #20
 8009140:	bfb8      	it	lt
 8009142:	3101      	addlt	r1, #1
 8009144:	f7ff fed8 	bl	8008ef8 <_Balloc>
 8009148:	b930      	cbnz	r0, 8009158 <__multiply+0x44>
 800914a:	4602      	mov	r2, r0
 800914c:	4b44      	ldr	r3, [pc, #272]	; (8009260 <__multiply+0x14c>)
 800914e:	4845      	ldr	r0, [pc, #276]	; (8009264 <__multiply+0x150>)
 8009150:	f240 115d 	movw	r1, #349	; 0x15d
 8009154:	f000 fd0a 	bl	8009b6c <__assert_func>
 8009158:	f100 0514 	add.w	r5, r0, #20
 800915c:	eb05 0886 	add.w	r8, r5, r6, lsl #2
 8009160:	462b      	mov	r3, r5
 8009162:	2200      	movs	r2, #0
 8009164:	4543      	cmp	r3, r8
 8009166:	d321      	bcc.n	80091ac <__multiply+0x98>
 8009168:	f104 0314 	add.w	r3, r4, #20
 800916c:	eb03 0787 	add.w	r7, r3, r7, lsl #2
 8009170:	f109 0314 	add.w	r3, r9, #20
 8009174:	eb03 028a 	add.w	r2, r3, sl, lsl #2
 8009178:	9202      	str	r2, [sp, #8]
 800917a:	1b3a      	subs	r2, r7, r4
 800917c:	3a15      	subs	r2, #21
 800917e:	f022 0203 	bic.w	r2, r2, #3
 8009182:	3204      	adds	r2, #4
 8009184:	f104 0115 	add.w	r1, r4, #21
 8009188:	428f      	cmp	r7, r1
 800918a:	bf38      	it	cc
 800918c:	2204      	movcc	r2, #4
 800918e:	9201      	str	r2, [sp, #4]
 8009190:	9a02      	ldr	r2, [sp, #8]
 8009192:	9303      	str	r3, [sp, #12]
 8009194:	429a      	cmp	r2, r3
 8009196:	d80c      	bhi.n	80091b2 <__multiply+0x9e>
 8009198:	2e00      	cmp	r6, #0
 800919a:	dd03      	ble.n	80091a4 <__multiply+0x90>
 800919c:	f858 3d04 	ldr.w	r3, [r8, #-4]!
 80091a0:	2b00      	cmp	r3, #0
 80091a2:	d05a      	beq.n	800925a <__multiply+0x146>
 80091a4:	6106      	str	r6, [r0, #16]
 80091a6:	b005      	add	sp, #20
 80091a8:	e8bd 8ff0 	ldmia.w	sp!, {r4, r5, r6, r7, r8, r9, sl, fp, pc}
 80091ac:	f843 2b04 	str.w	r2, [r3], #4
 80091b0:	e7d8      	b.n	8009164 <__multiply+0x50>
 80091b2:	f8b3 a000 	ldrh.w	sl, [r3]
 80091b6:	f1ba 0f00 	cmp.w	sl, #0
 80091ba:	d024      	beq.n	8009206 <__multiply+0xf2>
 80091bc:	f104 0e14 	add.w	lr, r4, #20
 80091c0:	46a9      	mov	r9, r5
 80091c2:	f04f 0c00 	mov.w	ip, #0
 80091c6:	f85e 2b04 	ldr.w	r2, [lr], #4
 80091ca:	f8d9 1000 	ldr.w	r1, [r9]
 80091ce:	fa1f fb82 	uxth.w	fp, r2
 80091d2:	b289      	uxth	r1, r1
 80091d4:	fb0a 110b 	mla	r1, sl, fp, r1
 80091d8:	ea4f 4b12 	mov.w	fp, r2, lsr #16
 80091dc:	f8d9 2000 	ldr.w	r2, [r9]
 80091e0:	4461      	add	r1, ip
 80091e2:	ea4f 4c12 	mov.w	ip, r2, lsr #16
 80091e6:	fb0a c20b 	mla	r2, sl, fp, ip
 80091ea:	eb02 4211 	add.w	r2, r2, r1, lsr #16
 80091ee:	b289      	uxth	r1, r1
 80091f0:	ea41 4102 	orr.w	r1, r1, r2, lsl #16
 80091f4:	4577      	cmp	r7, lr
 80091f6:	f849 1b04 	str.w	r1, [r9], #4
 80091fa:	ea4f 4c12 	mov.w	ip, r2, lsr #16
 80091fe:	d8e2      	bhi.n	80091c6 <__multiply+0xb2>
 8009200:	9a01      	ldr	r2, [sp, #4]
 8009202:	f845 c002 	str.w	ip, [r5, r2]
 8009206:	9a03      	ldr	r2, [sp, #12]
 8009208:	f8b2 9002 	ldrh.w	r9, [r2, #2]
 800920c:	3304      	adds	r3, #4
 800920e:	f1b9 0f00 	cmp.w	r9, #0
 8009212:	d020      	beq.n	8009256 <__multiply+0x142>
 8009214:	6829      	ldr	r1, [r5, #0]
 8009216:	f104 0c14 	add.w	ip, r4, #20
 800921a:	46ae      	mov	lr, r5
 800921c:	f04f 0a00 	mov.w	sl, #0
 8009220:	f8bc b000 	ldrh.w	fp, [ip]
 8009224:	f8be 2002 	ldrh.w	r2, [lr, #2]
 8009228:	fb09 220b 	mla	r2, r9, fp, r2
 800922c:	4492      	add	sl, r2
 800922e:	b289      	uxth	r1, r1
 8009230:	ea41 410a 	orr.w	r1, r1, sl, lsl #16
 8009234:	f84e 1b04 	str.w	r1, [lr], #4
 8009238:	f85c 2b04 	ldr.w	r2, [ip], #4
 800923c:	f8be 1000 	ldrh.w	r1, [lr]
 8009240:	0c12      	lsrs	r2, r2, #16
 8009242:	fb09 1102 	mla	r1, r9, r2, r1
 8009246:	eb01 411a 	add.w	r1, r1, sl, lsr #16
 800924a:	4567      	cmp	r7, ip
 800924c:	ea4f 4a11 	mov.w	sl, r1, lsr #16
 8009250:	d8e6      	bhi.n	8009220 <__multiply+0x10c>
 8009252:	9a01      	ldr	r2, [sp, #4]
 8009254:	50a9      	str	r1, [r5, r2]
 8009256:	3504      	adds	r5, #4
 8009258:	e79a      	b.n	8009190 <__multiply+0x7c>
 800925a:	3e01      	subs	r6, #1
 800925c:	e79c      	b.n	8009198 <__multiply+0x84>
 800925e:	bf00      	nop
 8009260:	0800a117 	.word	0x0800a117
 8009264:	0800a188 	.word	0x0800a188

08009268 <__pow5mult>:
 8009268:	e92d 43f8 	stmdb	sp!, {r3, r4, r5, r6, r7, r8, r9, lr}
 800926c:	4615      	mov	r5, r2
 800926e:	f012 0203 	ands.w	r2, r2, #3
 8009272:	4606      	mov	r6, r0
 8009274:	460f      	mov	r7, r1
 8009276:	d007      	beq.n	8009288 <__pow5mult+0x20>
 8009278:	4c25      	ldr	r4, [pc, #148]	; (8009310 <__pow5mult+0xa8>)
 800927a:	3a01      	subs	r2, #1
 800927c:	2300      	movs	r3, #0
 800927e:	f854 2022 	ldr.w	r2, [r4, r2, lsl #2]
 8009282:	f7ff fe9b 	bl	8008fbc <__multadd>
 8009286:	4607      	mov	r7, r0
 8009288:	10ad      	asrs	r5, r5, #2
 800928a:	d03d      	beq.n	8009308 <__pow5mult+0xa0>
 800928c:	6a74      	ldr	r4, [r6, #36]	; 0x24
 800928e:	b97c      	cbnz	r4, 80092b0 <__pow5mult+0x48>
 8009290:	2010      	movs	r0, #16
 8009292:	f7ff fe1b 	bl	8008ecc <malloc>
 8009296:	4602      	mov	r2, r0
 8009298:	6270      	str	r0, [r6, #36]	; 0x24
 800929a:	b928      	cbnz	r0, 80092a8 <__pow5mult+0x40>
 800929c:	4b1d      	ldr	r3, [pc, #116]	; (8009314 <__pow5mult+0xac>)
 800929e:	481e      	ldr	r0, [pc, #120]	; (8009318 <__pow5mult+0xb0>)
 80092a0:	f44f 71d7 	mov.w	r1, #430	; 0x1ae
 80092a4:	f000 fc62 	bl	8009b6c <__assert_func>
 80092a8:	e9c0 4401 	strd	r4, r4, [r0, #4]
 80092ac:	6004      	str	r4, [r0, #0]
 80092ae:	60c4      	str	r4, [r0, #12]
 80092b0:	f8d6 8024 	ldr.w	r8, [r6, #36]	; 0x24
 80092b4:	f8d8 4008 	ldr.w	r4, [r8, #8]
 80092b8:	b94c      	cbnz	r4, 80092ce <__pow5mult+0x66>
 80092ba:	f240 2171 	movw	r1, #625	; 0x271
 80092be:	4630      	mov	r0, r6
 80092c0:	f7ff ff12 	bl	80090e8 <__i2b>
 80092c4:	2300      	movs	r3, #0
 80092c6:	f8c8 0008 	str.w	r0, [r8, #8]
 80092ca:	4604      	mov	r4, r0
 80092cc:	6003      	str	r3, [r0, #0]
 80092ce:	f04f 0900 	mov.w	r9, #0
 80092d2:	07eb      	lsls	r3, r5, #31
 80092d4:	d50a      	bpl.n	80092ec <__pow5mult+0x84>
 80092d6:	4639      	mov	r1, r7
 80092d8:	4622      	mov	r2, r4
 80092da:	4630      	mov	r0, r6
 80092dc:	f7ff ff1a 	bl	8009114 <__multiply>
 80092e0:	4639      	mov	r1, r7
 80092e2:	4680      	mov	r8, r0
 80092e4:	4630      	mov	r0, r6
 80092e6:	f7ff fe47 	bl	8008f78 <_Bfree>
 80092ea:	4647      	mov	r7, r8
 80092ec:	106d      	asrs	r5, r5, #1
 80092ee:	d00b      	beq.n	8009308 <__pow5mult+0xa0>
 80092f0:	6820      	ldr	r0, [r4, #0]
 80092f2:	b938      	cbnz	r0, 8009304 <__pow5mult+0x9c>
 80092f4:	4622      	mov	r2, r4
 80092f6:	4621      	mov	r1, r4
 80092f8:	4630      	mov	r0, r6
 80092fa:	f7ff ff0b 	bl	8009114 <__multiply>
 80092fe:	6020      	str	r0, [r4, #0]
 8009300:	f8c0 9000 	str.w	r9, [r0]
 8009304:	4604      	mov	r4, r0
 8009306:	e7e4      	b.n	80092d2 <__pow5mult+0x6a>
 8009308:	4638      	mov	r0, r7
 800930a:	e8bd 83f8 	ldmia.w	sp!, {r3, r4, r5, r6, r7, r8, r9, pc}
 800930e:	bf00      	nop
 8009310:	0800a2d8 	.word	0x0800a2d8
 8009314:	0800a0a5 	.word	0x0800a0a5
 8009318:	0800a188 	.word	0x0800a188

0800931c <__lshift>:
 800931c:	e92d 47f0 	stmdb	sp!, {r4, r5, r6, r7, r8, r9, sl, lr}
 8009320:	460c      	mov	r4, r1
 8009322:	6849      	ldr	r1, [r1, #4]
 8009324:	6923      	ldr	r3, [r4, #16]
 8009326:	eb03 1862 	add.w	r8, r3, r2, asr #5
 800932a:	68a3      	ldr	r3, [r4, #8]
 800932c:	4607      	mov	r7, r0
 800932e:	4691      	mov	r9, r2
 8009330:	ea4f 1a62 	mov.w	sl, r2, asr #5
 8009334:	f108 0601 	add.w	r6, r8, #1
 8009338:	42b3      	cmp	r3, r6
 800933a:	db0b      	blt.n	8009354 <__lshift+0x38>
 800933c:	4638      	mov	r0, r7
 800933e:	f7ff fddb 	bl	8008ef8 <_Balloc>
 8009342:	4605      	mov	r5, r0
 8009344:	b948      	cbnz	r0, 800935a <__lshift+0x3e>
 8009346:	4602      	mov	r2, r0
 8009348:	4b2a      	ldr	r3, [pc, #168]	; (80093f4 <__lshift+0xd8>)
 800934a:	482b      	ldr	r0, [pc, #172]	; (80093f8 <__lshift+0xdc>)
 800934c:	f240 11d9 	movw	r1, #473	; 0x1d9
 8009350:	f000 fc0c 	bl	8009b6c <__assert_func>
 8009354:	3101      	adds	r1, #1
 8009356:	005b      	lsls	r3, r3, #1
 8009358:	e7ee      	b.n	8009338 <__lshift+0x1c>
 800935a:	2300      	movs	r3, #0
 800935c:	f100 0114 	add.w	r1, r0, #20
 8009360:	f100 0210 	add.w	r2, r0, #16
 8009364:	4618      	mov	r0, r3
 8009366:	4553      	cmp	r3, sl
 8009368:	db37      	blt.n	80093da <__lshift+0xbe>
 800936a:	6920      	ldr	r0, [r4, #16]
 800936c:	ea2a 7aea 	bic.w	sl, sl, sl, asr #31
 8009370:	f104 0314 	add.w	r3, r4, #20
 8009374:	f019 091f 	ands.w	r9, r9, #31
 8009378:	eb01 018a 	add.w	r1, r1, sl, lsl #2
 800937c:	eb03 0080 	add.w	r0, r3, r0, lsl #2
 8009380:	d02f      	beq.n	80093e2 <__lshift+0xc6>
 8009382:	f1c9 0e20 	rsb	lr, r9, #32
 8009386:	468a      	mov	sl, r1
 8009388:	f04f 0c00 	mov.w	ip, #0
 800938c:	681a      	ldr	r2, [r3, #0]
 800938e:	fa02 f209 	lsl.w	r2, r2, r9
 8009392:	ea42 020c 	orr.w	r2, r2, ip
 8009396:	f84a 2b04 	str.w	r2, [sl], #4
 800939a:	f853 2b04 	ldr.w	r2, [r3], #4
 800939e:	4298      	cmp	r0, r3
 80093a0:	fa22 fc0e 	lsr.w	ip, r2, lr
 80093a4:	d8f2      	bhi.n	800938c <__lshift+0x70>
 80093a6:	1b03      	subs	r3, r0, r4
 80093a8:	3b15      	subs	r3, #21
 80093aa:	f023 0303 	bic.w	r3, r3, #3
 80093ae:	3304      	adds	r3, #4
 80093b0:	f104 0215 	add.w	r2, r4, #21
 80093b4:	4290      	cmp	r0, r2
 80093b6:	bf38      	it	cc
 80093b8:	2304      	movcc	r3, #4
 80093ba:	f841 c003 	str.w	ip, [r1, r3]
 80093be:	f1bc 0f00 	cmp.w	ip, #0
 80093c2:	d001      	beq.n	80093c8 <__lshift+0xac>
 80093c4:	f108 0602 	add.w	r6, r8, #2
 80093c8:	3e01      	subs	r6, #1
 80093ca:	4638      	mov	r0, r7
 80093cc:	612e      	str	r6, [r5, #16]
 80093ce:	4621      	mov	r1, r4
 80093d0:	f7ff fdd2 	bl	8008f78 <_Bfree>
 80093d4:	4628      	mov	r0, r5
 80093d6:	e8bd 87f0 	ldmia.w	sp!, {r4, r5, r6, r7, r8, r9, sl, pc}
 80093da:	f842 0f04 	str.w	r0, [r2, #4]!
 80093de:	3301      	adds	r3, #1
 80093e0:	e7c1      	b.n	8009366 <__lshift+0x4a>
 80093e2:	3904      	subs	r1, #4
 80093e4:	f853 2b04 	ldr.w	r2, [r3], #4
 80093e8:	f841 2f04 	str.w	r2, [r1, #4]!
 80093ec:	4298      	cmp	r0, r3
 80093ee:	d8f9      	bhi.n	80093e4 <__lshift+0xc8>
 80093f0:	e7ea      	b.n	80093c8 <__lshift+0xac>
 80093f2:	bf00      	nop
 80093f4:	0800a117 	.word	0x0800a117
 80093f8:	0800a188 	.word	0x0800a188

080093fc <__mcmp>:
 80093fc:	b530      	push	{r4, r5, lr}
 80093fe:	6902      	ldr	r2, [r0, #16]
 8009400:	690c      	ldr	r4, [r1, #16]
 8009402:	1b12      	subs	r2, r2, r4
 8009404:	d10e      	bne.n	8009424 <__mcmp+0x28>
 8009406:	f100 0314 	add.w	r3, r0, #20
 800940a:	3114      	adds	r1, #20
 800940c:	eb03 0084 	add.w	r0, r3, r4, lsl #2
 8009410:	eb01 0184 	add.w	r1, r1, r4, lsl #2
 8009414:	f850 5d04 	ldr.w	r5, [r0, #-4]!
 8009418:	f851 4d04 	ldr.w	r4, [r1, #-4]!
 800941c:	42a5      	cmp	r5, r4
 800941e:	d003      	beq.n	8009428 <__mcmp+0x2c>
 8009420:	d305      	bcc.n	800942e <__mcmp+0x32>
 8009422:	2201      	movs	r2, #1
 8009424:	4610      	mov	r0, r2
 8009426:	bd30      	pop	{r4, r5, pc}
 8009428:	4283      	cmp	r3, r0
 800942a:	d3f3      	bcc.n	8009414 <__mcmp+0x18>
 800942c:	e7fa      	b.n	8009424 <__mcmp+0x28>
 800942e:	f04f 32ff 	mov.w	r2, #4294967295
 8009432:	e7f7      	b.n	8009424 <__mcmp+0x28>

08009434 <__mdiff>:
 8009434:	e92d 4ff8 	stmdb	sp!, {r3, r4, r5, r6, r7, r8, r9, sl, fp, lr}
 8009438:	460c      	mov	r4, r1
 800943a:	4606      	mov	r6, r0
 800943c:	4611      	mov	r1, r2
 800943e:	4620      	mov	r0, r4
 8009440:	4690      	mov	r8, r2
 8009442:	f7ff ffdb 	bl	80093fc <__mcmp>
 8009446:	1e05      	subs	r5, r0, #0
 8009448:	d110      	bne.n	800946c <__mdiff+0x38>
 800944a:	4629      	mov	r1, r5
 800944c:	4630      	mov	r0, r6
 800944e:	f7ff fd53 	bl	8008ef8 <_Balloc>
 8009452:	b930      	cbnz	r0, 8009462 <__mdiff+0x2e>
 8009454:	4b3a      	ldr	r3, [pc, #232]	; (8009540 <__mdiff+0x10c>)
 8009456:	4602      	mov	r2, r0
 8009458:	f240 2132 	movw	r1, #562	; 0x232
 800945c:	4839      	ldr	r0, [pc, #228]	; (8009544 <__mdiff+0x110>)
 800945e:	f000 fb85 	bl	8009b6c <__assert_func>
 8009462:	2301      	movs	r3, #1
 8009464:	e9c0 3504 	strd	r3, r5, [r0, #16]
 8009468:	e8bd 8ff8 	ldmia.w	sp!, {r3, r4, r5, r6, r7, r8, r9, sl, fp, pc}
 800946c:	bfa4      	itt	ge
 800946e:	4643      	movge	r3, r8
 8009470:	46a0      	movge	r8, r4
 8009472:	4630      	mov	r0, r6
 8009474:	f8d8 1004 	ldr.w	r1, [r8, #4]
 8009478:	bfa6      	itte	ge
 800947a:	461c      	movge	r4, r3
 800947c:	2500      	movge	r5, #0
 800947e:	2501      	movlt	r5, #1
 8009480:	f7ff fd3a 	bl	8008ef8 <_Balloc>
 8009484:	b920      	cbnz	r0, 8009490 <__mdiff+0x5c>
 8009486:	4b2e      	ldr	r3, [pc, #184]	; (8009540 <__mdiff+0x10c>)
 8009488:	4602      	mov	r2, r0
 800948a:	f44f 7110 	mov.w	r1, #576	; 0x240
 800948e:	e7e5      	b.n	800945c <__mdiff+0x28>
 8009490:	f8d8 7010 	ldr.w	r7, [r8, #16]
 8009494:	6926      	ldr	r6, [r4, #16]
 8009496:	60c5      	str	r5, [r0, #12]
 8009498:	f104 0914 	add.w	r9, r4, #20
 800949c:	f108 0514 	add.w	r5, r8, #20
 80094a0:	f100 0e14 	add.w	lr, r0, #20
 80094a4:	eb05 0c87 	add.w	ip, r5, r7, lsl #2
 80094a8:	eb09 0686 	add.w	r6, r9, r6, lsl #2
 80094ac:	f108 0210 	add.w	r2, r8, #16
 80094b0:	46f2      	mov	sl, lr
 80094b2:	2100      	movs	r1, #0
 80094b4:	f859 3b04 	ldr.w	r3, [r9], #4
 80094b8:	f852 bf04 	ldr.w	fp, [r2, #4]!
 80094bc:	fa1f f883 	uxth.w	r8, r3
 80094c0:	fa11 f18b 	uxtah	r1, r1, fp
 80094c4:	0c1b      	lsrs	r3, r3, #16
 80094c6:	eba1 0808 	sub.w	r8, r1, r8
 80094ca:	ebc3 431b 	rsb	r3, r3, fp, lsr #16
 80094ce:	eb03 4328 	add.w	r3, r3, r8, asr #16
 80094d2:	fa1f f888 	uxth.w	r8, r8
 80094d6:	1419      	asrs	r1, r3, #16
 80094d8:	454e      	cmp	r6, r9
 80094da:	ea48 4303 	orr.w	r3, r8, r3, lsl #16
 80094de:	f84a 3b04 	str.w	r3, [sl], #4
 80094e2:	d8e7      	bhi.n	80094b4 <__mdiff+0x80>
 80094e4:	1b33      	subs	r3, r6, r4
 80094e6:	3b15      	subs	r3, #21
 80094e8:	f023 0303 	bic.w	r3, r3, #3
 80094ec:	3304      	adds	r3, #4
 80094ee:	3415      	adds	r4, #21
 80094f0:	42a6      	cmp	r6, r4
 80094f2:	bf38      	it	cc
 80094f4:	2304      	movcc	r3, #4
 80094f6:	441d      	add	r5, r3
 80094f8:	4473      	add	r3, lr
 80094fa:	469e      	mov	lr, r3
 80094fc:	462e      	mov	r6, r5
 80094fe:	4566      	cmp	r6, ip
 8009500:	d30e      	bcc.n	8009520 <__mdiff+0xec>
 8009502:	f10c 0203 	add.w	r2, ip, #3
 8009506:	1b52      	subs	r2, r2, r5
 8009508:	f022 0203 	bic.w	r2, r2, #3
 800950c:	3d03      	subs	r5, #3
 800950e:	45ac      	cmp	ip, r5
 8009510:	bf38      	it	cc
 8009512:	2200      	movcc	r2, #0
 8009514:	441a      	add	r2, r3
 8009516:	f852 3d04 	ldr.w	r3, [r2, #-4]!
 800951a:	b17b      	cbz	r3, 800953c <__mdiff+0x108>
 800951c:	6107      	str	r7, [r0, #16]
 800951e:	e7a3      	b.n	8009468 <__mdiff+0x34>
 8009520:	f856 8b04 	ldr.w	r8, [r6], #4
 8009524:	fa11 f288 	uxtah	r2, r1, r8
 8009528:	1414      	asrs	r4, r2, #16
 800952a:	eb04 4418 	add.w	r4, r4, r8, lsr #16
 800952e:	b292      	uxth	r2, r2
 8009530:	ea42 4204 	orr.w	r2, r2, r4, lsl #16
 8009534:	f84e 2b04 	str.w	r2, [lr], #4
 8009538:	1421      	asrs	r1, r4, #16
 800953a:	e7e0      	b.n	80094fe <__mdiff+0xca>
 800953c:	3f01      	subs	r7, #1
 800953e:	e7ea      	b.n	8009516 <__mdiff+0xe2>
 8009540:	0800a117 	.word	0x0800a117
 8009544:	0800a188 	.word	0x0800a188

08009548 <__d2b>:
 8009548:	e92d 43f7 	stmdb	sp!, {r0, r1, r2, r4, r5, r6, r7, r8, r9, lr}
 800954c:	4689      	mov	r9, r1
 800954e:	2101      	movs	r1, #1
 8009550:	ec57 6b10 	vmov	r6, r7, d0
 8009554:	4690      	mov	r8, r2
 8009556:	f7ff fccf 	bl	8008ef8 <_Balloc>
 800955a:	4604      	mov	r4, r0
 800955c:	b930      	cbnz	r0, 800956c <__d2b+0x24>
 800955e:	4602      	mov	r2, r0
 8009560:	4b25      	ldr	r3, [pc, #148]	; (80095f8 <__d2b+0xb0>)
 8009562:	4826      	ldr	r0, [pc, #152]	; (80095fc <__d2b+0xb4>)
 8009564:	f240 310a 	movw	r1, #778	; 0x30a
 8009568:	f000 fb00 	bl	8009b6c <__assert_func>
 800956c:	f3c7 550a 	ubfx	r5, r7, #20, #11
 8009570:	f3c7 0313 	ubfx	r3, r7, #0, #20
 8009574:	bb35      	cbnz	r5, 80095c4 <__d2b+0x7c>
 8009576:	2e00      	cmp	r6, #0
 8009578:	9301      	str	r3, [sp, #4]
 800957a:	d028      	beq.n	80095ce <__d2b+0x86>
 800957c:	4668      	mov	r0, sp
 800957e:	9600      	str	r6, [sp, #0]
 8009580:	f7ff fd82 	bl	8009088 <__lo0bits>
 8009584:	9900      	ldr	r1, [sp, #0]
 8009586:	b300      	cbz	r0, 80095ca <__d2b+0x82>
 8009588:	9a01      	ldr	r2, [sp, #4]
 800958a:	f1c0 0320 	rsb	r3, r0, #32
 800958e:	fa02 f303 	lsl.w	r3, r2, r3
 8009592:	430b      	orrs	r3, r1
 8009594:	40c2      	lsrs	r2, r0
 8009596:	6163      	str	r3, [r4, #20]
 8009598:	9201      	str	r2, [sp, #4]
 800959a:	9b01      	ldr	r3, [sp, #4]
 800959c:	61a3      	str	r3, [r4, #24]
 800959e:	2b00      	cmp	r3, #0
 80095a0:	bf14      	ite	ne
 80095a2:	2202      	movne	r2, #2
 80095a4:	2201      	moveq	r2, #1
 80095a6:	6122      	str	r2, [r4, #16]
 80095a8:	b1d5      	cbz	r5, 80095e0 <__d2b+0x98>
 80095aa:	f2a5 4533 	subw	r5, r5, #1075	; 0x433
 80095ae:	4405      	add	r5, r0
 80095b0:	f8c9 5000 	str.w	r5, [r9]
 80095b4:	f1c0 0035 	rsb	r0, r0, #53	; 0x35
 80095b8:	f8c8 0000 	str.w	r0, [r8]
 80095bc:	4620      	mov	r0, r4
 80095be:	b003      	add	sp, #12
 80095c0:	e8bd 83f0 	ldmia.w	sp!, {r4, r5, r6, r7, r8, r9, pc}
 80095c4:	f443 1380 	orr.w	r3, r3, #1048576	; 0x100000
 80095c8:	e7d5      	b.n	8009576 <__d2b+0x2e>
 80095ca:	6161      	str	r1, [r4, #20]
 80095cc:	e7e5      	b.n	800959a <__d2b+0x52>
 80095ce:	a801      	add	r0, sp, #4
 80095d0:	f7ff fd5a 	bl	8009088 <__lo0bits>
 80095d4:	9b01      	ldr	r3, [sp, #4]
 80095d6:	6163      	str	r3, [r4, #20]
 80095d8:	2201      	movs	r2, #1
 80095da:	6122      	str	r2, [r4, #16]
 80095dc:	3020      	adds	r0, #32
 80095de:	e7e3      	b.n	80095a8 <__d2b+0x60>
 80095e0:	eb04 0382 	add.w	r3, r4, r2, lsl #2
 80095e4:	f2a0 4032 	subw	r0, r0, #1074	; 0x432
 80095e8:	f8c9 0000 	str.w	r0, [r9]
 80095ec:	6918      	ldr	r0, [r3, #16]
 80095ee:	f7ff fd2b 	bl	8009048 <__hi0bits>
 80095f2:	ebc0 1042 	rsb	r0, r0, r2, lsl #5
 80095f6:	e7df      	b.n	80095b8 <__d2b+0x70>
 80095f8:	0800a117 	.word	0x0800a117
 80095fc:	0800a188 	.word	0x0800a188

08009600 <_calloc_r>:
 8009600:	b537      	push	{r0, r1, r2, r4, r5, lr}
 8009602:	fba1 2402 	umull	r2, r4, r1, r2
 8009606:	b94c      	cbnz	r4, 800961c <_calloc_r+0x1c>
 8009608:	4611      	mov	r1, r2
 800960a:	9201      	str	r2, [sp, #4]
 800960c:	f000 f87a 	bl	8009704 <_malloc_r>
 8009610:	9a01      	ldr	r2, [sp, #4]
 8009612:	4605      	mov	r5, r0
 8009614:	b930      	cbnz	r0, 8009624 <_calloc_r+0x24>
 8009616:	4628      	mov	r0, r5
 8009618:	b003      	add	sp, #12
 800961a:	bd30      	pop	{r4, r5, pc}
 800961c:	220c      	movs	r2, #12
 800961e:	6002      	str	r2, [r0, #0]
 8009620:	2500      	movs	r5, #0
 8009622:	e7f8      	b.n	8009616 <_calloc_r+0x16>
 8009624:	4621      	mov	r1, r4
 8009626:	f7fd fdf3 	bl	8007210 <memset>
 800962a:	e7f4      	b.n	8009616 <_calloc_r+0x16>

0800962c <_free_r>:
 800962c:	b537      	push	{r0, r1, r2, r4, r5, lr}
 800962e:	2900      	cmp	r1, #0
 8009630:	d044      	beq.n	80096bc <_free_r+0x90>
 8009632:	f851 3c04 	ldr.w	r3, [r1, #-4]
 8009636:	9001      	str	r0, [sp, #4]
 8009638:	2b00      	cmp	r3, #0
 800963a:	f1a1 0404 	sub.w	r4, r1, #4
 800963e:	bfb8      	it	lt
 8009640:	18e4      	addlt	r4, r4, r3
 8009642:	f000 fb19 	bl	8009c78 <__malloc_lock>
 8009646:	4a1e      	ldr	r2, [pc, #120]	; (80096c0 <_free_r+0x94>)
 8009648:	9801      	ldr	r0, [sp, #4]
 800964a:	6813      	ldr	r3, [r2, #0]
 800964c:	b933      	cbnz	r3, 800965c <_free_r+0x30>
 800964e:	6063      	str	r3, [r4, #4]
 8009650:	6014      	str	r4, [r2, #0]
 8009652:	b003      	add	sp, #12
 8009654:	e8bd 4030 	ldmia.w	sp!, {r4, r5, lr}
 8009658:	f000 bb14 	b.w	8009c84 <__malloc_unlock>
 800965c:	42a3      	cmp	r3, r4
 800965e:	d908      	bls.n	8009672 <_free_r+0x46>
 8009660:	6825      	ldr	r5, [r4, #0]
 8009662:	1961      	adds	r1, r4, r5
 8009664:	428b      	cmp	r3, r1
 8009666:	bf01      	itttt	eq
 8009668:	6819      	ldreq	r1, [r3, #0]
 800966a:	685b      	ldreq	r3, [r3, #4]
 800966c:	1949      	addeq	r1, r1, r5
 800966e:	6021      	streq	r1, [r4, #0]
 8009670:	e7ed      	b.n	800964e <_free_r+0x22>
 8009672:	461a      	mov	r2, r3
 8009674:	685b      	ldr	r3, [r3, #4]
 8009676:	b10b      	cbz	r3, 800967c <_free_r+0x50>
 8009678:	42a3      	cmp	r3, r4
 800967a:	d9fa      	bls.n	8009672 <_free_r+0x46>
 800967c:	6811      	ldr	r1, [r2, #0]
 800967e:	1855      	adds	r5, r2, r1
 8009680:	42a5      	cmp	r5, r4
 8009682:	d10b      	bne.n	800969c <_free_r+0x70>
 8009684:	6824      	ldr	r4, [r4, #0]
 8009686:	4421      	add	r1, r4
 8009688:	1854      	adds	r4, r2, r1
 800968a:	42a3      	cmp	r3, r4
 800968c:	6011      	str	r1, [r2, #0]
 800968e:	d1e0      	bne.n	8009652 <_free_r+0x26>
 8009690:	681c      	ldr	r4, [r3, #0]
 8009692:	685b      	ldr	r3, [r3, #4]
 8009694:	6053      	str	r3, [r2, #4]
 8009696:	4421      	add	r1, r4
 8009698:	6011      	str	r1, [r2, #0]
 800969a:	e7da      	b.n	8009652 <_free_r+0x26>
 800969c:	d902      	bls.n	80096a4 <_free_r+0x78>
 800969e:	230c      	movs	r3, #12
 80096a0:	6003      	str	r3, [r0, #0]
 80096a2:	e7d6      	b.n	8009652 <_free_r+0x26>
 80096a4:	6825      	ldr	r5, [r4, #0]
 80096a6:	1961      	adds	r1, r4, r5
 80096a8:	428b      	cmp	r3, r1
 80096aa:	bf04      	itt	eq
 80096ac:	6819      	ldreq	r1, [r3, #0]
 80096ae:	685b      	ldreq	r3, [r3, #4]
 80096b0:	6063      	str	r3, [r4, #4]
 80096b2:	bf04      	itt	eq
 80096b4:	1949      	addeq	r1, r1, r5
 80096b6:	6021      	streq	r1, [r4, #0]
 80096b8:	6054      	str	r4, [r2, #4]
 80096ba:	e7ca      	b.n	8009652 <_free_r+0x26>
 80096bc:	b003      	add	sp, #12
 80096be:	bd30      	pop	{r4, r5, pc}
 80096c0:	20001598 	.word	0x20001598

080096c4 <sbrk_aligned>:
 80096c4:	b570      	push	{r4, r5, r6, lr}
 80096c6:	4e0e      	ldr	r6, [pc, #56]	; (8009700 <sbrk_aligned+0x3c>)
 80096c8:	460c      	mov	r4, r1
 80096ca:	6831      	ldr	r1, [r6, #0]
 80096cc:	4605      	mov	r5, r0
 80096ce:	b911      	cbnz	r1, 80096d6 <sbrk_aligned+0x12>
 80096d0:	f000 f9e6 	bl	8009aa0 <_sbrk_r>
 80096d4:	6030      	str	r0, [r6, #0]
 80096d6:	4621      	mov	r1, r4
 80096d8:	4628      	mov	r0, r5
 80096da:	f000 f9e1 	bl	8009aa0 <_sbrk_r>
 80096de:	1c43      	adds	r3, r0, #1
 80096e0:	d00a      	beq.n	80096f8 <sbrk_aligned+0x34>
 80096e2:	1cc4      	adds	r4, r0, #3
 80096e4:	f024 0403 	bic.w	r4, r4, #3
 80096e8:	42a0      	cmp	r0, r4
 80096ea:	d007      	beq.n	80096fc <sbrk_aligned+0x38>
 80096ec:	1a21      	subs	r1, r4, r0
 80096ee:	4628      	mov	r0, r5
 80096f0:	f000 f9d6 	bl	8009aa0 <_sbrk_r>
 80096f4:	3001      	adds	r0, #1
 80096f6:	d101      	bne.n	80096fc <sbrk_aligned+0x38>
 80096f8:	f04f 34ff 	mov.w	r4, #4294967295
 80096fc:	4620      	mov	r0, r4
 80096fe:	bd70      	pop	{r4, r5, r6, pc}
 8009700:	2000159c 	.word	0x2000159c

08009704 <_malloc_r>:
 8009704:	e92d 41f0 	stmdb	sp!, {r4, r5, r6, r7, r8, lr}
 8009708:	1ccd      	adds	r5, r1, #3
 800970a:	f025 0503 	bic.w	r5, r5, #3
 800970e:	3508      	adds	r5, #8
 8009710:	2d0c      	cmp	r5, #12
 8009712:	bf38      	it	cc
 8009714:	250c      	movcc	r5, #12
 8009716:	2d00      	cmp	r5, #0
 8009718:	4607      	mov	r7, r0
 800971a:	db01      	blt.n	8009720 <_malloc_r+0x1c>
 800971c:	42a9      	cmp	r1, r5
 800971e:	d905      	bls.n	800972c <_malloc_r+0x28>
 8009720:	230c      	movs	r3, #12
 8009722:	603b      	str	r3, [r7, #0]
 8009724:	2600      	movs	r6, #0
 8009726:	4630      	mov	r0, r6
 8009728:	e8bd 81f0 	ldmia.w	sp!, {r4, r5, r6, r7, r8, pc}
 800972c:	4e2e      	ldr	r6, [pc, #184]	; (80097e8 <_malloc_r+0xe4>)
 800972e:	f000 faa3 	bl	8009c78 <__malloc_lock>
 8009732:	6833      	ldr	r3, [r6, #0]
 8009734:	461c      	mov	r4, r3
 8009736:	bb34      	cbnz	r4, 8009786 <_malloc_r+0x82>
 8009738:	4629      	mov	r1, r5
 800973a:	4638      	mov	r0, r7
 800973c:	f7ff ffc2 	bl	80096c4 <sbrk_aligned>
 8009740:	1c43      	adds	r3, r0, #1
 8009742:	4604      	mov	r4, r0
 8009744:	d14d      	bne.n	80097e2 <_malloc_r+0xde>
 8009746:	6834      	ldr	r4, [r6, #0]
 8009748:	4626      	mov	r6, r4
 800974a:	2e00      	cmp	r6, #0
 800974c:	d140      	bne.n	80097d0 <_malloc_r+0xcc>
 800974e:	6823      	ldr	r3, [r4, #0]
 8009750:	4631      	mov	r1, r6
 8009752:	4638      	mov	r0, r7
 8009754:	eb04 0803 	add.w	r8, r4, r3
 8009758:	f000 f9a2 	bl	8009aa0 <_sbrk_r>
 800975c:	4580      	cmp	r8, r0
 800975e:	d13a      	bne.n	80097d6 <_malloc_r+0xd2>
 8009760:	6821      	ldr	r1, [r4, #0]
 8009762:	3503      	adds	r5, #3
 8009764:	1a6d      	subs	r5, r5, r1
 8009766:	f025 0503 	bic.w	r5, r5, #3
 800976a:	3508      	adds	r5, #8
 800976c:	2d0c      	cmp	r5, #12
 800976e:	bf38      	it	cc
 8009770:	250c      	movcc	r5, #12
 8009772:	4629      	mov	r1, r5
 8009774:	4638      	mov	r0, r7
 8009776:	f7ff ffa5 	bl	80096c4 <sbrk_aligned>
 800977a:	3001      	adds	r0, #1
 800977c:	d02b      	beq.n	80097d6 <_malloc_r+0xd2>
 800977e:	6823      	ldr	r3, [r4, #0]
 8009780:	442b      	add	r3, r5
 8009782:	6023      	str	r3, [r4, #0]
 8009784:	e00e      	b.n	80097a4 <_malloc_r+0xa0>
 8009786:	6822      	ldr	r2, [r4, #0]
 8009788:	1b52      	subs	r2, r2, r5
 800978a:	d41e      	bmi.n	80097ca <_malloc_r+0xc6>
 800978c:	2a0b      	cmp	r2, #11
 800978e:	d916      	bls.n	80097be <_malloc_r+0xba>
 8009790:	1961      	adds	r1, r4, r5
 8009792:	42a3      	cmp	r3, r4
 8009794:	6025      	str	r5, [r4, #0]
 8009796:	bf18      	it	ne
 8009798:	6059      	strne	r1, [r3, #4]
 800979a:	6863      	ldr	r3, [r4, #4]
 800979c:	bf08      	it	eq
 800979e:	6031      	streq	r1, [r6, #0]
 80097a0:	5162      	str	r2, [r4, r5]
 80097a2:	604b      	str	r3, [r1, #4]
 80097a4:	4638      	mov	r0, r7
 80097a6:	f104 060b 	add.w	r6, r4, #11
 80097aa:	f000 fa6b 	bl	8009c84 <__malloc_unlock>
 80097ae:	f026 0607 	bic.w	r6, r6, #7
 80097b2:	1d23      	adds	r3, r4, #4
 80097b4:	1af2      	subs	r2, r6, r3
 80097b6:	d0b6      	beq.n	8009726 <_malloc_r+0x22>
 80097b8:	1b9b      	subs	r3, r3, r6
 80097ba:	50a3      	str	r3, [r4, r2]
 80097bc:	e7b3      	b.n	8009726 <_malloc_r+0x22>
 80097be:	6862      	ldr	r2, [r4, #4]
 80097c0:	42a3      	cmp	r3, r4
 80097c2:	bf0c      	ite	eq
 80097c4:	6032      	streq	r2, [r6, #0]
 80097c6:	605a      	strne	r2, [r3, #4]
 80097c8:	e7ec      	b.n	80097a4 <_malloc_r+0xa0>
 80097ca:	4623      	mov	r3, r4
 80097cc:	6864      	ldr	r4, [r4, #4]
 80097ce:	e7b2      	b.n	8009736 <_malloc_r+0x32>
 80097d0:	4634      	mov	r4, r6
 80097d2:	6876      	ldr	r6, [r6, #4]
 80097d4:	e7b9      	b.n	800974a <_malloc_r+0x46>
 80097d6:	230c      	movs	r3, #12
 80097d8:	603b      	str	r3, [r7, #0]
 80097da:	4638      	mov	r0, r7
 80097dc:	f000 fa52 	bl	8009c84 <__malloc_unlock>
 80097e0:	e7a1      	b.n	8009726 <_malloc_r+0x22>
 80097e2:	6025      	str	r5, [r4, #0]
 80097e4:	e7de      	b.n	80097a4 <_malloc_r+0xa0>
 80097e6:	bf00      	nop
 80097e8:	20001598 	.word	0x20001598

080097ec <__sfputc_r>:
 80097ec:	6893      	ldr	r3, [r2, #8]
 80097ee:	3b01      	subs	r3, #1
 80097f0:	2b00      	cmp	r3, #0
 80097f2:	b410      	push	{r4}
 80097f4:	6093      	str	r3, [r2, #8]
 80097f6:	da08      	bge.n	800980a <__sfputc_r+0x1e>
 80097f8:	6994      	ldr	r4, [r2, #24]
 80097fa:	42a3      	cmp	r3, r4
 80097fc:	db01      	blt.n	8009802 <__sfputc_r+0x16>
 80097fe:	290a      	cmp	r1, #10
 8009800:	d103      	bne.n	800980a <__sfputc_r+0x1e>
 8009802:	f85d 4b04 	ldr.w	r4, [sp], #4
 8009806:	f7fe ba03 	b.w	8007c10 <__swbuf_r>
 800980a:	6813      	ldr	r3, [r2, #0]
 800980c:	1c58      	adds	r0, r3, #1
 800980e:	6010      	str	r0, [r2, #0]
 8009810:	7019      	strb	r1, [r3, #0]
 8009812:	4608      	mov	r0, r1
 8009814:	f85d 4b04 	ldr.w	r4, [sp], #4
 8009818:	4770      	bx	lr

0800981a <__sfputs_r>:
 800981a:	b5f8      	push	{r3, r4, r5, r6, r7, lr}
 800981c:	4606      	mov	r6, r0
 800981e:	460f      	mov	r7, r1
 8009820:	4614      	mov	r4, r2
 8009822:	18d5      	adds	r5, r2, r3
 8009824:	42ac      	cmp	r4, r5
 8009826:	d101      	bne.n	800982c <__sfputs_r+0x12>
 8009828:	2000      	movs	r0, #0
 800982a:	e007      	b.n	800983c <__sfputs_r+0x22>
 800982c:	f814 1b01 	ldrb.w	r1, [r4], #1
 8009830:	463a      	mov	r2, r7
 8009832:	4630      	mov	r0, r6
 8009834:	f7ff ffda 	bl	80097ec <__sfputc_r>
 8009838:	1c43      	adds	r3, r0, #1
 800983a:	d1f3      	bne.n	8009824 <__sfputs_r+0xa>
 800983c:	bdf8      	pop	{r3, r4, r5, r6, r7, pc}
	...

08009840 <_vfiprintf_r>:
 8009840:	e92d 4ff0 	stmdb	sp!, {r4, r5, r6, r7, r8, r9, sl, fp, lr}
 8009844:	460d      	mov	r5, r1
 8009846:	b09d      	sub	sp, #116	; 0x74
 8009848:	4614      	mov	r4, r2
 800984a:	4698      	mov	r8, r3
 800984c:	4606      	mov	r6, r0
 800984e:	b118      	cbz	r0, 8009858 <_vfiprintf_r+0x18>
 8009850:	6983      	ldr	r3, [r0, #24]
 8009852:	b90b      	cbnz	r3, 8009858 <_vfiprintf_r+0x18>
 8009854:	f7ff fa30 	bl	8008cb8 <__sinit>
 8009858:	4b89      	ldr	r3, [pc, #548]	; (8009a80 <_vfiprintf_r+0x240>)
 800985a:	429d      	cmp	r5, r3
 800985c:	d11b      	bne.n	8009896 <_vfiprintf_r+0x56>
 800985e:	6875      	ldr	r5, [r6, #4]
 8009860:	6e6b      	ldr	r3, [r5, #100]	; 0x64
 8009862:	07d9      	lsls	r1, r3, #31
 8009864:	d405      	bmi.n	8009872 <_vfiprintf_r+0x32>
 8009866:	89ab      	ldrh	r3, [r5, #12]
 8009868:	059a      	lsls	r2, r3, #22
 800986a:	d402      	bmi.n	8009872 <_vfiprintf_r+0x32>
 800986c:	6da8      	ldr	r0, [r5, #88]	; 0x58
 800986e:	f7ff fac6 	bl	8008dfe <__retarget_lock_acquire_recursive>
 8009872:	89ab      	ldrh	r3, [r5, #12]
 8009874:	071b      	lsls	r3, r3, #28
 8009876:	d501      	bpl.n	800987c <_vfiprintf_r+0x3c>
 8009878:	692b      	ldr	r3, [r5, #16]
 800987a:	b9eb      	cbnz	r3, 80098b8 <_vfiprintf_r+0x78>
 800987c:	4629      	mov	r1, r5
 800987e:	4630      	mov	r0, r6
 8009880:	f7fe fa18 	bl	8007cb4 <__swsetup_r>
 8009884:	b1c0      	cbz	r0, 80098b8 <_vfiprintf_r+0x78>
 8009886:	6e6b      	ldr	r3, [r5, #100]	; 0x64
 8009888:	07dc      	lsls	r4, r3, #31
 800988a:	d50e      	bpl.n	80098aa <_vfiprintf_r+0x6a>
 800988c:	f04f 30ff 	mov.w	r0, #4294967295
 8009890:	b01d      	add	sp, #116	; 0x74
 8009892:	e8bd 8ff0 	ldmia.w	sp!, {r4, r5, r6, r7, r8, r9, sl, fp, pc}
 8009896:	4b7b      	ldr	r3, [pc, #492]	; (8009a84 <_vfiprintf_r+0x244>)
 8009898:	429d      	cmp	r5, r3
 800989a:	d101      	bne.n	80098a0 <_vfiprintf_r+0x60>
 800989c:	68b5      	ldr	r5, [r6, #8]
 800989e:	e7df      	b.n	8009860 <_vfiprintf_r+0x20>
 80098a0:	4b79      	ldr	r3, [pc, #484]	; (8009a88 <_vfiprintf_r+0x248>)
 80098a2:	429d      	cmp	r5, r3
 80098a4:	bf08      	it	eq
 80098a6:	68f5      	ldreq	r5, [r6, #12]
 80098a8:	e7da      	b.n	8009860 <_vfiprintf_r+0x20>
 80098aa:	89ab      	ldrh	r3, [r5, #12]
 80098ac:	0598      	lsls	r0, r3, #22
 80098ae:	d4ed      	bmi.n	800988c <_vfiprintf_r+0x4c>
 80098b0:	6da8      	ldr	r0, [r5, #88]	; 0x58
 80098b2:	f7ff faa5 	bl	8008e00 <__retarget_lock_release_recursive>
 80098b6:	e7e9      	b.n	800988c <_vfiprintf_r+0x4c>
 80098b8:	2300      	movs	r3, #0
 80098ba:	9309      	str	r3, [sp, #36]	; 0x24
 80098bc:	2320      	movs	r3, #32
 80098be:	f88d 3029 	strb.w	r3, [sp, #41]	; 0x29
 80098c2:	f8cd 800c 	str.w	r8, [sp, #12]
 80098c6:	2330      	movs	r3, #48	; 0x30
 80098c8:	f8df 81c0 	ldr.w	r8, [pc, #448]	; 8009a8c <_vfiprintf_r+0x24c>
 80098cc:	f88d 302a 	strb.w	r3, [sp, #42]	; 0x2a
 80098d0:	f04f 0901 	mov.w	r9, #1
 80098d4:	4623      	mov	r3, r4
 80098d6:	469a      	mov	sl, r3
 80098d8:	f813 2b01 	ldrb.w	r2, [r3], #1
 80098dc:	b10a      	cbz	r2, 80098e2 <_vfiprintf_r+0xa2>
 80098de:	2a25      	cmp	r2, #37	; 0x25
 80098e0:	d1f9      	bne.n	80098d6 <_vfiprintf_r+0x96>
 80098e2:	ebba 0b04 	subs.w	fp, sl, r4
 80098e6:	d00b      	beq.n	8009900 <_vfiprintf_r+0xc0>
 80098e8:	465b      	mov	r3, fp
 80098ea:	4622      	mov	r2, r4
 80098ec:	4629      	mov	r1, r5
 80098ee:	4630      	mov	r0, r6
 80098f0:	f7ff ff93 	bl	800981a <__sfputs_r>
 80098f4:	3001      	adds	r0, #1
 80098f6:	f000 80aa 	beq.w	8009a4e <_vfiprintf_r+0x20e>
 80098fa:	9a09      	ldr	r2, [sp, #36]	; 0x24
 80098fc:	445a      	add	r2, fp
 80098fe:	9209      	str	r2, [sp, #36]	; 0x24
 8009900:	f89a 3000 	ldrb.w	r3, [sl]
 8009904:	2b00      	cmp	r3, #0
 8009906:	f000 80a2 	beq.w	8009a4e <_vfiprintf_r+0x20e>
 800990a:	2300      	movs	r3, #0
 800990c:	f04f 32ff 	mov.w	r2, #4294967295
 8009910:	e9cd 2305 	strd	r2, r3, [sp, #20]
 8009914:	f10a 0a01 	add.w	sl, sl, #1
 8009918:	9304      	str	r3, [sp, #16]
 800991a:	9307      	str	r3, [sp, #28]
 800991c:	f88d 3053 	strb.w	r3, [sp, #83]	; 0x53
 8009920:	931a      	str	r3, [sp, #104]	; 0x68
 8009922:	4654      	mov	r4, sl
 8009924:	2205      	movs	r2, #5
 8009926:	f814 1b01 	ldrb.w	r1, [r4], #1
 800992a:	4858      	ldr	r0, [pc, #352]	; (8009a8c <_vfiprintf_r+0x24c>)
 800992c:	f7f6 fc58 	bl	80001e0 <memchr>
 8009930:	9a04      	ldr	r2, [sp, #16]
 8009932:	b9d8      	cbnz	r0, 800996c <_vfiprintf_r+0x12c>
 8009934:	06d1      	lsls	r1, r2, #27
 8009936:	bf44      	itt	mi
 8009938:	2320      	movmi	r3, #32
 800993a:	f88d 3053 	strbmi.w	r3, [sp, #83]	; 0x53
 800993e:	0713      	lsls	r3, r2, #28
 8009940:	bf44      	itt	mi
 8009942:	232b      	movmi	r3, #43	; 0x2b
 8009944:	f88d 3053 	strbmi.w	r3, [sp, #83]	; 0x53
 8009948:	f89a 3000 	ldrb.w	r3, [sl]
 800994c:	2b2a      	cmp	r3, #42	; 0x2a
 800994e:	d015      	beq.n	800997c <_vfiprintf_r+0x13c>
 8009950:	9a07      	ldr	r2, [sp, #28]
 8009952:	4654      	mov	r4, sl
 8009954:	2000      	movs	r0, #0
 8009956:	f04f 0c0a 	mov.w	ip, #10
 800995a:	4621      	mov	r1, r4
 800995c:	f811 3b01 	ldrb.w	r3, [r1], #1
 8009960:	3b30      	subs	r3, #48	; 0x30
 8009962:	2b09      	cmp	r3, #9
 8009964:	d94e      	bls.n	8009a04 <_vfiprintf_r+0x1c4>
 8009966:	b1b0      	cbz	r0, 8009996 <_vfiprintf_r+0x156>
 8009968:	9207      	str	r2, [sp, #28]
 800996a:	e014      	b.n	8009996 <_vfiprintf_r+0x156>
 800996c:	eba0 0308 	sub.w	r3, r0, r8
 8009970:	fa09 f303 	lsl.w	r3, r9, r3
 8009974:	4313      	orrs	r3, r2
 8009976:	9304      	str	r3, [sp, #16]
 8009978:	46a2      	mov	sl, r4
 800997a:	e7d2      	b.n	8009922 <_vfiprintf_r+0xe2>
 800997c:	9b03      	ldr	r3, [sp, #12]
 800997e:	1d19      	adds	r1, r3, #4
 8009980:	681b      	ldr	r3, [r3, #0]
 8009982:	9103      	str	r1, [sp, #12]
 8009984:	2b00      	cmp	r3, #0
 8009986:	bfbb      	ittet	lt
 8009988:	425b      	neglt	r3, r3
 800998a:	f042 0202 	orrlt.w	r2, r2, #2
 800998e:	9307      	strge	r3, [sp, #28]
 8009990:	9307      	strlt	r3, [sp, #28]
 8009992:	bfb8      	it	lt
 8009994:	9204      	strlt	r2, [sp, #16]
 8009996:	7823      	ldrb	r3, [r4, #0]
 8009998:	2b2e      	cmp	r3, #46	; 0x2e
 800999a:	d10c      	bne.n	80099b6 <_vfiprintf_r+0x176>
 800999c:	7863      	ldrb	r3, [r4, #1]
 800999e:	2b2a      	cmp	r3, #42	; 0x2a
 80099a0:	d135      	bne.n	8009a0e <_vfiprintf_r+0x1ce>
 80099a2:	9b03      	ldr	r3, [sp, #12]
 80099a4:	1d1a      	adds	r2, r3, #4
 80099a6:	681b      	ldr	r3, [r3, #0]
 80099a8:	9203      	str	r2, [sp, #12]
 80099aa:	2b00      	cmp	r3, #0
 80099ac:	bfb8      	it	lt
 80099ae:	f04f 33ff 	movlt.w	r3, #4294967295
 80099b2:	3402      	adds	r4, #2
 80099b4:	9305      	str	r3, [sp, #20]
 80099b6:	f8df a0e4 	ldr.w	sl, [pc, #228]	; 8009a9c <_vfiprintf_r+0x25c>
 80099ba:	7821      	ldrb	r1, [r4, #0]
 80099bc:	2203      	movs	r2, #3
 80099be:	4650      	mov	r0, sl
 80099c0:	f7f6 fc0e 	bl	80001e0 <memchr>
 80099c4:	b140      	cbz	r0, 80099d8 <_vfiprintf_r+0x198>
 80099c6:	2340      	movs	r3, #64	; 0x40
 80099c8:	eba0 000a 	sub.w	r0, r0, sl
 80099cc:	fa03 f000 	lsl.w	r0, r3, r0
 80099d0:	9b04      	ldr	r3, [sp, #16]
 80099d2:	4303      	orrs	r3, r0
 80099d4:	3401      	adds	r4, #1
 80099d6:	9304      	str	r3, [sp, #16]
 80099d8:	f814 1b01 	ldrb.w	r1, [r4], #1
 80099dc:	482c      	ldr	r0, [pc, #176]	; (8009a90 <_vfiprintf_r+0x250>)
 80099de:	f88d 1028 	strb.w	r1, [sp, #40]	; 0x28
 80099e2:	2206      	movs	r2, #6
 80099e4:	f7f6 fbfc 	bl	80001e0 <memchr>
 80099e8:	2800      	cmp	r0, #0
 80099ea:	d03f      	beq.n	8009a6c <_vfiprintf_r+0x22c>
 80099ec:	4b29      	ldr	r3, [pc, #164]	; (8009a94 <_vfiprintf_r+0x254>)
 80099ee:	bb1b      	cbnz	r3, 8009a38 <_vfiprintf_r+0x1f8>
 80099f0:	9b03      	ldr	r3, [sp, #12]
 80099f2:	3307      	adds	r3, #7
 80099f4:	f023 0307 	bic.w	r3, r3, #7
 80099f8:	3308      	adds	r3, #8
 80099fa:	9303      	str	r3, [sp, #12]
 80099fc:	9b09      	ldr	r3, [sp, #36]	; 0x24
 80099fe:	443b      	add	r3, r7
 8009a00:	9309      	str	r3, [sp, #36]	; 0x24
 8009a02:	e767      	b.n	80098d4 <_vfiprintf_r+0x94>
 8009a04:	fb0c 3202 	mla	r2, ip, r2, r3
 8009a08:	460c      	mov	r4, r1
 8009a0a:	2001      	movs	r0, #1
 8009a0c:	e7a5      	b.n	800995a <_vfiprintf_r+0x11a>
 8009a0e:	2300      	movs	r3, #0
 8009a10:	3401      	adds	r4, #1
 8009a12:	9305      	str	r3, [sp, #20]
 8009a14:	4619      	mov	r1, r3
 8009a16:	f04f 0c0a 	mov.w	ip, #10
 8009a1a:	4620      	mov	r0, r4
 8009a1c:	f810 2b01 	ldrb.w	r2, [r0], #1
 8009a20:	3a30      	subs	r2, #48	; 0x30
 8009a22:	2a09      	cmp	r2, #9
 8009a24:	d903      	bls.n	8009a2e <_vfiprintf_r+0x1ee>
 8009a26:	2b00      	cmp	r3, #0
 8009a28:	d0c5      	beq.n	80099b6 <_vfiprintf_r+0x176>
 8009a2a:	9105      	str	r1, [sp, #20]
 8009a2c:	e7c3      	b.n	80099b6 <_vfiprintf_r+0x176>
 8009a2e:	fb0c 2101 	mla	r1, ip, r1, r2
 8009a32:	4604      	mov	r4, r0
 8009a34:	2301      	movs	r3, #1
 8009a36:	e7f0      	b.n	8009a1a <_vfiprintf_r+0x1da>
 8009a38:	ab03      	add	r3, sp, #12
 8009a3a:	9300      	str	r3, [sp, #0]
 8009a3c:	462a      	mov	r2, r5
 8009a3e:	4b16      	ldr	r3, [pc, #88]	; (8009a98 <_vfiprintf_r+0x258>)
 8009a40:	a904      	add	r1, sp, #16
 8009a42:	4630      	mov	r0, r6
 8009a44:	f7fd fc8c 	bl	8007360 <_printf_float>
 8009a48:	4607      	mov	r7, r0
 8009a4a:	1c78      	adds	r0, r7, #1
 8009a4c:	d1d6      	bne.n	80099fc <_vfiprintf_r+0x1bc>
 8009a4e:	6e6b      	ldr	r3, [r5, #100]	; 0x64
 8009a50:	07d9      	lsls	r1, r3, #31
 8009a52:	d405      	bmi.n	8009a60 <_vfiprintf_r+0x220>
 8009a54:	89ab      	ldrh	r3, [r5, #12]
 8009a56:	059a      	lsls	r2, r3, #22
 8009a58:	d402      	bmi.n	8009a60 <_vfiprintf_r+0x220>
 8009a5a:	6da8      	ldr	r0, [r5, #88]	; 0x58
 8009a5c:	f7ff f9d0 	bl	8008e00 <__retarget_lock_release_recursive>
 8009a60:	89ab      	ldrh	r3, [r5, #12]
 8009a62:	065b      	lsls	r3, r3, #25
 8009a64:	f53f af12 	bmi.w	800988c <_vfiprintf_r+0x4c>
 8009a68:	9809      	ldr	r0, [sp, #36]	; 0x24
 8009a6a:	e711      	b.n	8009890 <_vfiprintf_r+0x50>
 8009a6c:	ab03      	add	r3, sp, #12
 8009a6e:	9300      	str	r3, [sp, #0]
 8009a70:	462a      	mov	r2, r5
 8009a72:	4b09      	ldr	r3, [pc, #36]	; (8009a98 <_vfiprintf_r+0x258>)
 8009a74:	a904      	add	r1, sp, #16
 8009a76:	4630      	mov	r0, r6
 8009a78:	f7fd ff16 	bl	80078a8 <_printf_i>
 8009a7c:	e7e4      	b.n	8009a48 <_vfiprintf_r+0x208>
 8009a7e:	bf00      	nop
 8009a80:	0800a148 	.word	0x0800a148
 8009a84:	0800a168 	.word	0x0800a168
 8009a88:	0800a128 	.word	0x0800a128
 8009a8c:	0800a2e4 	.word	0x0800a2e4
 8009a90:	0800a2ee 	.word	0x0800a2ee
 8009a94:	08007361 	.word	0x08007361
 8009a98:	0800981b 	.word	0x0800981b
 8009a9c:	0800a2ea 	.word	0x0800a2ea

08009aa0 <_sbrk_r>:
 8009aa0:	b538      	push	{r3, r4, r5, lr}
 8009aa2:	4d06      	ldr	r5, [pc, #24]	; (8009abc <_sbrk_r+0x1c>)
 8009aa4:	2300      	movs	r3, #0
 8009aa6:	4604      	mov	r4, r0
 8009aa8:	4608      	mov	r0, r1
 8009aaa:	602b      	str	r3, [r5, #0]
 8009aac:	f7f8 fa1e 	bl	8001eec <_sbrk>
 8009ab0:	1c43      	adds	r3, r0, #1
 8009ab2:	d102      	bne.n	8009aba <_sbrk_r+0x1a>
 8009ab4:	682b      	ldr	r3, [r5, #0]
 8009ab6:	b103      	cbz	r3, 8009aba <_sbrk_r+0x1a>
 8009ab8:	6023      	str	r3, [r4, #0]
 8009aba:	bd38      	pop	{r3, r4, r5, pc}
 8009abc:	200015a0 	.word	0x200015a0

08009ac0 <__sread>:
 8009ac0:	b510      	push	{r4, lr}
 8009ac2:	460c      	mov	r4, r1
 8009ac4:	f9b1 100e 	ldrsh.w	r1, [r1, #14]
 8009ac8:	f000 f8e2 	bl	8009c90 <_read_r>
 8009acc:	2800      	cmp	r0, #0
 8009ace:	bfab      	itete	ge
 8009ad0:	6d63      	ldrge	r3, [r4, #84]	; 0x54
 8009ad2:	89a3      	ldrhlt	r3, [r4, #12]
 8009ad4:	181b      	addge	r3, r3, r0
 8009ad6:	f423 5380 	biclt.w	r3, r3, #4096	; 0x1000
 8009ada:	bfac      	ite	ge
 8009adc:	6563      	strge	r3, [r4, #84]	; 0x54
 8009ade:	81a3      	strhlt	r3, [r4, #12]
 8009ae0:	bd10      	pop	{r4, pc}

08009ae2 <__swrite>:
 8009ae2:	e92d 41f0 	stmdb	sp!, {r4, r5, r6, r7, r8, lr}
 8009ae6:	461f      	mov	r7, r3
 8009ae8:	898b      	ldrh	r3, [r1, #12]
 8009aea:	05db      	lsls	r3, r3, #23
 8009aec:	4605      	mov	r5, r0
 8009aee:	460c      	mov	r4, r1
 8009af0:	4616      	mov	r6, r2
 8009af2:	d505      	bpl.n	8009b00 <__swrite+0x1e>
 8009af4:	f9b1 100e 	ldrsh.w	r1, [r1, #14]
 8009af8:	2302      	movs	r3, #2
 8009afa:	2200      	movs	r2, #0
 8009afc:	f000 f898 	bl	8009c30 <_lseek_r>
 8009b00:	89a3      	ldrh	r3, [r4, #12]
 8009b02:	f9b4 100e 	ldrsh.w	r1, [r4, #14]
 8009b06:	f423 5380 	bic.w	r3, r3, #4096	; 0x1000
 8009b0a:	81a3      	strh	r3, [r4, #12]
 8009b0c:	4632      	mov	r2, r6
 8009b0e:	463b      	mov	r3, r7
 8009b10:	4628      	mov	r0, r5
 8009b12:	e8bd 41f0 	ldmia.w	sp!, {r4, r5, r6, r7, r8, lr}
 8009b16:	f000 b817 	b.w	8009b48 <_write_r>

08009b1a <__sseek>:
 8009b1a:	b510      	push	{r4, lr}
 8009b1c:	460c      	mov	r4, r1
 8009b1e:	f9b1 100e 	ldrsh.w	r1, [r1, #14]
 8009b22:	f000 f885 	bl	8009c30 <_lseek_r>
 8009b26:	1c43      	adds	r3, r0, #1
 8009b28:	89a3      	ldrh	r3, [r4, #12]
 8009b2a:	bf15      	itete	ne
 8009b2c:	6560      	strne	r0, [r4, #84]	; 0x54
 8009b2e:	f423 5380 	biceq.w	r3, r3, #4096	; 0x1000
 8009b32:	f443 5380 	orrne.w	r3, r3, #4096	; 0x1000
 8009b36:	81a3      	strheq	r3, [r4, #12]
 8009b38:	bf18      	it	ne
 8009b3a:	81a3      	strhne	r3, [r4, #12]
 8009b3c:	bd10      	pop	{r4, pc}

08009b3e <__sclose>:
 8009b3e:	f9b1 100e 	ldrsh.w	r1, [r1, #14]
 8009b42:	f000 b831 	b.w	8009ba8 <_close_r>
	...

08009b48 <_write_r>:
 8009b48:	b538      	push	{r3, r4, r5, lr}
 8009b4a:	4d07      	ldr	r5, [pc, #28]	; (8009b68 <_write_r+0x20>)
 8009b4c:	4604      	mov	r4, r0
 8009b4e:	4608      	mov	r0, r1
 8009b50:	4611      	mov	r1, r2
 8009b52:	2200      	movs	r2, #0
 8009b54:	602a      	str	r2, [r5, #0]
 8009b56:	461a      	mov	r2, r3
 8009b58:	f7f8 f9ac 	bl	8001eb4 <_write>
 8009b5c:	1c43      	adds	r3, r0, #1
 8009b5e:	d102      	bne.n	8009b66 <_write_r+0x1e>
 8009b60:	682b      	ldr	r3, [r5, #0]
 8009b62:	b103      	cbz	r3, 8009b66 <_write_r+0x1e>
 8009b64:	6023      	str	r3, [r4, #0]
 8009b66:	bd38      	pop	{r3, r4, r5, pc}
 8009b68:	200015a0 	.word	0x200015a0

08009b6c <__assert_func>:
 8009b6c:	b51f      	push	{r0, r1, r2, r3, r4, lr}
 8009b6e:	4614      	mov	r4, r2
 8009b70:	461a      	mov	r2, r3
 8009b72:	4b09      	ldr	r3, [pc, #36]	; (8009b98 <__assert_func+0x2c>)
 8009b74:	681b      	ldr	r3, [r3, #0]
 8009b76:	4605      	mov	r5, r0
 8009b78:	68d8      	ldr	r0, [r3, #12]
 8009b7a:	b14c      	cbz	r4, 8009b90 <__assert_func+0x24>
 8009b7c:	4b07      	ldr	r3, [pc, #28]	; (8009b9c <__assert_func+0x30>)
 8009b7e:	9100      	str	r1, [sp, #0]
 8009b80:	e9cd 3401 	strd	r3, r4, [sp, #4]
 8009b84:	4906      	ldr	r1, [pc, #24]	; (8009ba0 <__assert_func+0x34>)
 8009b86:	462b      	mov	r3, r5
 8009b88:	f000 f81e 	bl	8009bc8 <fiprintf>
 8009b8c:	f000 f89f 	bl	8009cce <abort>
 8009b90:	4b04      	ldr	r3, [pc, #16]	; (8009ba4 <__assert_func+0x38>)
 8009b92:	461c      	mov	r4, r3
 8009b94:	e7f3      	b.n	8009b7e <__assert_func+0x12>
 8009b96:	bf00      	nop
 8009b98:	2000000c 	.word	0x2000000c
 8009b9c:	0800a2f5 	.word	0x0800a2f5
 8009ba0:	0800a302 	.word	0x0800a302
 8009ba4:	0800a330 	.word	0x0800a330

08009ba8 <_close_r>:
 8009ba8:	b538      	push	{r3, r4, r5, lr}
 8009baa:	4d06      	ldr	r5, [pc, #24]	; (8009bc4 <_close_r+0x1c>)
 8009bac:	2300      	movs	r3, #0
 8009bae:	4604      	mov	r4, r0
 8009bb0:	4608      	mov	r0, r1
 8009bb2:	602b      	str	r3, [r5, #0]
 8009bb4:	f7f8 f98c 	bl	8001ed0 <_close>
 8009bb8:	1c43      	adds	r3, r0, #1
 8009bba:	d102      	bne.n	8009bc2 <_close_r+0x1a>
 8009bbc:	682b      	ldr	r3, [r5, #0]
 8009bbe:	b103      	cbz	r3, 8009bc2 <_close_r+0x1a>
 8009bc0:	6023      	str	r3, [r4, #0]
 8009bc2:	bd38      	pop	{r3, r4, r5, pc}
 8009bc4:	200015a0 	.word	0x200015a0

08009bc8 <fiprintf>:
 8009bc8:	b40e      	push	{r1, r2, r3}
 8009bca:	b503      	push	{r0, r1, lr}
 8009bcc:	4601      	mov	r1, r0
 8009bce:	ab03      	add	r3, sp, #12
 8009bd0:	4805      	ldr	r0, [pc, #20]	; (8009be8 <fiprintf+0x20>)
 8009bd2:	f853 2b04 	ldr.w	r2, [r3], #4
 8009bd6:	6800      	ldr	r0, [r0, #0]
 8009bd8:	9301      	str	r3, [sp, #4]
 8009bda:	f7ff fe31 	bl	8009840 <_vfiprintf_r>
 8009bde:	b002      	add	sp, #8
 8009be0:	f85d eb04 	ldr.w	lr, [sp], #4
 8009be4:	b003      	add	sp, #12
 8009be6:	4770      	bx	lr
 8009be8:	2000000c 	.word	0x2000000c

08009bec <_fstat_r>:
 8009bec:	b538      	push	{r3, r4, r5, lr}
 8009bee:	4d07      	ldr	r5, [pc, #28]	; (8009c0c <_fstat_r+0x20>)
 8009bf0:	2300      	movs	r3, #0
 8009bf2:	4604      	mov	r4, r0
 8009bf4:	4608      	mov	r0, r1
 8009bf6:	4611      	mov	r1, r2
 8009bf8:	602b      	str	r3, [r5, #0]
 8009bfa:	f7f8 f96d 	bl	8001ed8 <_fstat>
 8009bfe:	1c43      	adds	r3, r0, #1
 8009c00:	d102      	bne.n	8009c08 <_fstat_r+0x1c>
 8009c02:	682b      	ldr	r3, [r5, #0]
 8009c04:	b103      	cbz	r3, 8009c08 <_fstat_r+0x1c>
 8009c06:	6023      	str	r3, [r4, #0]
 8009c08:	bd38      	pop	{r3, r4, r5, pc}
 8009c0a:	bf00      	nop
 8009c0c:	200015a0 	.word	0x200015a0

08009c10 <_isatty_r>:
 8009c10:	b538      	push	{r3, r4, r5, lr}
 8009c12:	4d06      	ldr	r5, [pc, #24]	; (8009c2c <_isatty_r+0x1c>)
 8009c14:	2300      	movs	r3, #0
 8009c16:	4604      	mov	r4, r0
 8009c18:	4608      	mov	r0, r1
 8009c1a:	602b      	str	r3, [r5, #0]
 8009c1c:	f7f8 f962 	bl	8001ee4 <_isatty>
 8009c20:	1c43      	adds	r3, r0, #1
 8009c22:	d102      	bne.n	8009c2a <_isatty_r+0x1a>
 8009c24:	682b      	ldr	r3, [r5, #0]
 8009c26:	b103      	cbz	r3, 8009c2a <_isatty_r+0x1a>
 8009c28:	6023      	str	r3, [r4, #0]
 8009c2a:	bd38      	pop	{r3, r4, r5, pc}
 8009c2c:	200015a0 	.word	0x200015a0

08009c30 <_lseek_r>:
 8009c30:	b538      	push	{r3, r4, r5, lr}
 8009c32:	4d07      	ldr	r5, [pc, #28]	; (8009c50 <_lseek_r+0x20>)
 8009c34:	4604      	mov	r4, r0
 8009c36:	4608      	mov	r0, r1
 8009c38:	4611      	mov	r1, r2
 8009c3a:	2200      	movs	r2, #0
 8009c3c:	602a      	str	r2, [r5, #0]
 8009c3e:	461a      	mov	r2, r3
 8009c40:	f7f8 f952 	bl	8001ee8 <_lseek>
 8009c44:	1c43      	adds	r3, r0, #1
 8009c46:	d102      	bne.n	8009c4e <_lseek_r+0x1e>
 8009c48:	682b      	ldr	r3, [r5, #0]
 8009c4a:	b103      	cbz	r3, 8009c4e <_lseek_r+0x1e>
 8009c4c:	6023      	str	r3, [r4, #0]
 8009c4e:	bd38      	pop	{r3, r4, r5, pc}
 8009c50:	200015a0 	.word	0x200015a0

08009c54 <__ascii_mbtowc>:
 8009c54:	b082      	sub	sp, #8
 8009c56:	b901      	cbnz	r1, 8009c5a <__ascii_mbtowc+0x6>
 8009c58:	a901      	add	r1, sp, #4
 8009c5a:	b142      	cbz	r2, 8009c6e <__ascii_mbtowc+0x1a>
 8009c5c:	b14b      	cbz	r3, 8009c72 <__ascii_mbtowc+0x1e>
 8009c5e:	7813      	ldrb	r3, [r2, #0]
 8009c60:	600b      	str	r3, [r1, #0]
 8009c62:	7812      	ldrb	r2, [r2, #0]
 8009c64:	1e10      	subs	r0, r2, #0
 8009c66:	bf18      	it	ne
 8009c68:	2001      	movne	r0, #1
 8009c6a:	b002      	add	sp, #8
 8009c6c:	4770      	bx	lr
 8009c6e:	4610      	mov	r0, r2
 8009c70:	e7fb      	b.n	8009c6a <__ascii_mbtowc+0x16>
 8009c72:	f06f 0001 	mvn.w	r0, #1
 8009c76:	e7f8      	b.n	8009c6a <__ascii_mbtowc+0x16>

08009c78 <__malloc_lock>:
 8009c78:	4801      	ldr	r0, [pc, #4]	; (8009c80 <__malloc_lock+0x8>)
 8009c7a:	f7ff b8c0 	b.w	8008dfe <__retarget_lock_acquire_recursive>
 8009c7e:	bf00      	nop
 8009c80:	20001594 	.word	0x20001594

08009c84 <__malloc_unlock>:
 8009c84:	4801      	ldr	r0, [pc, #4]	; (8009c8c <__malloc_unlock+0x8>)
 8009c86:	f7ff b8bb 	b.w	8008e00 <__retarget_lock_release_recursive>
 8009c8a:	bf00      	nop
 8009c8c:	20001594 	.word	0x20001594

08009c90 <_read_r>:
 8009c90:	b538      	push	{r3, r4, r5, lr}
 8009c92:	4d07      	ldr	r5, [pc, #28]	; (8009cb0 <_read_r+0x20>)
 8009c94:	4604      	mov	r4, r0
 8009c96:	4608      	mov	r0, r1
 8009c98:	4611      	mov	r1, r2
 8009c9a:	2200      	movs	r2, #0
 8009c9c:	602a      	str	r2, [r5, #0]
 8009c9e:	461a      	mov	r2, r3
 8009ca0:	f7f8 f8fa 	bl	8001e98 <_read>
 8009ca4:	1c43      	adds	r3, r0, #1
 8009ca6:	d102      	bne.n	8009cae <_read_r+0x1e>
 8009ca8:	682b      	ldr	r3, [r5, #0]
 8009caa:	b103      	cbz	r3, 8009cae <_read_r+0x1e>
 8009cac:	6023      	str	r3, [r4, #0]
 8009cae:	bd38      	pop	{r3, r4, r5, pc}
 8009cb0:	200015a0 	.word	0x200015a0

08009cb4 <__ascii_wctomb>:
 8009cb4:	b149      	cbz	r1, 8009cca <__ascii_wctomb+0x16>
 8009cb6:	2aff      	cmp	r2, #255	; 0xff
 8009cb8:	bf85      	ittet	hi
 8009cba:	238a      	movhi	r3, #138	; 0x8a
 8009cbc:	6003      	strhi	r3, [r0, #0]
 8009cbe:	700a      	strbls	r2, [r1, #0]
 8009cc0:	f04f 30ff 	movhi.w	r0, #4294967295
 8009cc4:	bf98      	it	ls
 8009cc6:	2001      	movls	r0, #1
 8009cc8:	4770      	bx	lr
 8009cca:	4608      	mov	r0, r1
 8009ccc:	4770      	bx	lr

08009cce <abort>:
 8009cce:	b508      	push	{r3, lr}
 8009cd0:	2006      	movs	r0, #6
 8009cd2:	f000 f82b 	bl	8009d2c <raise>
 8009cd6:	2001      	movs	r0, #1
 8009cd8:	f7f8 f8d8 	bl	8001e8c <_exit>

08009cdc <_raise_r>:
 8009cdc:	291f      	cmp	r1, #31
 8009cde:	b538      	push	{r3, r4, r5, lr}
 8009ce0:	4604      	mov	r4, r0
 8009ce2:	460d      	mov	r5, r1
 8009ce4:	d904      	bls.n	8009cf0 <_raise_r+0x14>
 8009ce6:	2316      	movs	r3, #22
 8009ce8:	6003      	str	r3, [r0, #0]
 8009cea:	f04f 30ff 	mov.w	r0, #4294967295
 8009cee:	bd38      	pop	{r3, r4, r5, pc}
 8009cf0:	6c42      	ldr	r2, [r0, #68]	; 0x44
 8009cf2:	b112      	cbz	r2, 8009cfa <_raise_r+0x1e>
 8009cf4:	f852 3021 	ldr.w	r3, [r2, r1, lsl #2]
 8009cf8:	b94b      	cbnz	r3, 8009d0e <_raise_r+0x32>
 8009cfa:	4620      	mov	r0, r4
 8009cfc:	f000 f830 	bl	8009d60 <_getpid_r>
 8009d00:	462a      	mov	r2, r5
 8009d02:	4601      	mov	r1, r0
 8009d04:	4620      	mov	r0, r4
 8009d06:	e8bd 4038 	ldmia.w	sp!, {r3, r4, r5, lr}
 8009d0a:	f000 b817 	b.w	8009d3c <_kill_r>
 8009d0e:	2b01      	cmp	r3, #1
 8009d10:	d00a      	beq.n	8009d28 <_raise_r+0x4c>
 8009d12:	1c59      	adds	r1, r3, #1
 8009d14:	d103      	bne.n	8009d1e <_raise_r+0x42>
 8009d16:	2316      	movs	r3, #22
 8009d18:	6003      	str	r3, [r0, #0]
 8009d1a:	2001      	movs	r0, #1
 8009d1c:	e7e7      	b.n	8009cee <_raise_r+0x12>
 8009d1e:	2400      	movs	r4, #0
 8009d20:	f842 4025 	str.w	r4, [r2, r5, lsl #2]
 8009d24:	4628      	mov	r0, r5
 8009d26:	4798      	blx	r3
 8009d28:	2000      	movs	r0, #0
 8009d2a:	e7e0      	b.n	8009cee <_raise_r+0x12>

08009d2c <raise>:
 8009d2c:	4b02      	ldr	r3, [pc, #8]	; (8009d38 <raise+0xc>)
 8009d2e:	4601      	mov	r1, r0
 8009d30:	6818      	ldr	r0, [r3, #0]
 8009d32:	f7ff bfd3 	b.w	8009cdc <_raise_r>
 8009d36:	bf00      	nop
 8009d38:	2000000c 	.word	0x2000000c

08009d3c <_kill_r>:
 8009d3c:	b538      	push	{r3, r4, r5, lr}
 8009d3e:	4d07      	ldr	r5, [pc, #28]	; (8009d5c <_kill_r+0x20>)
 8009d40:	2300      	movs	r3, #0
 8009d42:	4604      	mov	r4, r0
 8009d44:	4608      	mov	r0, r1
 8009d46:	4611      	mov	r1, r2
 8009d48:	602b      	str	r3, [r5, #0]
 8009d4a:	f7f8 f897 	bl	8001e7c <_kill>
 8009d4e:	1c43      	adds	r3, r0, #1
 8009d50:	d102      	bne.n	8009d58 <_kill_r+0x1c>
 8009d52:	682b      	ldr	r3, [r5, #0]
 8009d54:	b103      	cbz	r3, 8009d58 <_kill_r+0x1c>
 8009d56:	6023      	str	r3, [r4, #0]
 8009d58:	bd38      	pop	{r3, r4, r5, pc}
 8009d5a:	bf00      	nop
 8009d5c:	200015a0 	.word	0x200015a0

08009d60 <_getpid_r>:
 8009d60:	f7f8 b88a 	b.w	8001e78 <_getpid>

08009d64 <_init>:
 8009d64:	b5f8      	push	{r3, r4, r5, r6, r7, lr}
 8009d66:	bf00      	nop
 8009d68:	bcf8      	pop	{r3, r4, r5, r6, r7}
 8009d6a:	bc08      	pop	{r3}
 8009d6c:	469e      	mov	lr, r3
 8009d6e:	4770      	bx	lr

08009d70 <_fini>:
 8009d70:	b5f8      	push	{r3, r4, r5, r6, r7, lr}
 8009d72:	bf00      	nop
 8009d74:	bcf8      	pop	{r3, r4, r5, r6, r7}
 8009d76:	bc08      	pop	{r3}
 8009d78:	469e      	mov	lr, r3
 8009d7a:	4770      	bx	lr
