
F303_voltage_driver.elf:     file format elf32-littlearm

Sections:
Idx Name          Size      VMA       LMA       File off  Algn
  0 .isr_vector   00000188  08000000  08000000  00010000  2**0
                  CONTENTS, ALLOC, LOAD, READONLY, DATA
  1 .text         0000b4bc  08000190  08000190  00010190  2**4
                  CONTENTS, ALLOC, LOAD, READONLY, CODE
  2 .rodata       000006ec  0800b650  0800b650  0001b650  2**3
                  CONTENTS, ALLOC, LOAD, READONLY, DATA
  3 .ARM.extab    00000000  0800bd3c  0800bd3c  000201e4  2**0
                  CONTENTS
  4 .ARM          00000000  0800bd3c  0800bd3c  000201e4  2**0
                  CONTENTS
  5 .preinit_array 00000000  0800bd3c  0800bd3c  000201e4  2**0
                  CONTENTS, ALLOC, LOAD, DATA
  6 .init_array   00000004  0800bd3c  0800bd3c  0001bd3c  2**2
                  CONTENTS, ALLOC, LOAD, DATA
  7 .fini_array   00000004  0800bd40  0800bd40  0001bd40  2**2
                  CONTENTS, ALLOC, LOAD, DATA
  8 .data         000001e4  20000000  0800bd44  00020000  2**2
                  CONTENTS, ALLOC, LOAD, DATA
  9 .ccmram       00000000  10000000  10000000  000201e4  2**0
                  CONTENTS
 10 .bss          000013e8  200001e8  200001e8  000201e8  2**3
                  ALLOC
 11 ._user_heap_stack 00000600  200015d0  200015d0  000201e8  2**0
                  ALLOC
 12 .ARM.attributes 00000030  00000000  00000000  000201e4  2**0
                  CONTENTS, READONLY
 13 .comment      00000050  00000000  00000000  00020214  2**0
                  CONTENTS, READONLY
 14 .debug_frame  000018c0  00000000  00000000  00020264  2**2
                  CONTENTS, READONLY, DEBUGGING, OCTETS

Disassembly of section .text:

08000190 <__do_global_dtors_aux>:
 8000190:	b510      	push	{r4, lr}
 8000192:	4c05      	ldr	r4, [pc, #20]	; (80001a8 <__do_global_dtors_aux+0x18>)
 8000194:	7823      	ldrb	r3, [r4, #0]
 8000196:	b933      	cbnz	r3, 80001a6 <__do_global_dtors_aux+0x16>
 8000198:	4b04      	ldr	r3, [pc, #16]	; (80001ac <__do_global_dtors_aux+0x1c>)
 800019a:	b113      	cbz	r3, 80001a2 <__do_global_dtors_aux+0x12>
 800019c:	4804      	ldr	r0, [pc, #16]	; (80001b0 <__do_global_dtors_aux+0x20>)
 800019e:	f3af 8000 	nop.w
 80001a2:	2301      	movs	r3, #1
 80001a4:	7023      	strb	r3, [r4, #0]
 80001a6:	bd10      	pop	{r4, pc}
 80001a8:	200001e8 	.word	0x200001e8
 80001ac:	00000000 	.word	0x00000000
 80001b0:	0800b634 	.word	0x0800b634

080001b4 <frame_dummy>:
 80001b4:	b508      	push	{r3, lr}
 80001b6:	4b03      	ldr	r3, [pc, #12]	; (80001c4 <frame_dummy+0x10>)
 80001b8:	b11b      	cbz	r3, 80001c2 <frame_dummy+0xe>
 80001ba:	4903      	ldr	r1, [pc, #12]	; (80001c8 <frame_dummy+0x14>)
 80001bc:	4803      	ldr	r0, [pc, #12]	; (80001cc <frame_dummy+0x18>)
 80001be:	f3af 8000 	nop.w
 80001c2:	bd08      	pop	{r3, pc}
 80001c4:	00000000 	.word	0x00000000
 80001c8:	200001ec 	.word	0x200001ec
 80001cc:	0800b634 	.word	0x0800b634

080001d0 <strlen>:
 80001d0:	4603      	mov	r3, r0
 80001d2:	f813 2b01 	ldrb.w	r2, [r3], #1
 80001d6:	2a00      	cmp	r2, #0
 80001d8:	d1fb      	bne.n	80001d2 <strlen+0x2>
 80001da:	1a18      	subs	r0, r3, r0
 80001dc:	3801      	subs	r0, #1
 80001de:	4770      	bx	lr

080001e0 <memchr>:
 80001e0:	f001 01ff 	and.w	r1, r1, #255	; 0xff
 80001e4:	2a10      	cmp	r2, #16
 80001e6:	db2b      	blt.n	8000240 <memchr+0x60>
 80001e8:	f010 0f07 	tst.w	r0, #7
 80001ec:	d008      	beq.n	8000200 <memchr+0x20>
 80001ee:	f810 3b01 	ldrb.w	r3, [r0], #1
 80001f2:	3a01      	subs	r2, #1
 80001f4:	428b      	cmp	r3, r1
 80001f6:	d02d      	beq.n	8000254 <memchr+0x74>
 80001f8:	f010 0f07 	tst.w	r0, #7
 80001fc:	b342      	cbz	r2, 8000250 <memchr+0x70>
 80001fe:	d1f6      	bne.n	80001ee <memchr+0xe>
 8000200:	b4f0      	push	{r4, r5, r6, r7}
 8000202:	ea41 2101 	orr.w	r1, r1, r1, lsl #8
 8000206:	ea41 4101 	orr.w	r1, r1, r1, lsl #16
 800020a:	f022 0407 	bic.w	r4, r2, #7
 800020e:	f07f 0700 	mvns.w	r7, #0
 8000212:	2300      	movs	r3, #0
 8000214:	e8f0 5602 	ldrd	r5, r6, [r0], #8
 8000218:	3c08      	subs	r4, #8
 800021a:	ea85 0501 	eor.w	r5, r5, r1
 800021e:	ea86 0601 	eor.w	r6, r6, r1
 8000222:	fa85 f547 	uadd8	r5, r5, r7
 8000226:	faa3 f587 	sel	r5, r3, r7
 800022a:	fa86 f647 	uadd8	r6, r6, r7
 800022e:	faa5 f687 	sel	r6, r5, r7
 8000232:	b98e      	cbnz	r6, 8000258 <memchr+0x78>
 8000234:	d1ee      	bne.n	8000214 <memchr+0x34>
 8000236:	bcf0      	pop	{r4, r5, r6, r7}
 8000238:	f001 01ff 	and.w	r1, r1, #255	; 0xff
 800023c:	f002 0207 	and.w	r2, r2, #7
 8000240:	b132      	cbz	r2, 8000250 <memchr+0x70>
 8000242:	f810 3b01 	ldrb.w	r3, [r0], #1
 8000246:	3a01      	subs	r2, #1
 8000248:	ea83 0301 	eor.w	r3, r3, r1
 800024c:	b113      	cbz	r3, 8000254 <memchr+0x74>
 800024e:	d1f8      	bne.n	8000242 <memchr+0x62>
 8000250:	2000      	movs	r0, #0
 8000252:	4770      	bx	lr
 8000254:	3801      	subs	r0, #1
 8000256:	4770      	bx	lr
 8000258:	2d00      	cmp	r5, #0
 800025a:	bf06      	itte	eq
 800025c:	4635      	moveq	r5, r6
 800025e:	3803      	subeq	r0, #3
 8000260:	3807      	subne	r0, #7
 8000262:	f015 0f01 	tst.w	r5, #1
 8000266:	d107      	bne.n	8000278 <memchr+0x98>
 8000268:	3001      	adds	r0, #1
 800026a:	f415 7f80 	tst.w	r5, #256	; 0x100
 800026e:	bf02      	ittt	eq
 8000270:	3001      	addeq	r0, #1
 8000272:	f415 3fc0 	tsteq.w	r5, #98304	; 0x18000
 8000276:	3001      	addeq	r0, #1
 8000278:	bcf0      	pop	{r4, r5, r6, r7}
 800027a:	3801      	subs	r0, #1
 800027c:	4770      	bx	lr
 800027e:	bf00      	nop

08000280 <__aeabi_drsub>:
 8000280:	f081 4100 	eor.w	r1, r1, #2147483648	; 0x80000000
 8000284:	e002      	b.n	800028c <__adddf3>
 8000286:	bf00      	nop

08000288 <__aeabi_dsub>:
 8000288:	f083 4300 	eor.w	r3, r3, #2147483648	; 0x80000000

0800028c <__adddf3>:
 800028c:	b530      	push	{r4, r5, lr}
 800028e:	ea4f 0441 	mov.w	r4, r1, lsl #1
 8000292:	ea4f 0543 	mov.w	r5, r3, lsl #1
 8000296:	ea94 0f05 	teq	r4, r5
 800029a:	bf08      	it	eq
 800029c:	ea90 0f02 	teqeq	r0, r2
 80002a0:	bf1f      	itttt	ne
 80002a2:	ea54 0c00 	orrsne.w	ip, r4, r0
 80002a6:	ea55 0c02 	orrsne.w	ip, r5, r2
 80002aa:	ea7f 5c64 	mvnsne.w	ip, r4, asr #21
 80002ae:	ea7f 5c65 	mvnsne.w	ip, r5, asr #21
 80002b2:	f000 80e2 	beq.w	800047a <__adddf3+0x1ee>
 80002b6:	ea4f 5454 	mov.w	r4, r4, lsr #21
 80002ba:	ebd4 5555 	rsbs	r5, r4, r5, lsr #21
 80002be:	bfb8      	it	lt
 80002c0:	426d      	neglt	r5, r5
 80002c2:	dd0c      	ble.n	80002de <__adddf3+0x52>
 80002c4:	442c      	add	r4, r5
 80002c6:	ea80 0202 	eor.w	r2, r0, r2
 80002ca:	ea81 0303 	eor.w	r3, r1, r3
 80002ce:	ea82 0000 	eor.w	r0, r2, r0
 80002d2:	ea83 0101 	eor.w	r1, r3, r1
 80002d6:	ea80 0202 	eor.w	r2, r0, r2
 80002da:	ea81 0303 	eor.w	r3, r1, r3
 80002de:	2d36      	cmp	r5, #54	; 0x36
 80002e0:	bf88      	it	hi
 80002e2:	bd30      	pophi	{r4, r5, pc}
 80002e4:	f011 4f00 	tst.w	r1, #2147483648	; 0x80000000
 80002e8:	ea4f 3101 	mov.w	r1, r1, lsl #12
 80002ec:	f44f 1c80 	mov.w	ip, #1048576	; 0x100000
 80002f0:	ea4c 3111 	orr.w	r1, ip, r1, lsr #12
 80002f4:	d002      	beq.n	80002fc <__adddf3+0x70>
 80002f6:	4240      	negs	r0, r0
 80002f8:	eb61 0141 	sbc.w	r1, r1, r1, lsl #1
 80002fc:	f013 4f00 	tst.w	r3, #2147483648	; 0x80000000
 8000300:	ea4f 3303 	mov.w	r3, r3, lsl #12
 8000304:	ea4c 3313 	orr.w	r3, ip, r3, lsr #12
 8000308:	d002      	beq.n	8000310 <__adddf3+0x84>
 800030a:	4252      	negs	r2, r2
 800030c:	eb63 0343 	sbc.w	r3, r3, r3, lsl #1
 8000310:	ea94 0f05 	teq	r4, r5
 8000314:	f000 80a7 	beq.w	8000466 <__adddf3+0x1da>
 8000318:	f1a4 0401 	sub.w	r4, r4, #1
 800031c:	f1d5 0e20 	rsbs	lr, r5, #32
 8000320:	db0d      	blt.n	800033e <__adddf3+0xb2>
 8000322:	fa02 fc0e 	lsl.w	ip, r2, lr
 8000326:	fa22 f205 	lsr.w	r2, r2, r5
 800032a:	1880      	adds	r0, r0, r2
 800032c:	f141 0100 	adc.w	r1, r1, #0
 8000330:	fa03 f20e 	lsl.w	r2, r3, lr
 8000334:	1880      	adds	r0, r0, r2
 8000336:	fa43 f305 	asr.w	r3, r3, r5
 800033a:	4159      	adcs	r1, r3
 800033c:	e00e      	b.n	800035c <__adddf3+0xd0>
 800033e:	f1a5 0520 	sub.w	r5, r5, #32
 8000342:	f10e 0e20 	add.w	lr, lr, #32
 8000346:	2a01      	cmp	r2, #1
 8000348:	fa03 fc0e 	lsl.w	ip, r3, lr
 800034c:	bf28      	it	cs
 800034e:	f04c 0c02 	orrcs.w	ip, ip, #2
 8000352:	fa43 f305 	asr.w	r3, r3, r5
 8000356:	18c0      	adds	r0, r0, r3
 8000358:	eb51 71e3 	adcs.w	r1, r1, r3, asr #31
 800035c:	f001 4500 	and.w	r5, r1, #2147483648	; 0x80000000
 8000360:	d507      	bpl.n	8000372 <__adddf3+0xe6>
 8000362:	f04f 0e00 	mov.w	lr, #0
 8000366:	f1dc 0c00 	rsbs	ip, ip, #0
 800036a:	eb7e 0000 	sbcs.w	r0, lr, r0
 800036e:	eb6e 0101 	sbc.w	r1, lr, r1
 8000372:	f5b1 1f80 	cmp.w	r1, #1048576	; 0x100000
 8000376:	d31b      	bcc.n	80003b0 <__adddf3+0x124>
 8000378:	f5b1 1f00 	cmp.w	r1, #2097152	; 0x200000
 800037c:	d30c      	bcc.n	8000398 <__adddf3+0x10c>
 800037e:	0849      	lsrs	r1, r1, #1
 8000380:	ea5f 0030 	movs.w	r0, r0, rrx
 8000384:	ea4f 0c3c 	mov.w	ip, ip, rrx
 8000388:	f104 0401 	add.w	r4, r4, #1
 800038c:	ea4f 5244 	mov.w	r2, r4, lsl #21
 8000390:	f512 0f80 	cmn.w	r2, #4194304	; 0x400000
 8000394:	f080 809a 	bcs.w	80004cc <__adddf3+0x240>
 8000398:	f1bc 4f00 	cmp.w	ip, #2147483648	; 0x80000000
 800039c:	bf08      	it	eq
 800039e:	ea5f 0c50 	movseq.w	ip, r0, lsr #1
 80003a2:	f150 0000 	adcs.w	r0, r0, #0
 80003a6:	eb41 5104 	adc.w	r1, r1, r4, lsl #20
 80003aa:	ea41 0105 	orr.w	r1, r1, r5
 80003ae:	bd30      	pop	{r4, r5, pc}
 80003b0:	ea5f 0c4c 	movs.w	ip, ip, lsl #1
 80003b4:	4140      	adcs	r0, r0
 80003b6:	eb41 0101 	adc.w	r1, r1, r1
 80003ba:	3c01      	subs	r4, #1
 80003bc:	bf28      	it	cs
 80003be:	f5b1 1f80 	cmpcs.w	r1, #1048576	; 0x100000
 80003c2:	d2e9      	bcs.n	8000398 <__adddf3+0x10c>
 80003c4:	f091 0f00 	teq	r1, #0
 80003c8:	bf04      	itt	eq
 80003ca:	4601      	moveq	r1, r0
 80003cc:	2000      	moveq	r0, #0
 80003ce:	fab1 f381 	clz	r3, r1
 80003d2:	bf08      	it	eq
 80003d4:	3320      	addeq	r3, #32
 80003d6:	f1a3 030b 	sub.w	r3, r3, #11
 80003da:	f1b3 0220 	subs.w	r2, r3, #32
 80003de:	da0c      	bge.n	80003fa <__adddf3+0x16e>
 80003e0:	320c      	adds	r2, #12
 80003e2:	dd08      	ble.n	80003f6 <__adddf3+0x16a>
 80003e4:	f102 0c14 	add.w	ip, r2, #20
 80003e8:	f1c2 020c 	rsb	r2, r2, #12
 80003ec:	fa01 f00c 	lsl.w	r0, r1, ip
 80003f0:	fa21 f102 	lsr.w	r1, r1, r2
 80003f4:	e00c      	b.n	8000410 <__adddf3+0x184>
 80003f6:	f102 0214 	add.w	r2, r2, #20
 80003fa:	bfd8      	it	le
 80003fc:	f1c2 0c20 	rsble	ip, r2, #32
 8000400:	fa01 f102 	lsl.w	r1, r1, r2
 8000404:	fa20 fc0c 	lsr.w	ip, r0, ip
 8000408:	bfdc      	itt	le
 800040a:	ea41 010c 	orrle.w	r1, r1, ip
 800040e:	4090      	lslle	r0, r2
 8000410:	1ae4      	subs	r4, r4, r3
 8000412:	bfa2      	ittt	ge
 8000414:	eb01 5104 	addge.w	r1, r1, r4, lsl #20
 8000418:	4329      	orrge	r1, r5
 800041a:	bd30      	popge	{r4, r5, pc}
 800041c:	ea6f 0404 	mvn.w	r4, r4
 8000420:	3c1f      	subs	r4, #31
 8000422:	da1c      	bge.n	800045e <__adddf3+0x1d2>
 8000424:	340c      	adds	r4, #12
 8000426:	dc0e      	bgt.n	8000446 <__adddf3+0x1ba>
 8000428:	f104 0414 	add.w	r4, r4, #20
 800042c:	f1c4 0220 	rsb	r2, r4, #32
 8000430:	fa20 f004 	lsr.w	r0, r0, r4
 8000434:	fa01 f302 	lsl.w	r3, r1, r2
 8000438:	ea40 0003 	orr.w	r0, r0, r3
 800043c:	fa21 f304 	lsr.w	r3, r1, r4
 8000440:	ea45 0103 	orr.w	r1, r5, r3
 8000444:	bd30      	pop	{r4, r5, pc}
 8000446:	f1c4 040c 	rsb	r4, r4, #12
 800044a:	f1c4 0220 	rsb	r2, r4, #32
 800044e:	fa20 f002 	lsr.w	r0, r0, r2
 8000452:	fa01 f304 	lsl.w	r3, r1, r4
 8000456:	ea40 0003 	orr.w	r0, r0, r3
 800045a:	4629      	mov	r1, r5
 800045c:	bd30      	pop	{r4, r5, pc}
 800045e:	fa21 f004 	lsr.w	r0, r1, r4
 8000462:	4629      	mov	r1, r5
 8000464:	bd30      	pop	{r4, r5, pc}
 8000466:	f094 0f00 	teq	r4, #0
 800046a:	f483 1380 	eor.w	r3, r3, #1048576	; 0x100000
 800046e:	bf06      	itte	eq
 8000470:	f481 1180 	eoreq.w	r1, r1, #1048576	; 0x100000
 8000474:	3401      	addeq	r4, #1
 8000476:	3d01      	subne	r5, #1
 8000478:	e74e      	b.n	8000318 <__adddf3+0x8c>
 800047a:	ea7f 5c64 	mvns.w	ip, r4, asr #21
 800047e:	bf18      	it	ne
 8000480:	ea7f 5c65 	mvnsne.w	ip, r5, asr #21
 8000484:	d029      	beq.n	80004da <__adddf3+0x24e>
 8000486:	ea94 0f05 	teq	r4, r5
 800048a:	bf08      	it	eq
 800048c:	ea90 0f02 	teqeq	r0, r2
 8000490:	d005      	beq.n	800049e <__adddf3+0x212>
 8000492:	ea54 0c00 	orrs.w	ip, r4, r0
 8000496:	bf04      	itt	eq
 8000498:	4619      	moveq	r1, r3
 800049a:	4610      	moveq	r0, r2
 800049c:	bd30      	pop	{r4, r5, pc}
 800049e:	ea91 0f03 	teq	r1, r3
 80004a2:	bf1e      	ittt	ne
 80004a4:	2100      	movne	r1, #0
 80004a6:	2000      	movne	r0, #0
 80004a8:	bd30      	popne	{r4, r5, pc}
 80004aa:	ea5f 5c54 	movs.w	ip, r4, lsr #21
 80004ae:	d105      	bne.n	80004bc <__adddf3+0x230>
 80004b0:	0040      	lsls	r0, r0, #1
 80004b2:	4149      	adcs	r1, r1
 80004b4:	bf28      	it	cs
 80004b6:	f041 4100 	orrcs.w	r1, r1, #2147483648	; 0x80000000
 80004ba:	bd30      	pop	{r4, r5, pc}
 80004bc:	f514 0480 	adds.w	r4, r4, #4194304	; 0x400000
 80004c0:	bf3c      	itt	cc
 80004c2:	f501 1180 	addcc.w	r1, r1, #1048576	; 0x100000
 80004c6:	bd30      	popcc	{r4, r5, pc}
 80004c8:	f001 4500 	and.w	r5, r1, #2147483648	; 0x80000000
 80004cc:	f045 41fe 	orr.w	r1, r5, #2130706432	; 0x7f000000
 80004d0:	f441 0170 	orr.w	r1, r1, #15728640	; 0xf00000
 80004d4:	f04f 0000 	mov.w	r0, #0
 80004d8:	bd30      	pop	{r4, r5, pc}
 80004da:	ea7f 5c64 	mvns.w	ip, r4, asr #21
 80004de:	bf1a      	itte	ne
 80004e0:	4619      	movne	r1, r3
 80004e2:	4610      	movne	r0, r2
 80004e4:	ea7f 5c65 	mvnseq.w	ip, r5, asr #21
 80004e8:	bf1c      	itt	ne
 80004ea:	460b      	movne	r3, r1
 80004ec:	4602      	movne	r2, r0
 80004ee:	ea50 3401 	orrs.w	r4, r0, r1, lsl #12
 80004f2:	bf06      	itte	eq
 80004f4:	ea52 3503 	orrseq.w	r5, r2, r3, lsl #12
 80004f8:	ea91 0f03 	teqeq	r1, r3
 80004fc:	f441 2100 	orrne.w	r1, r1, #524288	; 0x80000
 8000500:	bd30      	pop	{r4, r5, pc}
 8000502:	bf00      	nop

08000504 <__aeabi_ui2d>:
 8000504:	f090 0f00 	teq	r0, #0
 8000508:	bf04      	itt	eq
 800050a:	2100      	moveq	r1, #0
 800050c:	4770      	bxeq	lr
 800050e:	b530      	push	{r4, r5, lr}
 8000510:	f44f 6480 	mov.w	r4, #1024	; 0x400
 8000514:	f104 0432 	add.w	r4, r4, #50	; 0x32
 8000518:	f04f 0500 	mov.w	r5, #0
 800051c:	f04f 0100 	mov.w	r1, #0
 8000520:	e750      	b.n	80003c4 <__adddf3+0x138>
 8000522:	bf00      	nop

08000524 <__aeabi_i2d>:
 8000524:	f090 0f00 	teq	r0, #0
 8000528:	bf04      	itt	eq
 800052a:	2100      	moveq	r1, #0
 800052c:	4770      	bxeq	lr
 800052e:	b530      	push	{r4, r5, lr}
 8000530:	f44f 6480 	mov.w	r4, #1024	; 0x400
 8000534:	f104 0432 	add.w	r4, r4, #50	; 0x32
 8000538:	f010 4500 	ands.w	r5, r0, #2147483648	; 0x80000000
 800053c:	bf48      	it	mi
 800053e:	4240      	negmi	r0, r0
 8000540:	f04f 0100 	mov.w	r1, #0
 8000544:	e73e      	b.n	80003c4 <__adddf3+0x138>
 8000546:	bf00      	nop

08000548 <__aeabi_f2d>:
 8000548:	0042      	lsls	r2, r0, #1
 800054a:	ea4f 01e2 	mov.w	r1, r2, asr #3
 800054e:	ea4f 0131 	mov.w	r1, r1, rrx
 8000552:	ea4f 7002 	mov.w	r0, r2, lsl #28
 8000556:	bf1f      	itttt	ne
 8000558:	f012 437f 	andsne.w	r3, r2, #4278190080	; 0xff000000
 800055c:	f093 4f7f 	teqne	r3, #4278190080	; 0xff000000
 8000560:	f081 5160 	eorne.w	r1, r1, #939524096	; 0x38000000
 8000564:	4770      	bxne	lr
 8000566:	f032 427f 	bics.w	r2, r2, #4278190080	; 0xff000000
 800056a:	bf08      	it	eq
 800056c:	4770      	bxeq	lr
 800056e:	f093 4f7f 	teq	r3, #4278190080	; 0xff000000
 8000572:	bf04      	itt	eq
 8000574:	f441 2100 	orreq.w	r1, r1, #524288	; 0x80000
 8000578:	4770      	bxeq	lr
 800057a:	b530      	push	{r4, r5, lr}
 800057c:	f44f 7460 	mov.w	r4, #896	; 0x380
 8000580:	f001 4500 	and.w	r5, r1, #2147483648	; 0x80000000
 8000584:	f021 4100 	bic.w	r1, r1, #2147483648	; 0x80000000
 8000588:	e71c      	b.n	80003c4 <__adddf3+0x138>
 800058a:	bf00      	nop

0800058c <__aeabi_ul2d>:
 800058c:	ea50 0201 	orrs.w	r2, r0, r1
 8000590:	bf08      	it	eq
 8000592:	4770      	bxeq	lr
 8000594:	b530      	push	{r4, r5, lr}
 8000596:	f04f 0500 	mov.w	r5, #0
 800059a:	e00a      	b.n	80005b2 <__aeabi_l2d+0x16>

0800059c <__aeabi_l2d>:
 800059c:	ea50 0201 	orrs.w	r2, r0, r1
 80005a0:	bf08      	it	eq
 80005a2:	4770      	bxeq	lr
 80005a4:	b530      	push	{r4, r5, lr}
 80005a6:	f011 4500 	ands.w	r5, r1, #2147483648	; 0x80000000
 80005aa:	d502      	bpl.n	80005b2 <__aeabi_l2d+0x16>
 80005ac:	4240      	negs	r0, r0
 80005ae:	eb61 0141 	sbc.w	r1, r1, r1, lsl #1
 80005b2:	f44f 6480 	mov.w	r4, #1024	; 0x400
 80005b6:	f104 0432 	add.w	r4, r4, #50	; 0x32
 80005ba:	ea5f 5c91 	movs.w	ip, r1, lsr #22
 80005be:	f43f aed8 	beq.w	8000372 <__adddf3+0xe6>
 80005c2:	f04f 0203 	mov.w	r2, #3
 80005c6:	ea5f 0cdc 	movs.w	ip, ip, lsr #3
 80005ca:	bf18      	it	ne
 80005cc:	3203      	addne	r2, #3
 80005ce:	ea5f 0cdc 	movs.w	ip, ip, lsr #3
 80005d2:	bf18      	it	ne
 80005d4:	3203      	addne	r2, #3
 80005d6:	eb02 02dc 	add.w	r2, r2, ip, lsr #3
 80005da:	f1c2 0320 	rsb	r3, r2, #32
 80005de:	fa00 fc03 	lsl.w	ip, r0, r3
 80005e2:	fa20 f002 	lsr.w	r0, r0, r2
 80005e6:	fa01 fe03 	lsl.w	lr, r1, r3
 80005ea:	ea40 000e 	orr.w	r0, r0, lr
 80005ee:	fa21 f102 	lsr.w	r1, r1, r2
 80005f2:	4414      	add	r4, r2
 80005f4:	e6bd      	b.n	8000372 <__adddf3+0xe6>
 80005f6:	bf00      	nop

080005f8 <__aeabi_dmul>:
 80005f8:	b570      	push	{r4, r5, r6, lr}
 80005fa:	f04f 0cff 	mov.w	ip, #255	; 0xff
 80005fe:	f44c 6ce0 	orr.w	ip, ip, #1792	; 0x700
 8000602:	ea1c 5411 	ands.w	r4, ip, r1, lsr #20
 8000606:	bf1d      	ittte	ne
 8000608:	ea1c 5513 	andsne.w	r5, ip, r3, lsr #20
 800060c:	ea94 0f0c 	teqne	r4, ip
 8000610:	ea95 0f0c 	teqne	r5, ip
 8000614:	f000 f8de 	bleq	80007d4 <__aeabi_dmul+0x1dc>
 8000618:	442c      	add	r4, r5
 800061a:	ea81 0603 	eor.w	r6, r1, r3
 800061e:	ea21 514c 	bic.w	r1, r1, ip, lsl #21
 8000622:	ea23 534c 	bic.w	r3, r3, ip, lsl #21
 8000626:	ea50 3501 	orrs.w	r5, r0, r1, lsl #12
 800062a:	bf18      	it	ne
 800062c:	ea52 3503 	orrsne.w	r5, r2, r3, lsl #12
 8000630:	f441 1180 	orr.w	r1, r1, #1048576	; 0x100000
 8000634:	f443 1380 	orr.w	r3, r3, #1048576	; 0x100000
 8000638:	d038      	beq.n	80006ac <__aeabi_dmul+0xb4>
 800063a:	fba0 ce02 	umull	ip, lr, r0, r2
 800063e:	f04f 0500 	mov.w	r5, #0
 8000642:	fbe1 e502 	umlal	lr, r5, r1, r2
 8000646:	f006 4200 	and.w	r2, r6, #2147483648	; 0x80000000
 800064a:	fbe0 e503 	umlal	lr, r5, r0, r3
 800064e:	f04f 0600 	mov.w	r6, #0
 8000652:	fbe1 5603 	umlal	r5, r6, r1, r3
 8000656:	f09c 0f00 	teq	ip, #0
 800065a:	bf18      	it	ne
 800065c:	f04e 0e01 	orrne.w	lr, lr, #1
 8000660:	f1a4 04ff 	sub.w	r4, r4, #255	; 0xff
 8000664:	f5b6 7f00 	cmp.w	r6, #512	; 0x200
 8000668:	f564 7440 	sbc.w	r4, r4, #768	; 0x300
 800066c:	d204      	bcs.n	8000678 <__aeabi_dmul+0x80>
 800066e:	ea5f 0e4e 	movs.w	lr, lr, lsl #1
 8000672:	416d      	adcs	r5, r5
 8000674:	eb46 0606 	adc.w	r6, r6, r6
 8000678:	ea42 21c6 	orr.w	r1, r2, r6, lsl #11
 800067c:	ea41 5155 	orr.w	r1, r1, r5, lsr #21
 8000680:	ea4f 20c5 	mov.w	r0, r5, lsl #11
 8000684:	ea40 505e 	orr.w	r0, r0, lr, lsr #21
 8000688:	ea4f 2ece 	mov.w	lr, lr, lsl #11
 800068c:	f1b4 0cfd 	subs.w	ip, r4, #253	; 0xfd
 8000690:	bf88      	it	hi
 8000692:	f5bc 6fe0 	cmphi.w	ip, #1792	; 0x700
 8000696:	d81e      	bhi.n	80006d6 <__aeabi_dmul+0xde>
 8000698:	f1be 4f00 	cmp.w	lr, #2147483648	; 0x80000000
 800069c:	bf08      	it	eq
 800069e:	ea5f 0e50 	movseq.w	lr, r0, lsr #1
 80006a2:	f150 0000 	adcs.w	r0, r0, #0
 80006a6:	eb41 5104 	adc.w	r1, r1, r4, lsl #20
 80006aa:	bd70      	pop	{r4, r5, r6, pc}
 80006ac:	f006 4600 	and.w	r6, r6, #2147483648	; 0x80000000
 80006b0:	ea46 0101 	orr.w	r1, r6, r1
 80006b4:	ea40 0002 	orr.w	r0, r0, r2
 80006b8:	ea81 0103 	eor.w	r1, r1, r3
 80006bc:	ebb4 045c 	subs.w	r4, r4, ip, lsr #1
 80006c0:	bfc2      	ittt	gt
 80006c2:	ebd4 050c 	rsbsgt	r5, r4, ip
 80006c6:	ea41 5104 	orrgt.w	r1, r1, r4, lsl #20
 80006ca:	bd70      	popgt	{r4, r5, r6, pc}
 80006cc:	f441 1180 	orr.w	r1, r1, #1048576	; 0x100000
 80006d0:	f04f 0e00 	mov.w	lr, #0
 80006d4:	3c01      	subs	r4, #1
 80006d6:	f300 80ab 	bgt.w	8000830 <__aeabi_dmul+0x238>
 80006da:	f114 0f36 	cmn.w	r4, #54	; 0x36
 80006de:	bfde      	ittt	le
 80006e0:	2000      	movle	r0, #0
 80006e2:	f001 4100 	andle.w	r1, r1, #2147483648	; 0x80000000
 80006e6:	bd70      	pople	{r4, r5, r6, pc}
 80006e8:	f1c4 0400 	rsb	r4, r4, #0
 80006ec:	3c20      	subs	r4, #32
 80006ee:	da35      	bge.n	800075c <__aeabi_dmul+0x164>
 80006f0:	340c      	adds	r4, #12
 80006f2:	dc1b      	bgt.n	800072c <__aeabi_dmul+0x134>
 80006f4:	f104 0414 	add.w	r4, r4, #20
 80006f8:	f1c4 0520 	rsb	r5, r4, #32
 80006fc:	fa00 f305 	lsl.w	r3, r0, r5
 8000700:	fa20 f004 	lsr.w	r0, r0, r4
 8000704:	fa01 f205 	lsl.w	r2, r1, r5
 8000708:	ea40 0002 	orr.w	r0, r0, r2
 800070c:	f001 4200 	and.w	r2, r1, #2147483648	; 0x80000000
 8000710:	f021 4100 	bic.w	r1, r1, #2147483648	; 0x80000000
 8000714:	eb10 70d3 	adds.w	r0, r0, r3, lsr #31
 8000718:	fa21 f604 	lsr.w	r6, r1, r4
 800071c:	eb42 0106 	adc.w	r1, r2, r6
 8000720:	ea5e 0e43 	orrs.w	lr, lr, r3, lsl #1
 8000724:	bf08      	it	eq
 8000726:	ea20 70d3 	biceq.w	r0, r0, r3, lsr #31
 800072a:	bd70      	pop	{r4, r5, r6, pc}
 800072c:	f1c4 040c 	rsb	r4, r4, #12
 8000730:	f1c4 0520 	rsb	r5, r4, #32
 8000734:	fa00 f304 	lsl.w	r3, r0, r4
 8000738:	fa20 f005 	lsr.w	r0, r0, r5
 800073c:	fa01 f204 	lsl.w	r2, r1, r4
 8000740:	ea40 0002 	orr.w	r0, r0, r2
 8000744:	f001 4100 	and.w	r1, r1, #2147483648	; 0x80000000
 8000748:	eb10 70d3 	adds.w	r0, r0, r3, lsr #31
 800074c:	f141 0100 	adc.w	r1, r1, #0
 8000750:	ea5e 0e43 	orrs.w	lr, lr, r3, lsl #1
 8000754:	bf08      	it	eq
 8000756:	ea20 70d3 	biceq.w	r0, r0, r3, lsr #31
 800075a:	bd70      	pop	{r4, r5, r6, pc}
 800075c:	f1c4 0520 	rsb	r5, r4, #32
 8000760:	fa00 f205 	lsl.w	r2, r0, r5
 8000764:	ea4e 0e02 	orr.w	lr, lr, r2
 8000768:	fa20 f304 	lsr.w	r3, r0, r4
 800076c:	fa01 f205 	lsl.w	r2, r1, r5
 8000770:	ea43 0302 	orr.w	r3, r3, r2
 8000774:	fa21 f004 	lsr.w	r0, r1, r4
 8000778:	f001 4100 	and.w	r1, r1, #2147483648	; 0x80000000
 800077c:	fa21 f204 	lsr.w	r2, r1, r4
 8000780:	ea20 0002 	bic.w	r0, r0, r2
 8000784:	eb00 70d3 	add.w	r0, r0, r3, lsr #31
 8000788:	ea5e 0e43 	orrs.w	lr, lr, r3, lsl #1
 800078c:	bf08      	it	eq
 800078e:	ea20 70d3 	biceq.w	r0, r0, r3, lsr #31
 8000792:	bd70      	pop	{r4, r5, r6, pc}
 8000794:	f094 0f00 	teq	r4, #0
 8000798:	d10f      	bne.n	80007ba <__aeabi_dmul+0x1c2>
 800079a:	f001 4600 	and.w	r6, r1, #2147483648	; 0x80000000
 800079e:	0040      	lsls	r0, r0, #1
 80007a0:	eb41 0101 	adc.w	r1, r1, r1
 80007a4:	f411 1f80 	tst.w	r1, #1048576	; 0x100000
 80007a8:	bf08      	it	eq
 80007aa:	3c01      	subeq	r4, #1
 80007ac:	d0f7      	beq.n	800079e <__aeabi_dmul+0x1a6>
 80007ae:	ea41 0106 	orr.w	r1, r1, r6
 80007b2:	f095 0f00 	teq	r5, #0
 80007b6:	bf18      	it	ne
 80007b8:	4770      	bxne	lr
 80007ba:	f003 4600 	and.w	r6, r3, #2147483648	; 0x80000000
 80007be:	0052      	lsls	r2, r2, #1
 80007c0:	eb43 0303 	adc.w	r3, r3, r3
 80007c4:	f413 1f80 	tst.w	r3, #1048576	; 0x100000
 80007c8:	bf08      	it	eq
 80007ca:	3d01      	subeq	r5, #1
 80007cc:	d0f7      	beq.n	80007be <__aeabi_dmul+0x1c6>
 80007ce:	ea43 0306 	orr.w	r3, r3, r6
 80007d2:	4770      	bx	lr
 80007d4:	ea94 0f0c 	teq	r4, ip
 80007d8:	ea0c 5513 	and.w	r5, ip, r3, lsr #20
 80007dc:	bf18      	it	ne
 80007de:	ea95 0f0c 	teqne	r5, ip
 80007e2:	d00c      	beq.n	80007fe <__aeabi_dmul+0x206>
 80007e4:	ea50 0641 	orrs.w	r6, r0, r1, lsl #1
 80007e8:	bf18      	it	ne
 80007ea:	ea52 0643 	orrsne.w	r6, r2, r3, lsl #1
 80007ee:	d1d1      	bne.n	8000794 <__aeabi_dmul+0x19c>
 80007f0:	ea81 0103 	eor.w	r1, r1, r3
 80007f4:	f001 4100 	and.w	r1, r1, #2147483648	; 0x80000000
 80007f8:	f04f 0000 	mov.w	r0, #0
 80007fc:	bd70      	pop	{r4, r5, r6, pc}
 80007fe:	ea50 0641 	orrs.w	r6, r0, r1, lsl #1
 8000802:	bf06      	itte	eq
 8000804:	4610      	moveq	r0, r2
 8000806:	4619      	moveq	r1, r3
 8000808:	ea52 0643 	orrsne.w	r6, r2, r3, lsl #1
 800080c:	d019      	beq.n	8000842 <__aeabi_dmul+0x24a>
 800080e:	ea94 0f0c 	teq	r4, ip
 8000812:	d102      	bne.n	800081a <__aeabi_dmul+0x222>
 8000814:	ea50 3601 	orrs.w	r6, r0, r1, lsl #12
 8000818:	d113      	bne.n	8000842 <__aeabi_dmul+0x24a>
 800081a:	ea95 0f0c 	teq	r5, ip
 800081e:	d105      	bne.n	800082c <__aeabi_dmul+0x234>
 8000820:	ea52 3603 	orrs.w	r6, r2, r3, lsl #12
 8000824:	bf1c      	itt	ne
 8000826:	4610      	movne	r0, r2
 8000828:	4619      	movne	r1, r3
 800082a:	d10a      	bne.n	8000842 <__aeabi_dmul+0x24a>
 800082c:	ea81 0103 	eor.w	r1, r1, r3
 8000830:	f001 4100 	and.w	r1, r1, #2147483648	; 0x80000000
 8000834:	f041 41fe 	orr.w	r1, r1, #2130706432	; 0x7f000000
 8000838:	f441 0170 	orr.w	r1, r1, #15728640	; 0xf00000
 800083c:	f04f 0000 	mov.w	r0, #0
 8000840:	bd70      	pop	{r4, r5, r6, pc}
 8000842:	f041 41fe 	orr.w	r1, r1, #2130706432	; 0x7f000000
 8000846:	f441 0178 	orr.w	r1, r1, #16252928	; 0xf80000
 800084a:	bd70      	pop	{r4, r5, r6, pc}

0800084c <__aeabi_ddiv>:
 800084c:	b570      	push	{r4, r5, r6, lr}
 800084e:	f04f 0cff 	mov.w	ip, #255	; 0xff
 8000852:	f44c 6ce0 	orr.w	ip, ip, #1792	; 0x700
 8000856:	ea1c 5411 	ands.w	r4, ip, r1, lsr #20
 800085a:	bf1d      	ittte	ne
 800085c:	ea1c 5513 	andsne.w	r5, ip, r3, lsr #20
 8000860:	ea94 0f0c 	teqne	r4, ip
 8000864:	ea95 0f0c 	teqne	r5, ip
 8000868:	f000 f8a7 	bleq	80009ba <__aeabi_ddiv+0x16e>
 800086c:	eba4 0405 	sub.w	r4, r4, r5
 8000870:	ea81 0e03 	eor.w	lr, r1, r3
 8000874:	ea52 3503 	orrs.w	r5, r2, r3, lsl #12
 8000878:	ea4f 3101 	mov.w	r1, r1, lsl #12
 800087c:	f000 8088 	beq.w	8000990 <__aeabi_ddiv+0x144>
 8000880:	ea4f 3303 	mov.w	r3, r3, lsl #12
 8000884:	f04f 5580 	mov.w	r5, #268435456	; 0x10000000
 8000888:	ea45 1313 	orr.w	r3, r5, r3, lsr #4
 800088c:	ea43 6312 	orr.w	r3, r3, r2, lsr #24
 8000890:	ea4f 2202 	mov.w	r2, r2, lsl #8
 8000894:	ea45 1511 	orr.w	r5, r5, r1, lsr #4
 8000898:	ea45 6510 	orr.w	r5, r5, r0, lsr #24
 800089c:	ea4f 2600 	mov.w	r6, r0, lsl #8
 80008a0:	f00e 4100 	and.w	r1, lr, #2147483648	; 0x80000000
 80008a4:	429d      	cmp	r5, r3
 80008a6:	bf08      	it	eq
 80008a8:	4296      	cmpeq	r6, r2
 80008aa:	f144 04fd 	adc.w	r4, r4, #253	; 0xfd
 80008ae:	f504 7440 	add.w	r4, r4, #768	; 0x300
 80008b2:	d202      	bcs.n	80008ba <__aeabi_ddiv+0x6e>
 80008b4:	085b      	lsrs	r3, r3, #1
 80008b6:	ea4f 0232 	mov.w	r2, r2, rrx
 80008ba:	1ab6      	subs	r6, r6, r2
 80008bc:	eb65 0503 	sbc.w	r5, r5, r3
 80008c0:	085b      	lsrs	r3, r3, #1
 80008c2:	ea4f 0232 	mov.w	r2, r2, rrx
 80008c6:	f44f 1080 	mov.w	r0, #1048576	; 0x100000
 80008ca:	f44f 2c00 	mov.w	ip, #524288	; 0x80000
 80008ce:	ebb6 0e02 	subs.w	lr, r6, r2
 80008d2:	eb75 0e03 	sbcs.w	lr, r5, r3
 80008d6:	bf22      	ittt	cs
 80008d8:	1ab6      	subcs	r6, r6, r2
 80008da:	4675      	movcs	r5, lr
 80008dc:	ea40 000c 	orrcs.w	r0, r0, ip
 80008e0:	085b      	lsrs	r3, r3, #1
 80008e2:	ea4f 0232 	mov.w	r2, r2, rrx
 80008e6:	ebb6 0e02 	subs.w	lr, r6, r2
 80008ea:	eb75 0e03 	sbcs.w	lr, r5, r3
 80008ee:	bf22      	ittt	cs
 80008f0:	1ab6      	subcs	r6, r6, r2
 80008f2:	4675      	movcs	r5, lr
 80008f4:	ea40 005c 	orrcs.w	r0, r0, ip, lsr #1
 80008f8:	085b      	lsrs	r3, r3, #1
 80008fa:	ea4f 0232 	mov.w	r2, r2, rrx
 80008fe:	ebb6 0e02 	subs.w	lr, r6, r2
 8000902:	eb75 0e03 	sbcs.w	lr, r5, r3
 8000906:	bf22      	ittt	cs
 8000908:	1ab6      	subcs	r6, r6, r2
 800090a:	4675      	movcs	r5, lr
 800090c:	ea40 009c 	orrcs.w	r0, r0, ip, lsr #2
 8000910:	085b      	lsrs	r3, r3, #1
 8000912:	ea4f 0232 	mov.w	r2, r2, rrx
 8000916:	ebb6 0e02 	subs.w	lr, r6, r2
 800091a:	eb75 0e03 	sbcs.w	lr, r5, r3
 800091e:	bf22      	ittt	cs
 8000920:	1ab6      	subcs	r6, r6, r2
 8000922:	4675      	movcs	r5, lr
 8000924:	ea40 00dc 	orrcs.w	r0, r0, ip, lsr #3
 8000928:	ea55 0e06 	orrs.w	lr, r5, r6
 800092c:	d018      	beq.n	8000960 <__aeabi_ddiv+0x114>
 800092e:	ea4f 1505 	mov.w	r5, r5, lsl #4
 8000932:	ea45 7516 	orr.w	r5, r5, r6, lsr #28
 8000936:	ea4f 1606 	mov.w	r6, r6, lsl #4
 800093a:	ea4f 03c3 	mov.w	r3, r3, lsl #3
 800093e:	ea43 7352 	orr.w	r3, r3, r2, lsr #29
 8000942:	ea4f 02c2 	mov.w	r2, r2, lsl #3
 8000946:	ea5f 1c1c 	movs.w	ip, ip, lsr #4
 800094a:	d1c0      	bne.n	80008ce <__aeabi_ddiv+0x82>
 800094c:	f411 1f80 	tst.w	r1, #1048576	; 0x100000
 8000950:	d10b      	bne.n	800096a <__aeabi_ddiv+0x11e>
 8000952:	ea41 0100 	orr.w	r1, r1, r0
 8000956:	f04f 0000 	mov.w	r0, #0
 800095a:	f04f 4c00 	mov.w	ip, #2147483648	; 0x80000000
 800095e:	e7b6      	b.n	80008ce <__aeabi_ddiv+0x82>
 8000960:	f411 1f80 	tst.w	r1, #1048576	; 0x100000
 8000964:	bf04      	itt	eq
 8000966:	4301      	orreq	r1, r0
 8000968:	2000      	moveq	r0, #0
 800096a:	f1b4 0cfd 	subs.w	ip, r4, #253	; 0xfd
 800096e:	bf88      	it	hi
 8000970:	f5bc 6fe0 	cmphi.w	ip, #1792	; 0x700
 8000974:	f63f aeaf 	bhi.w	80006d6 <__aeabi_dmul+0xde>
 8000978:	ebb5 0c03 	subs.w	ip, r5, r3
 800097c:	bf04      	itt	eq
 800097e:	ebb6 0c02 	subseq.w	ip, r6, r2
 8000982:	ea5f 0c50 	movseq.w	ip, r0, lsr #1
 8000986:	f150 0000 	adcs.w	r0, r0, #0
 800098a:	eb41 5104 	adc.w	r1, r1, r4, lsl #20
 800098e:	bd70      	pop	{r4, r5, r6, pc}
 8000990:	f00e 4e00 	and.w	lr, lr, #2147483648	; 0x80000000
 8000994:	ea4e 3111 	orr.w	r1, lr, r1, lsr #12
 8000998:	eb14 045c 	adds.w	r4, r4, ip, lsr #1
 800099c:	bfc2      	ittt	gt
 800099e:	ebd4 050c 	rsbsgt	r5, r4, ip
 80009a2:	ea41 5104 	orrgt.w	r1, r1, r4, lsl #20
 80009a6:	bd70      	popgt	{r4, r5, r6, pc}
 80009a8:	f441 1180 	orr.w	r1, r1, #1048576	; 0x100000
 80009ac:	f04f 0e00 	mov.w	lr, #0
 80009b0:	3c01      	subs	r4, #1
 80009b2:	e690      	b.n	80006d6 <__aeabi_dmul+0xde>
 80009b4:	ea45 0e06 	orr.w	lr, r5, r6
 80009b8:	e68d      	b.n	80006d6 <__aeabi_dmul+0xde>
 80009ba:	ea0c 5513 	and.w	r5, ip, r3, lsr #20
 80009be:	ea94 0f0c 	teq	r4, ip
 80009c2:	bf08      	it	eq
 80009c4:	ea95 0f0c 	teqeq	r5, ip
 80009c8:	f43f af3b 	beq.w	8000842 <__aeabi_dmul+0x24a>
 80009cc:	ea94 0f0c 	teq	r4, ip
 80009d0:	d10a      	bne.n	80009e8 <__aeabi_ddiv+0x19c>
 80009d2:	ea50 3401 	orrs.w	r4, r0, r1, lsl #12
 80009d6:	f47f af34 	bne.w	8000842 <__aeabi_dmul+0x24a>
 80009da:	ea95 0f0c 	teq	r5, ip
 80009de:	f47f af25 	bne.w	800082c <__aeabi_dmul+0x234>
 80009e2:	4610      	mov	r0, r2
 80009e4:	4619      	mov	r1, r3
 80009e6:	e72c      	b.n	8000842 <__aeabi_dmul+0x24a>
 80009e8:	ea95 0f0c 	teq	r5, ip
 80009ec:	d106      	bne.n	80009fc <__aeabi_ddiv+0x1b0>
 80009ee:	ea52 3503 	orrs.w	r5, r2, r3, lsl #12
 80009f2:	f43f aefd 	beq.w	80007f0 <__aeabi_dmul+0x1f8>
 80009f6:	4610      	mov	r0, r2
 80009f8:	4619      	mov	r1, r3
 80009fa:	e722      	b.n	8000842 <__aeabi_dmul+0x24a>
 80009fc:	ea50 0641 	orrs.w	r6, r0, r1, lsl #1
 8000a00:	bf18      	it	ne
 8000a02:	ea52 0643 	orrsne.w	r6, r2, r3, lsl #1
 8000a06:	f47f aec5 	bne.w	8000794 <__aeabi_dmul+0x19c>
 8000a0a:	ea50 0441 	orrs.w	r4, r0, r1, lsl #1
 8000a0e:	f47f af0d 	bne.w	800082c <__aeabi_dmul+0x234>
 8000a12:	ea52 0543 	orrs.w	r5, r2, r3, lsl #1
 8000a16:	f47f aeeb 	bne.w	80007f0 <__aeabi_dmul+0x1f8>
 8000a1a:	e712      	b.n	8000842 <__aeabi_dmul+0x24a>

08000a1c <__gedf2>:
 8000a1c:	f04f 3cff 	mov.w	ip, #4294967295
 8000a20:	e006      	b.n	8000a30 <__cmpdf2+0x4>
 8000a22:	bf00      	nop

08000a24 <__ledf2>:
 8000a24:	f04f 0c01 	mov.w	ip, #1
 8000a28:	e002      	b.n	8000a30 <__cmpdf2+0x4>
 8000a2a:	bf00      	nop

08000a2c <__cmpdf2>:
 8000a2c:	f04f 0c01 	mov.w	ip, #1
 8000a30:	f84d cd04 	str.w	ip, [sp, #-4]!
 8000a34:	ea4f 0c41 	mov.w	ip, r1, lsl #1
 8000a38:	ea7f 5c6c 	mvns.w	ip, ip, asr #21
 8000a3c:	ea4f 0c43 	mov.w	ip, r3, lsl #1
 8000a40:	bf18      	it	ne
 8000a42:	ea7f 5c6c 	mvnsne.w	ip, ip, asr #21
 8000a46:	d01b      	beq.n	8000a80 <__cmpdf2+0x54>
 8000a48:	b001      	add	sp, #4
 8000a4a:	ea50 0c41 	orrs.w	ip, r0, r1, lsl #1
 8000a4e:	bf0c      	ite	eq
 8000a50:	ea52 0c43 	orrseq.w	ip, r2, r3, lsl #1
 8000a54:	ea91 0f03 	teqne	r1, r3
 8000a58:	bf02      	ittt	eq
 8000a5a:	ea90 0f02 	teqeq	r0, r2
 8000a5e:	2000      	moveq	r0, #0
 8000a60:	4770      	bxeq	lr
 8000a62:	f110 0f00 	cmn.w	r0, #0
 8000a66:	ea91 0f03 	teq	r1, r3
 8000a6a:	bf58      	it	pl
 8000a6c:	4299      	cmppl	r1, r3
 8000a6e:	bf08      	it	eq
 8000a70:	4290      	cmpeq	r0, r2
 8000a72:	bf2c      	ite	cs
 8000a74:	17d8      	asrcs	r0, r3, #31
 8000a76:	ea6f 70e3 	mvncc.w	r0, r3, asr #31
 8000a7a:	f040 0001 	orr.w	r0, r0, #1
 8000a7e:	4770      	bx	lr
 8000a80:	ea4f 0c41 	mov.w	ip, r1, lsl #1
 8000a84:	ea7f 5c6c 	mvns.w	ip, ip, asr #21
 8000a88:	d102      	bne.n	8000a90 <__cmpdf2+0x64>
 8000a8a:	ea50 3c01 	orrs.w	ip, r0, r1, lsl #12
 8000a8e:	d107      	bne.n	8000aa0 <__cmpdf2+0x74>
 8000a90:	ea4f 0c43 	mov.w	ip, r3, lsl #1
 8000a94:	ea7f 5c6c 	mvns.w	ip, ip, asr #21
 8000a98:	d1d6      	bne.n	8000a48 <__cmpdf2+0x1c>
 8000a9a:	ea52 3c03 	orrs.w	ip, r2, r3, lsl #12
 8000a9e:	d0d3      	beq.n	8000a48 <__cmpdf2+0x1c>
 8000aa0:	f85d 0b04 	ldr.w	r0, [sp], #4
 8000aa4:	4770      	bx	lr
 8000aa6:	bf00      	nop

08000aa8 <__aeabi_cdrcmple>:
 8000aa8:	4684      	mov	ip, r0
 8000aaa:	4610      	mov	r0, r2
 8000aac:	4662      	mov	r2, ip
 8000aae:	468c      	mov	ip, r1
 8000ab0:	4619      	mov	r1, r3
 8000ab2:	4663      	mov	r3, ip
 8000ab4:	e000      	b.n	8000ab8 <__aeabi_cdcmpeq>
 8000ab6:	bf00      	nop

08000ab8 <__aeabi_cdcmpeq>:
 8000ab8:	b501      	push	{r0, lr}
 8000aba:	f7ff ffb7 	bl	8000a2c <__cmpdf2>
 8000abe:	2800      	cmp	r0, #0
 8000ac0:	bf48      	it	mi
 8000ac2:	f110 0f00 	cmnmi.w	r0, #0
 8000ac6:	bd01      	pop	{r0, pc}

08000ac8 <__aeabi_dcmpeq>:
 8000ac8:	f84d ed08 	str.w	lr, [sp, #-8]!
 8000acc:	f7ff fff4 	bl	8000ab8 <__aeabi_cdcmpeq>
 8000ad0:	bf0c      	ite	eq
 8000ad2:	2001      	moveq	r0, #1
 8000ad4:	2000      	movne	r0, #0
 8000ad6:	f85d fb08 	ldr.w	pc, [sp], #8
 8000ada:	bf00      	nop

08000adc <__aeabi_dcmplt>:
 8000adc:	f84d ed08 	str.w	lr, [sp, #-8]!
 8000ae0:	f7ff ffea 	bl	8000ab8 <__aeabi_cdcmpeq>
 8000ae4:	bf34      	ite	cc
 8000ae6:	2001      	movcc	r0, #1
 8000ae8:	2000      	movcs	r0, #0
 8000aea:	f85d fb08 	ldr.w	pc, [sp], #8
 8000aee:	bf00      	nop

08000af0 <__aeabi_dcmple>:
 8000af0:	f84d ed08 	str.w	lr, [sp, #-8]!
 8000af4:	f7ff ffe0 	bl	8000ab8 <__aeabi_cdcmpeq>
 8000af8:	bf94      	ite	ls
 8000afa:	2001      	movls	r0, #1
 8000afc:	2000      	movhi	r0, #0
 8000afe:	f85d fb08 	ldr.w	pc, [sp], #8
 8000b02:	bf00      	nop

08000b04 <__aeabi_dcmpge>:
 8000b04:	f84d ed08 	str.w	lr, [sp, #-8]!
 8000b08:	f7ff ffce 	bl	8000aa8 <__aeabi_cdrcmple>
 8000b0c:	bf94      	ite	ls
 8000b0e:	2001      	movls	r0, #1
 8000b10:	2000      	movhi	r0, #0
 8000b12:	f85d fb08 	ldr.w	pc, [sp], #8
 8000b16:	bf00      	nop

08000b18 <__aeabi_dcmpgt>:
 8000b18:	f84d ed08 	str.w	lr, [sp, #-8]!
 8000b1c:	f7ff ffc4 	bl	8000aa8 <__aeabi_cdrcmple>
 8000b20:	bf34      	ite	cc
 8000b22:	2001      	movcc	r0, #1
 8000b24:	2000      	movcs	r0, #0
 8000b26:	f85d fb08 	ldr.w	pc, [sp], #8
 8000b2a:	bf00      	nop

08000b2c <__aeabi_dcmpun>:
 8000b2c:	ea4f 0c41 	mov.w	ip, r1, lsl #1
 8000b30:	ea7f 5c6c 	mvns.w	ip, ip, asr #21
 8000b34:	d102      	bne.n	8000b3c <__aeabi_dcmpun+0x10>
 8000b36:	ea50 3c01 	orrs.w	ip, r0, r1, lsl #12
 8000b3a:	d10a      	bne.n	8000b52 <__aeabi_dcmpun+0x26>
 8000b3c:	ea4f 0c43 	mov.w	ip, r3, lsl #1
 8000b40:	ea7f 5c6c 	mvns.w	ip, ip, asr #21
 8000b44:	d102      	bne.n	8000b4c <__aeabi_dcmpun+0x20>
 8000b46:	ea52 3c03 	orrs.w	ip, r2, r3, lsl #12
 8000b4a:	d102      	bne.n	8000b52 <__aeabi_dcmpun+0x26>
 8000b4c:	f04f 0000 	mov.w	r0, #0
 8000b50:	4770      	bx	lr
 8000b52:	f04f 0001 	mov.w	r0, #1
 8000b56:	4770      	bx	lr

08000b58 <__aeabi_d2iz>:
 8000b58:	ea4f 0241 	mov.w	r2, r1, lsl #1
 8000b5c:	f512 1200 	adds.w	r2, r2, #2097152	; 0x200000
 8000b60:	d215      	bcs.n	8000b8e <__aeabi_d2iz+0x36>
 8000b62:	d511      	bpl.n	8000b88 <__aeabi_d2iz+0x30>
 8000b64:	f46f 7378 	mvn.w	r3, #992	; 0x3e0
 8000b68:	ebb3 5262 	subs.w	r2, r3, r2, asr #21
 8000b6c:	d912      	bls.n	8000b94 <__aeabi_d2iz+0x3c>
 8000b6e:	ea4f 23c1 	mov.w	r3, r1, lsl #11
 8000b72:	f043 4300 	orr.w	r3, r3, #2147483648	; 0x80000000
 8000b76:	ea43 5350 	orr.w	r3, r3, r0, lsr #21
 8000b7a:	f011 4f00 	tst.w	r1, #2147483648	; 0x80000000
 8000b7e:	fa23 f002 	lsr.w	r0, r3, r2
 8000b82:	bf18      	it	ne
 8000b84:	4240      	negne	r0, r0
 8000b86:	4770      	bx	lr
 8000b88:	f04f 0000 	mov.w	r0, #0
 8000b8c:	4770      	bx	lr
 8000b8e:	ea50 3001 	orrs.w	r0, r0, r1, lsl #12
 8000b92:	d105      	bne.n	8000ba0 <__aeabi_d2iz+0x48>
 8000b94:	f011 4000 	ands.w	r0, r1, #2147483648	; 0x80000000
 8000b98:	bf08      	it	eq
 8000b9a:	f06f 4000 	mvneq.w	r0, #2147483648	; 0x80000000
 8000b9e:	4770      	bx	lr
 8000ba0:	f04f 0000 	mov.w	r0, #0
 8000ba4:	4770      	bx	lr
 8000ba6:	bf00      	nop

08000ba8 <__aeabi_d2uiz>:
 8000ba8:	004a      	lsls	r2, r1, #1
 8000baa:	d211      	bcs.n	8000bd0 <__aeabi_d2uiz+0x28>
 8000bac:	f512 1200 	adds.w	r2, r2, #2097152	; 0x200000
 8000bb0:	d211      	bcs.n	8000bd6 <__aeabi_d2uiz+0x2e>
 8000bb2:	d50d      	bpl.n	8000bd0 <__aeabi_d2uiz+0x28>
 8000bb4:	f46f 7378 	mvn.w	r3, #992	; 0x3e0
 8000bb8:	ebb3 5262 	subs.w	r2, r3, r2, asr #21
 8000bbc:	d40e      	bmi.n	8000bdc <__aeabi_d2uiz+0x34>
 8000bbe:	ea4f 23c1 	mov.w	r3, r1, lsl #11
 8000bc2:	f043 4300 	orr.w	r3, r3, #2147483648	; 0x80000000
 8000bc6:	ea43 5350 	orr.w	r3, r3, r0, lsr #21
 8000bca:	fa23 f002 	lsr.w	r0, r3, r2
 8000bce:	4770      	bx	lr
 8000bd0:	f04f 0000 	mov.w	r0, #0
 8000bd4:	4770      	bx	lr
 8000bd6:	ea50 3001 	orrs.w	r0, r0, r1, lsl #12
 8000bda:	d102      	bne.n	8000be2 <__aeabi_d2uiz+0x3a>
 8000bdc:	f04f 30ff 	mov.w	r0, #4294967295
 8000be0:	4770      	bx	lr
 8000be2:	f04f 0000 	mov.w	r0, #0
 8000be6:	4770      	bx	lr

08000be8 <__aeabi_d2f>:
 8000be8:	ea4f 0241 	mov.w	r2, r1, lsl #1
 8000bec:	f1b2 43e0 	subs.w	r3, r2, #1879048192	; 0x70000000
 8000bf0:	bf24      	itt	cs
 8000bf2:	f5b3 1c00 	subscs.w	ip, r3, #2097152	; 0x200000
 8000bf6:	f1dc 5cfe 	rsbscs	ip, ip, #532676608	; 0x1fc00000
 8000bfa:	d90d      	bls.n	8000c18 <__aeabi_d2f+0x30>
 8000bfc:	f001 4c00 	and.w	ip, r1, #2147483648	; 0x80000000
 8000c00:	ea4f 02c0 	mov.w	r2, r0, lsl #3
 8000c04:	ea4c 7050 	orr.w	r0, ip, r0, lsr #29
 8000c08:	f1b2 4f00 	cmp.w	r2, #2147483648	; 0x80000000
 8000c0c:	eb40 0083 	adc.w	r0, r0, r3, lsl #2
 8000c10:	bf08      	it	eq
 8000c12:	f020 0001 	biceq.w	r0, r0, #1
 8000c16:	4770      	bx	lr
 8000c18:	f011 4f80 	tst.w	r1, #1073741824	; 0x40000000
 8000c1c:	d121      	bne.n	8000c62 <__aeabi_d2f+0x7a>
 8000c1e:	f113 7238 	adds.w	r2, r3, #48234496	; 0x2e00000
 8000c22:	bfbc      	itt	lt
 8000c24:	f001 4000 	andlt.w	r0, r1, #2147483648	; 0x80000000
 8000c28:	4770      	bxlt	lr
 8000c2a:	f441 1180 	orr.w	r1, r1, #1048576	; 0x100000
 8000c2e:	ea4f 5252 	mov.w	r2, r2, lsr #21
 8000c32:	f1c2 0218 	rsb	r2, r2, #24
 8000c36:	f1c2 0c20 	rsb	ip, r2, #32
 8000c3a:	fa10 f30c 	lsls.w	r3, r0, ip
 8000c3e:	fa20 f002 	lsr.w	r0, r0, r2
 8000c42:	bf18      	it	ne
 8000c44:	f040 0001 	orrne.w	r0, r0, #1
 8000c48:	ea4f 23c1 	mov.w	r3, r1, lsl #11
 8000c4c:	ea4f 23d3 	mov.w	r3, r3, lsr #11
 8000c50:	fa03 fc0c 	lsl.w	ip, r3, ip
 8000c54:	ea40 000c 	orr.w	r0, r0, ip
 8000c58:	fa23 f302 	lsr.w	r3, r3, r2
 8000c5c:	ea4f 0343 	mov.w	r3, r3, lsl #1
 8000c60:	e7cc      	b.n	8000bfc <__aeabi_d2f+0x14>
 8000c62:	ea7f 5362 	mvns.w	r3, r2, asr #21
 8000c66:	d107      	bne.n	8000c78 <__aeabi_d2f+0x90>
 8000c68:	ea50 3301 	orrs.w	r3, r0, r1, lsl #12
 8000c6c:	bf1e      	ittt	ne
 8000c6e:	f04f 40fe 	movne.w	r0, #2130706432	; 0x7f000000
 8000c72:	f440 0040 	orrne.w	r0, r0, #12582912	; 0xc00000
 8000c76:	4770      	bxne	lr
 8000c78:	f001 4000 	and.w	r0, r1, #2147483648	; 0x80000000
 8000c7c:	f040 40fe 	orr.w	r0, r0, #2130706432	; 0x7f000000
 8000c80:	f440 0000 	orr.w	r0, r0, #8388608	; 0x800000
 8000c84:	4770      	bx	lr
 8000c86:	bf00      	nop

08000c88 <__aeabi_d2lz>:
 8000c88:	b538      	push	{r3, r4, r5, lr}
 8000c8a:	2200      	movs	r2, #0
 8000c8c:	2300      	movs	r3, #0
 8000c8e:	4604      	mov	r4, r0
 8000c90:	460d      	mov	r5, r1
 8000c92:	f7ff ff23 	bl	8000adc <__aeabi_dcmplt>
 8000c96:	b928      	cbnz	r0, 8000ca4 <__aeabi_d2lz+0x1c>
 8000c98:	4620      	mov	r0, r4
 8000c9a:	4629      	mov	r1, r5
 8000c9c:	e8bd 4038 	ldmia.w	sp!, {r3, r4, r5, lr}
 8000ca0:	f000 b80a 	b.w	8000cb8 <__aeabi_d2ulz>
 8000ca4:	4620      	mov	r0, r4
 8000ca6:	f105 4100 	add.w	r1, r5, #2147483648	; 0x80000000
 8000caa:	f000 f805 	bl	8000cb8 <__aeabi_d2ulz>
 8000cae:	4240      	negs	r0, r0
 8000cb0:	eb61 0141 	sbc.w	r1, r1, r1, lsl #1
 8000cb4:	bd38      	pop	{r3, r4, r5, pc}
 8000cb6:	bf00      	nop

08000cb8 <__aeabi_d2ulz>:
 8000cb8:	b5d0      	push	{r4, r6, r7, lr}
 8000cba:	4b0c      	ldr	r3, [pc, #48]	; (8000cec <__aeabi_d2ulz+0x34>)
 8000cbc:	2200      	movs	r2, #0
 8000cbe:	4606      	mov	r6, r0
 8000cc0:	460f      	mov	r7, r1
 8000cc2:	f7ff fc99 	bl	80005f8 <__aeabi_dmul>
 8000cc6:	f7ff ff6f 	bl	8000ba8 <__aeabi_d2uiz>
 8000cca:	4604      	mov	r4, r0
 8000ccc:	f7ff fc1a 	bl	8000504 <__aeabi_ui2d>
 8000cd0:	4b07      	ldr	r3, [pc, #28]	; (8000cf0 <__aeabi_d2ulz+0x38>)
 8000cd2:	2200      	movs	r2, #0
 8000cd4:	f7ff fc90 	bl	80005f8 <__aeabi_dmul>
 8000cd8:	4602      	mov	r2, r0
 8000cda:	460b      	mov	r3, r1
 8000cdc:	4630      	mov	r0, r6
 8000cde:	4639      	mov	r1, r7
 8000ce0:	f7ff fad2 	bl	8000288 <__aeabi_dsub>
 8000ce4:	f7ff ff60 	bl	8000ba8 <__aeabi_d2uiz>
 8000ce8:	4621      	mov	r1, r4
 8000cea:	bdd0      	pop	{r4, r6, r7, pc}
 8000cec:	3df00000 	.word	0x3df00000
 8000cf0:	41f00000 	.word	0x41f00000
 8000cf4:	00000000 	.word	0x00000000

08000cf8 <MX_ADC1_Init>:
 8000cf8:	b510      	push	{r4, lr}
 8000cfa:	2228      	movs	r2, #40	; 0x28
 8000cfc:	2400      	movs	r4, #0
 8000cfe:	b094      	sub	sp, #80	; 0x50
 8000d00:	4621      	mov	r1, r4
 8000d02:	eb0d 0002 	add.w	r0, sp, r2
 8000d06:	e9cd 4402 	strd	r4, r4, [sp, #8]
 8000d0a:	e9cd 4405 	strd	r4, r4, [sp, #20]
 8000d0e:	e9cd 4407 	strd	r4, r4, [sp, #28]
 8000d12:	9401      	str	r4, [sp, #4]
 8000d14:	9404      	str	r4, [sp, #16]
 8000d16:	9409      	str	r4, [sp, #36]	; 0x24
 8000d18:	f005 ff86 	bl	8006c28 <memset>
 8000d1c:	483c      	ldr	r0, [pc, #240]	; (8000e10 <MX_ADC1_Init+0x118>)
 8000d1e:	2301      	movs	r3, #1
 8000d20:	f44f 3200 	mov.w	r2, #131072	; 0x20000
 8000d24:	f04f 41a0 	mov.w	r1, #1342177280	; 0x50000000
 8000d28:	6103      	str	r3, [r0, #16]
 8000d2a:	61c3      	str	r3, [r0, #28]
 8000d2c:	2304      	movs	r3, #4
 8000d2e:	e9c0 1200 	strd	r1, r2, [r0]
 8000d32:	6143      	str	r3, [r0, #20]
 8000d34:	2201      	movs	r2, #1
 8000d36:	2300      	movs	r3, #0
 8000d38:	e9c0 230a 	strd	r2, r3, [r0, #40]	; 0x28
 8000d3c:	8304      	strh	r4, [r0, #24]
 8000d3e:	6084      	str	r4, [r0, #8]
 8000d40:	f880 4020 	strb.w	r4, [r0, #32]
 8000d44:	60c4      	str	r4, [r0, #12]
 8000d46:	f880 4030 	strb.w	r4, [r0, #48]	; 0x30
 8000d4a:	6344      	str	r4, [r0, #52]	; 0x34
 8000d4c:	f001 fba8 	bl	80024a0 <HAL_ADC_Init>
 8000d50:	2800      	cmp	r0, #0
 8000d52:	d143      	bne.n	8000ddc <MX_ADC1_Init+0xe4>
 8000d54:	2300      	movs	r3, #0
 8000d56:	482e      	ldr	r0, [pc, #184]	; (8000e10 <MX_ADC1_Init+0x118>)
 8000d58:	9301      	str	r3, [sp, #4]
 8000d5a:	a901      	add	r1, sp, #4
 8000d5c:	f002 f998 	bl	8003090 <HAL_ADCEx_MultiModeConfigChannel>
 8000d60:	2800      	cmp	r0, #0
 8000d62:	d14b      	bne.n	8000dfc <MX_ADC1_Init+0x104>
 8000d64:	2201      	movs	r2, #1
 8000d66:	2301      	movs	r3, #1
 8000d68:	e9cd 2304 	strd	r2, r3, [sp, #16]
 8000d6c:	4828      	ldr	r0, [pc, #160]	; (8000e10 <MX_ADC1_Init+0x118>)
 8000d6e:	2200      	movs	r2, #0
 8000d70:	2300      	movs	r3, #0
 8000d72:	a904      	add	r1, sp, #16
 8000d74:	e9cd 2306 	strd	r2, r3, [sp, #24]
 8000d78:	e9cd 2308 	strd	r2, r3, [sp, #32]
 8000d7c:	f001 fd70 	bl	8002860 <HAL_ADC_ConfigChannel>
 8000d80:	2800      	cmp	r0, #0
 8000d82:	d138      	bne.n	8000df6 <MX_ADC1_Init+0xfe>
 8000d84:	ed9f 7b20 	vldr	d7, [pc, #128]	; 8000e08 <MX_ADC1_Init+0x110>
 8000d88:	2103      	movs	r1, #3
 8000d8a:	2300      	movs	r3, #0
 8000d8c:	2201      	movs	r2, #1
 8000d8e:	2404      	movs	r4, #4
 8000d90:	9110      	str	r1, [sp, #64]	; 0x40
 8000d92:	481f      	ldr	r0, [pc, #124]	; (8000e10 <MX_ADC1_Init+0x118>)
 8000d94:	930d      	str	r3, [sp, #52]	; 0x34
 8000d96:	a90a      	add	r1, sp, #40	; 0x28
 8000d98:	e9cd 220a 	strd	r2, r2, [sp, #40]	; 0x28
 8000d9c:	ed8d 7b12 	vstr	d7, [sp, #72]	; 0x48
 8000da0:	e9cd 330e 	strd	r3, r3, [sp, #56]	; 0x38
 8000da4:	940c      	str	r4, [sp, #48]	; 0x30
 8000da6:	f8ad 3044 	strh.w	r3, [sp, #68]	; 0x44
 8000daa:	f88d 3046 	strb.w	r3, [sp, #70]	; 0x46
 8000dae:	f001 ff21 	bl	8002bf4 <HAL_ADCEx_InjectedConfigChannel>
 8000db2:	b9e8      	cbnz	r0, 8000df0 <MX_ADC1_Init+0xf8>
 8000db4:	2204      	movs	r2, #4
 8000db6:	2302      	movs	r3, #2
 8000db8:	4815      	ldr	r0, [pc, #84]	; (8000e10 <MX_ADC1_Init+0x118>)
 8000dba:	a90a      	add	r1, sp, #40	; 0x28
 8000dbc:	e9cd 230a 	strd	r2, r3, [sp, #40]	; 0x28
 8000dc0:	f001 ff18 	bl	8002bf4 <HAL_ADCEx_InjectedConfigChannel>
 8000dc4:	b988      	cbnz	r0, 8000dea <MX_ADC1_Init+0xf2>
 8000dc6:	2205      	movs	r2, #5
 8000dc8:	2303      	movs	r3, #3
 8000dca:	4811      	ldr	r0, [pc, #68]	; (8000e10 <MX_ADC1_Init+0x118>)
 8000dcc:	a90a      	add	r1, sp, #40	; 0x28
 8000dce:	e9cd 230a 	strd	r2, r3, [sp, #40]	; 0x28
 8000dd2:	f001 ff0f 	bl	8002bf4 <HAL_ADCEx_InjectedConfigChannel>
 8000dd6:	b920      	cbnz	r0, 8000de2 <MX_ADC1_Init+0xea>
 8000dd8:	b014      	add	sp, #80	; 0x50
 8000dda:	bd10      	pop	{r4, pc}
 8000ddc:	f000 fd3c 	bl	8001858 <Error_Handler>
 8000de0:	e7b8      	b.n	8000d54 <MX_ADC1_Init+0x5c>
 8000de2:	f000 fd39 	bl	8001858 <Error_Handler>
 8000de6:	b014      	add	sp, #80	; 0x50
 8000de8:	bd10      	pop	{r4, pc}
 8000dea:	f000 fd35 	bl	8001858 <Error_Handler>
 8000dee:	e7ea      	b.n	8000dc6 <MX_ADC1_Init+0xce>
 8000df0:	f000 fd32 	bl	8001858 <Error_Handler>
 8000df4:	e7de      	b.n	8000db4 <MX_ADC1_Init+0xbc>
 8000df6:	f000 fd2f 	bl	8001858 <Error_Handler>
 8000dfa:	e7c3      	b.n	8000d84 <MX_ADC1_Init+0x8c>
 8000dfc:	f000 fd2c 	bl	8001858 <Error_Handler>
 8000e00:	e7b0      	b.n	8000d64 <MX_ADC1_Init+0x6c>
 8000e02:	bf00      	nop
 8000e04:	f3af 8000 	nop.w
 8000e08:	00000001 	.word	0x00000001
 8000e0c:	00000040 	.word	0x00000040
 8000e10:	20000208 	.word	0x20000208
 8000e14:	00000000 	.word	0x00000000

08000e18 <MX_ADC2_Init>:
 8000e18:	b510      	push	{r4, lr}
 8000e1a:	2400      	movs	r4, #0
 8000e1c:	b090      	sub	sp, #64	; 0x40
 8000e1e:	2228      	movs	r2, #40	; 0x28
 8000e20:	4621      	mov	r1, r4
 8000e22:	a806      	add	r0, sp, #24
 8000e24:	e9cd 4400 	strd	r4, r4, [sp]
 8000e28:	e9cd 4402 	strd	r4, r4, [sp, #8]
 8000e2c:	e9cd 4404 	strd	r4, r4, [sp, #16]
 8000e30:	f005 fefa 	bl	8006c28 <memset>
 8000e34:	4828      	ldr	r0, [pc, #160]	; (8000ed8 <MX_ADC2_Init+0xc0>)
 8000e36:	4a29      	ldr	r2, [pc, #164]	; (8000edc <MX_ADC2_Init+0xc4>)
 8000e38:	8304      	strh	r4, [r0, #24]
 8000e3a:	f44f 3300 	mov.w	r3, #131072	; 0x20000
 8000e3e:	e9c0 2300 	strd	r2, r3, [r0]
 8000e42:	2201      	movs	r2, #1
 8000e44:	2300      	movs	r3, #0
 8000e46:	e9c0 230a 	strd	r2, r3, [r0, #40]	; 0x28
 8000e4a:	2304      	movs	r3, #4
 8000e4c:	6084      	str	r4, [r0, #8]
 8000e4e:	6104      	str	r4, [r0, #16]
 8000e50:	f880 4020 	strb.w	r4, [r0, #32]
 8000e54:	60c4      	str	r4, [r0, #12]
 8000e56:	61c2      	str	r2, [r0, #28]
 8000e58:	f880 4030 	strb.w	r4, [r0, #48]	; 0x30
 8000e5c:	6143      	str	r3, [r0, #20]
 8000e5e:	6344      	str	r4, [r0, #52]	; 0x34
 8000e60:	f001 fb1e 	bl	80024a0 <HAL_ADC_Init>
 8000e64:	bb38      	cbnz	r0, 8000eb6 <MX_ADC2_Init+0x9e>
 8000e66:	2201      	movs	r2, #1
 8000e68:	2301      	movs	r3, #1
 8000e6a:	e9cd 2300 	strd	r2, r3, [sp]
 8000e6e:	481a      	ldr	r0, [pc, #104]	; (8000ed8 <MX_ADC2_Init+0xc0>)
 8000e70:	2200      	movs	r2, #0
 8000e72:	2300      	movs	r3, #0
 8000e74:	4669      	mov	r1, sp
 8000e76:	e9cd 2302 	strd	r2, r3, [sp, #8]
 8000e7a:	e9cd 2304 	strd	r2, r3, [sp, #16]
 8000e7e:	f001 fcef 	bl	8002860 <HAL_ADC_ConfigChannel>
 8000e82:	b9f8      	cbnz	r0, 8000ec4 <MX_ADC2_Init+0xac>
 8000e84:	ed9f 7b12 	vldr	d7, [pc, #72]	; 8000ed0 <MX_ADC2_Init+0xb8>
 8000e88:	2004      	movs	r0, #4
 8000e8a:	2300      	movs	r3, #0
 8000e8c:	2201      	movs	r2, #1
 8000e8e:	9008      	str	r0, [sp, #32]
 8000e90:	a906      	add	r1, sp, #24
 8000e92:	4811      	ldr	r0, [pc, #68]	; (8000ed8 <MX_ADC2_Init+0xc0>)
 8000e94:	9309      	str	r3, [sp, #36]	; 0x24
 8000e96:	e9cd 2206 	strd	r2, r2, [sp, #24]
 8000e9a:	ed8d 7b0e 	vstr	d7, [sp, #56]	; 0x38
 8000e9e:	e9cd 330a 	strd	r3, r3, [sp, #40]	; 0x28
 8000ea2:	920c      	str	r2, [sp, #48]	; 0x30
 8000ea4:	f8ad 3034 	strh.w	r3, [sp, #52]	; 0x34
 8000ea8:	f88d 3036 	strb.w	r3, [sp, #54]	; 0x36
 8000eac:	f001 fea2 	bl	8002bf4 <HAL_ADCEx_InjectedConfigChannel>
 8000eb0:	b920      	cbnz	r0, 8000ebc <MX_ADC2_Init+0xa4>
 8000eb2:	b010      	add	sp, #64	; 0x40
 8000eb4:	bd10      	pop	{r4, pc}
 8000eb6:	f000 fccf 	bl	8001858 <Error_Handler>
 8000eba:	e7d4      	b.n	8000e66 <MX_ADC2_Init+0x4e>
 8000ebc:	f000 fccc 	bl	8001858 <Error_Handler>
 8000ec0:	b010      	add	sp, #64	; 0x40
 8000ec2:	bd10      	pop	{r4, pc}
 8000ec4:	f000 fcc8 	bl	8001858 <Error_Handler>
 8000ec8:	e7dc      	b.n	8000e84 <MX_ADC2_Init+0x6c>
 8000eca:	bf00      	nop
 8000ecc:	f3af 8000 	nop.w
 8000ed0:	00000001 	.word	0x00000001
 8000ed4:	00000040 	.word	0x00000040
 8000ed8:	20000258 	.word	0x20000258
 8000edc:	50000100 	.word	0x50000100

08000ee0 <MX_ADC3_Init>:
 8000ee0:	b510      	push	{r4, lr}
 8000ee2:	2228      	movs	r2, #40	; 0x28
 8000ee4:	2400      	movs	r4, #0
 8000ee6:	b094      	sub	sp, #80	; 0x50
 8000ee8:	eb0d 0002 	add.w	r0, sp, r2
 8000eec:	4621      	mov	r1, r4
 8000eee:	e9cd 4402 	strd	r4, r4, [sp, #8]
 8000ef2:	e9cd 4405 	strd	r4, r4, [sp, #20]
 8000ef6:	e9cd 4407 	strd	r4, r4, [sp, #28]
 8000efa:	9401      	str	r4, [sp, #4]
 8000efc:	9404      	str	r4, [sp, #16]
 8000efe:	9409      	str	r4, [sp, #36]	; 0x24
 8000f00:	f005 fe92 	bl	8006c28 <memset>
 8000f04:	482c      	ldr	r0, [pc, #176]	; (8000fb8 <MX_ADC3_Init+0xd8>)
 8000f06:	4a2d      	ldr	r2, [pc, #180]	; (8000fbc <MX_ADC3_Init+0xdc>)
 8000f08:	8304      	strh	r4, [r0, #24]
 8000f0a:	f44f 3300 	mov.w	r3, #131072	; 0x20000
 8000f0e:	e9c0 2300 	strd	r2, r3, [r0]
 8000f12:	2201      	movs	r2, #1
 8000f14:	2300      	movs	r3, #0
 8000f16:	e9c0 230a 	strd	r2, r3, [r0, #40]	; 0x28
 8000f1a:	2304      	movs	r3, #4
 8000f1c:	6084      	str	r4, [r0, #8]
 8000f1e:	6104      	str	r4, [r0, #16]
 8000f20:	f880 4020 	strb.w	r4, [r0, #32]
 8000f24:	60c4      	str	r4, [r0, #12]
 8000f26:	61c2      	str	r2, [r0, #28]
 8000f28:	f880 4030 	strb.w	r4, [r0, #48]	; 0x30
 8000f2c:	6143      	str	r3, [r0, #20]
 8000f2e:	6344      	str	r4, [r0, #52]	; 0x34
 8000f30:	f001 fab6 	bl	80024a0 <HAL_ADC_Init>
 8000f34:	bb78      	cbnz	r0, 8000f96 <MX_ADC3_Init+0xb6>
 8000f36:	2300      	movs	r3, #0
 8000f38:	481f      	ldr	r0, [pc, #124]	; (8000fb8 <MX_ADC3_Init+0xd8>)
 8000f3a:	9301      	str	r3, [sp, #4]
 8000f3c:	a901      	add	r1, sp, #4
 8000f3e:	f002 f8a7 	bl	8003090 <HAL_ADCEx_MultiModeConfigChannel>
 8000f42:	bb90      	cbnz	r0, 8000faa <MX_ADC3_Init+0xca>
 8000f44:	2205      	movs	r2, #5
 8000f46:	2301      	movs	r3, #1
 8000f48:	e9cd 2304 	strd	r2, r3, [sp, #16]
 8000f4c:	481a      	ldr	r0, [pc, #104]	; (8000fb8 <MX_ADC3_Init+0xd8>)
 8000f4e:	2200      	movs	r2, #0
 8000f50:	2300      	movs	r3, #0
 8000f52:	a904      	add	r1, sp, #16
 8000f54:	e9cd 2306 	strd	r2, r3, [sp, #24]
 8000f58:	e9cd 2308 	strd	r2, r3, [sp, #32]
 8000f5c:	f001 fc80 	bl	8002860 <HAL_ADC_ConfigChannel>
 8000f60:	bb00      	cbnz	r0, 8000fa4 <MX_ADC3_Init+0xc4>
 8000f62:	ed9f 7b13 	vldr	d7, [pc, #76]	; 8000fb0 <MX_ADC3_Init+0xd0>
 8000f66:	2201      	movs	r2, #1
 8000f68:	2005      	movs	r0, #5
 8000f6a:	2300      	movs	r3, #0
 8000f6c:	e9cd 020a 	strd	r0, r2, [sp, #40]	; 0x28
 8000f70:	2404      	movs	r4, #4
 8000f72:	4811      	ldr	r0, [pc, #68]	; (8000fb8 <MX_ADC3_Init+0xd8>)
 8000f74:	930d      	str	r3, [sp, #52]	; 0x34
 8000f76:	a90a      	add	r1, sp, #40	; 0x28
 8000f78:	ed8d 7b12 	vstr	d7, [sp, #72]	; 0x48
 8000f7c:	e9cd 330e 	strd	r3, r3, [sp, #56]	; 0x38
 8000f80:	9210      	str	r2, [sp, #64]	; 0x40
 8000f82:	940c      	str	r4, [sp, #48]	; 0x30
 8000f84:	f8ad 3044 	strh.w	r3, [sp, #68]	; 0x44
 8000f88:	f88d 3046 	strb.w	r3, [sp, #70]	; 0x46
 8000f8c:	f001 fe32 	bl	8002bf4 <HAL_ADCEx_InjectedConfigChannel>
 8000f90:	b920      	cbnz	r0, 8000f9c <MX_ADC3_Init+0xbc>
 8000f92:	b014      	add	sp, #80	; 0x50
 8000f94:	bd10      	pop	{r4, pc}
 8000f96:	f000 fc5f 	bl	8001858 <Error_Handler>
 8000f9a:	e7cc      	b.n	8000f36 <MX_ADC3_Init+0x56>
 8000f9c:	f000 fc5c 	bl	8001858 <Error_Handler>
 8000fa0:	b014      	add	sp, #80	; 0x50
 8000fa2:	bd10      	pop	{r4, pc}
 8000fa4:	f000 fc58 	bl	8001858 <Error_Handler>
 8000fa8:	e7db      	b.n	8000f62 <MX_ADC3_Init+0x82>
 8000faa:	f000 fc55 	bl	8001858 <Error_Handler>
 8000fae:	e7c9      	b.n	8000f44 <MX_ADC3_Init+0x64>
 8000fb0:	00000001 	.word	0x00000001
 8000fb4:	00000040 	.word	0x00000040
 8000fb8:	200002a8 	.word	0x200002a8
 8000fbc:	50000400 	.word	0x50000400

08000fc0 <HAL_ADC_MspInit>:
 8000fc0:	b500      	push	{lr}
 8000fc2:	6802      	ldr	r2, [r0, #0]
 8000fc4:	b08f      	sub	sp, #60	; 0x3c
 8000fc6:	2300      	movs	r3, #0
 8000fc8:	f1b2 4fa0 	cmp.w	r2, #1342177280	; 0x50000000
 8000fcc:	e9cd 3308 	strd	r3, r3, [sp, #32]
 8000fd0:	e9cd 330a 	strd	r3, r3, [sp, #40]	; 0x28
 8000fd4:	930c      	str	r3, [sp, #48]	; 0x30
 8000fd6:	d024      	beq.n	8001022 <HAL_ADC_MspInit+0x62>
 8000fd8:	4b49      	ldr	r3, [pc, #292]	; (8001100 <HAL_ADC_MspInit+0x140>)
 8000fda:	429a      	cmp	r2, r3
 8000fdc:	d005      	beq.n	8000fea <HAL_ADC_MspInit+0x2a>
 8000fde:	4b49      	ldr	r3, [pc, #292]	; (8001104 <HAL_ADC_MspInit+0x144>)
 8000fe0:	429a      	cmp	r2, r3
 8000fe2:	d063      	beq.n	80010ac <HAL_ADC_MspInit+0xec>
 8000fe4:	b00f      	add	sp, #60	; 0x3c
 8000fe6:	f85d fb04 	ldr.w	pc, [sp], #4
 8000fea:	4a47      	ldr	r2, [pc, #284]	; (8001108 <HAL_ADC_MspInit+0x148>)
 8000fec:	6813      	ldr	r3, [r2, #0]
 8000fee:	3301      	adds	r3, #1
 8000ff0:	2b01      	cmp	r3, #1
 8000ff2:	6013      	str	r3, [r2, #0]
 8000ff4:	d04f      	beq.n	8001096 <HAL_ADC_MspInit+0xd6>
 8000ff6:	4b45      	ldr	r3, [pc, #276]	; (800110c <HAL_ADC_MspInit+0x14c>)
 8000ff8:	695a      	ldr	r2, [r3, #20]
 8000ffa:	f442 3200 	orr.w	r2, r2, #131072	; 0x20000
 8000ffe:	615a      	str	r2, [r3, #20]
 8001000:	695b      	ldr	r3, [r3, #20]
 8001002:	ed9f 7b3b 	vldr	d7, [pc, #236]	; 80010f0 <HAL_ADC_MspInit+0x130>
 8001006:	f403 3300 	and.w	r3, r3, #131072	; 0x20000
 800100a:	9305      	str	r3, [sp, #20]
 800100c:	a908      	add	r1, sp, #32
 800100e:	f04f 4090 	mov.w	r0, #1207959552	; 0x48000000
 8001012:	ed8d 7b08 	vstr	d7, [sp, #32]
 8001016:	9b05      	ldr	r3, [sp, #20]
 8001018:	f002 fe36 	bl	8003c88 <HAL_GPIO_Init>
 800101c:	b00f      	add	sp, #60	; 0x3c
 800101e:	f85d fb04 	ldr.w	pc, [sp], #4
 8001022:	4a39      	ldr	r2, [pc, #228]	; (8001108 <HAL_ADC_MspInit+0x148>)
 8001024:	6813      	ldr	r3, [r2, #0]
 8001026:	3301      	adds	r3, #1
 8001028:	2b01      	cmp	r3, #1
 800102a:	6013      	str	r3, [r2, #0]
 800102c:	d028      	beq.n	8001080 <HAL_ADC_MspInit+0xc0>
 800102e:	4b37      	ldr	r3, [pc, #220]	; (800110c <HAL_ADC_MspInit+0x14c>)
 8001030:	695a      	ldr	r2, [r3, #20]
 8001032:	f442 3200 	orr.w	r2, r2, #131072	; 0x20000
 8001036:	615a      	str	r2, [r3, #20]
 8001038:	695a      	ldr	r2, [r3, #20]
 800103a:	f402 3200 	and.w	r2, r2, #131072	; 0x20000
 800103e:	9202      	str	r2, [sp, #8]
 8001040:	9a02      	ldr	r2, [sp, #8]
 8001042:	695a      	ldr	r2, [r3, #20]
 8001044:	f442 0280 	orr.w	r2, r2, #4194304	; 0x400000
 8001048:	615a      	str	r2, [r3, #20]
 800104a:	695b      	ldr	r3, [r3, #20]
 800104c:	f403 0380 	and.w	r3, r3, #4194304	; 0x400000
 8001050:	9303      	str	r3, [sp, #12]
 8001052:	2209      	movs	r2, #9
 8001054:	a908      	add	r1, sp, #32
 8001056:	2303      	movs	r3, #3
 8001058:	f04f 4090 	mov.w	r0, #1207959552	; 0x48000000
 800105c:	e9cd 2308 	strd	r2, r3, [sp, #32]
 8001060:	9b03      	ldr	r3, [sp, #12]
 8001062:	f002 fe11 	bl	8003c88 <HAL_GPIO_Init>
 8001066:	ed9f 7b22 	vldr	d7, [pc, #136]	; 80010f0 <HAL_ADC_MspInit+0x130>
 800106a:	2300      	movs	r3, #0
 800106c:	4828      	ldr	r0, [pc, #160]	; (8001110 <HAL_ADC_MspInit+0x150>)
 800106e:	930a      	str	r3, [sp, #40]	; 0x28
 8001070:	a908      	add	r1, sp, #32
 8001072:	ed8d 7b08 	vstr	d7, [sp, #32]
 8001076:	f002 fe07 	bl	8003c88 <HAL_GPIO_Init>
 800107a:	b00f      	add	sp, #60	; 0x3c
 800107c:	f85d fb04 	ldr.w	pc, [sp], #4
 8001080:	4b22      	ldr	r3, [pc, #136]	; (800110c <HAL_ADC_MspInit+0x14c>)
 8001082:	695a      	ldr	r2, [r3, #20]
 8001084:	f042 5280 	orr.w	r2, r2, #268435456	; 0x10000000
 8001088:	615a      	str	r2, [r3, #20]
 800108a:	695b      	ldr	r3, [r3, #20]
 800108c:	f003 5380 	and.w	r3, r3, #268435456	; 0x10000000
 8001090:	9301      	str	r3, [sp, #4]
 8001092:	9b01      	ldr	r3, [sp, #4]
 8001094:	e7cb      	b.n	800102e <HAL_ADC_MspInit+0x6e>
 8001096:	4b1d      	ldr	r3, [pc, #116]	; (800110c <HAL_ADC_MspInit+0x14c>)
 8001098:	695a      	ldr	r2, [r3, #20]
 800109a:	f042 5280 	orr.w	r2, r2, #268435456	; 0x10000000
 800109e:	615a      	str	r2, [r3, #20]
 80010a0:	695b      	ldr	r3, [r3, #20]
 80010a2:	f003 5380 	and.w	r3, r3, #268435456	; 0x10000000
 80010a6:	9304      	str	r3, [sp, #16]
 80010a8:	9b04      	ldr	r3, [sp, #16]
 80010aa:	e7a4      	b.n	8000ff6 <HAL_ADC_MspInit+0x36>
 80010ac:	f103 4370 	add.w	r3, r3, #4026531840	; 0xf0000000
 80010b0:	f503 3303 	add.w	r3, r3, #134144	; 0x20c00
 80010b4:	ed9f 7b10 	vldr	d7, [pc, #64]	; 80010f8 <HAL_ADC_MspInit+0x138>
 80010b8:	695a      	ldr	r2, [r3, #20]
 80010ba:	4816      	ldr	r0, [pc, #88]	; (8001114 <HAL_ADC_MspInit+0x154>)
 80010bc:	f042 5200 	orr.w	r2, r2, #536870912	; 0x20000000
 80010c0:	615a      	str	r2, [r3, #20]
 80010c2:	695a      	ldr	r2, [r3, #20]
 80010c4:	f002 5200 	and.w	r2, r2, #536870912	; 0x20000000
 80010c8:	9206      	str	r2, [sp, #24]
 80010ca:	9a06      	ldr	r2, [sp, #24]
 80010cc:	695a      	ldr	r2, [r3, #20]
 80010ce:	f442 2280 	orr.w	r2, r2, #262144	; 0x40000
 80010d2:	615a      	str	r2, [r3, #20]
 80010d4:	695b      	ldr	r3, [r3, #20]
 80010d6:	f403 2380 	and.w	r3, r3, #262144	; 0x40000
 80010da:	9307      	str	r3, [sp, #28]
 80010dc:	a908      	add	r1, sp, #32
 80010de:	ed8d 7b08 	vstr	d7, [sp, #32]
 80010e2:	9b07      	ldr	r3, [sp, #28]
 80010e4:	f002 fdd0 	bl	8003c88 <HAL_GPIO_Init>
 80010e8:	e77c      	b.n	8000fe4 <HAL_ADC_MspInit+0x24>
 80010ea:	bf00      	nop
 80010ec:	f3af 8000 	nop.w
 80010f0:	00000010 	.word	0x00000010
 80010f4:	00000003 	.word	0x00000003
 80010f8:	00002000 	.word	0x00002000
 80010fc:	00000003 	.word	0x00000003
 8001100:	50000100 	.word	0x50000100
 8001104:	50000400 	.word	0x50000400
 8001108:	20000204 	.word	0x20000204
 800110c:	40021000 	.word	0x40021000
 8001110:	48001400 	.word	0x48001400
 8001114:	48000400 	.word	0x48000400

08001118 <MX_CAN_Init>:
 8001118:	b510      	push	{r4, lr}
 800111a:	480c      	ldr	r0, [pc, #48]	; (800114c <MX_CAN_Init+0x34>)
 800111c:	4c0c      	ldr	r4, [pc, #48]	; (8001150 <MX_CAN_Init+0x38>)
 800111e:	2300      	movs	r3, #0
 8001120:	2202      	movs	r2, #2
 8001122:	e9c0 4200 	strd	r4, r2, [r0]
 8001126:	f44f 2180 	mov.w	r1, #262144	; 0x40000
 800112a:	f44f 02a0 	mov.w	r2, #5242880	; 0x500000
 800112e:	6183      	str	r3, [r0, #24]
 8001130:	8383      	strh	r3, [r0, #28]
 8001132:	e9c0 3302 	strd	r3, r3, [r0, #8]
 8001136:	e9c0 1204 	strd	r1, r2, [r0, #16]
 800113a:	f002 f83d 	bl	80031b8 <HAL_CAN_Init>
 800113e:	b900      	cbnz	r0, 8001142 <MX_CAN_Init+0x2a>
 8001140:	bd10      	pop	{r4, pc}
 8001142:	e8bd 4010 	ldmia.w	sp!, {r4, lr}
 8001146:	f000 bb87 	b.w	8001858 <Error_Handler>
 800114a:	bf00      	nop
 800114c:	200002f8 	.word	0x200002f8
 8001150:	40006400 	.word	0x40006400

08001154 <HAL_CAN_MspInit>:
 8001154:	b530      	push	{r4, r5, lr}
 8001156:	4b28      	ldr	r3, [pc, #160]	; (80011f8 <HAL_CAN_MspInit+0xa4>)
 8001158:	6802      	ldr	r2, [r0, #0]
 800115a:	b089      	sub	sp, #36	; 0x24
 800115c:	2400      	movs	r4, #0
 800115e:	429a      	cmp	r2, r3
 8001160:	e9cd 4402 	strd	r4, r4, [sp, #8]
 8001164:	e9cd 4404 	strd	r4, r4, [sp, #16]
 8001168:	9406      	str	r4, [sp, #24]
 800116a:	d001      	beq.n	8001170 <HAL_CAN_MspInit+0x1c>
 800116c:	b009      	add	sp, #36	; 0x24
 800116e:	bd30      	pop	{r4, r5, pc}
 8001170:	f503 33d6 	add.w	r3, r3, #109568	; 0x1ac00
 8001174:	a902      	add	r1, sp, #8
 8001176:	69da      	ldr	r2, [r3, #28]
 8001178:	f042 7200 	orr.w	r2, r2, #33554432	; 0x2000000
 800117c:	61da      	str	r2, [r3, #28]
 800117e:	69da      	ldr	r2, [r3, #28]
 8001180:	f002 7200 	and.w	r2, r2, #33554432	; 0x2000000
 8001184:	9200      	str	r2, [sp, #0]
 8001186:	9a00      	ldr	r2, [sp, #0]
 8001188:	695a      	ldr	r2, [r3, #20]
 800118a:	f442 3200 	orr.w	r2, r2, #131072	; 0x20000
 800118e:	615a      	str	r2, [r3, #20]
 8001190:	695b      	ldr	r3, [r3, #20]
 8001192:	f403 3300 	and.w	r3, r3, #131072	; 0x20000
 8001196:	9301      	str	r3, [sp, #4]
 8001198:	f44f 52c0 	mov.w	r2, #6144	; 0x1800
 800119c:	2302      	movs	r3, #2
 800119e:	e9cd 2302 	strd	r2, r3, [sp, #8]
 80011a2:	f04f 4090 	mov.w	r0, #1207959552	; 0x48000000
 80011a6:	2309      	movs	r3, #9
 80011a8:	2203      	movs	r2, #3
 80011aa:	e9cd 2305 	strd	r2, r3, [sp, #20]
 80011ae:	9d01      	ldr	r5, [sp, #4]
 80011b0:	f002 fd6a 	bl	8003c88 <HAL_GPIO_Init>
 80011b4:	4622      	mov	r2, r4
 80011b6:	4621      	mov	r1, r4
 80011b8:	2013      	movs	r0, #19
 80011ba:	f002 fa5b 	bl	8003674 <HAL_NVIC_SetPriority>
 80011be:	2013      	movs	r0, #19
 80011c0:	f002 fa96 	bl	80036f0 <HAL_NVIC_EnableIRQ>
 80011c4:	4622      	mov	r2, r4
 80011c6:	4621      	mov	r1, r4
 80011c8:	2014      	movs	r0, #20
 80011ca:	f002 fa53 	bl	8003674 <HAL_NVIC_SetPriority>
 80011ce:	2014      	movs	r0, #20
 80011d0:	f002 fa8e 	bl	80036f0 <HAL_NVIC_EnableIRQ>
 80011d4:	4622      	mov	r2, r4
 80011d6:	2101      	movs	r1, #1
 80011d8:	2015      	movs	r0, #21
 80011da:	f002 fa4b 	bl	8003674 <HAL_NVIC_SetPriority>
 80011de:	2015      	movs	r0, #21
 80011e0:	f002 fa86 	bl	80036f0 <HAL_NVIC_EnableIRQ>
 80011e4:	4622      	mov	r2, r4
 80011e6:	2101      	movs	r1, #1
 80011e8:	2016      	movs	r0, #22
 80011ea:	f002 fa43 	bl	8003674 <HAL_NVIC_SetPriority>
 80011ee:	2016      	movs	r0, #22
 80011f0:	f002 fa7e 	bl	80036f0 <HAL_NVIC_EnableIRQ>
 80011f4:	b009      	add	sp, #36	; 0x24
 80011f6:	bd30      	pop	{r4, r5, pc}
 80011f8:	40006400 	.word	0x40006400

080011fc <MX_DMA_Init>:
 80011fc:	4b0b      	ldr	r3, [pc, #44]	; (800122c <MX_DMA_Init+0x30>)
 80011fe:	b500      	push	{lr}
 8001200:	6959      	ldr	r1, [r3, #20]
 8001202:	f041 0101 	orr.w	r1, r1, #1
 8001206:	6159      	str	r1, [r3, #20]
 8001208:	695b      	ldr	r3, [r3, #20]
 800120a:	b083      	sub	sp, #12
 800120c:	2200      	movs	r2, #0
 800120e:	f003 0301 	and.w	r3, r3, #1
 8001212:	9301      	str	r3, [sp, #4]
 8001214:	200e      	movs	r0, #14
 8001216:	4611      	mov	r1, r2
 8001218:	9b01      	ldr	r3, [sp, #4]
 800121a:	f002 fa2b 	bl	8003674 <HAL_NVIC_SetPriority>
 800121e:	200e      	movs	r0, #14
 8001220:	b003      	add	sp, #12
 8001222:	f85d eb04 	ldr.w	lr, [sp], #4
 8001226:	f002 ba63 	b.w	80036f0 <HAL_NVIC_EnableIRQ>
 800122a:	bf00      	nop
 800122c:	40021000 	.word	0x40021000

08001230 <MX_GPIO_Init>:
 8001230:	e92d 4370 	stmdb	sp!, {r4, r5, r6, r8, r9, lr}
 8001234:	2400      	movs	r4, #0
 8001236:	b08a      	sub	sp, #40	; 0x28
 8001238:	e9cd 4404 	strd	r4, r4, [sp, #16]
 800123c:	e9cd 4406 	strd	r4, r4, [sp, #24]
 8001240:	4b30      	ldr	r3, [pc, #192]	; (8001304 <MX_GPIO_Init+0xd4>)
 8001242:	9408      	str	r4, [sp, #32]
 8001244:	695a      	ldr	r2, [r3, #20]
 8001246:	4d30      	ldr	r5, [pc, #192]	; (8001308 <MX_GPIO_Init+0xd8>)
 8001248:	4e30      	ldr	r6, [pc, #192]	; (800130c <MX_GPIO_Init+0xdc>)
 800124a:	f442 2200 	orr.w	r2, r2, #524288	; 0x80000
 800124e:	615a      	str	r2, [r3, #20]
 8001250:	695a      	ldr	r2, [r3, #20]
 8001252:	f402 2200 	and.w	r2, r2, #524288	; 0x80000
 8001256:	9200      	str	r2, [sp, #0]
 8001258:	9a00      	ldr	r2, [sp, #0]
 800125a:	695a      	ldr	r2, [r3, #20]
 800125c:	f442 0280 	orr.w	r2, r2, #4194304	; 0x400000
 8001260:	615a      	str	r2, [r3, #20]
 8001262:	695a      	ldr	r2, [r3, #20]
 8001264:	f402 0280 	and.w	r2, r2, #4194304	; 0x400000
 8001268:	9201      	str	r2, [sp, #4]
 800126a:	9a01      	ldr	r2, [sp, #4]
 800126c:	695a      	ldr	r2, [r3, #20]
 800126e:	f442 3200 	orr.w	r2, r2, #131072	; 0x20000
 8001272:	615a      	str	r2, [r3, #20]
 8001274:	695a      	ldr	r2, [r3, #20]
 8001276:	f402 3200 	and.w	r2, r2, #131072	; 0x20000
 800127a:	9202      	str	r2, [sp, #8]
 800127c:	9a02      	ldr	r2, [sp, #8]
 800127e:	695a      	ldr	r2, [r3, #20]
 8001280:	f442 2280 	orr.w	r2, r2, #262144	; 0x40000
 8001284:	615a      	str	r2, [r3, #20]
 8001286:	695b      	ldr	r3, [r3, #20]
 8001288:	f403 2380 	and.w	r3, r3, #262144	; 0x40000
 800128c:	9303      	str	r3, [sp, #12]
 800128e:	4622      	mov	r2, r4
 8001290:	4628      	mov	r0, r5
 8001292:	f44f 4160 	mov.w	r1, #57344	; 0xe000
 8001296:	9b03      	ldr	r3, [sp, #12]
 8001298:	f002 fde0 	bl	8003e5c <HAL_GPIO_WritePin>
 800129c:	4622      	mov	r2, r4
 800129e:	4630      	mov	r0, r6
 80012a0:	21c0      	movs	r1, #192	; 0xc0
 80012a2:	f002 fddb 	bl	8003e5c <HAL_GPIO_WritePin>
 80012a6:	f04f 0800 	mov.w	r8, #0
 80012aa:	a904      	add	r1, sp, #16
 80012ac:	4628      	mov	r0, r5
 80012ae:	f44f 4260 	mov.w	r2, #57344	; 0xe000
 80012b2:	2301      	movs	r3, #1
 80012b4:	f04f 0900 	mov.w	r9, #0
 80012b8:	e9cd 2304 	strd	r2, r3, [sp, #16]
 80012bc:	e9cd 8906 	strd	r8, r9, [sp, #24]
 80012c0:	f002 fce2 	bl	8003c88 <HAL_GPIO_Init>
 80012c4:	a904      	add	r1, sp, #16
 80012c6:	4628      	mov	r0, r5
 80012c8:	2201      	movs	r2, #1
 80012ca:	2300      	movs	r3, #0
 80012cc:	e9cd 2304 	strd	r2, r3, [sp, #16]
 80012d0:	9406      	str	r4, [sp, #24]
 80012d2:	f002 fcd9 	bl	8003c88 <HAL_GPIO_Init>
 80012d6:	2301      	movs	r3, #1
 80012d8:	4628      	mov	r0, r5
 80012da:	a904      	add	r1, sp, #16
 80012dc:	9306      	str	r3, [sp, #24]
 80012de:	220e      	movs	r2, #14
 80012e0:	2300      	movs	r3, #0
 80012e2:	e9cd 2304 	strd	r2, r3, [sp, #16]
 80012e6:	f002 fccf 	bl	8003c88 <HAL_GPIO_Init>
 80012ea:	22c0      	movs	r2, #192	; 0xc0
 80012ec:	2301      	movs	r3, #1
 80012ee:	a904      	add	r1, sp, #16
 80012f0:	4630      	mov	r0, r6
 80012f2:	e9cd 8906 	strd	r8, r9, [sp, #24]
 80012f6:	e9cd 2304 	strd	r2, r3, [sp, #16]
 80012fa:	f002 fcc5 	bl	8003c88 <HAL_GPIO_Init>
 80012fe:	b00a      	add	sp, #40	; 0x28
 8001300:	e8bd 8370 	ldmia.w	sp!, {r4, r5, r6, r8, r9, pc}
 8001304:	40021000 	.word	0x40021000
 8001308:	48000800 	.word	0x48000800
 800130c:	48000400 	.word	0x48000400

08001310 <_write>:
 8001310:	b510      	push	{r4, lr}
 8001312:	4803      	ldr	r0, [pc, #12]	; (8001320 <_write+0x10>)
 8001314:	4614      	mov	r4, r2
 8001316:	b292      	uxth	r2, r2
 8001318:	f003 ff46 	bl	80051a8 <HAL_UART_Transmit_DMA>
 800131c:	4620      	mov	r0, r4
 800131e:	bd10      	pop	{r4, pc}
 8001320:	20001514 	.word	0x20001514

08001324 <checkAngle>:
 8001324:	b5f8      	push	{r3, r4, r5, r6, r7, lr}
 8001326:	4e33      	ldr	r6, [pc, #204]	; (80013f4 <checkAngle+0xd0>)
 8001328:	eb06 1540 	add.w	r5, r6, r0, lsl #5
 800132c:	4604      	mov	r4, r0
 800132e:	f000 fb99 	bl	8001a64 <getElecRadianMA702>
 8001332:	68ab      	ldr	r3, [r5, #8]
 8001334:	edd5 7a01 	vldr	s15, [r5, #4]
 8001338:	68ea      	ldr	r2, [r5, #12]
 800133a:	3301      	adds	r3, #1
 800133c:	ee37 0a80 	vadd.f32	s0, s15, s0
 8001340:	60ab      	str	r3, [r5, #8]
 8001342:	f647 33b3 	movw	r3, #31667	; 0x7bb3
 8001346:	429a      	cmp	r2, r3
 8001348:	ed85 0a01 	vstr	s0, [r5, #4]
 800134c:	ea4f 1744 	mov.w	r7, r4, lsl #5
 8001350:	dc0b      	bgt.n	800136a <checkAngle+0x46>
 8001352:	19f5      	adds	r5, r6, r7
 8001354:	f647 33b2 	movw	r3, #31666	; 0x7bb2
 8001358:	68ea      	ldr	r2, [r5, #12]
 800135a:	429a      	cmp	r2, r3
 800135c:	dd27      	ble.n	80013ae <checkAngle+0x8a>
 800135e:	4620      	mov	r0, r4
 8001360:	f000 fb88 	bl	8001a74 <getRawMA702>
 8001364:	443e      	add	r6, r7
 8001366:	60f0      	str	r0, [r6, #12]
 8001368:	bdf8      	pop	{r3, r4, r5, r6, r7, pc}
 800136a:	4620      	mov	r0, r4
 800136c:	f000 fb82 	bl	8001a74 <getRawMA702>
 8001370:	f647 33b2 	movw	r3, #31666	; 0x7bb2
 8001374:	4298      	cmp	r0, r3
 8001376:	dcec      	bgt.n	8001352 <checkAngle+0x2e>
 8001378:	4b1f      	ldr	r3, [pc, #124]	; (80013f8 <checkAngle+0xd4>)
 800137a:	edd3 7a00 	vldr	s15, [r3]
 800137e:	eef5 7ac0 	vcmpe.f32	s15, #0.0
 8001382:	eef1 fa10 	vmrs	APSR_nzcv, fpscr
 8001386:	f04f 0300 	mov.w	r3, #0
 800138a:	d5e2      	bpl.n	8001352 <checkAngle+0x2e>
 800138c:	edd5 7a02 	vldr	s15, [r5, #8]
 8001390:	edd5 6a01 	vldr	s13, [r5, #4]
 8001394:	606b      	str	r3, [r5, #4]
 8001396:	eef8 7ae7 	vcvt.f32.s32	s15, s15
 800139a:	2300      	movs	r3, #0
 800139c:	ee86 7aa7 	vdiv.f32	s14, s13, s15
 80013a0:	60ab      	str	r3, [r5, #8]
 80013a2:	69eb      	ldr	r3, [r5, #28]
 80013a4:	3301      	adds	r3, #1
 80013a6:	61eb      	str	r3, [r5, #28]
 80013a8:	ed85 7a06 	vstr	s14, [r5, #24]
 80013ac:	e7d1      	b.n	8001352 <checkAngle+0x2e>
 80013ae:	4620      	mov	r0, r4
 80013b0:	f000 fb60 	bl	8001a74 <getRawMA702>
 80013b4:	f647 33b3 	movw	r3, #31667	; 0x7bb3
 80013b8:	4298      	cmp	r0, r3
 80013ba:	ddd0      	ble.n	800135e <checkAngle+0x3a>
 80013bc:	4b0e      	ldr	r3, [pc, #56]	; (80013f8 <checkAngle+0xd4>)
 80013be:	edd3 7a00 	vldr	s15, [r3]
 80013c2:	eef5 7ac0 	vcmpe.f32	s15, #0.0
 80013c6:	eef1 fa10 	vmrs	APSR_nzcv, fpscr
 80013ca:	f04f 0300 	mov.w	r3, #0
 80013ce:	ddc6      	ble.n	800135e <checkAngle+0x3a>
 80013d0:	edd5 7a02 	vldr	s15, [r5, #8]
 80013d4:	edd5 6a01 	vldr	s13, [r5, #4]
 80013d8:	606b      	str	r3, [r5, #4]
 80013da:	eef8 7ae7 	vcvt.f32.s32	s15, s15
 80013de:	2300      	movs	r3, #0
 80013e0:	ee86 7aa7 	vdiv.f32	s14, s13, s15
 80013e4:	60ab      	str	r3, [r5, #8]
 80013e6:	696b      	ldr	r3, [r5, #20]
 80013e8:	3301      	adds	r3, #1
 80013ea:	616b      	str	r3, [r5, #20]
 80013ec:	ed85 7a04 	vstr	s14, [r5, #16]
 80013f0:	e7b5      	b.n	800135e <checkAngle+0x3a>
 80013f2:	bf00      	nop
 80013f4:	20000334 	.word	0x20000334
 80013f8:	20000000 	.word	0x20000000
 80013fc:	00000000 	.word	0x00000000

08001400 <HAL_TIM_PeriodElapsedCallback>:
 8001400:	b5f8      	push	{r3, r4, r5, r6, r7, lr}
 8001402:	4b95      	ldr	r3, [pc, #596]	; (8001658 <HAL_TIM_PeriodElapsedCallback+0x258>)
 8001404:	4298      	cmp	r0, r3
 8001406:	ed2d 8b02 	vpush	{d8}
 800140a:	d003      	beq.n	8001414 <HAL_TIM_PeriodElapsedCallback+0x14>
 800140c:	4b93      	ldr	r3, [pc, #588]	; (800165c <HAL_TIM_PeriodElapsedCallback+0x25c>)
 800140e:	4298      	cmp	r0, r3
 8001410:	f000 80f1 	beq.w	80015f6 <HAL_TIM_PeriodElapsedCallback+0x1f6>
 8001414:	4c92      	ldr	r4, [pc, #584]	; (8001660 <HAL_TIM_PeriodElapsedCallback+0x260>)
 8001416:	4893      	ldr	r0, [pc, #588]	; (8001664 <HAL_TIM_PeriodElapsedCallback+0x264>)
 8001418:	7823      	ldrb	r3, [r4, #0]
 800141a:	2201      	movs	r2, #1
 800141c:	4053      	eors	r3, r2
 800141e:	f44f 4180 	mov.w	r1, #16384	; 0x4000
 8001422:	7023      	strb	r3, [r4, #0]
 8001424:	f002 fd1a 	bl	8003e5c <HAL_GPIO_WritePin>
 8001428:	4b8f      	ldr	r3, [pc, #572]	; (8001668 <HAL_TIM_PeriodElapsedCallback+0x268>)
 800142a:	781d      	ldrb	r5, [r3, #0]
 800142c:	2d00      	cmp	r5, #0
 800142e:	d04f      	beq.n	80014d0 <HAL_TIM_PeriodElapsedCallback+0xd0>
 8001430:	4b8e      	ldr	r3, [pc, #568]	; (800166c <HAL_TIM_PeriodElapsedCallback+0x26c>)
 8001432:	4d8f      	ldr	r5, [pc, #572]	; (8001670 <HAL_TIM_PeriodElapsedCallback+0x270>)
 8001434:	edd3 7a00 	vldr	s15, [r3]
 8001438:	ed95 8a00 	vldr	s16, [r5]
 800143c:	7824      	ldrb	r4, [r4, #0]
 800143e:	ee38 8a67 	vsub.f32	s16, s16, s15
 8001442:	ee18 0a10 	vmov	r0, s16
 8001446:	f7ff f87f 	bl	8000548 <__aeabi_f2d>
 800144a:	a381      	add	r3, pc, #516	; (adr r3, 8001650 <HAL_TIM_PeriodElapsedCallback+0x250>)
 800144c:	e9d3 2300 	ldrd	r2, r3, [r3]
 8001450:	4606      	mov	r6, r0
 8001452:	460f      	mov	r7, r1
 8001454:	f7ff fb60 	bl	8000b18 <__aeabi_dcmpgt>
 8001458:	2800      	cmp	r0, #0
 800145a:	f040 80cf 	bne.w	80015fc <HAL_TIM_PeriodElapsedCallback+0x1fc>
 800145e:	eeb5 8ac0 	vcmpe.f32	s16, #0.0
 8001462:	eef1 fa10 	vmrs	APSR_nzcv, fpscr
 8001466:	ed85 8a00 	vstr	s16, [r5]
 800146a:	f100 80dd 	bmi.w	8001628 <HAL_TIM_PeriodElapsedCallback+0x228>
 800146e:	487d      	ldr	r0, [pc, #500]	; (8001664 <HAL_TIM_PeriodElapsedCallback+0x264>)
 8001470:	2201      	movs	r2, #1
 8001472:	f44f 5100 	mov.w	r1, #8192	; 0x2000
 8001476:	2c00      	cmp	r4, #0
 8001478:	f000 8097 	beq.w	80015aa <HAL_TIM_PeriodElapsedCallback+0x1aa>
 800147c:	f002 fcee 	bl	8003e5c <HAL_GPIO_WritePin>
 8001480:	2101      	movs	r1, #1
 8001482:	487c      	ldr	r0, [pc, #496]	; (8001674 <HAL_TIM_PeriodElapsedCallback+0x274>)
 8001484:	4c7c      	ldr	r4, [pc, #496]	; (8001678 <HAL_TIM_PeriodElapsedCallback+0x278>)
 8001486:	f001 f9d5 	bl	8002834 <HAL_ADCEx_InjectedGetValue>
 800148a:	2102      	movs	r1, #2
 800148c:	4603      	mov	r3, r0
 800148e:	4879      	ldr	r0, [pc, #484]	; (8001674 <HAL_TIM_PeriodElapsedCallback+0x274>)
 8001490:	6023      	str	r3, [r4, #0]
 8001492:	f001 f9cf 	bl	8002834 <HAL_ADCEx_InjectedGetValue>
 8001496:	2103      	movs	r1, #3
 8001498:	4603      	mov	r3, r0
 800149a:	4876      	ldr	r0, [pc, #472]	; (8001674 <HAL_TIM_PeriodElapsedCallback+0x274>)
 800149c:	60e3      	str	r3, [r4, #12]
 800149e:	f001 f9c9 	bl	8002834 <HAL_ADCEx_InjectedGetValue>
 80014a2:	4603      	mov	r3, r0
 80014a4:	4873      	ldr	r0, [pc, #460]	; (8001674 <HAL_TIM_PeriodElapsedCallback+0x274>)
 80014a6:	6123      	str	r3, [r4, #16]
 80014a8:	f001 f93c 	bl	8002724 <HAL_ADCEx_InjectedStart>
 80014ac:	486d      	ldr	r0, [pc, #436]	; (8001664 <HAL_TIM_PeriodElapsedCallback+0x264>)
 80014ae:	2200      	movs	r2, #0
 80014b0:	f44f 5100 	mov.w	r1, #8192	; 0x2000
 80014b4:	f002 fcd2 	bl	8003e5c <HAL_GPIO_WritePin>
 80014b8:	f000 fa36 	bl	8001928 <updateMA702_M0>
 80014bc:	4b6f      	ldr	r3, [pc, #444]	; (800167c <HAL_TIM_PeriodElapsedCallback+0x27c>)
 80014be:	ed95 0a00 	vldr	s0, [r5]
 80014c2:	edd3 0a00 	vldr	s1, [r3]
 80014c6:	eeb3 1a08 	vmov.f32	s2, #56	; 0x41c00000  24.0
 80014ca:	f000 fdb5 	bl	8002038 <setOutputRadianM0>
 80014ce:	e035      	b.n	800153c <HAL_TIM_PeriodElapsedCallback+0x13c>
 80014d0:	7824      	ldrb	r4, [r4, #0]
 80014d2:	4864      	ldr	r0, [pc, #400]	; (8001664 <HAL_TIM_PeriodElapsedCallback+0x264>)
 80014d4:	2201      	movs	r2, #1
 80014d6:	f44f 5100 	mov.w	r1, #8192	; 0x2000
 80014da:	2c00      	cmp	r4, #0
 80014dc:	d038      	beq.n	8001550 <HAL_TIM_PeriodElapsedCallback+0x150>
 80014de:	f002 fcbd 	bl	8003e5c <HAL_GPIO_WritePin>
 80014e2:	2101      	movs	r1, #1
 80014e4:	4863      	ldr	r0, [pc, #396]	; (8001674 <HAL_TIM_PeriodElapsedCallback+0x274>)
 80014e6:	4c64      	ldr	r4, [pc, #400]	; (8001678 <HAL_TIM_PeriodElapsedCallback+0x278>)
 80014e8:	f001 f9a4 	bl	8002834 <HAL_ADCEx_InjectedGetValue>
 80014ec:	2102      	movs	r1, #2
 80014ee:	4603      	mov	r3, r0
 80014f0:	4860      	ldr	r0, [pc, #384]	; (8001674 <HAL_TIM_PeriodElapsedCallback+0x274>)
 80014f2:	6023      	str	r3, [r4, #0]
 80014f4:	f001 f99e 	bl	8002834 <HAL_ADCEx_InjectedGetValue>
 80014f8:	2103      	movs	r1, #3
 80014fa:	4603      	mov	r3, r0
 80014fc:	485d      	ldr	r0, [pc, #372]	; (8001674 <HAL_TIM_PeriodElapsedCallback+0x274>)
 80014fe:	60e3      	str	r3, [r4, #12]
 8001500:	f001 f998 	bl	8002834 <HAL_ADCEx_InjectedGetValue>
 8001504:	4603      	mov	r3, r0
 8001506:	485b      	ldr	r0, [pc, #364]	; (8001674 <HAL_TIM_PeriodElapsedCallback+0x274>)
 8001508:	6123      	str	r3, [r4, #16]
 800150a:	f001 f90b 	bl	8002724 <HAL_ADCEx_InjectedStart>
 800150e:	462a      	mov	r2, r5
 8001510:	4854      	ldr	r0, [pc, #336]	; (8001664 <HAL_TIM_PeriodElapsedCallback+0x264>)
 8001512:	f44f 5100 	mov.w	r1, #8192	; 0x2000
 8001516:	f002 fca1 	bl	8003e5c <HAL_GPIO_WritePin>
 800151a:	f000 fa05 	bl	8001928 <updateMA702_M0>
 800151e:	4628      	mov	r0, r5
 8001520:	f000 faa0 	bl	8001a64 <getElecRadianMA702>
 8001524:	4a52      	ldr	r2, [pc, #328]	; (8001670 <HAL_TIM_PeriodElapsedCallback+0x270>)
 8001526:	4b55      	ldr	r3, [pc, #340]	; (800167c <HAL_TIM_PeriodElapsedCallback+0x27c>)
 8001528:	edd2 7a00 	vldr	s15, [r2]
 800152c:	edd3 0a00 	vldr	s1, [r3]
 8001530:	ee30 0a27 	vadd.f32	s0, s0, s15
 8001534:	eeb3 1a08 	vmov.f32	s2, #56	; 0x41c00000  24.0
 8001538:	f000 fd7e 	bl	8002038 <setOutputRadianM0>
 800153c:	ecbd 8b02 	vpop	{d8}
 8001540:	4848      	ldr	r0, [pc, #288]	; (8001664 <HAL_TIM_PeriodElapsedCallback+0x264>)
 8001542:	e8bd 40f8 	ldmia.w	sp!, {r3, r4, r5, r6, r7, lr}
 8001546:	2200      	movs	r2, #0
 8001548:	f44f 4180 	mov.w	r1, #16384	; 0x4000
 800154c:	f002 bc86 	b.w	8003e5c <HAL_GPIO_WritePin>
 8001550:	f002 fc84 	bl	8003e5c <HAL_GPIO_WritePin>
 8001554:	2101      	movs	r1, #1
 8001556:	484a      	ldr	r0, [pc, #296]	; (8001680 <HAL_TIM_PeriodElapsedCallback+0x280>)
 8001558:	4d47      	ldr	r5, [pc, #284]	; (8001678 <HAL_TIM_PeriodElapsedCallback+0x278>)
 800155a:	f001 f96b 	bl	8002834 <HAL_ADCEx_InjectedGetValue>
 800155e:	2101      	movs	r1, #1
 8001560:	4603      	mov	r3, r0
 8001562:	4848      	ldr	r0, [pc, #288]	; (8001684 <HAL_TIM_PeriodElapsedCallback+0x284>)
 8001564:	60ab      	str	r3, [r5, #8]
 8001566:	f001 f965 	bl	8002834 <HAL_ADCEx_InjectedGetValue>
 800156a:	4603      	mov	r3, r0
 800156c:	4845      	ldr	r0, [pc, #276]	; (8001684 <HAL_TIM_PeriodElapsedCallback+0x284>)
 800156e:	606b      	str	r3, [r5, #4]
 8001570:	f001 f8d8 	bl	8002724 <HAL_ADCEx_InjectedStart>
 8001574:	4842      	ldr	r0, [pc, #264]	; (8001680 <HAL_TIM_PeriodElapsedCallback+0x280>)
 8001576:	f001 f8d5 	bl	8002724 <HAL_ADCEx_InjectedStart>
 800157a:	4622      	mov	r2, r4
 800157c:	f44f 5100 	mov.w	r1, #8192	; 0x2000
 8001580:	4838      	ldr	r0, [pc, #224]	; (8001664 <HAL_TIM_PeriodElapsedCallback+0x264>)
 8001582:	f002 fc6b 	bl	8003e5c <HAL_GPIO_WritePin>
 8001586:	f000 fa1f 	bl	80019c8 <updateMA702_M1>
 800158a:	2001      	movs	r0, #1
 800158c:	f000 fa6a 	bl	8001a64 <getElecRadianMA702>
 8001590:	4a37      	ldr	r2, [pc, #220]	; (8001670 <HAL_TIM_PeriodElapsedCallback+0x270>)
 8001592:	4b3a      	ldr	r3, [pc, #232]	; (800167c <HAL_TIM_PeriodElapsedCallback+0x27c>)
 8001594:	edd2 7a00 	vldr	s15, [r2]
 8001598:	edd3 0a00 	vldr	s1, [r3]
 800159c:	ee30 0a27 	vadd.f32	s0, s0, s15
 80015a0:	eeb3 1a08 	vmov.f32	s2, #56	; 0x41c00000  24.0
 80015a4:	f000 fdac 	bl	8002100 <setOutputRadianM1>
 80015a8:	e7c8      	b.n	800153c <HAL_TIM_PeriodElapsedCallback+0x13c>
 80015aa:	f002 fc57 	bl	8003e5c <HAL_GPIO_WritePin>
 80015ae:	2101      	movs	r1, #1
 80015b0:	4833      	ldr	r0, [pc, #204]	; (8001680 <HAL_TIM_PeriodElapsedCallback+0x280>)
 80015b2:	4e31      	ldr	r6, [pc, #196]	; (8001678 <HAL_TIM_PeriodElapsedCallback+0x278>)
 80015b4:	f001 f93e 	bl	8002834 <HAL_ADCEx_InjectedGetValue>
 80015b8:	2101      	movs	r1, #1
 80015ba:	60b0      	str	r0, [r6, #8]
 80015bc:	4831      	ldr	r0, [pc, #196]	; (8001684 <HAL_TIM_PeriodElapsedCallback+0x284>)
 80015be:	f001 f939 	bl	8002834 <HAL_ADCEx_InjectedGetValue>
 80015c2:	4603      	mov	r3, r0
 80015c4:	482f      	ldr	r0, [pc, #188]	; (8001684 <HAL_TIM_PeriodElapsedCallback+0x284>)
 80015c6:	6073      	str	r3, [r6, #4]
 80015c8:	f001 f8ac 	bl	8002724 <HAL_ADCEx_InjectedStart>
 80015cc:	482c      	ldr	r0, [pc, #176]	; (8001680 <HAL_TIM_PeriodElapsedCallback+0x280>)
 80015ce:	f001 f8a9 	bl	8002724 <HAL_ADCEx_InjectedStart>
 80015d2:	4824      	ldr	r0, [pc, #144]	; (8001664 <HAL_TIM_PeriodElapsedCallback+0x264>)
 80015d4:	4622      	mov	r2, r4
 80015d6:	f44f 5100 	mov.w	r1, #8192	; 0x2000
 80015da:	f002 fc3f 	bl	8003e5c <HAL_GPIO_WritePin>
 80015de:	f000 f9f3 	bl	80019c8 <updateMA702_M1>
 80015e2:	4b26      	ldr	r3, [pc, #152]	; (800167c <HAL_TIM_PeriodElapsedCallback+0x27c>)
 80015e4:	ed95 0a00 	vldr	s0, [r5]
 80015e8:	edd3 0a00 	vldr	s1, [r3]
 80015ec:	eeb3 1a08 	vmov.f32	s2, #56	; 0x41c00000  24.0
 80015f0:	f000 fd86 	bl	8002100 <setOutputRadianM1>
 80015f4:	e7a2      	b.n	800153c <HAL_TIM_PeriodElapsedCallback+0x13c>
 80015f6:	ecbd 8b02 	vpop	{d8}
 80015fa:	bdf8      	pop	{r3, r4, r5, r6, r7, pc}
 80015fc:	a314      	add	r3, pc, #80	; (adr r3, 8001650 <HAL_TIM_PeriodElapsedCallback+0x250>)
 80015fe:	e9d3 2300 	ldrd	r2, r3, [r3]
 8001602:	4630      	mov	r0, r6
 8001604:	4639      	mov	r1, r7
 8001606:	f7fe fe3f 	bl	8000288 <__aeabi_dsub>
 800160a:	f7ff faed 	bl	8000be8 <__aeabi_d2f>
 800160e:	4603      	mov	r3, r0
 8001610:	4620      	mov	r0, r4
 8001612:	602b      	str	r3, [r5, #0]
 8001614:	f7ff fe86 	bl	8001324 <checkAngle>
 8001618:	ed95 8a00 	vldr	s16, [r5]
 800161c:	eeb5 8ac0 	vcmpe.f32	s16, #0.0
 8001620:	eef1 fa10 	vmrs	APSR_nzcv, fpscr
 8001624:	f57f af23 	bpl.w	800146e <HAL_TIM_PeriodElapsedCallback+0x6e>
 8001628:	ee18 0a10 	vmov	r0, s16
 800162c:	f7fe ff8c 	bl	8000548 <__aeabi_f2d>
 8001630:	a307      	add	r3, pc, #28	; (adr r3, 8001650 <HAL_TIM_PeriodElapsedCallback+0x250>)
 8001632:	e9d3 2300 	ldrd	r2, r3, [r3]
 8001636:	f7fe fe29 	bl	800028c <__adddf3>
 800163a:	f7ff fad5 	bl	8000be8 <__aeabi_d2f>
 800163e:	4603      	mov	r3, r0
 8001640:	4620      	mov	r0, r4
 8001642:	602b      	str	r3, [r5, #0]
 8001644:	f7ff fe6e 	bl	8001324 <checkAngle>
 8001648:	e711      	b.n	800146e <HAL_TIM_PeriodElapsedCallback+0x6e>
 800164a:	bf00      	nop
 800164c:	f3af 8000 	nop.w
 8001650:	54442d18 	.word	0x54442d18
 8001654:	401921fb 	.word	0x401921fb
 8001658:	20000438 	.word	0x20000438
 800165c:	20000484 	.word	0x20000484
 8001660:	200003a0 	.word	0x200003a0
 8001664:	48000800 	.word	0x48000800
 8001668:	20000374 	.word	0x20000374
 800166c:	20000000 	.word	0x20000000
 8001670:	200003a4 	.word	0x200003a4
 8001674:	20000208 	.word	0x20000208
 8001678:	20000320 	.word	0x20000320
 800167c:	200003a8 	.word	0x200003a8
 8001680:	200002a8 	.word	0x200002a8
 8001684:	20000258 	.word	0x20000258

08001688 <HAL_CAN_RxFifo0MsgPendingCallback>:
 8001688:	b508      	push	{r3, lr}
 800168a:	4a06      	ldr	r2, [pc, #24]	; (80016a4 <HAL_CAN_RxFifo0MsgPendingCallback+0x1c>)
 800168c:	4b06      	ldr	r3, [pc, #24]	; (80016a8 <HAL_CAN_RxFifo0MsgPendingCallback+0x20>)
 800168e:	2100      	movs	r1, #0
 8001690:	f001 fe12 	bl	80032b8 <HAL_CAN_GetRxMessage>
 8001694:	b108      	cbz	r0, 800169a <HAL_CAN_RxFifo0MsgPendingCallback+0x12>
 8001696:	b672      	cpsid	i
 8001698:	e7fe      	b.n	8001698 <HAL_CAN_RxFifo0MsgPendingCallback+0x10>
 800169a:	4a04      	ldr	r2, [pc, #16]	; (80016ac <HAL_CAN_RxFifo0MsgPendingCallback+0x24>)
 800169c:	6813      	ldr	r3, [r2, #0]
 800169e:	3301      	adds	r3, #1
 80016a0:	6013      	str	r3, [r2, #0]
 80016a2:	bd08      	pop	{r3, pc}
 80016a4:	20000384 	.word	0x20000384
 80016a8:	2000037c 	.word	0x2000037c
 80016ac:	20000378 	.word	0x20000378

080016b0 <writeFlash>:
 80016b0:	b500      	push	{lr}
 80016b2:	490f      	ldr	r1, [pc, #60]	; (80016f0 <writeFlash+0x40>)
 80016b4:	b087      	sub	sp, #28
 80016b6:	2200      	movs	r2, #0
 80016b8:	2301      	movs	r3, #1
 80016ba:	2000      	movs	r0, #0
 80016bc:	9201      	str	r2, [sp, #4]
 80016be:	9304      	str	r3, [sp, #16]
 80016c0:	e9cd 0102 	strd	r0, r1, [sp, #8]
 80016c4:	f002 fa1a 	bl	8003afc <HAL_FLASH_Unlock>
 80016c8:	a901      	add	r1, sp, #4
 80016ca:	a802      	add	r0, sp, #8
 80016cc:	f002 fa7a 	bl	8003bc4 <HAL_FLASHEx_Erase>
 80016d0:	f002 fa28 	bl	8003b24 <HAL_FLASH_Lock>
 80016d4:	f002 fa12 	bl	8003afc <HAL_FLASH_Unlock>
 80016d8:	4905      	ldr	r1, [pc, #20]	; (80016f0 <writeFlash+0x40>)
 80016da:	2200      	movs	r2, #0
 80016dc:	2300      	movs	r3, #0
 80016de:	2002      	movs	r0, #2
 80016e0:	f002 f942 	bl	8003968 <HAL_FLASH_Program>
 80016e4:	f002 fa1e 	bl	8003b24 <HAL_FLASH_Lock>
 80016e8:	b007      	add	sp, #28
 80016ea:	f85d fb04 	ldr.w	pc, [sp], #4
 80016ee:	bf00      	nop
 80016f0:	0801f000 	.word	0x0801f000
 80016f4:	00000000 	.word	0x00000000

080016f8 <SystemClock_Config>:
 80016f8:	b510      	push	{r4, lr}
 80016fa:	b0a0      	sub	sp, #128	; 0x80
 80016fc:	2100      	movs	r1, #0
 80016fe:	223c      	movs	r2, #60	; 0x3c
 8001700:	a810      	add	r0, sp, #64	; 0x40
 8001702:	e9cd 110b 	strd	r1, r1, [sp, #44]	; 0x2c
 8001706:	e9cd 1101 	strd	r1, r1, [sp, #4]
 800170a:	e9cd 1103 	strd	r1, r1, [sp, #12]
 800170e:	9108      	str	r1, [sp, #32]
 8001710:	9100      	str	r1, [sp, #0]
 8001712:	9109      	str	r1, [sp, #36]	; 0x24
 8001714:	f005 fa88 	bl	8006c28 <memset>
 8001718:	2201      	movs	r2, #1
 800171a:	f44f 3380 	mov.w	r3, #65536	; 0x10000
 800171e:	e9cd 2306 	strd	r2, r3, [sp, #24]
 8001722:	2402      	movs	r4, #2
 8001724:	2101      	movs	r1, #1
 8001726:	f44f 3280 	mov.w	r2, #65536	; 0x10000
 800172a:	f44f 1320 	mov.w	r3, #2621440	; 0x280000
 800172e:	a806      	add	r0, sp, #24
 8001730:	e9cd 420d 	strd	r4, r2, [sp, #52]	; 0x34
 8001734:	910a      	str	r1, [sp, #40]	; 0x28
 8001736:	930f      	str	r3, [sp, #60]	; 0x3c
 8001738:	f002 fb96 	bl	8003e68 <HAL_RCC_OscConfig>
 800173c:	b108      	cbz	r0, 8001742 <SystemClock_Config+0x4a>
 800173e:	b672      	cpsid	i
 8001740:	e7fe      	b.n	8001740 <SystemClock_Config+0x48>
 8001742:	220f      	movs	r2, #15
 8001744:	2302      	movs	r3, #2
 8001746:	e9cd 2300 	strd	r2, r3, [sp]
 800174a:	2200      	movs	r2, #0
 800174c:	f44f 63a0 	mov.w	r3, #1280	; 0x500
 8001750:	e9cd 2302 	strd	r2, r3, [sp, #8]
 8001754:	4621      	mov	r1, r4
 8001756:	f44f 6380 	mov.w	r3, #1024	; 0x400
 800175a:	4668      	mov	r0, sp
 800175c:	9304      	str	r3, [sp, #16]
 800175e:	f002 fe6b 	bl	8004438 <HAL_RCC_ClockConfig>
 8001762:	4603      	mov	r3, r0
 8001764:	b108      	cbz	r0, 800176a <SystemClock_Config+0x72>
 8001766:	b672      	cpsid	i
 8001768:	e7fe      	b.n	8001768 <SystemClock_Config+0x70>
 800176a:	ed9f 7b09 	vldr	d7, [pc, #36]	; 8001790 <SystemClock_Config+0x98>
 800176e:	f243 0201 	movw	r2, #12289	; 0x3001
 8001772:	a810      	add	r0, sp, #64	; 0x40
 8001774:	ed8d 7b1c 	vstr	d7, [sp, #112]	; 0x70
 8001778:	9210      	str	r2, [sp, #64]	; 0x40
 800177a:	9312      	str	r3, [sp, #72]	; 0x48
 800177c:	f002 ffb6 	bl	80046ec <HAL_RCCEx_PeriphCLKConfig>
 8001780:	b108      	cbz	r0, 8001786 <SystemClock_Config+0x8e>
 8001782:	b672      	cpsid	i
 8001784:	e7fe      	b.n	8001784 <SystemClock_Config+0x8c>
 8001786:	b020      	add	sp, #128	; 0x80
 8001788:	bd10      	pop	{r4, pc}
 800178a:	bf00      	nop
 800178c:	f3af 8000 	nop.w
	...

08001798 <main>:
 8001798:	b508      	push	{r3, lr}
 800179a:	f000 fdd5 	bl	8002348 <HAL_Init>
 800179e:	f7ff ffab 	bl	80016f8 <SystemClock_Config>
 80017a2:	f7ff fd45 	bl	8001230 <MX_GPIO_Init>
 80017a6:	f7ff fd29 	bl	80011fc <MX_DMA_Init>
 80017aa:	f7ff faa5 	bl	8000cf8 <MX_ADC1_Init>
 80017ae:	f7ff fb33 	bl	8000e18 <MX_ADC2_Init>
 80017b2:	f7ff fb95 	bl	8000ee0 <MX_ADC3_Init>
 80017b6:	f7ff fcaf 	bl	8001118 <MX_CAN_Init>
 80017ba:	f000 f84f 	bl	800185c <MX_SPI1_Init>
 80017be:	f000 fad3 	bl	8001d68 <MX_TIM1_Init>
 80017c2:	f000 fb65 	bl	8001e90 <MX_TIM8_Init>
 80017c6:	f000 fcfd 	bl	80021c4 <MX_USART1_UART_Init>
 80017ca:	f000 fbfd 	bl	8001fc8 <initFirstSin>
 80017ce:	481d      	ldr	r0, [pc, #116]	; (8001844 <main+0xac>)
 80017d0:	2201      	movs	r2, #1
 80017d2:	f44f 5100 	mov.w	r1, #8192	; 0x2000
 80017d6:	f002 fb41 	bl	8003e5c <HAL_GPIO_WritePin>
 80017da:	481a      	ldr	r0, [pc, #104]	; (8001844 <main+0xac>)
 80017dc:	2201      	movs	r2, #1
 80017de:	f44f 4180 	mov.w	r1, #16384	; 0x4000
 80017e2:	f002 fb3b 	bl	8003e5c <HAL_GPIO_WritePin>
 80017e6:	2201      	movs	r2, #1
 80017e8:	f44f 4100 	mov.w	r1, #32768	; 0x8000
 80017ec:	4815      	ldr	r0, [pc, #84]	; (8001844 <main+0xac>)
 80017ee:	f002 fb35 	bl	8003e5c <HAL_GPIO_WritePin>
 80017f2:	f44f 70fa 	mov.w	r0, #500	; 0x1f4
 80017f6:	f000 fdcb 	bl	8002390 <HAL_Delay>
 80017fa:	4812      	ldr	r0, [pc, #72]	; (8001844 <main+0xac>)
 80017fc:	2200      	movs	r2, #0
 80017fe:	f44f 5100 	mov.w	r1, #8192	; 0x2000
 8001802:	f002 fb2b 	bl	8003e5c <HAL_GPIO_WritePin>
 8001806:	480f      	ldr	r0, [pc, #60]	; (8001844 <main+0xac>)
 8001808:	2200      	movs	r2, #0
 800180a:	f44f 4180 	mov.w	r1, #16384	; 0x4000
 800180e:	f002 fb25 	bl	8003e5c <HAL_GPIO_WritePin>
 8001812:	2200      	movs	r2, #0
 8001814:	f44f 4100 	mov.w	r1, #32768	; 0x8000
 8001818:	480a      	ldr	r0, [pc, #40]	; (8001844 <main+0xac>)
 800181a:	f002 fb1f 	bl	8003e5c <HAL_GPIO_WritePin>
 800181e:	480a      	ldr	r0, [pc, #40]	; (8001848 <main+0xb0>)
 8001820:	f006 f90a 	bl	8007a38 <puts>
 8001824:	4b09      	ldr	r3, [pc, #36]	; (800184c <main+0xb4>)
 8001826:	6818      	ldr	r0, [r3, #0]
 8001828:	f7fe fe8e 	bl	8000548 <__aeabi_f2d>
 800182c:	4602      	mov	r2, r0
 800182e:	460b      	mov	r3, r1
 8001830:	4807      	ldr	r0, [pc, #28]	; (8001850 <main+0xb8>)
 8001832:	f006 f87b 	bl	800792c <iprintf>
 8001836:	4b07      	ldr	r3, [pc, #28]	; (8001854 <main+0xbc>)
 8001838:	f04f 527e 	mov.w	r2, #1065353216	; 0x3f800000
 800183c:	601a      	str	r2, [r3, #0]
 800183e:	f7ff ff37 	bl	80016b0 <writeFlash>
 8001842:	e7fe      	b.n	8001842 <main+0xaa>
 8001844:	48000800 	.word	0x48000800
 8001848:	0800b650 	.word	0x0800b650
 800184c:	0801f000 	.word	0x0801f000
 8001850:	0800b66c 	.word	0x0800b66c
 8001854:	200003ac 	.word	0x200003ac

08001858 <Error_Handler>:
 8001858:	b672      	cpsid	i
 800185a:	e7fe      	b.n	800185a <Error_Handler+0x2>

0800185c <MX_SPI1_Init>:
 800185c:	b510      	push	{r4, lr}
 800185e:	4811      	ldr	r0, [pc, #68]	; (80018a4 <MX_SPI1_Init+0x48>)
 8001860:	4c11      	ldr	r4, [pc, #68]	; (80018a8 <MX_SPI1_Init+0x4c>)
 8001862:	f44f 7282 	mov.w	r2, #260	; 0x104
 8001866:	e9c0 4200 	strd	r4, r2, [r0]
 800186a:	2202      	movs	r2, #2
 800186c:	2300      	movs	r3, #0
 800186e:	f44f 6170 	mov.w	r1, #3840	; 0xf00
 8001872:	2401      	movs	r4, #1
 8001874:	6102      	str	r2, [r0, #16]
 8001876:	f44f 7200 	mov.w	r2, #512	; 0x200
 800187a:	e9c0 3102 	strd	r3, r1, [r0, #8]
 800187e:	e9c0 4205 	strd	r4, r2, [r0, #20]
 8001882:	2108      	movs	r1, #8
 8001884:	2207      	movs	r2, #7
 8001886:	e9c0 1307 	strd	r1, r3, [r0, #28]
 800188a:	e9c0 3309 	strd	r3, r3, [r0, #36]	; 0x24
 800188e:	e9c0 230b 	strd	r2, r3, [r0, #44]	; 0x2c
 8001892:	6343      	str	r3, [r0, #52]	; 0x34
 8001894:	f003 f840 	bl	8004918 <HAL_SPI_Init>
 8001898:	b900      	cbnz	r0, 800189c <MX_SPI1_Init+0x40>
 800189a:	bd10      	pop	{r4, pc}
 800189c:	e8bd 4010 	ldmia.w	sp!, {r4, lr}
 80018a0:	f7ff bfda 	b.w	8001858 <Error_Handler>
 80018a4:	200003b0 	.word	0x200003b0
 80018a8:	40013000 	.word	0x40013000
 80018ac:	00000000 	.word	0x00000000

080018b0 <HAL_SPI_MspInit>:
 80018b0:	b510      	push	{r4, lr}
 80018b2:	4a1b      	ldr	r2, [pc, #108]	; (8001920 <HAL_SPI_MspInit+0x70>)
 80018b4:	6801      	ldr	r1, [r0, #0]
 80018b6:	b088      	sub	sp, #32
 80018b8:	2300      	movs	r3, #0
 80018ba:	4291      	cmp	r1, r2
 80018bc:	e9cd 3302 	strd	r3, r3, [sp, #8]
 80018c0:	e9cd 3304 	strd	r3, r3, [sp, #16]
 80018c4:	9306      	str	r3, [sp, #24]
 80018c6:	d001      	beq.n	80018cc <HAL_SPI_MspInit+0x1c>
 80018c8:	b008      	add	sp, #32
 80018ca:	bd10      	pop	{r4, pc}
 80018cc:	f103 4380 	add.w	r3, r3, #1073741824	; 0x40000000
 80018d0:	f503 3304 	add.w	r3, r3, #135168	; 0x21000
 80018d4:	ed9f 7b10 	vldr	d7, [pc, #64]	; 8001918 <HAL_SPI_MspInit+0x68>
 80018d8:	699a      	ldr	r2, [r3, #24]
 80018da:	4812      	ldr	r0, [pc, #72]	; (8001924 <HAL_SPI_MspInit+0x74>)
 80018dc:	f442 5280 	orr.w	r2, r2, #4096	; 0x1000
 80018e0:	619a      	str	r2, [r3, #24]
 80018e2:	699a      	ldr	r2, [r3, #24]
 80018e4:	f402 5280 	and.w	r2, r2, #4096	; 0x1000
 80018e8:	9200      	str	r2, [sp, #0]
 80018ea:	9a00      	ldr	r2, [sp, #0]
 80018ec:	695a      	ldr	r2, [r3, #20]
 80018ee:	f442 2280 	orr.w	r2, r2, #262144	; 0x40000
 80018f2:	615a      	str	r2, [r3, #20]
 80018f4:	695b      	ldr	r3, [r3, #20]
 80018f6:	f403 2380 	and.w	r3, r3, #262144	; 0x40000
 80018fa:	9301      	str	r3, [sp, #4]
 80018fc:	2203      	movs	r2, #3
 80018fe:	2305      	movs	r3, #5
 8001900:	a902      	add	r1, sp, #8
 8001902:	ed8d 7b02 	vstr	d7, [sp, #8]
 8001906:	e9cd 2305 	strd	r2, r3, [sp, #20]
 800190a:	9c01      	ldr	r4, [sp, #4]
 800190c:	f002 f9bc 	bl	8003c88 <HAL_GPIO_Init>
 8001910:	b008      	add	sp, #32
 8001912:	bd10      	pop	{r4, pc}
 8001914:	f3af 8000 	nop.w
 8001918:	00000038 	.word	0x00000038
 800191c:	00000002 	.word	0x00000002
 8001920:	40013000 	.word	0x40013000
 8001924:	48000400 	.word	0x48000400

08001928 <updateMA702_M0>:
 8001928:	b510      	push	{r4, lr}
 800192a:	4821      	ldr	r0, [pc, #132]	; (80019b0 <updateMA702_M0+0x88>)
 800192c:	4c21      	ldr	r4, [pc, #132]	; (80019b4 <updateMA702_M0+0x8c>)
 800192e:	2200      	movs	r2, #0
 8001930:	2140      	movs	r1, #64	; 0x40
 8001932:	f002 fa93 	bl	8003e5c <HAL_GPIO_WritePin>
 8001936:	4b20      	ldr	r3, [pc, #128]	; (80019b8 <updateMA702_M0+0x90>)
 8001938:	6961      	ldr	r1, [r4, #20]
 800193a:	681a      	ldr	r2, [r3, #0]
 800193c:	2300      	movs	r3, #0
 800193e:	68d0      	ldr	r0, [r2, #12]
 8001940:	61e1      	str	r1, [r4, #28]
 8001942:	60d3      	str	r3, [r2, #12]
 8001944:	6893      	ldr	r3, [r2, #8]
 8001946:	07db      	lsls	r3, r3, #31
 8001948:	d5fc      	bpl.n	8001944 <updateMA702_M0+0x1c>
 800194a:	68d2      	ldr	r2, [r2, #12]
 800194c:	4b1b      	ldr	r3, [pc, #108]	; (80019bc <updateMA702_M0+0x94>)
 800194e:	f64f 71fc 	movw	r1, #65532	; 0xfffc
 8001952:	400a      	ands	r2, r1
 8001954:	fb83 1302 	smull	r1, r3, r3, r2
 8001958:	4413      	add	r3, r2
 800195a:	f241 5155 	movw	r1, #5461	; 0x1555
 800195e:	131b      	asrs	r3, r3, #12
 8001960:	fb01 2313 	mls	r3, r1, r3, r2
 8001964:	1acb      	subs	r3, r1, r3
 8001966:	ee07 3a90 	vmov	s15, r3
 800196a:	eeb8 7ae7 	vcvt.f32.s32	s14, s15
 800196e:	eddf 7a14 	vldr	s15, [pc, #80]	; 80019c0 <updateMA702_M0+0x98>
 8001972:	6162      	str	r2, [r4, #20]
 8001974:	ee67 7a27 	vmul.f32	s15, s14, s15
 8001978:	61a3      	str	r3, [r4, #24]
 800197a:	ee17 0a90 	vmov	r0, s15
 800197e:	f7fe fde3 	bl	8000548 <__aeabi_f2d>
 8001982:	a309      	add	r3, pc, #36	; (adr r3, 80019a8 <updateMA702_M0+0x80>)
 8001984:	e9d3 2300 	ldrd	r2, r3, [r3]
 8001988:	f7fe fe36 	bl	80005f8 <__aeabi_dmul>
 800198c:	f7ff f92c 	bl	8000be8 <__aeabi_d2f>
 8001990:	4603      	mov	r3, r0
 8001992:	6123      	str	r3, [r4, #16]
 8001994:	4806      	ldr	r0, [pc, #24]	; (80019b0 <updateMA702_M0+0x88>)
 8001996:	e8bd 4010 	ldmia.w	sp!, {r4, lr}
 800199a:	2201      	movs	r2, #1
 800199c:	2140      	movs	r1, #64	; 0x40
 800199e:	f002 ba5d 	b.w	8003e5c <HAL_GPIO_WritePin>
 80019a2:	bf00      	nop
 80019a4:	f3af 8000 	nop.w
 80019a8:	54442d18 	.word	0x54442d18
 80019ac:	400921fb 	.word	0x400921fb
 80019b0:	48000400 	.word	0x48000400
 80019b4:	20000414 	.word	0x20000414
 80019b8:	200003b0 	.word	0x200003b0
 80019bc:	c003000d 	.word	0xc003000d
 80019c0:	39c00300 	.word	0x39c00300
 80019c4:	00000000 	.word	0x00000000

080019c8 <updateMA702_M1>:
 80019c8:	b510      	push	{r4, lr}
 80019ca:	4821      	ldr	r0, [pc, #132]	; (8001a50 <updateMA702_M1+0x88>)
 80019cc:	4c21      	ldr	r4, [pc, #132]	; (8001a54 <updateMA702_M1+0x8c>)
 80019ce:	2200      	movs	r2, #0
 80019d0:	2180      	movs	r1, #128	; 0x80
 80019d2:	f002 fa43 	bl	8003e5c <HAL_GPIO_WritePin>
 80019d6:	4b20      	ldr	r3, [pc, #128]	; (8001a58 <updateMA702_M1+0x90>)
 80019d8:	6861      	ldr	r1, [r4, #4]
 80019da:	681a      	ldr	r2, [r3, #0]
 80019dc:	2300      	movs	r3, #0
 80019de:	68d0      	ldr	r0, [r2, #12]
 80019e0:	60e1      	str	r1, [r4, #12]
 80019e2:	60d3      	str	r3, [r2, #12]
 80019e4:	6893      	ldr	r3, [r2, #8]
 80019e6:	07db      	lsls	r3, r3, #31
 80019e8:	d5fc      	bpl.n	80019e4 <updateMA702_M1+0x1c>
 80019ea:	68d2      	ldr	r2, [r2, #12]
 80019ec:	4b1b      	ldr	r3, [pc, #108]	; (8001a5c <updateMA702_M1+0x94>)
 80019ee:	f64f 71fc 	movw	r1, #65532	; 0xfffc
 80019f2:	400a      	ands	r2, r1
 80019f4:	fb83 1302 	smull	r1, r3, r3, r2
 80019f8:	4413      	add	r3, r2
 80019fa:	f241 5155 	movw	r1, #5461	; 0x1555
 80019fe:	131b      	asrs	r3, r3, #12
 8001a00:	fb01 2313 	mls	r3, r1, r3, r2
 8001a04:	1acb      	subs	r3, r1, r3
 8001a06:	ee07 3a90 	vmov	s15, r3
 8001a0a:	eeb8 7ae7 	vcvt.f32.s32	s14, s15
 8001a0e:	eddf 7a14 	vldr	s15, [pc, #80]	; 8001a60 <updateMA702_M1+0x98>
 8001a12:	6062      	str	r2, [r4, #4]
 8001a14:	ee67 7a27 	vmul.f32	s15, s14, s15
 8001a18:	60a3      	str	r3, [r4, #8]
 8001a1a:	ee17 0a90 	vmov	r0, s15
 8001a1e:	f7fe fd93 	bl	8000548 <__aeabi_f2d>
 8001a22:	a309      	add	r3, pc, #36	; (adr r3, 8001a48 <updateMA702_M1+0x80>)
 8001a24:	e9d3 2300 	ldrd	r2, r3, [r3]
 8001a28:	f7fe fde6 	bl	80005f8 <__aeabi_dmul>
 8001a2c:	f7ff f8dc 	bl	8000be8 <__aeabi_d2f>
 8001a30:	4603      	mov	r3, r0
 8001a32:	6023      	str	r3, [r4, #0]
 8001a34:	4806      	ldr	r0, [pc, #24]	; (8001a50 <updateMA702_M1+0x88>)
 8001a36:	e8bd 4010 	ldmia.w	sp!, {r4, lr}
 8001a3a:	2201      	movs	r2, #1
 8001a3c:	2180      	movs	r1, #128	; 0x80
 8001a3e:	f002 ba0d 	b.w	8003e5c <HAL_GPIO_WritePin>
 8001a42:	bf00      	nop
 8001a44:	f3af 8000 	nop.w
 8001a48:	54442d18 	.word	0x54442d18
 8001a4c:	400921fb 	.word	0x400921fb
 8001a50:	48000400 	.word	0x48000400
 8001a54:	20000414 	.word	0x20000414
 8001a58:	200003b0 	.word	0x200003b0
 8001a5c:	c003000d 	.word	0xc003000d
 8001a60:	39c00300 	.word	0x39c00300

08001a64 <getElecRadianMA702>:
 8001a64:	4b02      	ldr	r3, [pc, #8]	; (8001a70 <getElecRadianMA702+0xc>)
 8001a66:	eb03 1000 	add.w	r0, r3, r0, lsl #4
 8001a6a:	ed90 0a00 	vldr	s0, [r0]
 8001a6e:	4770      	bx	lr
 8001a70:	20000414 	.word	0x20000414

08001a74 <getRawMA702>:
 8001a74:	4b02      	ldr	r3, [pc, #8]	; (8001a80 <getRawMA702+0xc>)
 8001a76:	eb03 1000 	add.w	r0, r3, r0, lsl #4
 8001a7a:	6840      	ldr	r0, [r0, #4]
 8001a7c:	4770      	bx	lr
 8001a7e:	bf00      	nop
 8001a80:	20000414 	.word	0x20000414

08001a84 <HAL_MspInit>:
 8001a84:	4b0a      	ldr	r3, [pc, #40]	; (8001ab0 <HAL_MspInit+0x2c>)
 8001a86:	699a      	ldr	r2, [r3, #24]
 8001a88:	f042 0201 	orr.w	r2, r2, #1
 8001a8c:	619a      	str	r2, [r3, #24]
 8001a8e:	699a      	ldr	r2, [r3, #24]
 8001a90:	b082      	sub	sp, #8
 8001a92:	f002 0201 	and.w	r2, r2, #1
 8001a96:	9200      	str	r2, [sp, #0]
 8001a98:	9a00      	ldr	r2, [sp, #0]
 8001a9a:	69da      	ldr	r2, [r3, #28]
 8001a9c:	f042 5280 	orr.w	r2, r2, #268435456	; 0x10000000
 8001aa0:	61da      	str	r2, [r3, #28]
 8001aa2:	69db      	ldr	r3, [r3, #28]
 8001aa4:	f003 5380 	and.w	r3, r3, #268435456	; 0x10000000
 8001aa8:	9301      	str	r3, [sp, #4]
 8001aaa:	9b01      	ldr	r3, [sp, #4]
 8001aac:	b002      	add	sp, #8
 8001aae:	4770      	bx	lr
 8001ab0:	40021000 	.word	0x40021000

08001ab4 <NMI_Handler>:
 8001ab4:	e7fe      	b.n	8001ab4 <NMI_Handler>
 8001ab6:	bf00      	nop

08001ab8 <HardFault_Handler>:
 8001ab8:	e7fe      	b.n	8001ab8 <HardFault_Handler>
 8001aba:	bf00      	nop

08001abc <MemManage_Handler>:
 8001abc:	e7fe      	b.n	8001abc <MemManage_Handler>
 8001abe:	bf00      	nop

08001ac0 <BusFault_Handler>:
 8001ac0:	e7fe      	b.n	8001ac0 <BusFault_Handler>
 8001ac2:	bf00      	nop

08001ac4 <UsageFault_Handler>:
 8001ac4:	e7fe      	b.n	8001ac4 <UsageFault_Handler>
 8001ac6:	bf00      	nop

08001ac8 <SVC_Handler>:
 8001ac8:	4770      	bx	lr
 8001aca:	bf00      	nop

08001acc <DebugMon_Handler>:
 8001acc:	4770      	bx	lr
 8001ace:	bf00      	nop

08001ad0 <PendSV_Handler>:
 8001ad0:	4770      	bx	lr
 8001ad2:	bf00      	nop

08001ad4 <SysTick_Handler>:
 8001ad4:	f000 bc4a 	b.w	800236c <HAL_IncTick>

08001ad8 <DMA1_Channel4_IRQHandler>:
 8001ad8:	4801      	ldr	r0, [pc, #4]	; (8001ae0 <DMA1_Channel4_IRQHandler+0x8>)
 8001ada:	f001 befb 	b.w	80038d4 <HAL_DMA_IRQHandler>
 8001ade:	bf00      	nop
 8001ae0:	200014d0 	.word	0x200014d0

08001ae4 <USB_HP_CAN_TX_IRQHandler>:
 8001ae4:	4801      	ldr	r0, [pc, #4]	; (8001aec <USB_HP_CAN_TX_IRQHandler+0x8>)
 8001ae6:	f001 bc89 	b.w	80033fc <HAL_CAN_IRQHandler>
 8001aea:	bf00      	nop
 8001aec:	200002f8 	.word	0x200002f8

08001af0 <USB_LP_CAN_RX0_IRQHandler>:
 8001af0:	4801      	ldr	r0, [pc, #4]	; (8001af8 <USB_LP_CAN_RX0_IRQHandler+0x8>)
 8001af2:	f001 bc83 	b.w	80033fc <HAL_CAN_IRQHandler>
 8001af6:	bf00      	nop
 8001af8:	200002f8 	.word	0x200002f8

08001afc <CAN_RX1_IRQHandler>:
 8001afc:	4801      	ldr	r0, [pc, #4]	; (8001b04 <CAN_RX1_IRQHandler+0x8>)
 8001afe:	f001 bc7d 	b.w	80033fc <HAL_CAN_IRQHandler>
 8001b02:	bf00      	nop
 8001b04:	200002f8 	.word	0x200002f8

08001b08 <CAN_SCE_IRQHandler>:
 8001b08:	4801      	ldr	r0, [pc, #4]	; (8001b10 <CAN_SCE_IRQHandler+0x8>)
 8001b0a:	f001 bc77 	b.w	80033fc <HAL_CAN_IRQHandler>
 8001b0e:	bf00      	nop
 8001b10:	200002f8 	.word	0x200002f8

08001b14 <TIM1_UP_TIM16_IRQHandler>:
 8001b14:	4801      	ldr	r0, [pc, #4]	; (8001b1c <TIM1_UP_TIM16_IRQHandler+0x8>)
 8001b16:	f003 b889 	b.w	8004c2c <HAL_TIM_IRQHandler>
 8001b1a:	bf00      	nop
 8001b1c:	20000438 	.word	0x20000438

08001b20 <TIM1_CC_IRQHandler>:
 8001b20:	4801      	ldr	r0, [pc, #4]	; (8001b28 <TIM1_CC_IRQHandler+0x8>)
 8001b22:	f003 b883 	b.w	8004c2c <HAL_TIM_IRQHandler>
 8001b26:	bf00      	nop
 8001b28:	20000438 	.word	0x20000438

08001b2c <USART1_IRQHandler>:
 8001b2c:	4801      	ldr	r0, [pc, #4]	; (8001b34 <USART1_IRQHandler+0x8>)
 8001b2e:	f003 bc23 	b.w	8005378 <HAL_UART_IRQHandler>
 8001b32:	bf00      	nop
 8001b34:	20001514 	.word	0x20001514

08001b38 <TIM8_UP_IRQHandler>:
 8001b38:	4801      	ldr	r0, [pc, #4]	; (8001b40 <TIM8_UP_IRQHandler+0x8>)
 8001b3a:	f003 b877 	b.w	8004c2c <HAL_TIM_IRQHandler>
 8001b3e:	bf00      	nop
 8001b40:	20000484 	.word	0x20000484

08001b44 <TIM8_CC_IRQHandler>:
 8001b44:	4801      	ldr	r0, [pc, #4]	; (8001b4c <TIM8_CC_IRQHandler+0x8>)
 8001b46:	f003 b871 	b.w	8004c2c <HAL_TIM_IRQHandler>
 8001b4a:	bf00      	nop
 8001b4c:	20000484 	.word	0x20000484

08001b50 <_getpid>:
 8001b50:	2001      	movs	r0, #1
 8001b52:	4770      	bx	lr

08001b54 <_kill>:
 8001b54:	b508      	push	{r3, lr}
 8001b56:	f005 f83d 	bl	8006bd4 <__errno>
 8001b5a:	2316      	movs	r3, #22
 8001b5c:	6003      	str	r3, [r0, #0]
 8001b5e:	f04f 30ff 	mov.w	r0, #4294967295
 8001b62:	bd08      	pop	{r3, pc}

08001b64 <_exit>:
 8001b64:	b508      	push	{r3, lr}
 8001b66:	f005 f835 	bl	8006bd4 <__errno>
 8001b6a:	2316      	movs	r3, #22
 8001b6c:	6003      	str	r3, [r0, #0]
 8001b6e:	e7fe      	b.n	8001b6e <_exit+0xa>

08001b70 <_read>:
 8001b70:	b570      	push	{r4, r5, r6, lr}
 8001b72:	1e16      	subs	r6, r2, #0
 8001b74:	dd07      	ble.n	8001b86 <_read+0x16>
 8001b76:	460c      	mov	r4, r1
 8001b78:	198d      	adds	r5, r1, r6
 8001b7a:	f3af 8000 	nop.w
 8001b7e:	f804 0b01 	strb.w	r0, [r4], #1
 8001b82:	42a5      	cmp	r5, r4
 8001b84:	d1f9      	bne.n	8001b7a <_read+0xa>
 8001b86:	4630      	mov	r0, r6
 8001b88:	bd70      	pop	{r4, r5, r6, pc}
 8001b8a:	bf00      	nop

08001b8c <_close>:
 8001b8c:	f04f 30ff 	mov.w	r0, #4294967295
 8001b90:	4770      	bx	lr
 8001b92:	bf00      	nop

08001b94 <_fstat>:
 8001b94:	f44f 5300 	mov.w	r3, #8192	; 0x2000
 8001b98:	604b      	str	r3, [r1, #4]
 8001b9a:	2000      	movs	r0, #0
 8001b9c:	4770      	bx	lr
 8001b9e:	bf00      	nop

08001ba0 <_isatty>:
 8001ba0:	2001      	movs	r0, #1
 8001ba2:	4770      	bx	lr

08001ba4 <_lseek>:
 8001ba4:	2000      	movs	r0, #0
 8001ba6:	4770      	bx	lr

08001ba8 <_sbrk>:
 8001ba8:	b510      	push	{r4, lr}
 8001baa:	4c0c      	ldr	r4, [pc, #48]	; (8001bdc <_sbrk+0x34>)
 8001bac:	4b0c      	ldr	r3, [pc, #48]	; (8001be0 <_sbrk+0x38>)
 8001bae:	490d      	ldr	r1, [pc, #52]	; (8001be4 <_sbrk+0x3c>)
 8001bb0:	6822      	ldr	r2, [r4, #0]
 8001bb2:	1a59      	subs	r1, r3, r1
 8001bb4:	b12a      	cbz	r2, 8001bc2 <_sbrk+0x1a>
 8001bb6:	4410      	add	r0, r2
 8001bb8:	4288      	cmp	r0, r1
 8001bba:	d807      	bhi.n	8001bcc <_sbrk+0x24>
 8001bbc:	6020      	str	r0, [r4, #0]
 8001bbe:	4610      	mov	r0, r2
 8001bc0:	bd10      	pop	{r4, pc}
 8001bc2:	4a09      	ldr	r2, [pc, #36]	; (8001be8 <_sbrk+0x40>)
 8001bc4:	6022      	str	r2, [r4, #0]
 8001bc6:	4410      	add	r0, r2
 8001bc8:	4288      	cmp	r0, r1
 8001bca:	d9f7      	bls.n	8001bbc <_sbrk+0x14>
 8001bcc:	f005 f802 	bl	8006bd4 <__errno>
 8001bd0:	230c      	movs	r3, #12
 8001bd2:	f04f 32ff 	mov.w	r2, #4294967295
 8001bd6:	6003      	str	r3, [r0, #0]
 8001bd8:	4610      	mov	r0, r2
 8001bda:	bd10      	pop	{r4, pc}
 8001bdc:	20000434 	.word	0x20000434
 8001be0:	20008000 	.word	0x20008000
 8001be4:	00000400 	.word	0x00000400
 8001be8:	200015d0 	.word	0x200015d0

08001bec <SystemInit>:
 8001bec:	4a03      	ldr	r2, [pc, #12]	; (8001bfc <SystemInit+0x10>)
 8001bee:	f8d2 3088 	ldr.w	r3, [r2, #136]	; 0x88
 8001bf2:	f443 0370 	orr.w	r3, r3, #15728640	; 0xf00000
 8001bf6:	f8c2 3088 	str.w	r3, [r2, #136]	; 0x88
 8001bfa:	4770      	bx	lr
 8001bfc:	e000ed00 	.word	0xe000ed00

08001c00 <HAL_TIM_PWM_MspInit>:
 8001c00:	b500      	push	{lr}
 8001c02:	4a22      	ldr	r2, [pc, #136]	; (8001c8c <HAL_TIM_PWM_MspInit+0x8c>)
 8001c04:	6803      	ldr	r3, [r0, #0]
 8001c06:	4293      	cmp	r3, r2
 8001c08:	b083      	sub	sp, #12
 8001c0a:	d005      	beq.n	8001c18 <HAL_TIM_PWM_MspInit+0x18>
 8001c0c:	4a20      	ldr	r2, [pc, #128]	; (8001c90 <HAL_TIM_PWM_MspInit+0x90>)
 8001c0e:	4293      	cmp	r3, r2
 8001c10:	d01f      	beq.n	8001c52 <HAL_TIM_PWM_MspInit+0x52>
 8001c12:	b003      	add	sp, #12
 8001c14:	f85d fb04 	ldr.w	pc, [sp], #4
 8001c18:	4b1e      	ldr	r3, [pc, #120]	; (8001c94 <HAL_TIM_PWM_MspInit+0x94>)
 8001c1a:	6998      	ldr	r0, [r3, #24]
 8001c1c:	f440 6000 	orr.w	r0, r0, #2048	; 0x800
 8001c20:	6198      	str	r0, [r3, #24]
 8001c22:	699b      	ldr	r3, [r3, #24]
 8001c24:	2200      	movs	r2, #0
 8001c26:	f403 6300 	and.w	r3, r3, #2048	; 0x800
 8001c2a:	4611      	mov	r1, r2
 8001c2c:	9300      	str	r3, [sp, #0]
 8001c2e:	2019      	movs	r0, #25
 8001c30:	9b00      	ldr	r3, [sp, #0]
 8001c32:	f001 fd1f 	bl	8003674 <HAL_NVIC_SetPriority>
 8001c36:	2019      	movs	r0, #25
 8001c38:	f001 fd5a 	bl	80036f0 <HAL_NVIC_EnableIRQ>
 8001c3c:	2200      	movs	r2, #0
 8001c3e:	201b      	movs	r0, #27
 8001c40:	4611      	mov	r1, r2
 8001c42:	f001 fd17 	bl	8003674 <HAL_NVIC_SetPriority>
 8001c46:	201b      	movs	r0, #27
 8001c48:	b003      	add	sp, #12
 8001c4a:	f85d eb04 	ldr.w	lr, [sp], #4
 8001c4e:	f001 bd4f 	b.w	80036f0 <HAL_NVIC_EnableIRQ>
 8001c52:	4b10      	ldr	r3, [pc, #64]	; (8001c94 <HAL_TIM_PWM_MspInit+0x94>)
 8001c54:	6998      	ldr	r0, [r3, #24]
 8001c56:	f440 5000 	orr.w	r0, r0, #8192	; 0x2000
 8001c5a:	6198      	str	r0, [r3, #24]
 8001c5c:	699b      	ldr	r3, [r3, #24]
 8001c5e:	2200      	movs	r2, #0
 8001c60:	f403 5300 	and.w	r3, r3, #8192	; 0x2000
 8001c64:	4611      	mov	r1, r2
 8001c66:	9301      	str	r3, [sp, #4]
 8001c68:	202c      	movs	r0, #44	; 0x2c
 8001c6a:	9b01      	ldr	r3, [sp, #4]
 8001c6c:	f001 fd02 	bl	8003674 <HAL_NVIC_SetPriority>
 8001c70:	202c      	movs	r0, #44	; 0x2c
 8001c72:	f001 fd3d 	bl	80036f0 <HAL_NVIC_EnableIRQ>
 8001c76:	2200      	movs	r2, #0
 8001c78:	202e      	movs	r0, #46	; 0x2e
 8001c7a:	4611      	mov	r1, r2
 8001c7c:	f001 fcfa 	bl	8003674 <HAL_NVIC_SetPriority>
 8001c80:	202e      	movs	r0, #46	; 0x2e
 8001c82:	b003      	add	sp, #12
 8001c84:	f85d eb04 	ldr.w	lr, [sp], #4
 8001c88:	f001 bd32 	b.w	80036f0 <HAL_NVIC_EnableIRQ>
 8001c8c:	40012c00 	.word	0x40012c00
 8001c90:	40013400 	.word	0x40013400
 8001c94:	40021000 	.word	0x40021000

08001c98 <HAL_TIM_MspPostInit>:
 8001c98:	b510      	push	{r4, lr}
 8001c9a:	6802      	ldr	r2, [r0, #0]
 8001c9c:	492e      	ldr	r1, [pc, #184]	; (8001d58 <HAL_TIM_MspPostInit+0xc0>)
 8001c9e:	b08a      	sub	sp, #40	; 0x28
 8001ca0:	2300      	movs	r3, #0
 8001ca2:	428a      	cmp	r2, r1
 8001ca4:	e9cd 3304 	strd	r3, r3, [sp, #16]
 8001ca8:	e9cd 3306 	strd	r3, r3, [sp, #24]
 8001cac:	9308      	str	r3, [sp, #32]
 8001cae:	d004      	beq.n	8001cba <HAL_TIM_MspPostInit+0x22>
 8001cb0:	4b2a      	ldr	r3, [pc, #168]	; (8001d5c <HAL_TIM_MspPostInit+0xc4>)
 8001cb2:	429a      	cmp	r2, r3
 8001cb4:	d032      	beq.n	8001d1c <HAL_TIM_MspPostInit+0x84>
 8001cb6:	b00a      	add	sp, #40	; 0x28
 8001cb8:	bd10      	pop	{r4, pc}
 8001cba:	f103 4380 	add.w	r3, r3, #1073741824	; 0x40000000
 8001cbe:	f503 3304 	add.w	r3, r3, #135168	; 0x21000
 8001cc2:	2406      	movs	r4, #6
 8001cc4:	695a      	ldr	r2, [r3, #20]
 8001cc6:	f442 3200 	orr.w	r2, r2, #131072	; 0x20000
 8001cca:	615a      	str	r2, [r3, #20]
 8001ccc:	695a      	ldr	r2, [r3, #20]
 8001cce:	f402 3200 	and.w	r2, r2, #131072	; 0x20000
 8001cd2:	9201      	str	r2, [sp, #4]
 8001cd4:	9a01      	ldr	r2, [sp, #4]
 8001cd6:	695a      	ldr	r2, [r3, #20]
 8001cd8:	f442 2280 	orr.w	r2, r2, #262144	; 0x40000
 8001cdc:	615a      	str	r2, [r3, #20]
 8001cde:	695b      	ldr	r3, [r3, #20]
 8001ce0:	9408      	str	r4, [sp, #32]
 8001ce2:	f403 2380 	and.w	r3, r3, #262144	; 0x40000
 8001ce6:	9302      	str	r3, [sp, #8]
 8001ce8:	a904      	add	r1, sp, #16
 8001cea:	f44f 62f0 	mov.w	r2, #1920	; 0x780
 8001cee:	2302      	movs	r3, #2
 8001cf0:	f04f 4090 	mov.w	r0, #1207959552	; 0x48000000
 8001cf4:	e9cd 2304 	strd	r2, r3, [sp, #16]
 8001cf8:	9b02      	ldr	r3, [sp, #8]
 8001cfa:	f001 ffc5 	bl	8003c88 <HAL_GPIO_Init>
 8001cfe:	2203      	movs	r2, #3
 8001d00:	2302      	movs	r3, #2
 8001d02:	e9cd 2304 	strd	r2, r3, [sp, #16]
 8001d06:	4816      	ldr	r0, [pc, #88]	; (8001d60 <HAL_TIM_MspPostInit+0xc8>)
 8001d08:	9408      	str	r4, [sp, #32]
 8001d0a:	2200      	movs	r2, #0
 8001d0c:	2300      	movs	r3, #0
 8001d0e:	a904      	add	r1, sp, #16
 8001d10:	e9cd 2306 	strd	r2, r3, [sp, #24]
 8001d14:	f001 ffb8 	bl	8003c88 <HAL_GPIO_Init>
 8001d18:	b00a      	add	sp, #40	; 0x28
 8001d1a:	bd10      	pop	{r4, pc}
 8001d1c:	f503 435c 	add.w	r3, r3, #56320	; 0xdc00
 8001d20:	ed9f 7b0b 	vldr	d7, [pc, #44]	; 8001d50 <HAL_TIM_MspPostInit+0xb8>
 8001d24:	695a      	ldr	r2, [r3, #20]
 8001d26:	480f      	ldr	r0, [pc, #60]	; (8001d64 <HAL_TIM_MspPostInit+0xcc>)
 8001d28:	f442 2200 	orr.w	r2, r2, #524288	; 0x80000
 8001d2c:	615a      	str	r2, [r3, #20]
 8001d2e:	695b      	ldr	r3, [r3, #20]
 8001d30:	f403 2300 	and.w	r3, r3, #524288	; 0x80000
 8001d34:	9303      	str	r3, [sp, #12]
 8001d36:	a904      	add	r1, sp, #16
 8001d38:	2304      	movs	r3, #4
 8001d3a:	ed8d 7b04 	vstr	d7, [sp, #16]
 8001d3e:	9a03      	ldr	r2, [sp, #12]
 8001d40:	9308      	str	r3, [sp, #32]
 8001d42:	f001 ffa1 	bl	8003c88 <HAL_GPIO_Init>
 8001d46:	b00a      	add	sp, #40	; 0x28
 8001d48:	bd10      	pop	{r4, pc}
 8001d4a:	bf00      	nop
 8001d4c:	f3af 8000 	nop.w
 8001d50:	00001dc0 	.word	0x00001dc0
 8001d54:	00000002 	.word	0x00000002
 8001d58:	40012c00 	.word	0x40012c00
 8001d5c:	40013400 	.word	0x40013400
 8001d60:	48000400 	.word	0x48000400
 8001d64:	48000800 	.word	0x48000800

08001d68 <MX_TIM1_Init>:
 8001d68:	b510      	push	{r4, lr}
 8001d6a:	2400      	movs	r4, #0
 8001d6c:	b098      	sub	sp, #96	; 0x60
 8001d6e:	222c      	movs	r2, #44	; 0x2c
 8001d70:	4621      	mov	r1, r4
 8001d72:	a80c      	add	r0, sp, #48	; 0x30
 8001d74:	e9cd 4401 	strd	r4, r4, [sp, #4]
 8001d78:	e9cd 4405 	strd	r4, r4, [sp, #20]
 8001d7c:	e9cd 4407 	strd	r4, r4, [sp, #28]
 8001d80:	e9cd 4409 	strd	r4, r4, [sp, #36]	; 0x24
 8001d84:	9400      	str	r4, [sp, #0]
 8001d86:	9404      	str	r4, [sp, #16]
 8001d88:	f004 ff4e 	bl	8006c28 <memset>
 8001d8c:	483e      	ldr	r0, [pc, #248]	; (8001e88 <MX_TIM1_Init+0x120>)
 8001d8e:	4a3f      	ldr	r2, [pc, #252]	; (8001e8c <MX_TIM1_Init+0x124>)
 8001d90:	6184      	str	r4, [r0, #24]
 8001d92:	2301      	movs	r3, #1
 8001d94:	e9c0 2300 	strd	r2, r3, [r0]
 8001d98:	f44f 6316 	mov.w	r3, #2400	; 0x960
 8001d9c:	e9c0 4302 	strd	r4, r3, [r0, #8]
 8001da0:	e9c0 4404 	strd	r4, r4, [r0, #16]
 8001da4:	f002 feb2 	bl	8004b0c <HAL_TIM_PWM_Init>
 8001da8:	2800      	cmp	r0, #0
 8001daa:	d148      	bne.n	8001e3e <MX_TIM1_Init+0xd6>
 8001dac:	f44f 1300 	mov.w	r3, #2097152	; 0x200000
 8001db0:	2270      	movs	r2, #112	; 0x70
 8001db2:	e9cd 2300 	strd	r2, r3, [sp]
 8001db6:	4834      	ldr	r0, [pc, #208]	; (8001e88 <MX_TIM1_Init+0x120>)
 8001db8:	2380      	movs	r3, #128	; 0x80
 8001dba:	4669      	mov	r1, sp
 8001dbc:	9302      	str	r3, [sp, #8]
 8001dbe:	f003 f961 	bl	8005084 <HAL_TIMEx_MasterConfigSynchronization>
 8001dc2:	2800      	cmp	r0, #0
 8001dc4:	d14e      	bne.n	8001e64 <MX_TIM1_Init+0xfc>
 8001dc6:	2060      	movs	r0, #96	; 0x60
 8001dc8:	2100      	movs	r1, #0
 8001dca:	e9cd 0104 	strd	r0, r1, [sp, #16]
 8001dce:	2000      	movs	r0, #0
 8001dd0:	2100      	movs	r1, #0
 8001dd2:	e9cd 0106 	strd	r0, r1, [sp, #24]
 8001dd6:	e9cd 0108 	strd	r0, r1, [sp, #32]
 8001dda:	2200      	movs	r2, #0
 8001ddc:	482a      	ldr	r0, [pc, #168]	; (8001e88 <MX_TIM1_Init+0x120>)
 8001dde:	920a      	str	r2, [sp, #40]	; 0x28
 8001de0:	a904      	add	r1, sp, #16
 8001de2:	f003 f81b 	bl	8004e1c <HAL_TIM_PWM_ConfigChannel>
 8001de6:	2800      	cmp	r0, #0
 8001de8:	d139      	bne.n	8001e5e <MX_TIM1_Init+0xf6>
 8001dea:	4827      	ldr	r0, [pc, #156]	; (8001e88 <MX_TIM1_Init+0x120>)
 8001dec:	2204      	movs	r2, #4
 8001dee:	a904      	add	r1, sp, #16
 8001df0:	f003 f814 	bl	8004e1c <HAL_TIM_PWM_ConfigChannel>
 8001df4:	bb80      	cbnz	r0, 8001e58 <MX_TIM1_Init+0xf0>
 8001df6:	4824      	ldr	r0, [pc, #144]	; (8001e88 <MX_TIM1_Init+0x120>)
 8001df8:	2208      	movs	r2, #8
 8001dfa:	a904      	add	r1, sp, #16
 8001dfc:	f003 f80e 	bl	8004e1c <HAL_TIM_PWM_ConfigChannel>
 8001e00:	bb38      	cbnz	r0, 8001e52 <MX_TIM1_Init+0xea>
 8001e02:	ed9f 7b1b 	vldr	d7, [pc, #108]	; 8001e70 <MX_TIM1_Init+0x108>
 8001e06:	ed8d 7b0e 	vstr	d7, [sp, #56]	; 0x38
 8001e0a:	ed9f 7b1b 	vldr	d7, [pc, #108]	; 8001e78 <MX_TIM1_Init+0x110>
 8001e0e:	ed8d 7b10 	vstr	d7, [sp, #64]	; 0x40
 8001e12:	ed9f 7b1b 	vldr	d7, [pc, #108]	; 8001e80 <MX_TIM1_Init+0x118>
 8001e16:	2200      	movs	r2, #0
 8001e18:	2300      	movs	r3, #0
 8001e1a:	2400      	movs	r4, #0
 8001e1c:	481a      	ldr	r0, [pc, #104]	; (8001e88 <MX_TIM1_Init+0x120>)
 8001e1e:	9416      	str	r4, [sp, #88]	; 0x58
 8001e20:	a90c      	add	r1, sp, #48	; 0x30
 8001e22:	e9cd 230c 	strd	r2, r3, [sp, #48]	; 0x30
 8001e26:	ed8d 7b14 	vstr	d7, [sp, #80]	; 0x50
 8001e2a:	e9cd 2312 	strd	r2, r3, [sp, #72]	; 0x48
 8001e2e:	f003 f96f 	bl	8005110 <HAL_TIMEx_ConfigBreakDeadTime>
 8001e32:	b938      	cbnz	r0, 8001e44 <MX_TIM1_Init+0xdc>
 8001e34:	4814      	ldr	r0, [pc, #80]	; (8001e88 <MX_TIM1_Init+0x120>)
 8001e36:	f7ff ff2f 	bl	8001c98 <HAL_TIM_MspPostInit>
 8001e3a:	b018      	add	sp, #96	; 0x60
 8001e3c:	bd10      	pop	{r4, pc}
 8001e3e:	f7ff fd0b 	bl	8001858 <Error_Handler>
 8001e42:	e7b3      	b.n	8001dac <MX_TIM1_Init+0x44>
 8001e44:	f7ff fd08 	bl	8001858 <Error_Handler>
 8001e48:	480f      	ldr	r0, [pc, #60]	; (8001e88 <MX_TIM1_Init+0x120>)
 8001e4a:	f7ff ff25 	bl	8001c98 <HAL_TIM_MspPostInit>
 8001e4e:	b018      	add	sp, #96	; 0x60
 8001e50:	bd10      	pop	{r4, pc}
 8001e52:	f7ff fd01 	bl	8001858 <Error_Handler>
 8001e56:	e7d4      	b.n	8001e02 <MX_TIM1_Init+0x9a>
 8001e58:	f7ff fcfe 	bl	8001858 <Error_Handler>
 8001e5c:	e7cb      	b.n	8001df6 <MX_TIM1_Init+0x8e>
 8001e5e:	f7ff fcfb 	bl	8001858 <Error_Handler>
 8001e62:	e7c2      	b.n	8001dea <MX_TIM1_Init+0x82>
 8001e64:	f7ff fcf8 	bl	8001858 <Error_Handler>
 8001e68:	e7ad      	b.n	8001dc6 <MX_TIM1_Init+0x5e>
 8001e6a:	bf00      	nop
 8001e6c:	f3af 8000 	nop.w
 8001e70:	00000000 	.word	0x00000000
 8001e74:	0000000a 	.word	0x0000000a
 8001e78:	00000000 	.word	0x00000000
 8001e7c:	00002000 	.word	0x00002000
 8001e80:	02000000 	.word	0x02000000
 8001e84:	00000000 	.word	0x00000000
 8001e88:	20000438 	.word	0x20000438
 8001e8c:	40012c00 	.word	0x40012c00

08001e90 <MX_TIM8_Init>:
 8001e90:	b510      	push	{r4, lr}
 8001e92:	2400      	movs	r4, #0
 8001e94:	b098      	sub	sp, #96	; 0x60
 8001e96:	222c      	movs	r2, #44	; 0x2c
 8001e98:	4621      	mov	r1, r4
 8001e9a:	a80c      	add	r0, sp, #48	; 0x30
 8001e9c:	e9cd 4401 	strd	r4, r4, [sp, #4]
 8001ea0:	e9cd 4405 	strd	r4, r4, [sp, #20]
 8001ea4:	e9cd 4407 	strd	r4, r4, [sp, #28]
 8001ea8:	e9cd 4409 	strd	r4, r4, [sp, #36]	; 0x24
 8001eac:	9400      	str	r4, [sp, #0]
 8001eae:	9404      	str	r4, [sp, #16]
 8001eb0:	f004 feba 	bl	8006c28 <memset>
 8001eb4:	4842      	ldr	r0, [pc, #264]	; (8001fc0 <MX_TIM8_Init+0x130>)
 8001eb6:	4a43      	ldr	r2, [pc, #268]	; (8001fc4 <MX_TIM8_Init+0x134>)
 8001eb8:	6184      	str	r4, [r0, #24]
 8001eba:	2301      	movs	r3, #1
 8001ebc:	e9c0 2300 	strd	r2, r3, [r0]
 8001ec0:	f44f 6316 	mov.w	r3, #2400	; 0x960
 8001ec4:	e9c0 4302 	strd	r4, r3, [r0, #8]
 8001ec8:	e9c0 4404 	strd	r4, r4, [r0, #16]
 8001ecc:	f002 fe1e 	bl	8004b0c <HAL_TIM_PWM_Init>
 8001ed0:	2800      	cmp	r0, #0
 8001ed2:	d14a      	bne.n	8001f6a <MX_TIM8_Init+0xda>
 8001ed4:	f44f 1300 	mov.w	r3, #2097152	; 0x200000
 8001ed8:	2270      	movs	r2, #112	; 0x70
 8001eda:	e9cd 2300 	strd	r2, r3, [sp]
 8001ede:	4838      	ldr	r0, [pc, #224]	; (8001fc0 <MX_TIM8_Init+0x130>)
 8001ee0:	2380      	movs	r3, #128	; 0x80
 8001ee2:	4669      	mov	r1, sp
 8001ee4:	9302      	str	r3, [sp, #8]
 8001ee6:	f003 f8cd 	bl	8005084 <HAL_TIMEx_MasterConfigSynchronization>
 8001eea:	2800      	cmp	r0, #0
 8001eec:	d150      	bne.n	8001f90 <MX_TIM8_Init+0x100>
 8001eee:	2060      	movs	r0, #96	; 0x60
 8001ef0:	2100      	movs	r1, #0
 8001ef2:	e9cd 0104 	strd	r0, r1, [sp, #16]
 8001ef6:	2000      	movs	r0, #0
 8001ef8:	2100      	movs	r1, #0
 8001efa:	e9cd 0106 	strd	r0, r1, [sp, #24]
 8001efe:	e9cd 0108 	strd	r0, r1, [sp, #32]
 8001f02:	2200      	movs	r2, #0
 8001f04:	482e      	ldr	r0, [pc, #184]	; (8001fc0 <MX_TIM8_Init+0x130>)
 8001f06:	920a      	str	r2, [sp, #40]	; 0x28
 8001f08:	a904      	add	r1, sp, #16
 8001f0a:	f002 ff87 	bl	8004e1c <HAL_TIM_PWM_ConfigChannel>
 8001f0e:	2800      	cmp	r0, #0
 8001f10:	d13b      	bne.n	8001f8a <MX_TIM8_Init+0xfa>
 8001f12:	482b      	ldr	r0, [pc, #172]	; (8001fc0 <MX_TIM8_Init+0x130>)
 8001f14:	2204      	movs	r2, #4
 8001f16:	a904      	add	r1, sp, #16
 8001f18:	f002 ff80 	bl	8004e1c <HAL_TIM_PWM_ConfigChannel>
 8001f1c:	bb90      	cbnz	r0, 8001f84 <MX_TIM8_Init+0xf4>
 8001f1e:	4828      	ldr	r0, [pc, #160]	; (8001fc0 <MX_TIM8_Init+0x130>)
 8001f20:	2208      	movs	r2, #8
 8001f22:	a904      	add	r1, sp, #16
 8001f24:	f002 ff7a 	bl	8004e1c <HAL_TIM_PWM_ConfigChannel>
 8001f28:	bb48      	cbnz	r0, 8001f7e <MX_TIM8_Init+0xee>
 8001f2a:	ed9f 7b1b 	vldr	d7, [pc, #108]	; 8001f98 <MX_TIM8_Init+0x108>
 8001f2e:	ed8d 7b0c 	vstr	d7, [sp, #48]	; 0x30
 8001f32:	ed9f 7b1b 	vldr	d7, [pc, #108]	; 8001fa0 <MX_TIM8_Init+0x110>
 8001f36:	ed8d 7b0e 	vstr	d7, [sp, #56]	; 0x38
 8001f3a:	ed9f 7b1b 	vldr	d7, [pc, #108]	; 8001fa8 <MX_TIM8_Init+0x118>
 8001f3e:	ed8d 7b10 	vstr	d7, [sp, #64]	; 0x40
 8001f42:	ed9f 7b1b 	vldr	d7, [pc, #108]	; 8001fb0 <MX_TIM8_Init+0x120>
 8001f46:	ed8d 7b12 	vstr	d7, [sp, #72]	; 0x48
 8001f4a:	ed9f 7b1b 	vldr	d7, [pc, #108]	; 8001fb8 <MX_TIM8_Init+0x128>
 8001f4e:	2300      	movs	r3, #0
 8001f50:	481b      	ldr	r0, [pc, #108]	; (8001fc0 <MX_TIM8_Init+0x130>)
 8001f52:	9316      	str	r3, [sp, #88]	; 0x58
 8001f54:	a90c      	add	r1, sp, #48	; 0x30
 8001f56:	ed8d 7b14 	vstr	d7, [sp, #80]	; 0x50
 8001f5a:	f003 f8d9 	bl	8005110 <HAL_TIMEx_ConfigBreakDeadTime>
 8001f5e:	b938      	cbnz	r0, 8001f70 <MX_TIM8_Init+0xe0>
 8001f60:	4817      	ldr	r0, [pc, #92]	; (8001fc0 <MX_TIM8_Init+0x130>)
 8001f62:	f7ff fe99 	bl	8001c98 <HAL_TIM_MspPostInit>
 8001f66:	b018      	add	sp, #96	; 0x60
 8001f68:	bd10      	pop	{r4, pc}
 8001f6a:	f7ff fc75 	bl	8001858 <Error_Handler>
 8001f6e:	e7b1      	b.n	8001ed4 <MX_TIM8_Init+0x44>
 8001f70:	f7ff fc72 	bl	8001858 <Error_Handler>
 8001f74:	4812      	ldr	r0, [pc, #72]	; (8001fc0 <MX_TIM8_Init+0x130>)
 8001f76:	f7ff fe8f 	bl	8001c98 <HAL_TIM_MspPostInit>
 8001f7a:	b018      	add	sp, #96	; 0x60
 8001f7c:	bd10      	pop	{r4, pc}
 8001f7e:	f7ff fc6b 	bl	8001858 <Error_Handler>
 8001f82:	e7d2      	b.n	8001f2a <MX_TIM8_Init+0x9a>
 8001f84:	f7ff fc68 	bl	8001858 <Error_Handler>
 8001f88:	e7c9      	b.n	8001f1e <MX_TIM8_Init+0x8e>
 8001f8a:	f7ff fc65 	bl	8001858 <Error_Handler>
 8001f8e:	e7c0      	b.n	8001f12 <MX_TIM8_Init+0x82>
 8001f90:	f7ff fc62 	bl	8001858 <Error_Handler>
 8001f94:	e7ab      	b.n	8001eee <MX_TIM8_Init+0x5e>
 8001f96:	bf00      	nop
	...
 8001fa4:	0000000a 	.word	0x0000000a
 8001fa8:	00000000 	.word	0x00000000
 8001fac:	00002000 	.word	0x00002000
 8001fb0:	00000004 	.word	0x00000004
 8001fb4:	00000000 	.word	0x00000000
 8001fb8:	02000000 	.word	0x02000000
 8001fbc:	00000004 	.word	0x00000004
 8001fc0:	20000484 	.word	0x20000484
 8001fc4:	40013400 	.word	0x40013400

08001fc8 <initFirstSin>:
 8001fc8:	b5f8      	push	{r3, r4, r5, r6, r7, lr}
 8001fca:	4d19      	ldr	r5, [pc, #100]	; (8002030 <initFirstSin+0x68>)
 8001fcc:	2300      	movs	r3, #0
 8001fce:	a716      	add	r7, pc, #88	; (adr r7, 8002028 <initFirstSin+0x60>)
 8001fd0:	e9d7 6700 	ldrd	r6, r7, [r7]
 8001fd4:	ed2d 8b02 	vpush	{d8}
 8001fd8:	f845 3b04 	str.w	r3, [r5], #4
 8001fdc:	ed9f 8a15 	vldr	s16, [pc, #84]	; 8002034 <initFirstSin+0x6c>
 8001fe0:	2401      	movs	r4, #1
 8001fe2:	ee07 4a90 	vmov	s15, r4
 8001fe6:	eef8 7ae7 	vcvt.f32.s32	s15, s15
 8001fea:	3401      	adds	r4, #1
 8001fec:	ee67 7a88 	vmul.f32	s15, s15, s16
 8001ff0:	ee17 0a90 	vmov	r0, s15
 8001ff4:	f7fe faa8 	bl	8000548 <__aeabi_f2d>
 8001ff8:	4632      	mov	r2, r6
 8001ffa:	463b      	mov	r3, r7
 8001ffc:	f7fe fafc 	bl	80005f8 <__aeabi_dmul>
 8002000:	f7fe fdf2 	bl	8000be8 <__aeabi_d2f>
 8002004:	f7fe faa0 	bl	8000548 <__aeabi_f2d>
 8002008:	ec41 0b10 	vmov	d0, r0, r1
 800200c:	f003 fd98 	bl	8005b40 <sin>
 8002010:	ec51 0b10 	vmov	r0, r1, d0
 8002014:	f7fe fde8 	bl	8000be8 <__aeabi_d2f>
 8002018:	f5b4 6f80 	cmp.w	r4, #1024	; 0x400
 800201c:	f845 0b04 	str.w	r0, [r5], #4
 8002020:	d1df      	bne.n	8001fe2 <initFirstSin+0x1a>
 8002022:	ecbd 8b02 	vpop	{d8}
 8002026:	bdf8      	pop	{r3, r4, r5, r6, r7, pc}
 8002028:	54442d18 	.word	0x54442d18
 800202c:	401921fb 	.word	0x401921fb
 8002030:	200004d0 	.word	0x200004d0
 8002034:	3b800000 	.word	0x3b800000

08002038 <setOutputRadianM0>:
 8002038:	b508      	push	{r3, lr}
 800203a:	eef0 0ae0 	vabs.f32	s1, s1
 800203e:	eef3 7a08 	vmov.f32	s15, #56	; 0x41c00000  24.0
 8002042:	eef4 0ae7 	vcmpe.f32	s1, s15
 8002046:	eef1 fa10 	vmrs	APSR_nzcv, fpscr
 800204a:	ed2d 8b02 	vpush	{d8}
 800204e:	ee10 0a10 	vmov	r0, s0
 8002052:	dc3c      	bgt.n	80020ce <setOutputRadianM0+0x96>
 8002054:	ed9f 8a24 	vldr	s16, [pc, #144]	; 80020e8 <setOutputRadianM0+0xb0>
 8002058:	ee20 8a88 	vmul.f32	s16, s1, s16
 800205c:	eebd 8ac8 	vcvt.s32.f32	s16, s16
 8002060:	eeb8 8ac8 	vcvt.f32.s32	s16, s16
 8002064:	f7fe fa70 	bl	8000548 <__aeabi_f2d>
 8002068:	a31b      	add	r3, pc, #108	; (adr r3, 80020d8 <setOutputRadianM0+0xa0>)
 800206a:	e9d3 2300 	ldrd	r2, r3, [r3]
 800206e:	f7fe f90d 	bl	800028c <__adddf3>
 8002072:	a31b      	add	r3, pc, #108	; (adr r3, 80020e0 <setOutputRadianM0+0xa8>)
 8002074:	e9d3 2300 	ldrd	r2, r3, [r3]
 8002078:	f7fe fabe 	bl	80005f8 <__aeabi_dmul>
 800207c:	f7fe fd94 	bl	8000ba8 <__aeabi_d2uiz>
 8002080:	4b1a      	ldr	r3, [pc, #104]	; (80020ec <setOutputRadianM0+0xb4>)
 8002082:	eddf 7a1b 	vldr	s15, [pc, #108]	; 80020f0 <setOutputRadianM0+0xb8>
 8002086:	b2c0      	uxtb	r0, r0
 8002088:	eb03 0180 	add.w	r1, r3, r0, lsl #2
 800208c:	ed91 7a00 	vldr	s14, [r1]
 8002090:	edd1 5a55 	vldr	s11, [r1, #340]	; 0x154
 8002094:	ed91 6aaa 	vldr	s12, [r1, #680]	; 0x2a8
 8002098:	4b16      	ldr	r3, [pc, #88]	; (80020f4 <setOutputRadianM0+0xbc>)
 800209a:	eef0 6a67 	vmov.f32	s13, s15
 800209e:	eee7 6a08 	vfma.f32	s13, s14, s16
 80020a2:	681b      	ldr	r3, [r3, #0]
 80020a4:	eeb0 7a67 	vmov.f32	s14, s15
 80020a8:	eea5 7a88 	vfma.f32	s14, s11, s16
 80020ac:	eee6 7a08 	vfma.f32	s15, s12, s16
 80020b0:	ecbd 8b02 	vpop	{d8}
 80020b4:	eefc 6ae6 	vcvt.u32.f32	s13, s13
 80020b8:	eebc 7ac7 	vcvt.u32.f32	s14, s14
 80020bc:	eefc 7ae7 	vcvt.u32.f32	s15, s15
 80020c0:	edc3 6a0d 	vstr	s13, [r3, #52]	; 0x34
 80020c4:	ed83 7a0e 	vstr	s14, [r3, #56]	; 0x38
 80020c8:	edc3 7a0f 	vstr	s15, [r3, #60]	; 0x3c
 80020cc:	bd08      	pop	{r3, pc}
 80020ce:	ed9f 8a0a 	vldr	s16, [pc, #40]	; 80020f8 <setOutputRadianM0+0xc0>
 80020d2:	e7c7      	b.n	8002064 <setOutputRadianM0+0x2c>
 80020d4:	f3af 8000 	nop.w
 80020d8:	54442d18 	.word	0x54442d18
 80020dc:	402921fb 	.word	0x402921fb
 80020e0:	3d5bfeba 	.word	0x3d5bfeba
 80020e4:	40444ad1 	.word	0x40444ad1
 80020e8:	41e95556 	.word	0x41e95556
 80020ec:	200004d0 	.word	0x200004d0
 80020f0:	442f0000 	.word	0x442f0000
 80020f4:	20000438 	.word	0x20000438
	...

08002100 <setOutputRadianM1>:
 8002100:	b508      	push	{r3, lr}
 8002102:	eef0 0ae0 	vabs.f32	s1, s1
 8002106:	eef3 7a08 	vmov.f32	s15, #56	; 0x41c00000  24.0
 800210a:	eef4 0ae7 	vcmpe.f32	s1, s15
 800210e:	eef1 fa10 	vmrs	APSR_nzcv, fpscr
 8002112:	ed2d 8b02 	vpush	{d8}
 8002116:	ee10 0a10 	vmov	r0, s0
 800211a:	dc3c      	bgt.n	8002196 <setOutputRadianM1+0x96>
 800211c:	ed9f 8a24 	vldr	s16, [pc, #144]	; 80021b0 <setOutputRadianM1+0xb0>
 8002120:	ee20 8a88 	vmul.f32	s16, s1, s16
 8002124:	eebd 8ac8 	vcvt.s32.f32	s16, s16
 8002128:	eeb8 8ac8 	vcvt.f32.s32	s16, s16
 800212c:	f7fe fa0c 	bl	8000548 <__aeabi_f2d>
 8002130:	a31b      	add	r3, pc, #108	; (adr r3, 80021a0 <setOutputRadianM1+0xa0>)
 8002132:	e9d3 2300 	ldrd	r2, r3, [r3]
 8002136:	f7fe f8a9 	bl	800028c <__adddf3>
 800213a:	a31b      	add	r3, pc, #108	; (adr r3, 80021a8 <setOutputRadianM1+0xa8>)
 800213c:	e9d3 2300 	ldrd	r2, r3, [r3]
 8002140:	f7fe fa5a 	bl	80005f8 <__aeabi_dmul>
 8002144:	f7fe fd30 	bl	8000ba8 <__aeabi_d2uiz>
 8002148:	4b1a      	ldr	r3, [pc, #104]	; (80021b4 <setOutputRadianM1+0xb4>)
 800214a:	eddf 7a1b 	vldr	s15, [pc, #108]	; 80021b8 <setOutputRadianM1+0xb8>
 800214e:	b2c0      	uxtb	r0, r0
 8002150:	eb03 0180 	add.w	r1, r3, r0, lsl #2
 8002154:	ed91 7a00 	vldr	s14, [r1]
 8002158:	edd1 5a55 	vldr	s11, [r1, #340]	; 0x154
 800215c:	ed91 6aaa 	vldr	s12, [r1, #680]	; 0x2a8
 8002160:	4b16      	ldr	r3, [pc, #88]	; (80021bc <setOutputRadianM1+0xbc>)
 8002162:	eef0 6a67 	vmov.f32	s13, s15
 8002166:	eee7 6a08 	vfma.f32	s13, s14, s16
 800216a:	681b      	ldr	r3, [r3, #0]
 800216c:	eeb0 7a67 	vmov.f32	s14, s15
 8002170:	eea5 7a88 	vfma.f32	s14, s11, s16
 8002174:	eee6 7a08 	vfma.f32	s15, s12, s16
 8002178:	ecbd 8b02 	vpop	{d8}
 800217c:	eefc 6ae6 	vcvt.u32.f32	s13, s13
 8002180:	eebc 7ac7 	vcvt.u32.f32	s14, s14
 8002184:	eefc 7ae7 	vcvt.u32.f32	s15, s15
 8002188:	edc3 6a0d 	vstr	s13, [r3, #52]	; 0x34
 800218c:	ed83 7a0e 	vstr	s14, [r3, #56]	; 0x38
 8002190:	edc3 7a0f 	vstr	s15, [r3, #60]	; 0x3c
 8002194:	bd08      	pop	{r3, pc}
 8002196:	ed9f 8a0a 	vldr	s16, [pc, #40]	; 80021c0 <setOutputRadianM1+0xc0>
 800219a:	e7c7      	b.n	800212c <setOutputRadianM1+0x2c>
 800219c:	f3af 8000 	nop.w
 80021a0:	54442d18 	.word	0x54442d18
 80021a4:	402921fb 	.word	0x402921fb
 80021a8:	3d5bfeba 	.word	0x3d5bfeba
 80021ac:	40444ad1 	.word	0x40444ad1
 80021b0:	41e95556 	.word	0x41e95556
 80021b4:	200004d0 	.word	0x200004d0
 80021b8:	442f0000 	.word	0x442f0000
 80021bc:	20000484 	.word	0x20000484
 80021c0:	00000000 	.word	0x00000000

080021c4 <MX_USART1_UART_Init>:
 80021c4:	b510      	push	{r4, lr}
 80021c6:	480b      	ldr	r0, [pc, #44]	; (80021f4 <MX_USART1_UART_Init+0x30>)
 80021c8:	4c0b      	ldr	r4, [pc, #44]	; (80021f8 <MX_USART1_UART_Init+0x34>)
 80021ca:	490c      	ldr	r1, [pc, #48]	; (80021fc <MX_USART1_UART_Init+0x38>)
 80021cc:	2300      	movs	r3, #0
 80021ce:	220c      	movs	r2, #12
 80021d0:	e9c0 4100 	strd	r4, r1, [r0]
 80021d4:	e9c0 3302 	strd	r3, r3, [r0, #8]
 80021d8:	e9c0 3204 	strd	r3, r2, [r0, #16]
 80021dc:	e9c0 3306 	strd	r3, r3, [r0, #24]
 80021e0:	e9c0 3308 	strd	r3, r3, [r0, #32]
 80021e4:	f003 fc40 	bl	8005a68 <HAL_UART_Init>
 80021e8:	b900      	cbnz	r0, 80021ec <MX_USART1_UART_Init+0x28>
 80021ea:	bd10      	pop	{r4, pc}
 80021ec:	e8bd 4010 	ldmia.w	sp!, {r4, lr}
 80021f0:	f7ff bb32 	b.w	8001858 <Error_Handler>
 80021f4:	20001514 	.word	0x20001514
 80021f8:	40013800 	.word	0x40013800
 80021fc:	001e8480 	.word	0x001e8480

08002200 <HAL_UART_MspInit>:
 8002200:	b570      	push	{r4, r5, r6, lr}
 8002202:	4b26      	ldr	r3, [pc, #152]	; (800229c <HAL_UART_MspInit+0x9c>)
 8002204:	6802      	ldr	r2, [r0, #0]
 8002206:	b088      	sub	sp, #32
 8002208:	2400      	movs	r4, #0
 800220a:	429a      	cmp	r2, r3
 800220c:	e9cd 4402 	strd	r4, r4, [sp, #8]
 8002210:	e9cd 4404 	strd	r4, r4, [sp, #16]
 8002214:	9406      	str	r4, [sp, #24]
 8002216:	d001      	beq.n	800221c <HAL_UART_MspInit+0x1c>
 8002218:	b008      	add	sp, #32
 800221a:	bd70      	pop	{r4, r5, r6, pc}
 800221c:	f503 4358 	add.w	r3, r3, #55296	; 0xd800
 8002220:	4605      	mov	r5, r0
 8002222:	699a      	ldr	r2, [r3, #24]
 8002224:	481e      	ldr	r0, [pc, #120]	; (80022a0 <HAL_UART_MspInit+0xa0>)
 8002226:	4e1f      	ldr	r6, [pc, #124]	; (80022a4 <HAL_UART_MspInit+0xa4>)
 8002228:	f442 4280 	orr.w	r2, r2, #16384	; 0x4000
 800222c:	619a      	str	r2, [r3, #24]
 800222e:	699a      	ldr	r2, [r3, #24]
 8002230:	f402 4280 	and.w	r2, r2, #16384	; 0x4000
 8002234:	9200      	str	r2, [sp, #0]
 8002236:	9a00      	ldr	r2, [sp, #0]
 8002238:	695a      	ldr	r2, [r3, #20]
 800223a:	f442 2200 	orr.w	r2, r2, #524288	; 0x80000
 800223e:	615a      	str	r2, [r3, #20]
 8002240:	695b      	ldr	r3, [r3, #20]
 8002242:	f403 2300 	and.w	r3, r3, #524288	; 0x80000
 8002246:	9301      	str	r3, [sp, #4]
 8002248:	2230      	movs	r2, #48	; 0x30
 800224a:	2302      	movs	r3, #2
 800224c:	e9cd 2302 	strd	r2, r3, [sp, #8]
 8002250:	2303      	movs	r3, #3
 8002252:	9305      	str	r3, [sp, #20]
 8002254:	a902      	add	r1, sp, #8
 8002256:	9b01      	ldr	r3, [sp, #4]
 8002258:	2307      	movs	r3, #7
 800225a:	9306      	str	r3, [sp, #24]
 800225c:	f001 fd14 	bl	8003c88 <HAL_GPIO_Init>
 8002260:	4a11      	ldr	r2, [pc, #68]	; (80022a8 <HAL_UART_MspInit+0xa8>)
 8002262:	2310      	movs	r3, #16
 8002264:	e9c6 2300 	strd	r2, r3, [r6]
 8002268:	4630      	mov	r0, r6
 800226a:	2380      	movs	r3, #128	; 0x80
 800226c:	e9c6 4302 	strd	r4, r3, [r6, #8]
 8002270:	e9c6 4404 	strd	r4, r4, [r6, #16]
 8002274:	e9c6 4406 	strd	r4, r4, [r6, #24]
 8002278:	f001 fa62 	bl	8003740 <HAL_DMA_Init>
 800227c:	b958      	cbnz	r0, 8002296 <HAL_UART_MspInit+0x96>
 800227e:	2200      	movs	r2, #0
 8002280:	4611      	mov	r1, r2
 8002282:	2025      	movs	r0, #37	; 0x25
 8002284:	66ee      	str	r6, [r5, #108]	; 0x6c
 8002286:	6275      	str	r5, [r6, #36]	; 0x24
 8002288:	f001 f9f4 	bl	8003674 <HAL_NVIC_SetPriority>
 800228c:	2025      	movs	r0, #37	; 0x25
 800228e:	f001 fa2f 	bl	80036f0 <HAL_NVIC_EnableIRQ>
 8002292:	b008      	add	sp, #32
 8002294:	bd70      	pop	{r4, r5, r6, pc}
 8002296:	f7ff fadf 	bl	8001858 <Error_Handler>
 800229a:	e7f0      	b.n	800227e <HAL_UART_MspInit+0x7e>
 800229c:	40013800 	.word	0x40013800
 80022a0:	48000800 	.word	0x48000800
 80022a4:	200014d0 	.word	0x200014d0
 80022a8:	40020044 	.word	0x40020044

080022ac <Reset_Handler>:
 80022ac:	f8df d034 	ldr.w	sp, [pc, #52]	; 80022e4 <LoopForever+0x2>
 80022b0:	480d      	ldr	r0, [pc, #52]	; (80022e8 <LoopForever+0x6>)
 80022b2:	490e      	ldr	r1, [pc, #56]	; (80022ec <LoopForever+0xa>)
 80022b4:	4a0e      	ldr	r2, [pc, #56]	; (80022f0 <LoopForever+0xe>)
 80022b6:	2300      	movs	r3, #0
 80022b8:	e002      	b.n	80022c0 <LoopCopyDataInit>

080022ba <CopyDataInit>:
 80022ba:	58d4      	ldr	r4, [r2, r3]
 80022bc:	50c4      	str	r4, [r0, r3]
 80022be:	3304      	adds	r3, #4

080022c0 <LoopCopyDataInit>:
 80022c0:	18c4      	adds	r4, r0, r3
 80022c2:	428c      	cmp	r4, r1
 80022c4:	d3f9      	bcc.n	80022ba <CopyDataInit>
 80022c6:	4a0b      	ldr	r2, [pc, #44]	; (80022f4 <LoopForever+0x12>)
 80022c8:	4c0b      	ldr	r4, [pc, #44]	; (80022f8 <LoopForever+0x16>)
 80022ca:	2300      	movs	r3, #0
 80022cc:	e001      	b.n	80022d2 <LoopFillZerobss>

080022ce <FillZerobss>:
 80022ce:	6013      	str	r3, [r2, #0]
 80022d0:	3204      	adds	r2, #4

080022d2 <LoopFillZerobss>:
 80022d2:	42a2      	cmp	r2, r4
 80022d4:	d3fb      	bcc.n	80022ce <FillZerobss>
 80022d6:	f7ff fc89 	bl	8001bec <SystemInit>
 80022da:	f004 fc81 	bl	8006be0 <__libc_init_array>
 80022de:	f7ff fa5b 	bl	8001798 <main>

080022e2 <LoopForever>:
 80022e2:	e7fe      	b.n	80022e2 <LoopForever>
 80022e4:	20008000 	.word	0x20008000
 80022e8:	20000000 	.word	0x20000000
 80022ec:	200001e4 	.word	0x200001e4
 80022f0:	0800bd44 	.word	0x0800bd44
 80022f4:	200001e8 	.word	0x200001e8
 80022f8:	200015d0 	.word	0x200015d0

080022fc <ADC1_2_IRQHandler>:
 80022fc:	e7fe      	b.n	80022fc <ADC1_2_IRQHandler>
	...

08002300 <HAL_InitTick>:
 8002300:	b538      	push	{r3, r4, r5, lr}
 8002302:	4a0e      	ldr	r2, [pc, #56]	; (800233c <HAL_InitTick+0x3c>)
 8002304:	4b0e      	ldr	r3, [pc, #56]	; (8002340 <HAL_InitTick+0x40>)
 8002306:	7812      	ldrb	r2, [r2, #0]
 8002308:	681b      	ldr	r3, [r3, #0]
 800230a:	4605      	mov	r5, r0
 800230c:	f44f 707a 	mov.w	r0, #1000	; 0x3e8
 8002310:	fbb0 f0f2 	udiv	r0, r0, r2
 8002314:	fbb3 f0f0 	udiv	r0, r3, r0
 8002318:	f001 f9f8 	bl	800370c <HAL_SYSTICK_Config>
 800231c:	b908      	cbnz	r0, 8002322 <HAL_InitTick+0x22>
 800231e:	2d0f      	cmp	r5, #15
 8002320:	d901      	bls.n	8002326 <HAL_InitTick+0x26>
 8002322:	2001      	movs	r0, #1
 8002324:	bd38      	pop	{r3, r4, r5, pc}
 8002326:	4604      	mov	r4, r0
 8002328:	4602      	mov	r2, r0
 800232a:	4629      	mov	r1, r5
 800232c:	f04f 30ff 	mov.w	r0, #4294967295
 8002330:	f001 f9a0 	bl	8003674 <HAL_NVIC_SetPriority>
 8002334:	4b03      	ldr	r3, [pc, #12]	; (8002344 <HAL_InitTick+0x44>)
 8002336:	4620      	mov	r0, r4
 8002338:	601d      	str	r5, [r3, #0]
 800233a:	bd38      	pop	{r3, r4, r5, pc}
 800233c:	20000008 	.word	0x20000008
 8002340:	20000004 	.word	0x20000004
 8002344:	2000000c 	.word	0x2000000c

08002348 <HAL_Init>:
 8002348:	4a07      	ldr	r2, [pc, #28]	; (8002368 <HAL_Init+0x20>)
 800234a:	b508      	push	{r3, lr}
 800234c:	6813      	ldr	r3, [r2, #0]
 800234e:	f043 0310 	orr.w	r3, r3, #16
 8002352:	6013      	str	r3, [r2, #0]
 8002354:	2003      	movs	r0, #3
 8002356:	f001 f97b 	bl	8003650 <HAL_NVIC_SetPriorityGrouping>
 800235a:	200f      	movs	r0, #15
 800235c:	f7ff ffd0 	bl	8002300 <HAL_InitTick>
 8002360:	f7ff fb90 	bl	8001a84 <HAL_MspInit>
 8002364:	2000      	movs	r0, #0
 8002366:	bd08      	pop	{r3, pc}
 8002368:	40022000 	.word	0x40022000

0800236c <HAL_IncTick>:
 800236c:	4a03      	ldr	r2, [pc, #12]	; (800237c <HAL_IncTick+0x10>)
 800236e:	4b04      	ldr	r3, [pc, #16]	; (8002380 <HAL_IncTick+0x14>)
 8002370:	6811      	ldr	r1, [r2, #0]
 8002372:	781b      	ldrb	r3, [r3, #0]
 8002374:	440b      	add	r3, r1
 8002376:	6013      	str	r3, [r2, #0]
 8002378:	4770      	bx	lr
 800237a:	bf00      	nop
 800237c:	20001598 	.word	0x20001598
 8002380:	20000008 	.word	0x20000008

08002384 <HAL_GetTick>:
 8002384:	4b01      	ldr	r3, [pc, #4]	; (800238c <HAL_GetTick+0x8>)
 8002386:	6818      	ldr	r0, [r3, #0]
 8002388:	4770      	bx	lr
 800238a:	bf00      	nop
 800238c:	20001598 	.word	0x20001598

08002390 <HAL_Delay>:
 8002390:	b538      	push	{r3, r4, r5, lr}
 8002392:	4604      	mov	r4, r0
 8002394:	f7ff fff6 	bl	8002384 <HAL_GetTick>
 8002398:	1c63      	adds	r3, r4, #1
 800239a:	4605      	mov	r5, r0
 800239c:	d002      	beq.n	80023a4 <HAL_Delay+0x14>
 800239e:	4b04      	ldr	r3, [pc, #16]	; (80023b0 <HAL_Delay+0x20>)
 80023a0:	781b      	ldrb	r3, [r3, #0]
 80023a2:	441c      	add	r4, r3
 80023a4:	f7ff ffee 	bl	8002384 <HAL_GetTick>
 80023a8:	1b43      	subs	r3, r0, r5
 80023aa:	42a3      	cmp	r3, r4
 80023ac:	d3fa      	bcc.n	80023a4 <HAL_Delay+0x14>
 80023ae:	bd38      	pop	{r3, r4, r5, pc}
 80023b0:	20000008 	.word	0x20000008

080023b4 <ADC_Disable>:
 80023b4:	6802      	ldr	r2, [r0, #0]
 80023b6:	b538      	push	{r3, r4, r5, lr}
 80023b8:	6893      	ldr	r3, [r2, #8]
 80023ba:	f003 0303 	and.w	r3, r3, #3
 80023be:	2b01      	cmp	r3, #1
 80023c0:	d001      	beq.n	80023c6 <ADC_Disable+0x12>
 80023c2:	2000      	movs	r0, #0
 80023c4:	bd38      	pop	{r3, r4, r5, pc}
 80023c6:	6811      	ldr	r1, [r2, #0]
 80023c8:	07cc      	lsls	r4, r1, #31
 80023ca:	d5fa      	bpl.n	80023c2 <ADC_Disable+0xe>
 80023cc:	6891      	ldr	r1, [r2, #8]
 80023ce:	f001 010d 	and.w	r1, r1, #13
 80023d2:	2901      	cmp	r1, #1
 80023d4:	4604      	mov	r4, r0
 80023d6:	d009      	beq.n	80023ec <ADC_Disable+0x38>
 80023d8:	6c02      	ldr	r2, [r0, #64]	; 0x40
 80023da:	f042 0210 	orr.w	r2, r2, #16
 80023de:	6422      	str	r2, [r4, #64]	; 0x40
 80023e0:	4618      	mov	r0, r3
 80023e2:	6c63      	ldr	r3, [r4, #68]	; 0x44
 80023e4:	f043 0301 	orr.w	r3, r3, #1
 80023e8:	6463      	str	r3, [r4, #68]	; 0x44
 80023ea:	bd38      	pop	{r3, r4, r5, pc}
 80023ec:	6893      	ldr	r3, [r2, #8]
 80023ee:	2103      	movs	r1, #3
 80023f0:	f043 0302 	orr.w	r3, r3, #2
 80023f4:	6093      	str	r3, [r2, #8]
 80023f6:	6011      	str	r1, [r2, #0]
 80023f8:	f7ff ffc4 	bl	8002384 <HAL_GetTick>
 80023fc:	6823      	ldr	r3, [r4, #0]
 80023fe:	689b      	ldr	r3, [r3, #8]
 8002400:	07d9      	lsls	r1, r3, #31
 8002402:	4605      	mov	r5, r0
 8002404:	d403      	bmi.n	800240e <ADC_Disable+0x5a>
 8002406:	e7dc      	b.n	80023c2 <ADC_Disable+0xe>
 8002408:	689b      	ldr	r3, [r3, #8]
 800240a:	07db      	lsls	r3, r3, #31
 800240c:	d5d9      	bpl.n	80023c2 <ADC_Disable+0xe>
 800240e:	f7ff ffb9 	bl	8002384 <HAL_GetTick>
 8002412:	1b40      	subs	r0, r0, r5
 8002414:	2802      	cmp	r0, #2
 8002416:	6823      	ldr	r3, [r4, #0]
 8002418:	d9f6      	bls.n	8002408 <ADC_Disable+0x54>
 800241a:	689a      	ldr	r2, [r3, #8]
 800241c:	07d2      	lsls	r2, r2, #31
 800241e:	d5f3      	bpl.n	8002408 <ADC_Disable+0x54>
 8002420:	6c23      	ldr	r3, [r4, #64]	; 0x40
 8002422:	f043 0310 	orr.w	r3, r3, #16
 8002426:	6423      	str	r3, [r4, #64]	; 0x40
 8002428:	6c63      	ldr	r3, [r4, #68]	; 0x44
 800242a:	2001      	movs	r0, #1
 800242c:	4303      	orrs	r3, r0
 800242e:	6463      	str	r3, [r4, #68]	; 0x44
 8002430:	bd38      	pop	{r3, r4, r5, pc}
 8002432:	bf00      	nop

08002434 <ADC_Enable>:
 8002434:	6802      	ldr	r2, [r0, #0]
 8002436:	b538      	push	{r3, r4, r5, lr}
 8002438:	6893      	ldr	r3, [r2, #8]
 800243a:	f003 0303 	and.w	r3, r3, #3
 800243e:	2b01      	cmp	r3, #1
 8002440:	4604      	mov	r4, r0
 8002442:	d025      	beq.n	8002490 <ADC_Enable+0x5c>
 8002444:	6891      	ldr	r1, [r2, #8]
 8002446:	4b15      	ldr	r3, [pc, #84]	; (800249c <ADC_Enable+0x68>)
 8002448:	4219      	tst	r1, r3
 800244a:	d008      	beq.n	800245e <ADC_Enable+0x2a>
 800244c:	6c23      	ldr	r3, [r4, #64]	; 0x40
 800244e:	f043 0310 	orr.w	r3, r3, #16
 8002452:	6423      	str	r3, [r4, #64]	; 0x40
 8002454:	6c63      	ldr	r3, [r4, #68]	; 0x44
 8002456:	2001      	movs	r0, #1
 8002458:	4303      	orrs	r3, r0
 800245a:	6463      	str	r3, [r4, #68]	; 0x44
 800245c:	bd38      	pop	{r3, r4, r5, pc}
 800245e:	6893      	ldr	r3, [r2, #8]
 8002460:	f043 0301 	orr.w	r3, r3, #1
 8002464:	6093      	str	r3, [r2, #8]
 8002466:	f7ff ff8d 	bl	8002384 <HAL_GetTick>
 800246a:	6823      	ldr	r3, [r4, #0]
 800246c:	4605      	mov	r5, r0
 800246e:	681b      	ldr	r3, [r3, #0]
 8002470:	07d9      	lsls	r1, r3, #31
 8002472:	d40b      	bmi.n	800248c <ADC_Enable+0x58>
 8002474:	f7ff ff86 	bl	8002384 <HAL_GetTick>
 8002478:	1b43      	subs	r3, r0, r5
 800247a:	2b02      	cmp	r3, #2
 800247c:	6823      	ldr	r3, [r4, #0]
 800247e:	d9f6      	bls.n	800246e <ADC_Enable+0x3a>
 8002480:	681a      	ldr	r2, [r3, #0]
 8002482:	07d2      	lsls	r2, r2, #31
 8002484:	d5e2      	bpl.n	800244c <ADC_Enable+0x18>
 8002486:	681b      	ldr	r3, [r3, #0]
 8002488:	07d9      	lsls	r1, r3, #31
 800248a:	d5f3      	bpl.n	8002474 <ADC_Enable+0x40>
 800248c:	2000      	movs	r0, #0
 800248e:	bd38      	pop	{r3, r4, r5, pc}
 8002490:	6813      	ldr	r3, [r2, #0]
 8002492:	07d8      	lsls	r0, r3, #31
 8002494:	d5d6      	bpl.n	8002444 <ADC_Enable+0x10>
 8002496:	2000      	movs	r0, #0
 8002498:	e7f9      	b.n	800248e <ADC_Enable+0x5a>
 800249a:	bf00      	nop
 800249c:	8000003f 	.word	0x8000003f

080024a0 <HAL_ADC_Init>:
 80024a0:	b530      	push	{r4, r5, lr}
 80024a2:	b083      	sub	sp, #12
 80024a4:	2300      	movs	r3, #0
 80024a6:	9301      	str	r3, [sp, #4]
 80024a8:	2800      	cmp	r0, #0
 80024aa:	f000 809c 	beq.w	80025e6 <HAL_ADC_Init+0x146>
 80024ae:	6c03      	ldr	r3, [r0, #64]	; 0x40
 80024b0:	f013 0310 	ands.w	r3, r3, #16
 80024b4:	4604      	mov	r4, r0
 80024b6:	d118      	bne.n	80024ea <HAL_ADC_Init+0x4a>
 80024b8:	6c05      	ldr	r5, [r0, #64]	; 0x40
 80024ba:	2d00      	cmp	r5, #0
 80024bc:	f000 8096 	beq.w	80025ec <HAL_ADC_Init+0x14c>
 80024c0:	6822      	ldr	r2, [r4, #0]
 80024c2:	6891      	ldr	r1, [r2, #8]
 80024c4:	00c9      	lsls	r1, r1, #3
 80024c6:	f140 8082 	bpl.w	80025ce <HAL_ADC_Init+0x12e>
 80024ca:	6891      	ldr	r1, [r2, #8]
 80024cc:	008d      	lsls	r5, r1, #2
 80024ce:	d47e      	bmi.n	80025ce <HAL_ADC_Init+0x12e>
 80024d0:	6c21      	ldr	r1, [r4, #64]	; 0x40
 80024d2:	06c8      	lsls	r0, r1, #27
 80024d4:	d400      	bmi.n	80024d8 <HAL_ADC_Init+0x38>
 80024d6:	b163      	cbz	r3, 80024f2 <HAL_ADC_Init+0x52>
 80024d8:	6c23      	ldr	r3, [r4, #64]	; 0x40
 80024da:	f023 0312 	bic.w	r3, r3, #18
 80024de:	2001      	movs	r0, #1
 80024e0:	f043 0310 	orr.w	r3, r3, #16
 80024e4:	6423      	str	r3, [r4, #64]	; 0x40
 80024e6:	b003      	add	sp, #12
 80024e8:	bd30      	pop	{r4, r5, pc}
 80024ea:	6c03      	ldr	r3, [r0, #64]	; 0x40
 80024ec:	06da      	lsls	r2, r3, #27
 80024ee:	d4f3      	bmi.n	80024d8 <HAL_ADC_Init+0x38>
 80024f0:	6802      	ldr	r2, [r0, #0]
 80024f2:	6890      	ldr	r0, [r2, #8]
 80024f4:	f010 0004 	ands.w	r0, r0, #4
 80024f8:	d1ee      	bne.n	80024d8 <HAL_ADC_Init+0x38>
 80024fa:	6c21      	ldr	r1, [r4, #64]	; 0x40
 80024fc:	f421 7181 	bic.w	r1, r1, #258	; 0x102
 8002500:	f041 0102 	orr.w	r1, r1, #2
 8002504:	f1b2 4fa0 	cmp.w	r2, #1342177280	; 0x50000000
 8002508:	6421      	str	r1, [r4, #64]	; 0x40
 800250a:	f000 80d9 	beq.w	80026c0 <HAL_ADC_Init+0x220>
 800250e:	4b7d      	ldr	r3, [pc, #500]	; (8002704 <HAL_ADC_Init+0x264>)
 8002510:	429a      	cmp	r2, r3
 8002512:	f000 80dd 	beq.w	80026d0 <HAL_ADC_Init+0x230>
 8002516:	497c      	ldr	r1, [pc, #496]	; (8002708 <HAL_ADC_Init+0x268>)
 8002518:	428a      	cmp	r2, r1
 800251a:	d074      	beq.n	8002606 <HAL_ADC_Init+0x166>
 800251c:	4b7b      	ldr	r3, [pc, #492]	; (800270c <HAL_ADC_Init+0x26c>)
 800251e:	429a      	cmp	r2, r3
 8002520:	d072      	beq.n	8002608 <HAL_ADC_Init+0x168>
 8002522:	6893      	ldr	r3, [r2, #8]
 8002524:	f003 0303 	and.w	r3, r3, #3
 8002528:	2b01      	cmp	r3, #1
 800252a:	f000 80e3 	beq.w	80026f4 <HAL_ADC_Init+0x254>
 800252e:	4d78      	ldr	r5, [pc, #480]	; (8002710 <HAL_ADC_Init+0x270>)
 8002530:	68ab      	ldr	r3, [r5, #8]
 8002532:	6861      	ldr	r1, [r4, #4]
 8002534:	f423 3340 	bic.w	r3, r3, #196608	; 0x30000
 8002538:	430b      	orrs	r3, r1
 800253a:	60ab      	str	r3, [r5, #8]
 800253c:	6b63      	ldr	r3, [r4, #52]	; 0x34
 800253e:	68e1      	ldr	r1, [r4, #12]
 8002540:	7e65      	ldrb	r5, [r4, #25]
 8002542:	2b01      	cmp	r3, #1
 8002544:	68a3      	ldr	r3, [r4, #8]
 8002546:	ea43 0301 	orr.w	r3, r3, r1
 800254a:	f894 1020 	ldrb.w	r1, [r4, #32]
 800254e:	bf18      	it	ne
 8002550:	f44f 5080 	movne.w	r0, #4096	; 0x1000
 8002554:	ea43 3345 	orr.w	r3, r3, r5, lsl #13
 8002558:	2901      	cmp	r1, #1
 800255a:	ea43 0300 	orr.w	r3, r3, r0
 800255e:	f000 8093 	beq.w	8002688 <HAL_ADC_Init+0x1e8>
 8002562:	6aa1      	ldr	r1, [r4, #40]	; 0x28
 8002564:	2901      	cmp	r1, #1
 8002566:	d00b      	beq.n	8002580 <HAL_ADC_Init+0xe0>
 8002568:	4867      	ldr	r0, [pc, #412]	; (8002708 <HAL_ADC_Init+0x268>)
 800256a:	4282      	cmp	r2, r0
 800256c:	f000 809c 	beq.w	80026a8 <HAL_ADC_Init+0x208>
 8002570:	f500 7080 	add.w	r0, r0, #256	; 0x100
 8002574:	4282      	cmp	r2, r0
 8002576:	f000 8097 	beq.w	80026a8 <HAL_ADC_Init+0x208>
 800257a:	6ae0      	ldr	r0, [r4, #44]	; 0x2c
 800257c:	4303      	orrs	r3, r0
 800257e:	430b      	orrs	r3, r1
 8002580:	6891      	ldr	r1, [r2, #8]
 8002582:	f011 0f0c 	tst.w	r1, #12
 8002586:	d10c      	bne.n	80025a2 <HAL_ADC_Init+0x102>
 8002588:	68d1      	ldr	r1, [r2, #12]
 800258a:	f421 4180 	bic.w	r1, r1, #16384	; 0x4000
 800258e:	f021 0102 	bic.w	r1, r1, #2
 8002592:	60d1      	str	r1, [r2, #12]
 8002594:	f894 1030 	ldrb.w	r1, [r4, #48]	; 0x30
 8002598:	7e20      	ldrb	r0, [r4, #24]
 800259a:	0049      	lsls	r1, r1, #1
 800259c:	ea41 3180 	orr.w	r1, r1, r0, lsl #14
 80025a0:	430b      	orrs	r3, r1
 80025a2:	68d0      	ldr	r0, [r2, #12]
 80025a4:	495b      	ldr	r1, [pc, #364]	; (8002714 <HAL_ADC_Init+0x274>)
 80025a6:	4001      	ands	r1, r0
 80025a8:	6920      	ldr	r0, [r4, #16]
 80025aa:	430b      	orrs	r3, r1
 80025ac:	2801      	cmp	r0, #1
 80025ae:	60d3      	str	r3, [r2, #12]
 80025b0:	d072      	beq.n	8002698 <HAL_ADC_Init+0x1f8>
 80025b2:	6b13      	ldr	r3, [r2, #48]	; 0x30
 80025b4:	f023 030f 	bic.w	r3, r3, #15
 80025b8:	6313      	str	r3, [r2, #48]	; 0x30
 80025ba:	2000      	movs	r0, #0
 80025bc:	6460      	str	r0, [r4, #68]	; 0x44
 80025be:	6c23      	ldr	r3, [r4, #64]	; 0x40
 80025c0:	f023 0303 	bic.w	r3, r3, #3
 80025c4:	f043 0301 	orr.w	r3, r3, #1
 80025c8:	6423      	str	r3, [r4, #64]	; 0x40
 80025ca:	b003      	add	sp, #12
 80025cc:	bd30      	pop	{r4, r5, pc}
 80025ce:	6c23      	ldr	r3, [r4, #64]	; 0x40
 80025d0:	f023 0312 	bic.w	r3, r3, #18
 80025d4:	f043 0310 	orr.w	r3, r3, #16
 80025d8:	6423      	str	r3, [r4, #64]	; 0x40
 80025da:	6c63      	ldr	r3, [r4, #68]	; 0x44
 80025dc:	f043 0301 	orr.w	r3, r3, #1
 80025e0:	6463      	str	r3, [r4, #68]	; 0x44
 80025e2:	6c23      	ldr	r3, [r4, #64]	; 0x40
 80025e4:	e778      	b.n	80024d8 <HAL_ADC_Init+0x38>
 80025e6:	2001      	movs	r0, #1
 80025e8:	b003      	add	sp, #12
 80025ea:	bd30      	pop	{r4, r5, pc}
 80025ec:	e9c0 5512 	strd	r5, r5, [r0, #72]	; 0x48
 80025f0:	6445      	str	r5, [r0, #68]	; 0x44
 80025f2:	f880 503c 	strb.w	r5, [r0, #60]	; 0x3c
 80025f6:	f7fe fce3 	bl	8000fc0 <HAL_ADC_MspInit>
 80025fa:	6822      	ldr	r2, [r4, #0]
 80025fc:	6893      	ldr	r3, [r2, #8]
 80025fe:	00db      	lsls	r3, r3, #3
 8002600:	d511      	bpl.n	8002626 <HAL_ADC_Init+0x186>
 8002602:	462b      	mov	r3, r5
 8002604:	e75d      	b.n	80024c2 <HAL_ADC_Init+0x22>
 8002606:	4941      	ldr	r1, [pc, #260]	; (800270c <HAL_ADC_Init+0x26c>)
 8002608:	4d41      	ldr	r5, [pc, #260]	; (8002710 <HAL_ADC_Init+0x270>)
 800260a:	6893      	ldr	r3, [r2, #8]
 800260c:	f003 0303 	and.w	r3, r3, #3
 8002610:	2b01      	cmp	r3, #1
 8002612:	d058      	beq.n	80026c6 <HAL_ADC_Init+0x226>
 8002614:	688b      	ldr	r3, [r1, #8]
 8002616:	f003 0303 	and.w	r3, r3, #3
 800261a:	2b01      	cmp	r3, #1
 800261c:	d188      	bne.n	8002530 <HAL_ADC_Init+0x90>
 800261e:	680b      	ldr	r3, [r1, #0]
 8002620:	07db      	lsls	r3, r3, #31
 8002622:	d48b      	bmi.n	800253c <HAL_ADC_Init+0x9c>
 8002624:	e784      	b.n	8002530 <HAL_ADC_Init+0x90>
 8002626:	4620      	mov	r0, r4
 8002628:	f7ff fec4 	bl	80023b4 <ADC_Disable>
 800262c:	6c22      	ldr	r2, [r4, #64]	; 0x40
 800262e:	4603      	mov	r3, r0
 8002630:	06d0      	lsls	r0, r2, #27
 8002632:	f53f af45 	bmi.w	80024c0 <HAL_ADC_Init+0x20>
 8002636:	2b00      	cmp	r3, #0
 8002638:	f47f af42 	bne.w	80024c0 <HAL_ADC_Init+0x20>
 800263c:	6c21      	ldr	r1, [r4, #64]	; 0x40
 800263e:	6822      	ldr	r2, [r4, #0]
 8002640:	f421 5188 	bic.w	r1, r1, #4352	; 0x1100
 8002644:	f021 0102 	bic.w	r1, r1, #2
 8002648:	f041 0102 	orr.w	r1, r1, #2
 800264c:	6421      	str	r1, [r4, #64]	; 0x40
 800264e:	6890      	ldr	r0, [r2, #8]
 8002650:	4931      	ldr	r1, [pc, #196]	; (8002718 <HAL_ADC_Init+0x278>)
 8002652:	f020 5040 	bic.w	r0, r0, #805306368	; 0x30000000
 8002656:	6090      	str	r0, [r2, #8]
 8002658:	6890      	ldr	r0, [r2, #8]
 800265a:	6809      	ldr	r1, [r1, #0]
 800265c:	f040 5080 	orr.w	r0, r0, #268435456	; 0x10000000
 8002660:	6090      	str	r0, [r2, #8]
 8002662:	482e      	ldr	r0, [pc, #184]	; (800271c <HAL_ADC_Init+0x27c>)
 8002664:	fba0 0101 	umull	r0, r1, r0, r1
 8002668:	0c89      	lsrs	r1, r1, #18
 800266a:	eb01 0181 	add.w	r1, r1, r1, lsl #2
 800266e:	0049      	lsls	r1, r1, #1
 8002670:	9101      	str	r1, [sp, #4]
 8002672:	9901      	ldr	r1, [sp, #4]
 8002674:	2900      	cmp	r1, #0
 8002676:	f43f af24 	beq.w	80024c2 <HAL_ADC_Init+0x22>
 800267a:	9901      	ldr	r1, [sp, #4]
 800267c:	3901      	subs	r1, #1
 800267e:	9101      	str	r1, [sp, #4]
 8002680:	9901      	ldr	r1, [sp, #4]
 8002682:	2900      	cmp	r1, #0
 8002684:	d1f9      	bne.n	800267a <HAL_ADC_Init+0x1da>
 8002686:	e71c      	b.n	80024c2 <HAL_ADC_Init+0x22>
 8002688:	bb35      	cbnz	r5, 80026d8 <HAL_ADC_Init+0x238>
 800268a:	6a61      	ldr	r1, [r4, #36]	; 0x24
 800268c:	3901      	subs	r1, #1
 800268e:	ea43 4341 	orr.w	r3, r3, r1, lsl #17
 8002692:	f443 3380 	orr.w	r3, r3, #65536	; 0x10000
 8002696:	e764      	b.n	8002562 <HAL_ADC_Init+0xc2>
 8002698:	6b11      	ldr	r1, [r2, #48]	; 0x30
 800269a:	69e3      	ldr	r3, [r4, #28]
 800269c:	f021 010f 	bic.w	r1, r1, #15
 80026a0:	3b01      	subs	r3, #1
 80026a2:	430b      	orrs	r3, r1
 80026a4:	6313      	str	r3, [r2, #48]	; 0x30
 80026a6:	e788      	b.n	80025ba <HAL_ADC_Init+0x11a>
 80026a8:	f5b1 7f30 	cmp.w	r1, #704	; 0x2c0
 80026ac:	d01f      	beq.n	80026ee <HAL_ADC_Init+0x24e>
 80026ae:	f5b1 7f80 	cmp.w	r1, #256	; 0x100
 80026b2:	d024      	beq.n	80026fe <HAL_ADC_Init+0x25e>
 80026b4:	f5b1 7fe0 	cmp.w	r1, #448	; 0x1c0
 80026b8:	bf08      	it	eq
 80026ba:	f44f 7180 	moveq.w	r1, #256	; 0x100
 80026be:	e75c      	b.n	800257a <HAL_ADC_Init+0xda>
 80026c0:	4910      	ldr	r1, [pc, #64]	; (8002704 <HAL_ADC_Init+0x264>)
 80026c2:	4d17      	ldr	r5, [pc, #92]	; (8002720 <HAL_ADC_Init+0x280>)
 80026c4:	e7a1      	b.n	800260a <HAL_ADC_Init+0x16a>
 80026c6:	6813      	ldr	r3, [r2, #0]
 80026c8:	07db      	lsls	r3, r3, #31
 80026ca:	f53f af37 	bmi.w	800253c <HAL_ADC_Init+0x9c>
 80026ce:	e7a1      	b.n	8002614 <HAL_ADC_Init+0x174>
 80026d0:	4d13      	ldr	r5, [pc, #76]	; (8002720 <HAL_ADC_Init+0x280>)
 80026d2:	f04f 41a0 	mov.w	r1, #1342177280	; 0x50000000
 80026d6:	e798      	b.n	800260a <HAL_ADC_Init+0x16a>
 80026d8:	6c21      	ldr	r1, [r4, #64]	; 0x40
 80026da:	f021 0122 	bic.w	r1, r1, #34	; 0x22
 80026de:	f041 0120 	orr.w	r1, r1, #32
 80026e2:	6421      	str	r1, [r4, #64]	; 0x40
 80026e4:	6c61      	ldr	r1, [r4, #68]	; 0x44
 80026e6:	f041 0101 	orr.w	r1, r1, #1
 80026ea:	6461      	str	r1, [r4, #68]	; 0x44
 80026ec:	e739      	b.n	8002562 <HAL_ADC_Init+0xc2>
 80026ee:	f44f 71e0 	mov.w	r1, #448	; 0x1c0
 80026f2:	e742      	b.n	800257a <HAL_ADC_Init+0xda>
 80026f4:	6813      	ldr	r3, [r2, #0]
 80026f6:	07d9      	lsls	r1, r3, #31
 80026f8:	f53f af20 	bmi.w	800253c <HAL_ADC_Init+0x9c>
 80026fc:	e717      	b.n	800252e <HAL_ADC_Init+0x8e>
 80026fe:	f44f 7130 	mov.w	r1, #704	; 0x2c0
 8002702:	e73a      	b.n	800257a <HAL_ADC_Init+0xda>
 8002704:	50000100 	.word	0x50000100
 8002708:	50000400 	.word	0x50000400
 800270c:	50000500 	.word	0x50000500
 8002710:	50000700 	.word	0x50000700
 8002714:	fff0c007 	.word	0xfff0c007
 8002718:	20000004 	.word	0x20000004
 800271c:	431bde83 	.word	0x431bde83
 8002720:	50000300 	.word	0x50000300

08002724 <HAL_ADCEx_InjectedStart>:
 8002724:	b538      	push	{r3, r4, r5, lr}
 8002726:	6803      	ldr	r3, [r0, #0]
 8002728:	689d      	ldr	r5, [r3, #8]
 800272a:	f015 0508 	ands.w	r5, r5, #8
 800272e:	d129      	bne.n	8002784 <HAL_ADCEx_InjectedStart+0x60>
 8002730:	f890 303c 	ldrb.w	r3, [r0, #60]	; 0x3c
 8002734:	2b01      	cmp	r3, #1
 8002736:	4604      	mov	r4, r0
 8002738:	d024      	beq.n	8002784 <HAL_ADCEx_InjectedStart+0x60>
 800273a:	2301      	movs	r3, #1
 800273c:	f880 303c 	strb.w	r3, [r0, #60]	; 0x3c
 8002740:	f7ff fe78 	bl	8002434 <ADC_Enable>
 8002744:	b9d8      	cbnz	r0, 800277e <HAL_ADCEx_InjectedStart+0x5a>
 8002746:	6c23      	ldr	r3, [r4, #64]	; 0x40
 8002748:	6822      	ldr	r2, [r4, #0]
 800274a:	f423 5340 	bic.w	r3, r3, #12288	; 0x3000
 800274e:	f023 0301 	bic.w	r3, r3, #1
 8002752:	f443 5380 	orr.w	r3, r3, #4096	; 0x1000
 8002756:	f1b2 4fa0 	cmp.w	r2, #1342177280	; 0x50000000
 800275a:	6423      	str	r3, [r4, #64]	; 0x40
 800275c:	d014      	beq.n	8002788 <HAL_ADCEx_InjectedStart+0x64>
 800275e:	4b32      	ldr	r3, [pc, #200]	; (8002828 <HAL_ADCEx_InjectedStart+0x104>)
 8002760:	429a      	cmp	r2, r3
 8002762:	d042      	beq.n	80027ea <HAL_ADCEx_InjectedStart+0xc6>
 8002764:	f503 63c0 	add.w	r3, r3, #1536	; 0x600
 8002768:	689b      	ldr	r3, [r3, #8]
 800276a:	06d9      	lsls	r1, r3, #27
 800276c:	d00e      	beq.n	800278c <HAL_ADCEx_InjectedStart+0x68>
 800276e:	4b2f      	ldr	r3, [pc, #188]	; (800282c <HAL_ADCEx_InjectedStart+0x108>)
 8002770:	429a      	cmp	r2, r3
 8002772:	d00b      	beq.n	800278c <HAL_ADCEx_InjectedStart+0x68>
 8002774:	6c23      	ldr	r3, [r4, #64]	; 0x40
 8002776:	f443 1380 	orr.w	r3, r3, #1048576	; 0x100000
 800277a:	6423      	str	r3, [r4, #64]	; 0x40
 800277c:	e00a      	b.n	8002794 <HAL_ADCEx_InjectedStart+0x70>
 800277e:	f884 503c 	strb.w	r5, [r4, #60]	; 0x3c
 8002782:	bd38      	pop	{r3, r4, r5, pc}
 8002784:	2002      	movs	r0, #2
 8002786:	bd38      	pop	{r3, r4, r5, pc}
 8002788:	4b29      	ldr	r3, [pc, #164]	; (8002830 <HAL_ADCEx_InjectedStart+0x10c>)
 800278a:	689b      	ldr	r3, [r3, #8]
 800278c:	6c23      	ldr	r3, [r4, #64]	; 0x40
 800278e:	f423 1380 	bic.w	r3, r3, #1048576	; 0x100000
 8002792:	6423      	str	r3, [r4, #64]	; 0x40
 8002794:	6c23      	ldr	r3, [r4, #64]	; 0x40
 8002796:	f413 7380 	ands.w	r3, r3, #256	; 0x100
 800279a:	bf08      	it	eq
 800279c:	6463      	streq	r3, [r4, #68]	; 0x44
 800279e:	2100      	movs	r1, #0
 80027a0:	2360      	movs	r3, #96	; 0x60
 80027a2:	f884 103c 	strb.w	r1, [r4, #60]	; 0x3c
 80027a6:	6013      	str	r3, [r2, #0]
 80027a8:	68d3      	ldr	r3, [r2, #12]
 80027aa:	019b      	lsls	r3, r3, #6
 80027ac:	d4e9      	bmi.n	8002782 <HAL_ADCEx_InjectedStart+0x5e>
 80027ae:	f1b2 4fa0 	cmp.w	r2, #1342177280	; 0x50000000
 80027b2:	d01f      	beq.n	80027f4 <HAL_ADCEx_InjectedStart+0xd0>
 80027b4:	4b1c      	ldr	r3, [pc, #112]	; (8002828 <HAL_ADCEx_InjectedStart+0x104>)
 80027b6:	429a      	cmp	r2, r3
 80027b8:	d027      	beq.n	800280a <HAL_ADCEx_InjectedStart+0xe6>
 80027ba:	f8d3 1608 	ldr.w	r1, [r3, #1544]	; 0x608
 80027be:	06cd      	lsls	r5, r1, #27
 80027c0:	f503 63c0 	add.w	r3, r3, #1536	; 0x600
 80027c4:	d00c      	beq.n	80027e0 <HAL_ADCEx_InjectedStart+0xbc>
 80027c6:	6899      	ldr	r1, [r3, #8]
 80027c8:	f001 011f 	and.w	r1, r1, #31
 80027cc:	2906      	cmp	r1, #6
 80027ce:	d007      	beq.n	80027e0 <HAL_ADCEx_InjectedStart+0xbc>
 80027d0:	689b      	ldr	r3, [r3, #8]
 80027d2:	f003 031f 	and.w	r3, r3, #31
 80027d6:	2b07      	cmp	r3, #7
 80027d8:	d002      	beq.n	80027e0 <HAL_ADCEx_InjectedStart+0xbc>
 80027da:	4b14      	ldr	r3, [pc, #80]	; (800282c <HAL_ADCEx_InjectedStart+0x108>)
 80027dc:	429a      	cmp	r2, r3
 80027de:	d1d0      	bne.n	8002782 <HAL_ADCEx_InjectedStart+0x5e>
 80027e0:	6893      	ldr	r3, [r2, #8]
 80027e2:	f043 0308 	orr.w	r3, r3, #8
 80027e6:	6093      	str	r3, [r2, #8]
 80027e8:	bd38      	pop	{r3, r4, r5, pc}
 80027ea:	4b11      	ldr	r3, [pc, #68]	; (8002830 <HAL_ADCEx_InjectedStart+0x10c>)
 80027ec:	689b      	ldr	r3, [r3, #8]
 80027ee:	06db      	lsls	r3, r3, #27
 80027f0:	d0cc      	beq.n	800278c <HAL_ADCEx_InjectedStart+0x68>
 80027f2:	e7bf      	b.n	8002774 <HAL_ADCEx_InjectedStart+0x50>
 80027f4:	4b0e      	ldr	r3, [pc, #56]	; (8002830 <HAL_ADCEx_InjectedStart+0x10c>)
 80027f6:	6899      	ldr	r1, [r3, #8]
 80027f8:	06c9      	lsls	r1, r1, #27
 80027fa:	d0f1      	beq.n	80027e0 <HAL_ADCEx_InjectedStart+0xbc>
 80027fc:	6899      	ldr	r1, [r3, #8]
 80027fe:	f001 011f 	and.w	r1, r1, #31
 8002802:	2906      	cmp	r1, #6
 8002804:	d0ec      	beq.n	80027e0 <HAL_ADCEx_InjectedStart+0xbc>
 8002806:	689b      	ldr	r3, [r3, #8]
 8002808:	e7ea      	b.n	80027e0 <HAL_ADCEx_InjectedStart+0xbc>
 800280a:	4b09      	ldr	r3, [pc, #36]	; (8002830 <HAL_ADCEx_InjectedStart+0x10c>)
 800280c:	6899      	ldr	r1, [r3, #8]
 800280e:	06cc      	lsls	r4, r1, #27
 8002810:	d0e6      	beq.n	80027e0 <HAL_ADCEx_InjectedStart+0xbc>
 8002812:	6899      	ldr	r1, [r3, #8]
 8002814:	f001 011f 	and.w	r1, r1, #31
 8002818:	2906      	cmp	r1, #6
 800281a:	d0e1      	beq.n	80027e0 <HAL_ADCEx_InjectedStart+0xbc>
 800281c:	689b      	ldr	r3, [r3, #8]
 800281e:	f003 031f 	and.w	r3, r3, #31
 8002822:	2b07      	cmp	r3, #7
 8002824:	d0dc      	beq.n	80027e0 <HAL_ADCEx_InjectedStart+0xbc>
 8002826:	bd38      	pop	{r3, r4, r5, pc}
 8002828:	50000100 	.word	0x50000100
 800282c:	50000400 	.word	0x50000400
 8002830:	50000300 	.word	0x50000300

08002834 <HAL_ADCEx_InjectedGetValue>:
 8002834:	2903      	cmp	r1, #3
 8002836:	d007      	beq.n	8002848 <HAL_ADCEx_InjectedGetValue+0x14>
 8002838:	2904      	cmp	r1, #4
 800283a:	d00d      	beq.n	8002858 <HAL_ADCEx_InjectedGetValue+0x24>
 800283c:	2902      	cmp	r1, #2
 800283e:	d007      	beq.n	8002850 <HAL_ADCEx_InjectedGetValue+0x1c>
 8002840:	6803      	ldr	r3, [r0, #0]
 8002842:	f8d3 0080 	ldr.w	r0, [r3, #128]	; 0x80
 8002846:	4770      	bx	lr
 8002848:	6803      	ldr	r3, [r0, #0]
 800284a:	f8d3 0088 	ldr.w	r0, [r3, #136]	; 0x88
 800284e:	4770      	bx	lr
 8002850:	6803      	ldr	r3, [r0, #0]
 8002852:	f8d3 0084 	ldr.w	r0, [r3, #132]	; 0x84
 8002856:	4770      	bx	lr
 8002858:	6803      	ldr	r3, [r0, #0]
 800285a:	f8d3 008c 	ldr.w	r0, [r3, #140]	; 0x8c
 800285e:	4770      	bx	lr

08002860 <HAL_ADC_ConfigChannel>:
 8002860:	b5f0      	push	{r4, r5, r6, r7, lr}
 8002862:	f890 203c 	ldrb.w	r2, [r0, #60]	; 0x3c
 8002866:	68cc      	ldr	r4, [r1, #12]
 8002868:	b083      	sub	sp, #12
 800286a:	4603      	mov	r3, r0
 800286c:	2a01      	cmp	r2, #1
 800286e:	f04f 0000 	mov.w	r0, #0
 8002872:	9001      	str	r0, [sp, #4]
 8002874:	f000 8106 	beq.w	8002a84 <HAL_ADC_ConfigChannel+0x224>
 8002878:	681a      	ldr	r2, [r3, #0]
 800287a:	2001      	movs	r0, #1
 800287c:	f883 003c 	strb.w	r0, [r3, #60]	; 0x3c
 8002880:	6895      	ldr	r5, [r2, #8]
 8002882:	076d      	lsls	r5, r5, #29
 8002884:	d43a      	bmi.n	80028fc <HAL_ADC_ConfigChannel+0x9c>
 8002886:	6848      	ldr	r0, [r1, #4]
 8002888:	2804      	cmp	r0, #4
 800288a:	f200 808b 	bhi.w	80029a4 <HAL_ADC_ConfigChannel+0x144>
 800288e:	eb00 0040 	add.w	r0, r0, r0, lsl #1
 8002892:	6b16      	ldr	r6, [r2, #48]	; 0x30
 8002894:	680d      	ldr	r5, [r1, #0]
 8002896:	0040      	lsls	r0, r0, #1
 8002898:	f04f 0c1f 	mov.w	ip, #31
 800289c:	fa0c fc00 	lsl.w	ip, ip, r0
 80028a0:	ea26 0c0c 	bic.w	ip, r6, ip
 80028a4:	fa05 f000 	lsl.w	r0, r5, r0
 80028a8:	ea4c 0000 	orr.w	r0, ip, r0
 80028ac:	6310      	str	r0, [r2, #48]	; 0x30
 80028ae:	6890      	ldr	r0, [r2, #8]
 80028b0:	f010 0f0c 	tst.w	r0, #12
 80028b4:	d134      	bne.n	8002920 <HAL_ADC_ConfigChannel+0xc0>
 80028b6:	2d09      	cmp	r5, #9
 80028b8:	f200 808b 	bhi.w	80029d2 <HAL_ADC_ConfigChannel+0x172>
 80028bc:	6950      	ldr	r0, [r2, #20]
 80028be:	688e      	ldr	r6, [r1, #8]
 80028c0:	eb05 0e45 	add.w	lr, r5, r5, lsl #1
 80028c4:	f04f 0c07 	mov.w	ip, #7
 80028c8:	fa0c fc0e 	lsl.w	ip, ip, lr
 80028cc:	fa06 f60e 	lsl.w	r6, r6, lr
 80028d0:	ea20 000c 	bic.w	r0, r0, ip
 80028d4:	4330      	orrs	r0, r6
 80028d6:	6150      	str	r0, [r2, #20]
 80028d8:	68d0      	ldr	r0, [r2, #12]
 80028da:	690e      	ldr	r6, [r1, #16]
 80028dc:	694f      	ldr	r7, [r1, #20]
 80028de:	f3c0 00c1 	ubfx	r0, r0, #3, #2
 80028e2:	0040      	lsls	r0, r0, #1
 80028e4:	3e01      	subs	r6, #1
 80028e6:	fa07 f000 	lsl.w	r0, r7, r0
 80028ea:	2e03      	cmp	r6, #3
 80028ec:	f200 8146 	bhi.w	8002b7c <HAL_ADC_ConfigChannel+0x31c>
 80028f0:	e8df f016 	tbh	[pc, r6, lsl #1]
 80028f4:	0108000d 	.word	0x0108000d
 80028f8:	00f400fe 	.word	0x00f400fe
 80028fc:	6c1a      	ldr	r2, [r3, #64]	; 0x40
 80028fe:	f042 0220 	orr.w	r2, r2, #32
 8002902:	641a      	str	r2, [r3, #64]	; 0x40
 8002904:	2200      	movs	r2, #0
 8002906:	f883 203c 	strb.w	r2, [r3, #60]	; 0x3c
 800290a:	b003      	add	sp, #12
 800290c:	bdf0      	pop	{r4, r5, r6, r7, pc}
 800290e:	6e17      	ldr	r7, [r2, #96]	; 0x60
 8002910:	4ea9      	ldr	r6, [pc, #676]	; (8002bb8 <HAL_ADC_ConfigChannel+0x358>)
 8002912:	403e      	ands	r6, r7
 8002914:	ea46 6685 	orr.w	r6, r6, r5, lsl #26
 8002918:	4330      	orrs	r0, r6
 800291a:	f040 4000 	orr.w	r0, r0, #2147483648	; 0x80000000
 800291e:	6610      	str	r0, [r2, #96]	; 0x60
 8002920:	6890      	ldr	r0, [r2, #8]
 8002922:	f000 0003 	and.w	r0, r0, #3
 8002926:	2801      	cmp	r0, #1
 8002928:	f000 80a7 	beq.w	8002a7a <HAL_ADC_ConfigChannel+0x21a>
 800292c:	2c01      	cmp	r4, #1
 800292e:	f000 80ac 	beq.w	8002a8a <HAL_ADC_ConfigChannel+0x22a>
 8002932:	f8d2 10b0 	ldr.w	r1, [r2, #176]	; 0xb0
 8002936:	2001      	movs	r0, #1
 8002938:	40a8      	lsls	r0, r5
 800293a:	ea21 0100 	bic.w	r1, r1, r0
 800293e:	f8c2 10b0 	str.w	r1, [r2, #176]	; 0xb0
 8002942:	f1b2 4fa0 	cmp.w	r2, #1342177280	; 0x50000000
 8002946:	d078      	beq.n	8002a3a <HAL_ADC_ConfigChannel+0x1da>
 8002948:	499c      	ldr	r1, [pc, #624]	; (8002bbc <HAL_ADC_ConfigChannel+0x35c>)
 800294a:	428a      	cmp	r2, r1
 800294c:	d075      	beq.n	8002a3a <HAL_ADC_ConfigChannel+0x1da>
 800294e:	2d10      	cmp	r5, #16
 8002950:	f501 61c0 	add.w	r1, r1, #1536	; 0x600
 8002954:	d074      	beq.n	8002a40 <HAL_ADC_ConfigChannel+0x1e0>
 8002956:	2d11      	cmp	r5, #17
 8002958:	f040 80ac 	bne.w	8002ab4 <HAL_ADC_ConfigChannel+0x254>
 800295c:	6888      	ldr	r0, [r1, #8]
 800295e:	01c4      	lsls	r4, r0, #7
 8002960:	d471      	bmi.n	8002a46 <HAL_ADC_ConfigChannel+0x1e6>
 8002962:	f1b2 4fa0 	cmp.w	r2, #1342177280	; 0x50000000
 8002966:	d070      	beq.n	8002a4a <HAL_ADC_ConfigChannel+0x1ea>
 8002968:	4894      	ldr	r0, [pc, #592]	; (8002bbc <HAL_ADC_ConfigChannel+0x35c>)
 800296a:	4282      	cmp	r2, r0
 800296c:	f000 80dd 	beq.w	8002b2a <HAL_ADC_ConfigChannel+0x2ca>
 8002970:	4c93      	ldr	r4, [pc, #588]	; (8002bc0 <HAL_ADC_ConfigChannel+0x360>)
 8002972:	42a2      	cmp	r2, r4
 8002974:	f000 80fc 	beq.w	8002b70 <HAL_ADC_ConfigChannel+0x310>
 8002978:	f500 6080 	add.w	r0, r0, #1024	; 0x400
 800297c:	4282      	cmp	r2, r0
 800297e:	d065      	beq.n	8002a4c <HAL_ADC_ConfigChannel+0x1ec>
 8002980:	6890      	ldr	r0, [r2, #8]
 8002982:	f000 0003 	and.w	r0, r0, #3
 8002986:	2801      	cmp	r0, #1
 8002988:	f000 80f4 	beq.w	8002b74 <HAL_ADC_ConfigChannel+0x314>
 800298c:	2d10      	cmp	r5, #16
 800298e:	d05a      	beq.n	8002a46 <HAL_ADC_ConfigChannel+0x1e6>
 8002990:	2d11      	cmp	r5, #17
 8002992:	d058      	beq.n	8002a46 <HAL_ADC_ConfigChannel+0x1e6>
 8002994:	2d12      	cmp	r5, #18
 8002996:	d156      	bne.n	8002a46 <HAL_ADC_ConfigChannel+0x1e6>
 8002998:	688a      	ldr	r2, [r1, #8]
 800299a:	f442 0280 	orr.w	r2, r2, #4194304	; 0x400000
 800299e:	2000      	movs	r0, #0
 80029a0:	608a      	str	r2, [r1, #8]
 80029a2:	e7af      	b.n	8002904 <HAL_ADC_ConfigChannel+0xa4>
 80029a4:	2809      	cmp	r0, #9
 80029a6:	d925      	bls.n	80029f4 <HAL_ADC_ConfigChannel+0x194>
 80029a8:	280e      	cmp	r0, #14
 80029aa:	eb00 0040 	add.w	r0, r0, r0, lsl #1
 80029ae:	ea4f 0040 	mov.w	r0, r0, lsl #1
 80029b2:	f200 8085 	bhi.w	8002ac0 <HAL_ADC_ConfigChannel+0x260>
 80029b6:	6b96      	ldr	r6, [r2, #56]	; 0x38
 80029b8:	680d      	ldr	r5, [r1, #0]
 80029ba:	383c      	subs	r0, #60	; 0x3c
 80029bc:	f04f 0c1f 	mov.w	ip, #31
 80029c0:	fa0c fc00 	lsl.w	ip, ip, r0
 80029c4:	ea26 060c 	bic.w	r6, r6, ip
 80029c8:	fa05 f000 	lsl.w	r0, r5, r0
 80029cc:	4330      	orrs	r0, r6
 80029ce:	6390      	str	r0, [r2, #56]	; 0x38
 80029d0:	e76d      	b.n	80028ae <HAL_ADC_ConfigChannel+0x4e>
 80029d2:	688f      	ldr	r7, [r1, #8]
 80029d4:	6990      	ldr	r0, [r2, #24]
 80029d6:	eb05 0645 	add.w	r6, r5, r5, lsl #1
 80029da:	3e1e      	subs	r6, #30
 80029dc:	f04f 0e07 	mov.w	lr, #7
 80029e0:	fa07 fc06 	lsl.w	ip, r7, r6
 80029e4:	fa0e f606 	lsl.w	r6, lr, r6
 80029e8:	ea20 0006 	bic.w	r0, r0, r6
 80029ec:	ea40 000c 	orr.w	r0, r0, ip
 80029f0:	6190      	str	r0, [r2, #24]
 80029f2:	e771      	b.n	80028d8 <HAL_ADC_ConfigChannel+0x78>
 80029f4:	eb00 0040 	add.w	r0, r0, r0, lsl #1
 80029f8:	0040      	lsls	r0, r0, #1
 80029fa:	6b56      	ldr	r6, [r2, #52]	; 0x34
 80029fc:	680d      	ldr	r5, [r1, #0]
 80029fe:	381e      	subs	r0, #30
 8002a00:	f04f 0c1f 	mov.w	ip, #31
 8002a04:	fa0c fc00 	lsl.w	ip, ip, r0
 8002a08:	ea26 060c 	bic.w	r6, r6, ip
 8002a0c:	fa05 f000 	lsl.w	r0, r5, r0
 8002a10:	4330      	orrs	r0, r6
 8002a12:	6350      	str	r0, [r2, #52]	; 0x34
 8002a14:	e74b      	b.n	80028ae <HAL_ADC_ConfigChannel+0x4e>
 8002a16:	1c6c      	adds	r4, r5, #1
 8002a18:	688e      	ldr	r6, [r1, #8]
 8002a1a:	6950      	ldr	r0, [r2, #20]
 8002a1c:	eb04 0444 	add.w	r4, r4, r4, lsl #1
 8002a20:	2107      	movs	r1, #7
 8002a22:	40a1      	lsls	r1, r4
 8002a24:	40a6      	lsls	r6, r4
 8002a26:	ea20 0101 	bic.w	r1, r0, r1
 8002a2a:	4331      	orrs	r1, r6
 8002a2c:	f1b2 4fa0 	cmp.w	r2, #1342177280	; 0x50000000
 8002a30:	6151      	str	r1, [r2, #20]
 8002a32:	d008      	beq.n	8002a46 <HAL_ADC_ConfigChannel+0x1e6>
 8002a34:	4961      	ldr	r1, [pc, #388]	; (8002bbc <HAL_ADC_ConfigChannel+0x35c>)
 8002a36:	428a      	cmp	r2, r1
 8002a38:	d105      	bne.n	8002a46 <HAL_ADC_ConfigChannel+0x1e6>
 8002a3a:	2d10      	cmp	r5, #16
 8002a3c:	4961      	ldr	r1, [pc, #388]	; (8002bc4 <HAL_ADC_ConfigChannel+0x364>)
 8002a3e:	d18a      	bne.n	8002956 <HAL_ADC_ConfigChannel+0xf6>
 8002a40:	6888      	ldr	r0, [r1, #8]
 8002a42:	0206      	lsls	r6, r0, #8
 8002a44:	d58d      	bpl.n	8002962 <HAL_ADC_ConfigChannel+0x102>
 8002a46:	2000      	movs	r0, #0
 8002a48:	e75c      	b.n	8002904 <HAL_ADC_ConfigChannel+0xa4>
 8002a4a:	4c5c      	ldr	r4, [pc, #368]	; (8002bbc <HAL_ADC_ConfigChannel+0x35c>)
 8002a4c:	6890      	ldr	r0, [r2, #8]
 8002a4e:	f000 0003 	and.w	r0, r0, #3
 8002a52:	2801      	cmp	r0, #1
 8002a54:	d060      	beq.n	8002b18 <HAL_ADC_ConfigChannel+0x2b8>
 8002a56:	68a0      	ldr	r0, [r4, #8]
 8002a58:	f000 0003 	and.w	r0, r0, #3
 8002a5c:	2801      	cmp	r0, #1
 8002a5e:	d067      	beq.n	8002b30 <HAL_ADC_ConfigChannel+0x2d0>
 8002a60:	2d10      	cmp	r5, #16
 8002a62:	d069      	beq.n	8002b38 <HAL_ADC_ConfigChannel+0x2d8>
 8002a64:	2d11      	cmp	r5, #17
 8002a66:	d195      	bne.n	8002994 <HAL_ADC_ConfigChannel+0x134>
 8002a68:	f1b2 4fa0 	cmp.w	r2, #1342177280	; 0x50000000
 8002a6c:	d1eb      	bne.n	8002a46 <HAL_ADC_ConfigChannel+0x1e6>
 8002a6e:	688a      	ldr	r2, [r1, #8]
 8002a70:	f042 7280 	orr.w	r2, r2, #16777216	; 0x1000000
 8002a74:	2000      	movs	r0, #0
 8002a76:	608a      	str	r2, [r1, #8]
 8002a78:	e744      	b.n	8002904 <HAL_ADC_ConfigChannel+0xa4>
 8002a7a:	6810      	ldr	r0, [r2, #0]
 8002a7c:	07c7      	lsls	r7, r0, #31
 8002a7e:	f57f af55 	bpl.w	800292c <HAL_ADC_ConfigChannel+0xcc>
 8002a82:	e7e0      	b.n	8002a46 <HAL_ADC_ConfigChannel+0x1e6>
 8002a84:	2002      	movs	r0, #2
 8002a86:	b003      	add	sp, #12
 8002a88:	bdf0      	pop	{r4, r5, r6, r7, pc}
 8002a8a:	f8d2 00b0 	ldr.w	r0, [r2, #176]	; 0xb0
 8002a8e:	40ac      	lsls	r4, r5
 8002a90:	4304      	orrs	r4, r0
 8002a92:	2d09      	cmp	r5, #9
 8002a94:	f8c2 40b0 	str.w	r4, [r2, #176]	; 0xb0
 8002a98:	d9bd      	bls.n	8002a16 <HAL_ADC_ConfigChannel+0x1b6>
 8002a9a:	eb05 0445 	add.w	r4, r5, r5, lsl #1
 8002a9e:	688e      	ldr	r6, [r1, #8]
 8002aa0:	6990      	ldr	r0, [r2, #24]
 8002aa2:	3c1b      	subs	r4, #27
 8002aa4:	2107      	movs	r1, #7
 8002aa6:	40a1      	lsls	r1, r4
 8002aa8:	40a6      	lsls	r6, r4
 8002aaa:	ea20 0101 	bic.w	r1, r0, r1
 8002aae:	4331      	orrs	r1, r6
 8002ab0:	6191      	str	r1, [r2, #24]
 8002ab2:	e746      	b.n	8002942 <HAL_ADC_ConfigChannel+0xe2>
 8002ab4:	2d12      	cmp	r5, #18
 8002ab6:	d1c6      	bne.n	8002a46 <HAL_ADC_ConfigChannel+0x1e6>
 8002ab8:	6888      	ldr	r0, [r1, #8]
 8002aba:	0240      	lsls	r0, r0, #9
 8002abc:	d4c3      	bmi.n	8002a46 <HAL_ADC_ConfigChannel+0x1e6>
 8002abe:	e750      	b.n	8002962 <HAL_ADC_ConfigChannel+0x102>
 8002ac0:	6bd6      	ldr	r6, [r2, #60]	; 0x3c
 8002ac2:	680d      	ldr	r5, [r1, #0]
 8002ac4:	385a      	subs	r0, #90	; 0x5a
 8002ac6:	f04f 0c1f 	mov.w	ip, #31
 8002aca:	fa0c fc00 	lsl.w	ip, ip, r0
 8002ace:	ea26 060c 	bic.w	r6, r6, ip
 8002ad2:	fa05 f000 	lsl.w	r0, r5, r0
 8002ad6:	4330      	orrs	r0, r6
 8002ad8:	63d0      	str	r0, [r2, #60]	; 0x3c
 8002ada:	e6e8      	b.n	80028ae <HAL_ADC_ConfigChannel+0x4e>
 8002adc:	6ed7      	ldr	r7, [r2, #108]	; 0x6c
 8002ade:	4e36      	ldr	r6, [pc, #216]	; (8002bb8 <HAL_ADC_ConfigChannel+0x358>)
 8002ae0:	403e      	ands	r6, r7
 8002ae2:	ea46 6685 	orr.w	r6, r6, r5, lsl #26
 8002ae6:	4330      	orrs	r0, r6
 8002ae8:	f040 4000 	orr.w	r0, r0, #2147483648	; 0x80000000
 8002aec:	66d0      	str	r0, [r2, #108]	; 0x6c
 8002aee:	e717      	b.n	8002920 <HAL_ADC_ConfigChannel+0xc0>
 8002af0:	6e97      	ldr	r7, [r2, #104]	; 0x68
 8002af2:	4e31      	ldr	r6, [pc, #196]	; (8002bb8 <HAL_ADC_ConfigChannel+0x358>)
 8002af4:	403e      	ands	r6, r7
 8002af6:	ea46 6685 	orr.w	r6, r6, r5, lsl #26
 8002afa:	4330      	orrs	r0, r6
 8002afc:	f040 4000 	orr.w	r0, r0, #2147483648	; 0x80000000
 8002b00:	6690      	str	r0, [r2, #104]	; 0x68
 8002b02:	e70d      	b.n	8002920 <HAL_ADC_ConfigChannel+0xc0>
 8002b04:	6e57      	ldr	r7, [r2, #100]	; 0x64
 8002b06:	4e2c      	ldr	r6, [pc, #176]	; (8002bb8 <HAL_ADC_ConfigChannel+0x358>)
 8002b08:	403e      	ands	r6, r7
 8002b0a:	ea46 6685 	orr.w	r6, r6, r5, lsl #26
 8002b0e:	4330      	orrs	r0, r6
 8002b10:	f040 4000 	orr.w	r0, r0, #2147483648	; 0x80000000
 8002b14:	6650      	str	r0, [r2, #100]	; 0x64
 8002b16:	e703      	b.n	8002920 <HAL_ADC_ConfigChannel+0xc0>
 8002b18:	6810      	ldr	r0, [r2, #0]
 8002b1a:	07c6      	lsls	r6, r0, #31
 8002b1c:	d59b      	bpl.n	8002a56 <HAL_ADC_ConfigChannel+0x1f6>
 8002b1e:	6c1a      	ldr	r2, [r3, #64]	; 0x40
 8002b20:	f042 0220 	orr.w	r2, r2, #32
 8002b24:	2001      	movs	r0, #1
 8002b26:	641a      	str	r2, [r3, #64]	; 0x40
 8002b28:	e6ec      	b.n	8002904 <HAL_ADC_ConfigChannel+0xa4>
 8002b2a:	f04f 44a0 	mov.w	r4, #1342177280	; 0x50000000
 8002b2e:	e78d      	b.n	8002a4c <HAL_ADC_ConfigChannel+0x1ec>
 8002b30:	6820      	ldr	r0, [r4, #0]
 8002b32:	07c0      	lsls	r0, r0, #31
 8002b34:	d4f3      	bmi.n	8002b1e <HAL_ADC_ConfigChannel+0x2be>
 8002b36:	e793      	b.n	8002a60 <HAL_ADC_ConfigChannel+0x200>
 8002b38:	f1b2 4fa0 	cmp.w	r2, #1342177280	; 0x50000000
 8002b3c:	d183      	bne.n	8002a46 <HAL_ADC_ConfigChannel+0x1e6>
 8002b3e:	4a22      	ldr	r2, [pc, #136]	; (8002bc8 <HAL_ADC_ConfigChannel+0x368>)
 8002b40:	4c22      	ldr	r4, [pc, #136]	; (8002bcc <HAL_ADC_ConfigChannel+0x36c>)
 8002b42:	6812      	ldr	r2, [r2, #0]
 8002b44:	6888      	ldr	r0, [r1, #8]
 8002b46:	fba4 4202 	umull	r4, r2, r4, r2
 8002b4a:	0c92      	lsrs	r2, r2, #18
 8002b4c:	eb02 0282 	add.w	r2, r2, r2, lsl #2
 8002b50:	0052      	lsls	r2, r2, #1
 8002b52:	f440 0000 	orr.w	r0, r0, #8388608	; 0x800000
 8002b56:	6088      	str	r0, [r1, #8]
 8002b58:	9201      	str	r2, [sp, #4]
 8002b5a:	9a01      	ldr	r2, [sp, #4]
 8002b5c:	2a00      	cmp	r2, #0
 8002b5e:	f43f af72 	beq.w	8002a46 <HAL_ADC_ConfigChannel+0x1e6>
 8002b62:	9a01      	ldr	r2, [sp, #4]
 8002b64:	3a01      	subs	r2, #1
 8002b66:	9201      	str	r2, [sp, #4]
 8002b68:	9a01      	ldr	r2, [sp, #4]
 8002b6a:	2a00      	cmp	r2, #0
 8002b6c:	d1f9      	bne.n	8002b62 <HAL_ADC_ConfigChannel+0x302>
 8002b6e:	e76a      	b.n	8002a46 <HAL_ADC_ConfigChannel+0x1e6>
 8002b70:	4c17      	ldr	r4, [pc, #92]	; (8002bd0 <HAL_ADC_ConfigChannel+0x370>)
 8002b72:	e76b      	b.n	8002a4c <HAL_ADC_ConfigChannel+0x1ec>
 8002b74:	6812      	ldr	r2, [r2, #0]
 8002b76:	07d7      	lsls	r7, r2, #31
 8002b78:	d4d1      	bmi.n	8002b1e <HAL_ADC_ConfigChannel+0x2be>
 8002b7a:	e707      	b.n	800298c <HAL_ADC_ConfigChannel+0x12c>
 8002b7c:	6e10      	ldr	r0, [r2, #96]	; 0x60
 8002b7e:	f000 40f8 	and.w	r0, r0, #2080374784	; 0x7c000000
 8002b82:	ebb0 6f85 	cmp.w	r0, r5, lsl #26
 8002b86:	ea4f 6685 	mov.w	r6, r5, lsl #26
 8002b8a:	d023      	beq.n	8002bd4 <HAL_ADC_ConfigChannel+0x374>
 8002b8c:	6e50      	ldr	r0, [r2, #100]	; 0x64
 8002b8e:	f000 40f8 	and.w	r0, r0, #2080374784	; 0x7c000000
 8002b92:	4286      	cmp	r6, r0
 8002b94:	d023      	beq.n	8002bde <HAL_ADC_ConfigChannel+0x37e>
 8002b96:	6e90      	ldr	r0, [r2, #104]	; 0x68
 8002b98:	f000 40f8 	and.w	r0, r0, #2080374784	; 0x7c000000
 8002b9c:	4286      	cmp	r6, r0
 8002b9e:	d023      	beq.n	8002be8 <HAL_ADC_ConfigChannel+0x388>
 8002ba0:	6ed0      	ldr	r0, [r2, #108]	; 0x6c
 8002ba2:	f000 40f8 	and.w	r0, r0, #2080374784	; 0x7c000000
 8002ba6:	4286      	cmp	r6, r0
 8002ba8:	f47f aeba 	bne.w	8002920 <HAL_ADC_ConfigChannel+0xc0>
 8002bac:	6ed0      	ldr	r0, [r2, #108]	; 0x6c
 8002bae:	f020 4000 	bic.w	r0, r0, #2147483648	; 0x80000000
 8002bb2:	66d0      	str	r0, [r2, #108]	; 0x6c
 8002bb4:	e6b4      	b.n	8002920 <HAL_ADC_ConfigChannel+0xc0>
 8002bb6:	bf00      	nop
 8002bb8:	83fff000 	.word	0x83fff000
 8002bbc:	50000100 	.word	0x50000100
 8002bc0:	50000400 	.word	0x50000400
 8002bc4:	50000300 	.word	0x50000300
 8002bc8:	20000004 	.word	0x20000004
 8002bcc:	431bde83 	.word	0x431bde83
 8002bd0:	50000500 	.word	0x50000500
 8002bd4:	6e10      	ldr	r0, [r2, #96]	; 0x60
 8002bd6:	f020 4000 	bic.w	r0, r0, #2147483648	; 0x80000000
 8002bda:	6610      	str	r0, [r2, #96]	; 0x60
 8002bdc:	e7d6      	b.n	8002b8c <HAL_ADC_ConfigChannel+0x32c>
 8002bde:	6e50      	ldr	r0, [r2, #100]	; 0x64
 8002be0:	f020 4000 	bic.w	r0, r0, #2147483648	; 0x80000000
 8002be4:	6650      	str	r0, [r2, #100]	; 0x64
 8002be6:	e7d6      	b.n	8002b96 <HAL_ADC_ConfigChannel+0x336>
 8002be8:	6e90      	ldr	r0, [r2, #104]	; 0x68
 8002bea:	f020 4000 	bic.w	r0, r0, #2147483648	; 0x80000000
 8002bee:	6690      	str	r0, [r2, #104]	; 0x68
 8002bf0:	e7d6      	b.n	8002ba0 <HAL_ADC_ConfigChannel+0x340>
 8002bf2:	bf00      	nop

08002bf4 <HAL_ADCEx_InjectedConfigChannel>:
 8002bf4:	b5f0      	push	{r4, r5, r6, r7, lr}
 8002bf6:	f890 303c 	ldrb.w	r3, [r0, #60]	; 0x3c
 8002bfa:	6905      	ldr	r5, [r0, #16]
 8002bfc:	68cc      	ldr	r4, [r1, #12]
 8002bfe:	b083      	sub	sp, #12
 8002c00:	2200      	movs	r2, #0
 8002c02:	2b01      	cmp	r3, #1
 8002c04:	9201      	str	r2, [sp, #4]
 8002c06:	f000 81ac 	beq.w	8002f62 <HAL_ADCEx_InjectedConfigChannel+0x36e>
 8002c0a:	2301      	movs	r3, #1
 8002c0c:	f880 303c 	strb.w	r3, [r0, #60]	; 0x3c
 8002c10:	b365      	cbz	r5, 8002c6c <HAL_ADCEx_InjectedConfigChannel+0x78>
 8002c12:	698f      	ldr	r7, [r1, #24]
 8002c14:	429f      	cmp	r7, r3
 8002c16:	d029      	beq.n	8002c6c <HAL_ADCEx_InjectedConfigChannel+0x78>
 8002c18:	6cc5      	ldr	r5, [r0, #76]	; 0x4c
 8002c1a:	2d00      	cmp	r5, #0
 8002c1c:	f040 812b 	bne.w	8002e76 <HAL_ADCEx_InjectedConfigChannel+0x282>
 8002c20:	6a0d      	ldr	r5, [r1, #32]
 8002c22:	64c7      	str	r7, [r0, #76]	; 0x4c
 8002c24:	2d01      	cmp	r5, #1
 8002c26:	f000 81f1 	beq.w	800300c <HAL_ADCEx_InjectedConfigChannel+0x418>
 8002c2a:	6803      	ldr	r3, [r0, #0]
 8002c2c:	4aab      	ldr	r2, [pc, #684]	; (8002edc <HAL_ADCEx_InjectedConfigChannel+0x2e8>)
 8002c2e:	4293      	cmp	r3, r2
 8002c30:	f107 37ff 	add.w	r7, r7, #4294967295
 8002c34:	f000 81e2 	beq.w	8002ffc <HAL_ADCEx_InjectedConfigChannel+0x408>
 8002c38:	f502 7280 	add.w	r2, r2, #256	; 0x100
 8002c3c:	4293      	cmp	r3, r2
 8002c3e:	f000 81dd 	beq.w	8002ffc <HAL_ADCEx_InjectedConfigChannel+0x408>
 8002c42:	6a4a      	ldr	r2, [r1, #36]	; 0x24
 8002c44:	433a      	orrs	r2, r7
 8002c46:	432a      	orrs	r2, r5
 8002c48:	684d      	ldr	r5, [r1, #4]
 8002c4a:	680e      	ldr	r6, [r1, #0]
 8002c4c:	64c7      	str	r7, [r0, #76]	; 0x4c
 8002c4e:	eb05 0545 	add.w	r5, r5, r5, lsl #1
 8002c52:	006d      	lsls	r5, r5, #1
 8002c54:	3502      	adds	r5, #2
 8002c56:	271f      	movs	r7, #31
 8002c58:	40ae      	lsls	r6, r5
 8002c5a:	fa07 f505 	lsl.w	r5, r7, r5
 8002c5e:	ea22 0205 	bic.w	r2, r2, r5
 8002c62:	4332      	orrs	r2, r6
 8002c64:	6482      	str	r2, [r0, #72]	; 0x48
 8002c66:	f04f 0c00 	mov.w	ip, #0
 8002c6a:	e00a      	b.n	8002c82 <HAL_ADCEx_InjectedConfigChannel+0x8e>
 8002c6c:	684b      	ldr	r3, [r1, #4]
 8002c6e:	2b01      	cmp	r3, #1
 8002c70:	f000 80e5 	beq.w	8002e3e <HAL_ADCEx_InjectedConfigChannel+0x24a>
 8002c74:	6c02      	ldr	r2, [r0, #64]	; 0x40
 8002c76:	6803      	ldr	r3, [r0, #0]
 8002c78:	f042 0220 	orr.w	r2, r2, #32
 8002c7c:	6402      	str	r2, [r0, #64]	; 0x40
 8002c7e:	f04f 0c01 	mov.w	ip, #1
 8002c82:	689a      	ldr	r2, [r3, #8]
 8002c84:	0712      	lsls	r2, r2, #28
 8002c86:	d40d      	bmi.n	8002ca4 <HAL_ADCEx_InjectedConfigChannel+0xb0>
 8002c88:	7f4a      	ldrb	r2, [r1, #29]
 8002c8a:	2a00      	cmp	r2, #0
 8002c8c:	f040 80c0 	bne.w	8002e10 <HAL_ADCEx_InjectedConfigChannel+0x21c>
 8002c90:	7f0a      	ldrb	r2, [r1, #28]
 8002c92:	68dd      	ldr	r5, [r3, #12]
 8002c94:	7f8e      	ldrb	r6, [r1, #30]
 8002c96:	0512      	lsls	r2, r2, #20
 8002c98:	f425 1540 	bic.w	r5, r5, #3145728	; 0x300000
 8002c9c:	ea42 5246 	orr.w	r2, r2, r6, lsl #21
 8002ca0:	432a      	orrs	r2, r5
 8002ca2:	60da      	str	r2, [r3, #12]
 8002ca4:	689a      	ldr	r2, [r3, #8]
 8002ca6:	f012 0f0c 	tst.w	r2, #12
 8002caa:	d13a      	bne.n	8002d22 <HAL_ADCEx_InjectedConfigChannel+0x12e>
 8002cac:	6a0a      	ldr	r2, [r1, #32]
 8002cae:	2a01      	cmp	r2, #1
 8002cb0:	68da      	ldr	r2, [r3, #12]
 8002cb2:	f022 7200 	bic.w	r2, r2, #33554432	; 0x2000000
 8002cb6:	f000 814f 	beq.w	8002f58 <HAL_ADCEx_InjectedConfigChannel+0x364>
 8002cba:	60da      	str	r2, [r3, #12]
 8002cbc:	7f4a      	ldrb	r2, [r1, #29]
 8002cbe:	2a01      	cmp	r2, #1
 8002cc0:	f000 812c 	beq.w	8002f1c <HAL_ADCEx_InjectedConfigChannel+0x328>
 8002cc4:	680e      	ldr	r6, [r1, #0]
 8002cc6:	2e09      	cmp	r6, #9
 8002cc8:	f240 8094 	bls.w	8002df4 <HAL_ADCEx_InjectedConfigChannel+0x200>
 8002ccc:	688d      	ldr	r5, [r1, #8]
 8002cce:	699a      	ldr	r2, [r3, #24]
 8002cd0:	eb06 0e46 	add.w	lr, r6, r6, lsl #1
 8002cd4:	f1ae 0e1e 	sub.w	lr, lr, #30
 8002cd8:	2707      	movs	r7, #7
 8002cda:	fa05 f50e 	lsl.w	r5, r5, lr
 8002cde:	fa07 fe0e 	lsl.w	lr, r7, lr
 8002ce2:	ea22 020e 	bic.w	r2, r2, lr
 8002ce6:	432a      	orrs	r2, r5
 8002ce8:	619a      	str	r2, [r3, #24]
 8002cea:	68da      	ldr	r2, [r3, #12]
 8002cec:	690d      	ldr	r5, [r1, #16]
 8002cee:	f3c2 0ec1 	ubfx	lr, r2, #3, #2
 8002cf2:	694a      	ldr	r2, [r1, #20]
 8002cf4:	ea4f 0e4e 	mov.w	lr, lr, lsl #1
 8002cf8:	3d01      	subs	r5, #1
 8002cfa:	fa02 f20e 	lsl.w	r2, r2, lr
 8002cfe:	2d03      	cmp	r5, #3
 8002d00:	f200 8190 	bhi.w	8003024 <HAL_ADCEx_InjectedConfigChannel+0x430>
 8002d04:	e8df f015 	tbh	[pc, r5, lsl #1]
 8002d08:	01000004 	.word	0x01000004
 8002d0c:	00e000f6 	.word	0x00e000f6
 8002d10:	ea42 6286 	orr.w	r2, r2, r6, lsl #26
 8002d14:	4d72      	ldr	r5, [pc, #456]	; (8002ee0 <HAL_ADCEx_InjectedConfigChannel+0x2ec>)
 8002d16:	6e1e      	ldr	r6, [r3, #96]	; 0x60
 8002d18:	4035      	ands	r5, r6
 8002d1a:	432a      	orrs	r2, r5
 8002d1c:	f042 4200 	orr.w	r2, r2, #2147483648	; 0x80000000
 8002d20:	661a      	str	r2, [r3, #96]	; 0x60
 8002d22:	689a      	ldr	r2, [r3, #8]
 8002d24:	f002 0203 	and.w	r2, r2, #3
 8002d28:	2a01      	cmp	r2, #1
 8002d2a:	d041      	beq.n	8002db0 <HAL_ADCEx_InjectedConfigChannel+0x1bc>
 8002d2c:	2c01      	cmp	r4, #1
 8002d2e:	680a      	ldr	r2, [r1, #0]
 8002d30:	d044      	beq.n	8002dbc <HAL_ADCEx_InjectedConfigChannel+0x1c8>
 8002d32:	f8d3 10b0 	ldr.w	r1, [r3, #176]	; 0xb0
 8002d36:	2401      	movs	r4, #1
 8002d38:	4094      	lsls	r4, r2
 8002d3a:	ea21 0104 	bic.w	r1, r1, r4
 8002d3e:	f8c3 10b0 	str.w	r1, [r3, #176]	; 0xb0
 8002d42:	f1b3 4fa0 	cmp.w	r3, #1342177280	; 0x50000000
 8002d46:	d02c      	beq.n	8002da2 <HAL_ADCEx_InjectedConfigChannel+0x1ae>
 8002d48:	4966      	ldr	r1, [pc, #408]	; (8002ee4 <HAL_ADCEx_InjectedConfigChannel+0x2f0>)
 8002d4a:	428b      	cmp	r3, r1
 8002d4c:	d029      	beq.n	8002da2 <HAL_ADCEx_InjectedConfigChannel+0x1ae>
 8002d4e:	2a10      	cmp	r2, #16
 8002d50:	4965      	ldr	r1, [pc, #404]	; (8002ee8 <HAL_ADCEx_InjectedConfigChannel+0x2f4>)
 8002d52:	d029      	beq.n	8002da8 <HAL_ADCEx_InjectedConfigChannel+0x1b4>
 8002d54:	2a11      	cmp	r2, #17
 8002d56:	d16c      	bne.n	8002e32 <HAL_ADCEx_InjectedConfigChannel+0x23e>
 8002d58:	688c      	ldr	r4, [r1, #8]
 8002d5a:	01e5      	lsls	r5, r4, #7
 8002d5c:	d41b      	bmi.n	8002d96 <HAL_ADCEx_InjectedConfigChannel+0x1a2>
 8002d5e:	f1b3 4fa0 	cmp.w	r3, #1342177280	; 0x50000000
 8002d62:	f000 8103 	beq.w	8002f6c <HAL_ADCEx_InjectedConfigChannel+0x378>
 8002d66:	4c5f      	ldr	r4, [pc, #380]	; (8002ee4 <HAL_ADCEx_InjectedConfigChannel+0x2f0>)
 8002d68:	42a3      	cmp	r3, r4
 8002d6a:	f000 80dd 	beq.w	8002f28 <HAL_ADCEx_InjectedConfigChannel+0x334>
 8002d6e:	4d5b      	ldr	r5, [pc, #364]	; (8002edc <HAL_ADCEx_InjectedConfigChannel+0x2e8>)
 8002d70:	42ab      	cmp	r3, r5
 8002d72:	f000 814f 	beq.w	8003014 <HAL_ADCEx_InjectedConfigChannel+0x420>
 8002d76:	f504 6480 	add.w	r4, r4, #1024	; 0x400
 8002d7a:	42a3      	cmp	r3, r4
 8002d7c:	f000 80d6 	beq.w	8002f2c <HAL_ADCEx_InjectedConfigChannel+0x338>
 8002d80:	689c      	ldr	r4, [r3, #8]
 8002d82:	f004 0403 	and.w	r4, r4, #3
 8002d86:	2c01      	cmp	r4, #1
 8002d88:	f000 8132 	beq.w	8002ff0 <HAL_ADCEx_InjectedConfigChannel+0x3fc>
 8002d8c:	2a10      	cmp	r2, #16
 8002d8e:	d002      	beq.n	8002d96 <HAL_ADCEx_InjectedConfigChannel+0x1a2>
 8002d90:	2a11      	cmp	r2, #17
 8002d92:	f040 80d9 	bne.w	8002f48 <HAL_ADCEx_InjectedConfigChannel+0x354>
 8002d96:	2300      	movs	r3, #0
 8002d98:	f880 303c 	strb.w	r3, [r0, #60]	; 0x3c
 8002d9c:	4660      	mov	r0, ip
 8002d9e:	b003      	add	sp, #12
 8002da0:	bdf0      	pop	{r4, r5, r6, r7, pc}
 8002da2:	2a10      	cmp	r2, #16
 8002da4:	4951      	ldr	r1, [pc, #324]	; (8002eec <HAL_ADCEx_InjectedConfigChannel+0x2f8>)
 8002da6:	d1d5      	bne.n	8002d54 <HAL_ADCEx_InjectedConfigChannel+0x160>
 8002da8:	688c      	ldr	r4, [r1, #8]
 8002daa:	0226      	lsls	r6, r4, #8
 8002dac:	d5d7      	bpl.n	8002d5e <HAL_ADCEx_InjectedConfigChannel+0x16a>
 8002dae:	e7f2      	b.n	8002d96 <HAL_ADCEx_InjectedConfigChannel+0x1a2>
 8002db0:	681a      	ldr	r2, [r3, #0]
 8002db2:	07d7      	lsls	r7, r2, #31
 8002db4:	d4ef      	bmi.n	8002d96 <HAL_ADCEx_InjectedConfigChannel+0x1a2>
 8002db6:	2c01      	cmp	r4, #1
 8002db8:	680a      	ldr	r2, [r1, #0]
 8002dba:	d1ba      	bne.n	8002d32 <HAL_ADCEx_InjectedConfigChannel+0x13e>
 8002dbc:	f8d3 50b0 	ldr.w	r5, [r3, #176]	; 0xb0
 8002dc0:	4094      	lsls	r4, r2
 8002dc2:	432c      	orrs	r4, r5
 8002dc4:	2a09      	cmp	r2, #9
 8002dc6:	688d      	ldr	r5, [r1, #8]
 8002dc8:	f8c3 40b0 	str.w	r4, [r3, #176]	; 0xb0
 8002dcc:	d86f      	bhi.n	8002eae <HAL_ADCEx_InjectedConfigChannel+0x2ba>
 8002dce:	1c54      	adds	r4, r2, #1
 8002dd0:	6959      	ldr	r1, [r3, #20]
 8002dd2:	eb04 0444 	add.w	r4, r4, r4, lsl #1
 8002dd6:	2607      	movs	r6, #7
 8002dd8:	40a5      	lsls	r5, r4
 8002dda:	fa06 f404 	lsl.w	r4, r6, r4
 8002dde:	ea21 0104 	bic.w	r1, r1, r4
 8002de2:	4329      	orrs	r1, r5
 8002de4:	f1b3 4fa0 	cmp.w	r3, #1342177280	; 0x50000000
 8002de8:	6159      	str	r1, [r3, #20]
 8002dea:	d0d4      	beq.n	8002d96 <HAL_ADCEx_InjectedConfigChannel+0x1a2>
 8002dec:	493d      	ldr	r1, [pc, #244]	; (8002ee4 <HAL_ADCEx_InjectedConfigChannel+0x2f0>)
 8002dee:	428b      	cmp	r3, r1
 8002df0:	d1ad      	bne.n	8002d4e <HAL_ADCEx_InjectedConfigChannel+0x15a>
 8002df2:	e7d0      	b.n	8002d96 <HAL_ADCEx_InjectedConfigChannel+0x1a2>
 8002df4:	695a      	ldr	r2, [r3, #20]
 8002df6:	688d      	ldr	r5, [r1, #8]
 8002df8:	eb06 0746 	add.w	r7, r6, r6, lsl #1
 8002dfc:	f04f 0e07 	mov.w	lr, #7
 8002e00:	fa0e fe07 	lsl.w	lr, lr, r7
 8002e04:	40bd      	lsls	r5, r7
 8002e06:	ea22 020e 	bic.w	r2, r2, lr
 8002e0a:	432a      	orrs	r2, r5
 8002e0c:	615a      	str	r2, [r3, #20]
 8002e0e:	e76c      	b.n	8002cea <HAL_ADCEx_InjectedConfigChannel+0xf6>
 8002e10:	68da      	ldr	r2, [r3, #12]
 8002e12:	7f8d      	ldrb	r5, [r1, #30]
 8002e14:	f422 1240 	bic.w	r2, r2, #3145728	; 0x300000
 8002e18:	ea42 5245 	orr.w	r2, r2, r5, lsl #21
 8002e1c:	60da      	str	r2, [r3, #12]
 8002e1e:	7f0a      	ldrb	r2, [r1, #28]
 8002e20:	2a01      	cmp	r2, #1
 8002e22:	f47f af3f 	bne.w	8002ca4 <HAL_ADCEx_InjectedConfigChannel+0xb0>
 8002e26:	4694      	mov	ip, r2
 8002e28:	6c02      	ldr	r2, [r0, #64]	; 0x40
 8002e2a:	f042 0220 	orr.w	r2, r2, #32
 8002e2e:	6402      	str	r2, [r0, #64]	; 0x40
 8002e30:	e738      	b.n	8002ca4 <HAL_ADCEx_InjectedConfigChannel+0xb0>
 8002e32:	2a12      	cmp	r2, #18
 8002e34:	d1af      	bne.n	8002d96 <HAL_ADCEx_InjectedConfigChannel+0x1a2>
 8002e36:	688c      	ldr	r4, [r1, #8]
 8002e38:	0264      	lsls	r4, r4, #9
 8002e3a:	d4ac      	bmi.n	8002d96 <HAL_ADCEx_InjectedConfigChannel+0x1a2>
 8002e3c:	e78f      	b.n	8002d5e <HAL_ADCEx_InjectedConfigChannel+0x16a>
 8002e3e:	6a0d      	ldr	r5, [r1, #32]
 8002e40:	2d01      	cmp	r5, #1
 8002e42:	f000 809f 	beq.w	8002f84 <HAL_ADCEx_InjectedConfigChannel+0x390>
 8002e46:	680b      	ldr	r3, [r1, #0]
 8002e48:	4e24      	ldr	r6, [pc, #144]	; (8002edc <HAL_ADCEx_InjectedConfigChannel+0x2e8>)
 8002e4a:	021a      	lsls	r2, r3, #8
 8002e4c:	6803      	ldr	r3, [r0, #0]
 8002e4e:	42b3      	cmp	r3, r6
 8002e50:	f000 809c 	beq.w	8002f8c <HAL_ADCEx_InjectedConfigChannel+0x398>
 8002e54:	f506 7680 	add.w	r6, r6, #256	; 0x100
 8002e58:	42b3      	cmp	r3, r6
 8002e5a:	f000 8097 	beq.w	8002f8c <HAL_ADCEx_InjectedConfigChannel+0x398>
 8002e5e:	6a4e      	ldr	r6, [r1, #36]	; 0x24
 8002e60:	4332      	orrs	r2, r6
 8002e62:	432a      	orrs	r2, r5
 8002e64:	6cdd      	ldr	r5, [r3, #76]	; 0x4c
 8002e66:	4e22      	ldr	r6, [pc, #136]	; (8002ef0 <HAL_ADCEx_InjectedConfigChannel+0x2fc>)
 8002e68:	4035      	ands	r5, r6
 8002e6a:	4315      	orrs	r5, r2
 8002e6c:	64dd      	str	r5, [r3, #76]	; 0x4c
 8002e6e:	6482      	str	r2, [r0, #72]	; 0x48
 8002e70:	f04f 0c00 	mov.w	ip, #0
 8002e74:	e705      	b.n	8002c82 <HAL_ADCEx_InjectedConfigChannel+0x8e>
 8002e76:	684b      	ldr	r3, [r1, #4]
 8002e78:	6c86      	ldr	r6, [r0, #72]	; 0x48
 8002e7a:	eb03 0343 	add.w	r3, r3, r3, lsl #1
 8002e7e:	1e6f      	subs	r7, r5, #1
 8002e80:	005b      	lsls	r3, r3, #1
 8002e82:	680d      	ldr	r5, [r1, #0]
 8002e84:	64c7      	str	r7, [r0, #76]	; 0x4c
 8002e86:	3302      	adds	r3, #2
 8002e88:	fa05 fc03 	lsl.w	ip, r5, r3
 8002e8c:	251f      	movs	r5, #31
 8002e8e:	409d      	lsls	r5, r3
 8002e90:	ea26 0505 	bic.w	r5, r6, r5
 8002e94:	ea45 050c 	orr.w	r5, r5, ip
 8002e98:	6803      	ldr	r3, [r0, #0]
 8002e9a:	6485      	str	r5, [r0, #72]	; 0x48
 8002e9c:	2f00      	cmp	r7, #0
 8002e9e:	d1e7      	bne.n	8002e70 <HAL_ADCEx_InjectedConfigChannel+0x27c>
 8002ea0:	6cda      	ldr	r2, [r3, #76]	; 0x4c
 8002ea2:	4e13      	ldr	r6, [pc, #76]	; (8002ef0 <HAL_ADCEx_InjectedConfigChannel+0x2fc>)
 8002ea4:	4032      	ands	r2, r6
 8002ea6:	4315      	orrs	r5, r2
 8002ea8:	46bc      	mov	ip, r7
 8002eaa:	64dd      	str	r5, [r3, #76]	; 0x4c
 8002eac:	e6e9      	b.n	8002c82 <HAL_ADCEx_InjectedConfigChannel+0x8e>
 8002eae:	eb02 0442 	add.w	r4, r2, r2, lsl #1
 8002eb2:	6999      	ldr	r1, [r3, #24]
 8002eb4:	3c1b      	subs	r4, #27
 8002eb6:	2607      	movs	r6, #7
 8002eb8:	40a5      	lsls	r5, r4
 8002eba:	fa06 f404 	lsl.w	r4, r6, r4
 8002ebe:	ea21 0104 	bic.w	r1, r1, r4
 8002ec2:	4329      	orrs	r1, r5
 8002ec4:	6199      	str	r1, [r3, #24]
 8002ec6:	e73c      	b.n	8002d42 <HAL_ADCEx_InjectedConfigChannel+0x14e>
 8002ec8:	ea42 6286 	orr.w	r2, r2, r6, lsl #26
 8002ecc:	4d04      	ldr	r5, [pc, #16]	; (8002ee0 <HAL_ADCEx_InjectedConfigChannel+0x2ec>)
 8002ece:	6ede      	ldr	r6, [r3, #108]	; 0x6c
 8002ed0:	4035      	ands	r5, r6
 8002ed2:	432a      	orrs	r2, r5
 8002ed4:	f042 4200 	orr.w	r2, r2, #2147483648	; 0x80000000
 8002ed8:	66da      	str	r2, [r3, #108]	; 0x6c
 8002eda:	e722      	b.n	8002d22 <HAL_ADCEx_InjectedConfigChannel+0x12e>
 8002edc:	50000400 	.word	0x50000400
 8002ee0:	83fff000 	.word	0x83fff000
 8002ee4:	50000100 	.word	0x50000100
 8002ee8:	50000700 	.word	0x50000700
 8002eec:	50000300 	.word	0x50000300
 8002ef0:	82082000 	.word	0x82082000
 8002ef4:	ea42 6286 	orr.w	r2, r2, r6, lsl #26
 8002ef8:	4d60      	ldr	r5, [pc, #384]	; (800307c <HAL_ADCEx_InjectedConfigChannel+0x488>)
 8002efa:	6e9e      	ldr	r6, [r3, #104]	; 0x68
 8002efc:	4035      	ands	r5, r6
 8002efe:	432a      	orrs	r2, r5
 8002f00:	f042 4200 	orr.w	r2, r2, #2147483648	; 0x80000000
 8002f04:	669a      	str	r2, [r3, #104]	; 0x68
 8002f06:	e70c      	b.n	8002d22 <HAL_ADCEx_InjectedConfigChannel+0x12e>
 8002f08:	ea42 6286 	orr.w	r2, r2, r6, lsl #26
 8002f0c:	4d5b      	ldr	r5, [pc, #364]	; (800307c <HAL_ADCEx_InjectedConfigChannel+0x488>)
 8002f0e:	6e5e      	ldr	r6, [r3, #100]	; 0x64
 8002f10:	4035      	ands	r5, r6
 8002f12:	432a      	orrs	r2, r5
 8002f14:	f042 4200 	orr.w	r2, r2, #2147483648	; 0x80000000
 8002f18:	665a      	str	r2, [r3, #100]	; 0x64
 8002f1a:	e702      	b.n	8002d22 <HAL_ADCEx_InjectedConfigChannel+0x12e>
 8002f1c:	4694      	mov	ip, r2
 8002f1e:	6c02      	ldr	r2, [r0, #64]	; 0x40
 8002f20:	f042 0220 	orr.w	r2, r2, #32
 8002f24:	6402      	str	r2, [r0, #64]	; 0x40
 8002f26:	e6cd      	b.n	8002cc4 <HAL_ADCEx_InjectedConfigChannel+0xd0>
 8002f28:	f04f 45a0 	mov.w	r5, #1342177280	; 0x50000000
 8002f2c:	689c      	ldr	r4, [r3, #8]
 8002f2e:	f004 0403 	and.w	r4, r4, #3
 8002f32:	2c01      	cmp	r4, #1
 8002f34:	d01c      	beq.n	8002f70 <HAL_ADCEx_InjectedConfigChannel+0x37c>
 8002f36:	68ac      	ldr	r4, [r5, #8]
 8002f38:	f004 0403 	and.w	r4, r4, #3
 8002f3c:	2c01      	cmp	r4, #1
 8002f3e:	d02d      	beq.n	8002f9c <HAL_ADCEx_InjectedConfigChannel+0x3a8>
 8002f40:	2a10      	cmp	r2, #16
 8002f42:	d02f      	beq.n	8002fa4 <HAL_ADCEx_InjectedConfigChannel+0x3b0>
 8002f44:	2a11      	cmp	r2, #17
 8002f46:	d04a      	beq.n	8002fde <HAL_ADCEx_InjectedConfigChannel+0x3ea>
 8002f48:	2a12      	cmp	r2, #18
 8002f4a:	f47f af24 	bne.w	8002d96 <HAL_ADCEx_InjectedConfigChannel+0x1a2>
 8002f4e:	688b      	ldr	r3, [r1, #8]
 8002f50:	f443 0380 	orr.w	r3, r3, #4194304	; 0x400000
 8002f54:	608b      	str	r3, [r1, #8]
 8002f56:	e71e      	b.n	8002d96 <HAL_ADCEx_InjectedConfigChannel+0x1a2>
 8002f58:	7f4d      	ldrb	r5, [r1, #29]
 8002f5a:	ea42 6245 	orr.w	r2, r2, r5, lsl #25
 8002f5e:	60da      	str	r2, [r3, #12]
 8002f60:	e6b0      	b.n	8002cc4 <HAL_ADCEx_InjectedConfigChannel+0xd0>
 8002f62:	f04f 0c02 	mov.w	ip, #2
 8002f66:	4660      	mov	r0, ip
 8002f68:	b003      	add	sp, #12
 8002f6a:	bdf0      	pop	{r4, r5, r6, r7, pc}
 8002f6c:	4d44      	ldr	r5, [pc, #272]	; (8003080 <HAL_ADCEx_InjectedConfigChannel+0x48c>)
 8002f6e:	e7dd      	b.n	8002f2c <HAL_ADCEx_InjectedConfigChannel+0x338>
 8002f70:	681c      	ldr	r4, [r3, #0]
 8002f72:	07e6      	lsls	r6, r4, #31
 8002f74:	d5df      	bpl.n	8002f36 <HAL_ADCEx_InjectedConfigChannel+0x342>
 8002f76:	6c03      	ldr	r3, [r0, #64]	; 0x40
 8002f78:	f043 0320 	orr.w	r3, r3, #32
 8002f7c:	f04f 0c01 	mov.w	ip, #1
 8002f80:	6403      	str	r3, [r0, #64]	; 0x40
 8002f82:	e708      	b.n	8002d96 <HAL_ADCEx_InjectedConfigChannel+0x1a2>
 8002f84:	680a      	ldr	r2, [r1, #0]
 8002f86:	6803      	ldr	r3, [r0, #0]
 8002f88:	0212      	lsls	r2, r2, #8
 8002f8a:	e76b      	b.n	8002e64 <HAL_ADCEx_InjectedConfigChannel+0x270>
 8002f8c:	2d08      	cmp	r5, #8
 8002f8e:	d033      	beq.n	8002ff8 <HAL_ADCEx_InjectedConfigChannel+0x404>
 8002f90:	2d14      	cmp	r5, #20
 8002f92:	d043      	beq.n	800301c <HAL_ADCEx_InjectedConfigChannel+0x428>
 8002f94:	2d1c      	cmp	r5, #28
 8002f96:	bf08      	it	eq
 8002f98:	2510      	moveq	r5, #16
 8002f9a:	e760      	b.n	8002e5e <HAL_ADCEx_InjectedConfigChannel+0x26a>
 8002f9c:	682c      	ldr	r4, [r5, #0]
 8002f9e:	07e4      	lsls	r4, r4, #31
 8002fa0:	d4e9      	bmi.n	8002f76 <HAL_ADCEx_InjectedConfigChannel+0x382>
 8002fa2:	e7cd      	b.n	8002f40 <HAL_ADCEx_InjectedConfigChannel+0x34c>
 8002fa4:	f1b3 4fa0 	cmp.w	r3, #1342177280	; 0x50000000
 8002fa8:	f47f aef5 	bne.w	8002d96 <HAL_ADCEx_InjectedConfigChannel+0x1a2>
 8002fac:	4b35      	ldr	r3, [pc, #212]	; (8003084 <HAL_ADCEx_InjectedConfigChannel+0x490>)
 8002fae:	4c36      	ldr	r4, [pc, #216]	; (8003088 <HAL_ADCEx_InjectedConfigChannel+0x494>)
 8002fb0:	681b      	ldr	r3, [r3, #0]
 8002fb2:	688a      	ldr	r2, [r1, #8]
 8002fb4:	fba4 4303 	umull	r4, r3, r4, r3
 8002fb8:	0c9b      	lsrs	r3, r3, #18
 8002fba:	eb03 0383 	add.w	r3, r3, r3, lsl #2
 8002fbe:	005b      	lsls	r3, r3, #1
 8002fc0:	f442 0200 	orr.w	r2, r2, #8388608	; 0x800000
 8002fc4:	608a      	str	r2, [r1, #8]
 8002fc6:	9301      	str	r3, [sp, #4]
 8002fc8:	9b01      	ldr	r3, [sp, #4]
 8002fca:	2b00      	cmp	r3, #0
 8002fcc:	f43f aee3 	beq.w	8002d96 <HAL_ADCEx_InjectedConfigChannel+0x1a2>
 8002fd0:	9b01      	ldr	r3, [sp, #4]
 8002fd2:	3b01      	subs	r3, #1
 8002fd4:	9301      	str	r3, [sp, #4]
 8002fd6:	9b01      	ldr	r3, [sp, #4]
 8002fd8:	2b00      	cmp	r3, #0
 8002fda:	d1f9      	bne.n	8002fd0 <HAL_ADCEx_InjectedConfigChannel+0x3dc>
 8002fdc:	e6db      	b.n	8002d96 <HAL_ADCEx_InjectedConfigChannel+0x1a2>
 8002fde:	f1b3 4fa0 	cmp.w	r3, #1342177280	; 0x50000000
 8002fe2:	f47f aed8 	bne.w	8002d96 <HAL_ADCEx_InjectedConfigChannel+0x1a2>
 8002fe6:	688b      	ldr	r3, [r1, #8]
 8002fe8:	f043 7380 	orr.w	r3, r3, #16777216	; 0x1000000
 8002fec:	608b      	str	r3, [r1, #8]
 8002fee:	e6d2      	b.n	8002d96 <HAL_ADCEx_InjectedConfigChannel+0x1a2>
 8002ff0:	681b      	ldr	r3, [r3, #0]
 8002ff2:	07df      	lsls	r7, r3, #31
 8002ff4:	d4bf      	bmi.n	8002f76 <HAL_ADCEx_InjectedConfigChannel+0x382>
 8002ff6:	e6c9      	b.n	8002d8c <HAL_ADCEx_InjectedConfigChannel+0x198>
 8002ff8:	2534      	movs	r5, #52	; 0x34
 8002ffa:	e730      	b.n	8002e5e <HAL_ADCEx_InjectedConfigChannel+0x26a>
 8002ffc:	2d08      	cmp	r5, #8
 8002ffe:	d00b      	beq.n	8003018 <HAL_ADCEx_InjectedConfigChannel+0x424>
 8003000:	2d14      	cmp	r5, #20
 8003002:	d00d      	beq.n	8003020 <HAL_ADCEx_InjectedConfigChannel+0x42c>
 8003004:	2d1c      	cmp	r5, #28
 8003006:	bf08      	it	eq
 8003008:	2510      	moveq	r5, #16
 800300a:	e61a      	b.n	8002c42 <HAL_ADCEx_InjectedConfigChannel+0x4e>
 800300c:	1e7a      	subs	r2, r7, #1
 800300e:	6803      	ldr	r3, [r0, #0]
 8003010:	4617      	mov	r7, r2
 8003012:	e619      	b.n	8002c48 <HAL_ADCEx_InjectedConfigChannel+0x54>
 8003014:	4d1d      	ldr	r5, [pc, #116]	; (800308c <HAL_ADCEx_InjectedConfigChannel+0x498>)
 8003016:	e789      	b.n	8002f2c <HAL_ADCEx_InjectedConfigChannel+0x338>
 8003018:	2534      	movs	r5, #52	; 0x34
 800301a:	e612      	b.n	8002c42 <HAL_ADCEx_InjectedConfigChannel+0x4e>
 800301c:	251c      	movs	r5, #28
 800301e:	e71e      	b.n	8002e5e <HAL_ADCEx_InjectedConfigChannel+0x26a>
 8003020:	251c      	movs	r5, #28
 8003022:	e60e      	b.n	8002c42 <HAL_ADCEx_InjectedConfigChannel+0x4e>
 8003024:	6e1a      	ldr	r2, [r3, #96]	; 0x60
 8003026:	f002 42f8 	and.w	r2, r2, #2080374784	; 0x7c000000
 800302a:	ebb2 6f86 	cmp.w	r2, r6, lsl #26
 800302e:	ea4f 6586 	mov.w	r5, r6, lsl #26
 8003032:	d014      	beq.n	800305e <HAL_ADCEx_InjectedConfigChannel+0x46a>
 8003034:	6e5a      	ldr	r2, [r3, #100]	; 0x64
 8003036:	f002 42f8 	and.w	r2, r2, #2080374784	; 0x7c000000
 800303a:	4295      	cmp	r5, r2
 800303c:	d014      	beq.n	8003068 <HAL_ADCEx_InjectedConfigChannel+0x474>
 800303e:	6e9a      	ldr	r2, [r3, #104]	; 0x68
 8003040:	f002 42f8 	and.w	r2, r2, #2080374784	; 0x7c000000
 8003044:	4295      	cmp	r5, r2
 8003046:	d014      	beq.n	8003072 <HAL_ADCEx_InjectedConfigChannel+0x47e>
 8003048:	6eda      	ldr	r2, [r3, #108]	; 0x6c
 800304a:	f002 42f8 	and.w	r2, r2, #2080374784	; 0x7c000000
 800304e:	4295      	cmp	r5, r2
 8003050:	f47f ae67 	bne.w	8002d22 <HAL_ADCEx_InjectedConfigChannel+0x12e>
 8003054:	6eda      	ldr	r2, [r3, #108]	; 0x6c
 8003056:	f022 4200 	bic.w	r2, r2, #2147483648	; 0x80000000
 800305a:	66da      	str	r2, [r3, #108]	; 0x6c
 800305c:	e661      	b.n	8002d22 <HAL_ADCEx_InjectedConfigChannel+0x12e>
 800305e:	6e1a      	ldr	r2, [r3, #96]	; 0x60
 8003060:	f022 4200 	bic.w	r2, r2, #2147483648	; 0x80000000
 8003064:	661a      	str	r2, [r3, #96]	; 0x60
 8003066:	e7e5      	b.n	8003034 <HAL_ADCEx_InjectedConfigChannel+0x440>
 8003068:	6e5a      	ldr	r2, [r3, #100]	; 0x64
 800306a:	f022 4200 	bic.w	r2, r2, #2147483648	; 0x80000000
 800306e:	665a      	str	r2, [r3, #100]	; 0x64
 8003070:	e7e5      	b.n	800303e <HAL_ADCEx_InjectedConfigChannel+0x44a>
 8003072:	6e9a      	ldr	r2, [r3, #104]	; 0x68
 8003074:	f022 4200 	bic.w	r2, r2, #2147483648	; 0x80000000
 8003078:	669a      	str	r2, [r3, #104]	; 0x68
 800307a:	e7e5      	b.n	8003048 <HAL_ADCEx_InjectedConfigChannel+0x454>
 800307c:	83fff000 	.word	0x83fff000
 8003080:	50000100 	.word	0x50000100
 8003084:	20000004 	.word	0x20000004
 8003088:	431bde83 	.word	0x431bde83
 800308c:	50000500 	.word	0x50000500

08003090 <HAL_ADCEx_MultiModeConfigChannel>:
 8003090:	6803      	ldr	r3, [r0, #0]
 8003092:	4a45      	ldr	r2, [pc, #276]	; (80031a8 <HAL_ADCEx_MultiModeConfigChannel+0x118>)
 8003094:	f1b3 4fa0 	cmp.w	r3, #1342177280	; 0x50000000
 8003098:	b4f0      	push	{r4, r5, r6, r7}
 800309a:	680d      	ldr	r5, [r1, #0]
 800309c:	d00e      	beq.n	80030bc <HAL_ADCEx_MultiModeConfigChannel+0x2c>
 800309e:	4293      	cmp	r3, r2
 80030a0:	d00a      	beq.n	80030b8 <HAL_ADCEx_MultiModeConfigChannel+0x28>
 80030a2:	f502 7240 	add.w	r2, r2, #768	; 0x300
 80030a6:	4293      	cmp	r3, r2
 80030a8:	d04b      	beq.n	8003142 <HAL_ADCEx_MultiModeConfigChannel+0xb2>
 80030aa:	4c40      	ldr	r4, [pc, #256]	; (80031ac <HAL_ADCEx_MultiModeConfigChannel+0x11c>)
 80030ac:	42a3      	cmp	r3, r4
 80030ae:	d005      	beq.n	80030bc <HAL_ADCEx_MultiModeConfigChannel+0x2c>
 80030b0:	2201      	movs	r2, #1
 80030b2:	4610      	mov	r0, r2
 80030b4:	bcf0      	pop	{r4, r5, r6, r7}
 80030b6:	4770      	bx	lr
 80030b8:	f04f 42a0 	mov.w	r2, #1342177280	; 0x50000000
 80030bc:	f890 c03c 	ldrb.w	ip, [r0, #60]	; 0x3c
 80030c0:	f1bc 0f01 	cmp.w	ip, #1
 80030c4:	d043      	beq.n	800314e <HAL_ADCEx_MultiModeConfigChannel+0xbe>
 80030c6:	2401      	movs	r4, #1
 80030c8:	f880 403c 	strb.w	r4, [r0, #60]	; 0x3c
 80030cc:	689c      	ldr	r4, [r3, #8]
 80030ce:	0766      	lsls	r6, r4, #29
 80030d0:	d50a      	bpl.n	80030e8 <HAL_ADCEx_MultiModeConfigChannel+0x58>
 80030d2:	6c03      	ldr	r3, [r0, #64]	; 0x40
 80030d4:	f043 0320 	orr.w	r3, r3, #32
 80030d8:	2201      	movs	r2, #1
 80030da:	6403      	str	r3, [r0, #64]	; 0x40
 80030dc:	2300      	movs	r3, #0
 80030de:	f880 303c 	strb.w	r3, [r0, #60]	; 0x3c
 80030e2:	bcf0      	pop	{r4, r5, r6, r7}
 80030e4:	4610      	mov	r0, r2
 80030e6:	4770      	bx	lr
 80030e8:	6894      	ldr	r4, [r2, #8]
 80030ea:	0764      	lsls	r4, r4, #29
 80030ec:	d4f1      	bmi.n	80030d2 <HAL_ADCEx_MultiModeConfigChannel+0x42>
 80030ee:	f1b3 4fa0 	cmp.w	r3, #1342177280	; 0x50000000
 80030f2:	d046      	beq.n	8003182 <HAL_ADCEx_MultiModeConfigChannel+0xf2>
 80030f4:	4f2c      	ldr	r7, [pc, #176]	; (80031a8 <HAL_ADCEx_MultiModeConfigChannel+0x118>)
 80030f6:	4e2e      	ldr	r6, [pc, #184]	; (80031b0 <HAL_ADCEx_MultiModeConfigChannel+0x120>)
 80030f8:	4c2e      	ldr	r4, [pc, #184]	; (80031b4 <HAL_ADCEx_MultiModeConfigChannel+0x124>)
 80030fa:	42bb      	cmp	r3, r7
 80030fc:	bf08      	it	eq
 80030fe:	4634      	moveq	r4, r6
 8003100:	b34d      	cbz	r5, 8003156 <HAL_ADCEx_MultiModeConfigChannel+0xc6>
 8003102:	68a6      	ldr	r6, [r4, #8]
 8003104:	684f      	ldr	r7, [r1, #4]
 8003106:	f426 4c60 	bic.w	ip, r6, #57344	; 0xe000
 800310a:	f890 6030 	ldrb.w	r6, [r0, #48]	; 0x30
 800310e:	ea47 3646 	orr.w	r6, r7, r6, lsl #13
 8003112:	ea46 060c 	orr.w	r6, r6, ip
 8003116:	60a6      	str	r6, [r4, #8]
 8003118:	689e      	ldr	r6, [r3, #8]
 800311a:	f006 0603 	and.w	r6, r6, #3
 800311e:	2e01      	cmp	r6, #1
 8003120:	d03d      	beq.n	800319e <HAL_ADCEx_MultiModeConfigChannel+0x10e>
 8003122:	6893      	ldr	r3, [r2, #8]
 8003124:	f003 0303 	and.w	r3, r3, #3
 8003128:	2b01      	cmp	r3, #1
 800312a:	d030      	beq.n	800318e <HAL_ADCEx_MultiModeConfigChannel+0xfe>
 800312c:	68a2      	ldr	r2, [r4, #8]
 800312e:	688b      	ldr	r3, [r1, #8]
 8003130:	f422 6271 	bic.w	r2, r2, #3856	; 0xf10
 8003134:	431d      	orrs	r5, r3
 8003136:	f022 020f 	bic.w	r2, r2, #15
 800313a:	4315      	orrs	r5, r2
 800313c:	60a5      	str	r5, [r4, #8]
 800313e:	2200      	movs	r2, #0
 8003140:	e7cc      	b.n	80030dc <HAL_ADCEx_MultiModeConfigChannel+0x4c>
 8003142:	f890 c03c 	ldrb.w	ip, [r0, #60]	; 0x3c
 8003146:	4a19      	ldr	r2, [pc, #100]	; (80031ac <HAL_ADCEx_MultiModeConfigChannel+0x11c>)
 8003148:	f1bc 0f01 	cmp.w	ip, #1
 800314c:	d1bb      	bne.n	80030c6 <HAL_ADCEx_MultiModeConfigChannel+0x36>
 800314e:	2202      	movs	r2, #2
 8003150:	4610      	mov	r0, r2
 8003152:	bcf0      	pop	{r4, r5, r6, r7}
 8003154:	4770      	bx	lr
 8003156:	68a1      	ldr	r1, [r4, #8]
 8003158:	f421 4160 	bic.w	r1, r1, #57344	; 0xe000
 800315c:	60a1      	str	r1, [r4, #8]
 800315e:	6899      	ldr	r1, [r3, #8]
 8003160:	f001 0103 	and.w	r1, r1, #3
 8003164:	2901      	cmp	r1, #1
 8003166:	d016      	beq.n	8003196 <HAL_ADCEx_MultiModeConfigChannel+0x106>
 8003168:	6893      	ldr	r3, [r2, #8]
 800316a:	f003 0303 	and.w	r3, r3, #3
 800316e:	2b01      	cmp	r3, #1
 8003170:	d009      	beq.n	8003186 <HAL_ADCEx_MultiModeConfigChannel+0xf6>
 8003172:	68a3      	ldr	r3, [r4, #8]
 8003174:	f423 6371 	bic.w	r3, r3, #3856	; 0xf10
 8003178:	f023 030f 	bic.w	r3, r3, #15
 800317c:	2200      	movs	r2, #0
 800317e:	60a3      	str	r3, [r4, #8]
 8003180:	e7ac      	b.n	80030dc <HAL_ADCEx_MultiModeConfigChannel+0x4c>
 8003182:	4c0b      	ldr	r4, [pc, #44]	; (80031b0 <HAL_ADCEx_MultiModeConfigChannel+0x120>)
 8003184:	e7bc      	b.n	8003100 <HAL_ADCEx_MultiModeConfigChannel+0x70>
 8003186:	6813      	ldr	r3, [r2, #0]
 8003188:	07db      	lsls	r3, r3, #31
 800318a:	d4d8      	bmi.n	800313e <HAL_ADCEx_MultiModeConfigChannel+0xae>
 800318c:	e7f1      	b.n	8003172 <HAL_ADCEx_MultiModeConfigChannel+0xe2>
 800318e:	6813      	ldr	r3, [r2, #0]
 8003190:	07de      	lsls	r6, r3, #31
 8003192:	d4d4      	bmi.n	800313e <HAL_ADCEx_MultiModeConfigChannel+0xae>
 8003194:	e7ca      	b.n	800312c <HAL_ADCEx_MultiModeConfigChannel+0x9c>
 8003196:	681b      	ldr	r3, [r3, #0]
 8003198:	07d9      	lsls	r1, r3, #31
 800319a:	d4d0      	bmi.n	800313e <HAL_ADCEx_MultiModeConfigChannel+0xae>
 800319c:	e7e4      	b.n	8003168 <HAL_ADCEx_MultiModeConfigChannel+0xd8>
 800319e:	681b      	ldr	r3, [r3, #0]
 80031a0:	07df      	lsls	r7, r3, #31
 80031a2:	d5be      	bpl.n	8003122 <HAL_ADCEx_MultiModeConfigChannel+0x92>
 80031a4:	e7cb      	b.n	800313e <HAL_ADCEx_MultiModeConfigChannel+0xae>
 80031a6:	bf00      	nop
 80031a8:	50000100 	.word	0x50000100
 80031ac:	50000500 	.word	0x50000500
 80031b0:	50000300 	.word	0x50000300
 80031b4:	50000700 	.word	0x50000700

080031b8 <HAL_CAN_Init>:
 80031b8:	2800      	cmp	r0, #0
 80031ba:	d07b      	beq.n	80032b4 <HAL_CAN_Init+0xfc>
 80031bc:	b538      	push	{r3, r4, r5, lr}
 80031be:	f890 3020 	ldrb.w	r3, [r0, #32]
 80031c2:	4604      	mov	r4, r0
 80031c4:	2b00      	cmp	r3, #0
 80031c6:	d072      	beq.n	80032ae <HAL_CAN_Init+0xf6>
 80031c8:	6822      	ldr	r2, [r4, #0]
 80031ca:	6813      	ldr	r3, [r2, #0]
 80031cc:	f043 0301 	orr.w	r3, r3, #1
 80031d0:	6013      	str	r3, [r2, #0]
 80031d2:	f7ff f8d7 	bl	8002384 <HAL_GetTick>
 80031d6:	4605      	mov	r5, r0
 80031d8:	e004      	b.n	80031e4 <HAL_CAN_Init+0x2c>
 80031da:	f7ff f8d3 	bl	8002384 <HAL_GetTick>
 80031de:	1b43      	subs	r3, r0, r5
 80031e0:	2b0a      	cmp	r3, #10
 80031e2:	d85b      	bhi.n	800329c <HAL_CAN_Init+0xe4>
 80031e4:	6823      	ldr	r3, [r4, #0]
 80031e6:	685a      	ldr	r2, [r3, #4]
 80031e8:	07d1      	lsls	r1, r2, #31
 80031ea:	d5f6      	bpl.n	80031da <HAL_CAN_Init+0x22>
 80031ec:	681a      	ldr	r2, [r3, #0]
 80031ee:	f022 0202 	bic.w	r2, r2, #2
 80031f2:	601a      	str	r2, [r3, #0]
 80031f4:	f7ff f8c6 	bl	8002384 <HAL_GetTick>
 80031f8:	4605      	mov	r5, r0
 80031fa:	e004      	b.n	8003206 <HAL_CAN_Init+0x4e>
 80031fc:	f7ff f8c2 	bl	8002384 <HAL_GetTick>
 8003200:	1b40      	subs	r0, r0, r5
 8003202:	280a      	cmp	r0, #10
 8003204:	d84a      	bhi.n	800329c <HAL_CAN_Init+0xe4>
 8003206:	6823      	ldr	r3, [r4, #0]
 8003208:	685a      	ldr	r2, [r3, #4]
 800320a:	0792      	lsls	r2, r2, #30
 800320c:	d4f6      	bmi.n	80031fc <HAL_CAN_Init+0x44>
 800320e:	7e22      	ldrb	r2, [r4, #24]
 8003210:	2a01      	cmp	r2, #1
 8003212:	681a      	ldr	r2, [r3, #0]
 8003214:	bf0c      	ite	eq
 8003216:	f042 0280 	orreq.w	r2, r2, #128	; 0x80
 800321a:	f022 0280 	bicne.w	r2, r2, #128	; 0x80
 800321e:	601a      	str	r2, [r3, #0]
 8003220:	7e62      	ldrb	r2, [r4, #25]
 8003222:	2a01      	cmp	r2, #1
 8003224:	681a      	ldr	r2, [r3, #0]
 8003226:	bf0c      	ite	eq
 8003228:	f042 0240 	orreq.w	r2, r2, #64	; 0x40
 800322c:	f022 0240 	bicne.w	r2, r2, #64	; 0x40
 8003230:	601a      	str	r2, [r3, #0]
 8003232:	7ea2      	ldrb	r2, [r4, #26]
 8003234:	2a01      	cmp	r2, #1
 8003236:	681a      	ldr	r2, [r3, #0]
 8003238:	bf0c      	ite	eq
 800323a:	f042 0220 	orreq.w	r2, r2, #32
 800323e:	f022 0220 	bicne.w	r2, r2, #32
 8003242:	601a      	str	r2, [r3, #0]
 8003244:	7ee2      	ldrb	r2, [r4, #27]
 8003246:	2a01      	cmp	r2, #1
 8003248:	681a      	ldr	r2, [r3, #0]
 800324a:	bf0c      	ite	eq
 800324c:	f022 0210 	biceq.w	r2, r2, #16
 8003250:	f042 0210 	orrne.w	r2, r2, #16
 8003254:	601a      	str	r2, [r3, #0]
 8003256:	7f22      	ldrb	r2, [r4, #28]
 8003258:	2a01      	cmp	r2, #1
 800325a:	681a      	ldr	r2, [r3, #0]
 800325c:	bf0c      	ite	eq
 800325e:	f042 0208 	orreq.w	r2, r2, #8
 8003262:	f022 0208 	bicne.w	r2, r2, #8
 8003266:	601a      	str	r2, [r3, #0]
 8003268:	7f62      	ldrb	r2, [r4, #29]
 800326a:	2a01      	cmp	r2, #1
 800326c:	681a      	ldr	r2, [r3, #0]
 800326e:	bf0c      	ite	eq
 8003270:	f042 0204 	orreq.w	r2, r2, #4
 8003274:	f022 0204 	bicne.w	r2, r2, #4
 8003278:	601a      	str	r2, [r3, #0]
 800327a:	e9d4 2002 	ldrd	r2, r0, [r4, #8]
 800327e:	6921      	ldr	r1, [r4, #16]
 8003280:	4302      	orrs	r2, r0
 8003282:	430a      	orrs	r2, r1
 8003284:	6960      	ldr	r0, [r4, #20]
 8003286:	6861      	ldr	r1, [r4, #4]
 8003288:	4302      	orrs	r2, r0
 800328a:	3901      	subs	r1, #1
 800328c:	430a      	orrs	r2, r1
 800328e:	2000      	movs	r0, #0
 8003290:	2101      	movs	r1, #1
 8003292:	61da      	str	r2, [r3, #28]
 8003294:	6260      	str	r0, [r4, #36]	; 0x24
 8003296:	f884 1020 	strb.w	r1, [r4, #32]
 800329a:	bd38      	pop	{r3, r4, r5, pc}
 800329c:	6a63      	ldr	r3, [r4, #36]	; 0x24
 800329e:	2205      	movs	r2, #5
 80032a0:	f443 3300 	orr.w	r3, r3, #131072	; 0x20000
 80032a4:	6263      	str	r3, [r4, #36]	; 0x24
 80032a6:	f884 2020 	strb.w	r2, [r4, #32]
 80032aa:	2001      	movs	r0, #1
 80032ac:	bd38      	pop	{r3, r4, r5, pc}
 80032ae:	f7fd ff51 	bl	8001154 <HAL_CAN_MspInit>
 80032b2:	e789      	b.n	80031c8 <HAL_CAN_Init+0x10>
 80032b4:	2001      	movs	r0, #1
 80032b6:	4770      	bx	lr

080032b8 <HAL_CAN_GetRxMessage>:
 80032b8:	b570      	push	{r4, r5, r6, lr}
 80032ba:	f890 e020 	ldrb.w	lr, [r0, #32]
 80032be:	f10e 3eff 	add.w	lr, lr, #4294967295
 80032c2:	f1be 0f01 	cmp.w	lr, #1
 80032c6:	4684      	mov	ip, r0
 80032c8:	d86d      	bhi.n	80033a6 <HAL_CAN_GetRxMessage+0xee>
 80032ca:	6800      	ldr	r0, [r0, #0]
 80032cc:	b951      	cbnz	r1, 80032e4 <HAL_CAN_GetRxMessage+0x2c>
 80032ce:	68c4      	ldr	r4, [r0, #12]
 80032d0:	07a5      	lsls	r5, r4, #30
 80032d2:	d10a      	bne.n	80032ea <HAL_CAN_GetRxMessage+0x32>
 80032d4:	f8dc 3024 	ldr.w	r3, [ip, #36]	; 0x24
 80032d8:	f443 1300 	orr.w	r3, r3, #2097152	; 0x200000
 80032dc:	2001      	movs	r0, #1
 80032de:	f8cc 3024 	str.w	r3, [ip, #36]	; 0x24
 80032e2:	bd70      	pop	{r4, r5, r6, pc}
 80032e4:	6904      	ldr	r4, [r0, #16]
 80032e6:	07a4      	lsls	r4, r4, #30
 80032e8:	d0f4      	beq.n	80032d4 <HAL_CAN_GetRxMessage+0x1c>
 80032ea:	eb00 1e01 	add.w	lr, r0, r1, lsl #4
 80032ee:	010c      	lsls	r4, r1, #4
 80032f0:	f8de 51b0 	ldr.w	r5, [lr, #432]	; 0x1b0
 80032f4:	f005 0504 	and.w	r5, r5, #4
 80032f8:	6095      	str	r5, [r2, #8]
 80032fa:	2d00      	cmp	r5, #0
 80032fc:	d05a      	beq.n	80033b4 <HAL_CAN_GetRxMessage+0xfc>
 80032fe:	f8de 51b0 	ldr.w	r5, [lr, #432]	; 0x1b0
 8003302:	08ed      	lsrs	r5, r5, #3
 8003304:	6055      	str	r5, [r2, #4]
 8003306:	f8de 51b0 	ldr.w	r5, [lr, #432]	; 0x1b0
 800330a:	f005 0502 	and.w	r5, r5, #2
 800330e:	60d5      	str	r5, [r2, #12]
 8003310:	f8de 51b4 	ldr.w	r5, [lr, #436]	; 0x1b4
 8003314:	f8de 61b4 	ldr.w	r6, [lr, #436]	; 0x1b4
 8003318:	f005 050f 	and.w	r5, r5, #15
 800331c:	6115      	str	r5, [r2, #16]
 800331e:	4420      	add	r0, r4
 8003320:	f8de 51b4 	ldr.w	r5, [lr, #436]	; 0x1b4
 8003324:	f3c6 2607 	ubfx	r6, r6, #8, #8
 8003328:	6196      	str	r6, [r2, #24]
 800332a:	0c2d      	lsrs	r5, r5, #16
 800332c:	f8d0 61b8 	ldr.w	r6, [r0, #440]	; 0x1b8
 8003330:	6155      	str	r5, [r2, #20]
 8003332:	701e      	strb	r6, [r3, #0]
 8003334:	f8dc 2000 	ldr.w	r2, [ip]
 8003338:	4422      	add	r2, r4
 800333a:	f8d2 21b8 	ldr.w	r2, [r2, #440]	; 0x1b8
 800333e:	0a12      	lsrs	r2, r2, #8
 8003340:	705a      	strb	r2, [r3, #1]
 8003342:	f8dc 2000 	ldr.w	r2, [ip]
 8003346:	4422      	add	r2, r4
 8003348:	f8d2 21b8 	ldr.w	r2, [r2, #440]	; 0x1b8
 800334c:	0c12      	lsrs	r2, r2, #16
 800334e:	709a      	strb	r2, [r3, #2]
 8003350:	f8dc 2000 	ldr.w	r2, [ip]
 8003354:	4422      	add	r2, r4
 8003356:	f8d2 21b8 	ldr.w	r2, [r2, #440]	; 0x1b8
 800335a:	0e12      	lsrs	r2, r2, #24
 800335c:	70da      	strb	r2, [r3, #3]
 800335e:	f8dc 2000 	ldr.w	r2, [ip]
 8003362:	4422      	add	r2, r4
 8003364:	f8d2 21bc 	ldr.w	r2, [r2, #444]	; 0x1bc
 8003368:	711a      	strb	r2, [r3, #4]
 800336a:	f8dc 2000 	ldr.w	r2, [ip]
 800336e:	4422      	add	r2, r4
 8003370:	f8d2 21bc 	ldr.w	r2, [r2, #444]	; 0x1bc
 8003374:	0a12      	lsrs	r2, r2, #8
 8003376:	715a      	strb	r2, [r3, #5]
 8003378:	f8dc 2000 	ldr.w	r2, [ip]
 800337c:	4422      	add	r2, r4
 800337e:	f8d2 21bc 	ldr.w	r2, [r2, #444]	; 0x1bc
 8003382:	0c12      	lsrs	r2, r2, #16
 8003384:	719a      	strb	r2, [r3, #6]
 8003386:	f8dc 2000 	ldr.w	r2, [ip]
 800338a:	4422      	add	r2, r4
 800338c:	f8d2 21bc 	ldr.w	r2, [r2, #444]	; 0x1bc
 8003390:	0e12      	lsrs	r2, r2, #24
 8003392:	71da      	strb	r2, [r3, #7]
 8003394:	f8dc 2000 	ldr.w	r2, [ip]
 8003398:	b989      	cbnz	r1, 80033be <HAL_CAN_GetRxMessage+0x106>
 800339a:	68d3      	ldr	r3, [r2, #12]
 800339c:	f043 0320 	orr.w	r3, r3, #32
 80033a0:	4608      	mov	r0, r1
 80033a2:	60d3      	str	r3, [r2, #12]
 80033a4:	bd70      	pop	{r4, r5, r6, pc}
 80033a6:	6a43      	ldr	r3, [r0, #36]	; 0x24
 80033a8:	f443 2380 	orr.w	r3, r3, #262144	; 0x40000
 80033ac:	2001      	movs	r0, #1
 80033ae:	f8cc 3024 	str.w	r3, [ip, #36]	; 0x24
 80033b2:	bd70      	pop	{r4, r5, r6, pc}
 80033b4:	f8de 51b0 	ldr.w	r5, [lr, #432]	; 0x1b0
 80033b8:	0d6d      	lsrs	r5, r5, #21
 80033ba:	6015      	str	r5, [r2, #0]
 80033bc:	e7a3      	b.n	8003306 <HAL_CAN_GetRxMessage+0x4e>
 80033be:	6913      	ldr	r3, [r2, #16]
 80033c0:	f043 0320 	orr.w	r3, r3, #32
 80033c4:	2000      	movs	r0, #0
 80033c6:	6113      	str	r3, [r2, #16]
 80033c8:	bd70      	pop	{r4, r5, r6, pc}
 80033ca:	bf00      	nop

080033cc <HAL_CAN_TxMailbox0CompleteCallback>:
 80033cc:	4770      	bx	lr
 80033ce:	bf00      	nop

080033d0 <HAL_CAN_TxMailbox1CompleteCallback>:
 80033d0:	4770      	bx	lr
 80033d2:	bf00      	nop

080033d4 <HAL_CAN_TxMailbox2CompleteCallback>:
 80033d4:	4770      	bx	lr
 80033d6:	bf00      	nop

080033d8 <HAL_CAN_TxMailbox0AbortCallback>:
 80033d8:	4770      	bx	lr
 80033da:	bf00      	nop

080033dc <HAL_CAN_TxMailbox1AbortCallback>:
 80033dc:	4770      	bx	lr
 80033de:	bf00      	nop

080033e0 <HAL_CAN_TxMailbox2AbortCallback>:
 80033e0:	4770      	bx	lr
 80033e2:	bf00      	nop

080033e4 <HAL_CAN_RxFifo0FullCallback>:
 80033e4:	4770      	bx	lr
 80033e6:	bf00      	nop

080033e8 <HAL_CAN_RxFifo1MsgPendingCallback>:
 80033e8:	4770      	bx	lr
 80033ea:	bf00      	nop

080033ec <HAL_CAN_RxFifo1FullCallback>:
 80033ec:	4770      	bx	lr
 80033ee:	bf00      	nop

080033f0 <HAL_CAN_SleepCallback>:
 80033f0:	4770      	bx	lr
 80033f2:	bf00      	nop

080033f4 <HAL_CAN_WakeUpFromRxMsgCallback>:
 80033f4:	4770      	bx	lr
 80033f6:	bf00      	nop

080033f8 <HAL_CAN_ErrorCallback>:
 80033f8:	4770      	bx	lr
 80033fa:	bf00      	nop

080033fc <HAL_CAN_IRQHandler>:
 80033fc:	e92d 4ff8 	stmdb	sp!, {r3, r4, r5, r6, r7, r8, r9, sl, fp, lr}
 8003400:	6803      	ldr	r3, [r0, #0]
 8003402:	695c      	ldr	r4, [r3, #20]
 8003404:	f8d3 8004 	ldr.w	r8, [r3, #4]
 8003408:	689f      	ldr	r7, [r3, #8]
 800340a:	f8d3 b00c 	ldr.w	fp, [r3, #12]
 800340e:	f8d3 a010 	ldr.w	sl, [r3, #16]
 8003412:	f8d3 9018 	ldr.w	r9, [r3, #24]
 8003416:	f014 0601 	ands.w	r6, r4, #1
 800341a:	4605      	mov	r5, r0
 800341c:	d025      	beq.n	800346a <HAL_CAN_IRQHandler+0x6e>
 800341e:	f017 0601 	ands.w	r6, r7, #1
 8003422:	f040 808f 	bne.w	8003544 <HAL_CAN_IRQHandler+0x148>
 8003426:	f44f 5200 	mov.w	r2, #8192	; 0x2000
 800342a:	f44f 4180 	mov.w	r1, #16384	; 0x4000
 800342e:	05f8      	lsls	r0, r7, #23
 8003430:	d50d      	bpl.n	800344e <HAL_CAN_IRQHandler+0x52>
 8003432:	682b      	ldr	r3, [r5, #0]
 8003434:	f44f 7080 	mov.w	r0, #256	; 0x100
 8003438:	6098      	str	r0, [r3, #8]
 800343a:	05bb      	lsls	r3, r7, #22
 800343c:	f100 80be 	bmi.w	80035bc <HAL_CAN_IRQHandler+0x1c0>
 8003440:	0578      	lsls	r0, r7, #21
 8003442:	f100 80e4 	bmi.w	800360e <HAL_CAN_IRQHandler+0x212>
 8003446:	053b      	lsls	r3, r7, #20
 8003448:	f140 80f0 	bpl.w	800362c <HAL_CAN_IRQHandler+0x230>
 800344c:	460e      	mov	r6, r1
 800344e:	03f8      	lsls	r0, r7, #15
 8003450:	d50b      	bpl.n	800346a <HAL_CAN_IRQHandler+0x6e>
 8003452:	682b      	ldr	r3, [r5, #0]
 8003454:	f44f 3280 	mov.w	r2, #65536	; 0x10000
 8003458:	03b9      	lsls	r1, r7, #14
 800345a:	609a      	str	r2, [r3, #8]
 800345c:	f100 80ba 	bmi.w	80035d4 <HAL_CAN_IRQHandler+0x1d8>
 8003460:	037a      	lsls	r2, r7, #13
 8003462:	f140 80cf 	bpl.w	8003604 <HAL_CAN_IRQHandler+0x208>
 8003466:	f446 4600 	orr.w	r6, r6, #32768	; 0x8000
 800346a:	0727      	lsls	r7, r4, #28
 800346c:	d502      	bpl.n	8003474 <HAL_CAN_IRQHandler+0x78>
 800346e:	f01b 0f10 	tst.w	fp, #16
 8003472:	d161      	bne.n	8003538 <HAL_CAN_IRQHandler+0x13c>
 8003474:	0760      	lsls	r0, r4, #29
 8003476:	d503      	bpl.n	8003480 <HAL_CAN_IRQHandler+0x84>
 8003478:	f01b 0f08 	tst.w	fp, #8
 800347c:	f040 808c 	bne.w	8003598 <HAL_CAN_IRQHandler+0x19c>
 8003480:	07a1      	lsls	r1, r4, #30
 8003482:	d504      	bpl.n	800348e <HAL_CAN_IRQHandler+0x92>
 8003484:	682b      	ldr	r3, [r5, #0]
 8003486:	68db      	ldr	r3, [r3, #12]
 8003488:	079a      	lsls	r2, r3, #30
 800348a:	f040 808c 	bne.w	80035a6 <HAL_CAN_IRQHandler+0x1aa>
 800348e:	0663      	lsls	r3, r4, #25
 8003490:	d502      	bpl.n	8003498 <HAL_CAN_IRQHandler+0x9c>
 8003492:	f01a 0f10 	tst.w	sl, #16
 8003496:	d149      	bne.n	800352c <HAL_CAN_IRQHandler+0x130>
 8003498:	06a7      	lsls	r7, r4, #26
 800349a:	d502      	bpl.n	80034a2 <HAL_CAN_IRQHandler+0xa6>
 800349c:	f01a 0f08 	tst.w	sl, #8
 80034a0:	d173      	bne.n	800358a <HAL_CAN_IRQHandler+0x18e>
 80034a2:	06e0      	lsls	r0, r4, #27
 80034a4:	d503      	bpl.n	80034ae <HAL_CAN_IRQHandler+0xb2>
 80034a6:	682b      	ldr	r3, [r5, #0]
 80034a8:	691b      	ldr	r3, [r3, #16]
 80034aa:	0799      	lsls	r1, r3, #30
 80034ac:	d162      	bne.n	8003574 <HAL_CAN_IRQHandler+0x178>
 80034ae:	03a2      	lsls	r2, r4, #14
 80034b0:	d502      	bpl.n	80034b8 <HAL_CAN_IRQHandler+0xbc>
 80034b2:	f018 0f10 	tst.w	r8, #16
 80034b6:	d161      	bne.n	800357c <HAL_CAN_IRQHandler+0x180>
 80034b8:	03e3      	lsls	r3, r4, #15
 80034ba:	d502      	bpl.n	80034c2 <HAL_CAN_IRQHandler+0xc6>
 80034bc:	f018 0f08 	tst.w	r8, #8
 80034c0:	d175      	bne.n	80035ae <HAL_CAN_IRQHandler+0x1b2>
 80034c2:	0427      	lsls	r7, r4, #16
 80034c4:	d505      	bpl.n	80034d2 <HAL_CAN_IRQHandler+0xd6>
 80034c6:	f018 0f04 	tst.w	r8, #4
 80034ca:	d106      	bne.n	80034da <HAL_CAN_IRQHandler+0xde>
 80034cc:	682b      	ldr	r3, [r5, #0]
 80034ce:	2204      	movs	r2, #4
 80034d0:	605a      	str	r2, [r3, #4]
 80034d2:	2e00      	cmp	r6, #0
 80034d4:	d146      	bne.n	8003564 <HAL_CAN_IRQHandler+0x168>
 80034d6:	e8bd 8ff8 	ldmia.w	sp!, {r3, r4, r5, r6, r7, r8, r9, sl, fp, pc}
 80034da:	05e0      	lsls	r0, r4, #23
 80034dc:	d504      	bpl.n	80034e8 <HAL_CAN_IRQHandler+0xec>
 80034de:	f019 0f01 	tst.w	r9, #1
 80034e2:	bf18      	it	ne
 80034e4:	f046 0601 	orrne.w	r6, r6, #1
 80034e8:	05a1      	lsls	r1, r4, #22
 80034ea:	d504      	bpl.n	80034f6 <HAL_CAN_IRQHandler+0xfa>
 80034ec:	f019 0f02 	tst.w	r9, #2
 80034f0:	bf18      	it	ne
 80034f2:	f046 0602 	orrne.w	r6, r6, #2
 80034f6:	0562      	lsls	r2, r4, #21
 80034f8:	d504      	bpl.n	8003504 <HAL_CAN_IRQHandler+0x108>
 80034fa:	f019 0f04 	tst.w	r9, #4
 80034fe:	bf18      	it	ne
 8003500:	f046 0604 	orrne.w	r6, r6, #4
 8003504:	0523      	lsls	r3, r4, #20
 8003506:	d5e1      	bpl.n	80034cc <HAL_CAN_IRQHandler+0xd0>
 8003508:	f019 0970 	ands.w	r9, r9, #112	; 0x70
 800350c:	d0de      	beq.n	80034cc <HAL_CAN_IRQHandler+0xd0>
 800350e:	f1b9 0f40 	cmp.w	r9, #64	; 0x40
 8003512:	f000 809a 	beq.w	800364a <HAL_CAN_IRQHandler+0x24e>
 8003516:	d861      	bhi.n	80035dc <HAL_CAN_IRQHandler+0x1e0>
 8003518:	f1b9 0f20 	cmp.w	r9, #32
 800351c:	f000 8083 	beq.w	8003626 <HAL_CAN_IRQHandler+0x22a>
 8003520:	f1b9 0f30 	cmp.w	r9, #48	; 0x30
 8003524:	d168      	bne.n	80035f8 <HAL_CAN_IRQHandler+0x1fc>
 8003526:	f046 0620 	orr.w	r6, r6, #32
 800352a:	e05f      	b.n	80035ec <HAL_CAN_IRQHandler+0x1f0>
 800352c:	682b      	ldr	r3, [r5, #0]
 800352e:	2210      	movs	r2, #16
 8003530:	f446 6680 	orr.w	r6, r6, #1024	; 0x400
 8003534:	611a      	str	r2, [r3, #16]
 8003536:	e7af      	b.n	8003498 <HAL_CAN_IRQHandler+0x9c>
 8003538:	682b      	ldr	r3, [r5, #0]
 800353a:	2210      	movs	r2, #16
 800353c:	f446 7600 	orr.w	r6, r6, #512	; 0x200
 8003540:	60da      	str	r2, [r3, #12]
 8003542:	e797      	b.n	8003474 <HAL_CAN_IRQHandler+0x78>
 8003544:	2201      	movs	r2, #1
 8003546:	609a      	str	r2, [r3, #8]
 8003548:	07bb      	lsls	r3, r7, #30
 800354a:	d43b      	bmi.n	80035c4 <HAL_CAN_IRQHandler+0x1c8>
 800354c:	077e      	lsls	r6, r7, #29
 800354e:	d460      	bmi.n	8003612 <HAL_CAN_IRQHandler+0x216>
 8003550:	f017 0608 	ands.w	r6, r7, #8
 8003554:	d06e      	beq.n	8003634 <HAL_CAN_IRQHandler+0x238>
 8003556:	f44f 5240 	mov.w	r2, #12288	; 0x3000
 800355a:	f44f 41a0 	mov.w	r1, #20480	; 0x5000
 800355e:	f44f 5680 	mov.w	r6, #4096	; 0x1000
 8003562:	e764      	b.n	800342e <HAL_CAN_IRQHandler+0x32>
 8003564:	6a6b      	ldr	r3, [r5, #36]	; 0x24
 8003566:	431e      	orrs	r6, r3
 8003568:	4628      	mov	r0, r5
 800356a:	626e      	str	r6, [r5, #36]	; 0x24
 800356c:	f7ff ff44 	bl	80033f8 <HAL_CAN_ErrorCallback>
 8003570:	e8bd 8ff8 	ldmia.w	sp!, {r3, r4, r5, r6, r7, r8, r9, sl, fp, pc}
 8003574:	4628      	mov	r0, r5
 8003576:	f7ff ff37 	bl	80033e8 <HAL_CAN_RxFifo1MsgPendingCallback>
 800357a:	e798      	b.n	80034ae <HAL_CAN_IRQHandler+0xb2>
 800357c:	682b      	ldr	r3, [r5, #0]
 800357e:	2210      	movs	r2, #16
 8003580:	605a      	str	r2, [r3, #4]
 8003582:	4628      	mov	r0, r5
 8003584:	f7ff ff34 	bl	80033f0 <HAL_CAN_SleepCallback>
 8003588:	e796      	b.n	80034b8 <HAL_CAN_IRQHandler+0xbc>
 800358a:	682b      	ldr	r3, [r5, #0]
 800358c:	2208      	movs	r2, #8
 800358e:	611a      	str	r2, [r3, #16]
 8003590:	4628      	mov	r0, r5
 8003592:	f7ff ff2b 	bl	80033ec <HAL_CAN_RxFifo1FullCallback>
 8003596:	e784      	b.n	80034a2 <HAL_CAN_IRQHandler+0xa6>
 8003598:	682b      	ldr	r3, [r5, #0]
 800359a:	2208      	movs	r2, #8
 800359c:	60da      	str	r2, [r3, #12]
 800359e:	4628      	mov	r0, r5
 80035a0:	f7ff ff20 	bl	80033e4 <HAL_CAN_RxFifo0FullCallback>
 80035a4:	e76c      	b.n	8003480 <HAL_CAN_IRQHandler+0x84>
 80035a6:	4628      	mov	r0, r5
 80035a8:	f7fe f86e 	bl	8001688 <HAL_CAN_RxFifo0MsgPendingCallback>
 80035ac:	e76f      	b.n	800348e <HAL_CAN_IRQHandler+0x92>
 80035ae:	682b      	ldr	r3, [r5, #0]
 80035b0:	2208      	movs	r2, #8
 80035b2:	605a      	str	r2, [r3, #4]
 80035b4:	4628      	mov	r0, r5
 80035b6:	f7ff ff1d 	bl	80033f4 <HAL_CAN_WakeUpFromRxMsgCallback>
 80035ba:	e782      	b.n	80034c2 <HAL_CAN_IRQHandler+0xc6>
 80035bc:	4628      	mov	r0, r5
 80035be:	f7ff ff07 	bl	80033d0 <HAL_CAN_TxMailbox1CompleteCallback>
 80035c2:	e744      	b.n	800344e <HAL_CAN_IRQHandler+0x52>
 80035c4:	f7ff ff02 	bl	80033cc <HAL_CAN_TxMailbox0CompleteCallback>
 80035c8:	2600      	movs	r6, #0
 80035ca:	f44f 5200 	mov.w	r2, #8192	; 0x2000
 80035ce:	f44f 4180 	mov.w	r1, #16384	; 0x4000
 80035d2:	e72c      	b.n	800342e <HAL_CAN_IRQHandler+0x32>
 80035d4:	4628      	mov	r0, r5
 80035d6:	f7ff fefd 	bl	80033d4 <HAL_CAN_TxMailbox2CompleteCallback>
 80035da:	e746      	b.n	800346a <HAL_CAN_IRQHandler+0x6e>
 80035dc:	f1b9 0f50 	cmp.w	r9, #80	; 0x50
 80035e0:	d01e      	beq.n	8003620 <HAL_CAN_IRQHandler+0x224>
 80035e2:	f1b9 0f60 	cmp.w	r9, #96	; 0x60
 80035e6:	bf08      	it	eq
 80035e8:	f446 7680 	orreq.w	r6, r6, #256	; 0x100
 80035ec:	682b      	ldr	r3, [r5, #0]
 80035ee:	699a      	ldr	r2, [r3, #24]
 80035f0:	f022 0270 	bic.w	r2, r2, #112	; 0x70
 80035f4:	619a      	str	r2, [r3, #24]
 80035f6:	e76a      	b.n	80034ce <HAL_CAN_IRQHandler+0xd2>
 80035f8:	f1b9 0f10 	cmp.w	r9, #16
 80035fc:	d1f6      	bne.n	80035ec <HAL_CAN_IRQHandler+0x1f0>
 80035fe:	f046 0608 	orr.w	r6, r6, #8
 8003602:	e7f3      	b.n	80035ec <HAL_CAN_IRQHandler+0x1f0>
 8003604:	033b      	lsls	r3, r7, #12
 8003606:	d51c      	bpl.n	8003642 <HAL_CAN_IRQHandler+0x246>
 8003608:	f446 3680 	orr.w	r6, r6, #65536	; 0x10000
 800360c:	e72d      	b.n	800346a <HAL_CAN_IRQHandler+0x6e>
 800360e:	4616      	mov	r6, r2
 8003610:	e71d      	b.n	800344e <HAL_CAN_IRQHandler+0x52>
 8003612:	f44f 5220 	mov.w	r2, #10240	; 0x2800
 8003616:	f44f 4190 	mov.w	r1, #18432	; 0x4800
 800361a:	f44f 6600 	mov.w	r6, #2048	; 0x800
 800361e:	e706      	b.n	800342e <HAL_CAN_IRQHandler+0x32>
 8003620:	f046 0680 	orr.w	r6, r6, #128	; 0x80
 8003624:	e7e2      	b.n	80035ec <HAL_CAN_IRQHandler+0x1f0>
 8003626:	f046 0610 	orr.w	r6, r6, #16
 800362a:	e7df      	b.n	80035ec <HAL_CAN_IRQHandler+0x1f0>
 800362c:	4628      	mov	r0, r5
 800362e:	f7ff fed5 	bl	80033dc <HAL_CAN_TxMailbox1AbortCallback>
 8003632:	e70c      	b.n	800344e <HAL_CAN_IRQHandler+0x52>
 8003634:	f7ff fed0 	bl	80033d8 <HAL_CAN_TxMailbox0AbortCallback>
 8003638:	f44f 5200 	mov.w	r2, #8192	; 0x2000
 800363c:	f44f 4180 	mov.w	r1, #16384	; 0x4000
 8003640:	e6f5      	b.n	800342e <HAL_CAN_IRQHandler+0x32>
 8003642:	4628      	mov	r0, r5
 8003644:	f7ff fecc 	bl	80033e0 <HAL_CAN_TxMailbox2AbortCallback>
 8003648:	e70f      	b.n	800346a <HAL_CAN_IRQHandler+0x6e>
 800364a:	f046 0640 	orr.w	r6, r6, #64	; 0x40
 800364e:	e7cd      	b.n	80035ec <HAL_CAN_IRQHandler+0x1f0>

08003650 <HAL_NVIC_SetPriorityGrouping>:
 8003650:	4907      	ldr	r1, [pc, #28]	; (8003670 <HAL_NVIC_SetPriorityGrouping+0x20>)
 8003652:	68ca      	ldr	r2, [r1, #12]
 8003654:	0203      	lsls	r3, r0, #8
 8003656:	f64f 00ff 	movw	r0, #63743	; 0xf8ff
 800365a:	f403 63e0 	and.w	r3, r3, #1792	; 0x700
 800365e:	4002      	ands	r2, r0
 8003660:	4313      	orrs	r3, r2
 8003662:	f043 63bf 	orr.w	r3, r3, #100139008	; 0x5f80000
 8003666:	f443 3300 	orr.w	r3, r3, #131072	; 0x20000
 800366a:	60cb      	str	r3, [r1, #12]
 800366c:	4770      	bx	lr
 800366e:	bf00      	nop
 8003670:	e000ed00 	.word	0xe000ed00

08003674 <HAL_NVIC_SetPriority>:
 8003674:	4b1c      	ldr	r3, [pc, #112]	; (80036e8 <HAL_NVIC_SetPriority+0x74>)
 8003676:	68db      	ldr	r3, [r3, #12]
 8003678:	f3c3 2302 	ubfx	r3, r3, #8, #3
 800367c:	b500      	push	{lr}
 800367e:	f1c3 0e07 	rsb	lr, r3, #7
 8003682:	f1be 0f04 	cmp.w	lr, #4
 8003686:	f103 0c04 	add.w	ip, r3, #4
 800368a:	bf28      	it	cs
 800368c:	f04f 0e04 	movcs.w	lr, #4
 8003690:	f1bc 0f06 	cmp.w	ip, #6
 8003694:	d91b      	bls.n	80036ce <HAL_NVIC_SetPriority+0x5a>
 8003696:	3b03      	subs	r3, #3
 8003698:	f04f 3cff 	mov.w	ip, #4294967295
 800369c:	fa0c fc03 	lsl.w	ip, ip, r3
 80036a0:	ea22 020c 	bic.w	r2, r2, ip
 80036a4:	f04f 3cff 	mov.w	ip, #4294967295
 80036a8:	fa0c fc0e 	lsl.w	ip, ip, lr
 80036ac:	ea21 010c 	bic.w	r1, r1, ip
 80036b0:	4099      	lsls	r1, r3
 80036b2:	2800      	cmp	r0, #0
 80036b4:	ea41 0102 	orr.w	r1, r1, r2
 80036b8:	db0c      	blt.n	80036d4 <HAL_NVIC_SetPriority+0x60>
 80036ba:	f100 4060 	add.w	r0, r0, #3758096384	; 0xe0000000
 80036be:	0109      	lsls	r1, r1, #4
 80036c0:	f500 4061 	add.w	r0, r0, #57600	; 0xe100
 80036c4:	b2c9      	uxtb	r1, r1
 80036c6:	f880 1300 	strb.w	r1, [r0, #768]	; 0x300
 80036ca:	f85d fb04 	ldr.w	pc, [sp], #4
 80036ce:	2200      	movs	r2, #0
 80036d0:	4613      	mov	r3, r2
 80036d2:	e7e7      	b.n	80036a4 <HAL_NVIC_SetPriority+0x30>
 80036d4:	4b05      	ldr	r3, [pc, #20]	; (80036ec <HAL_NVIC_SetPriority+0x78>)
 80036d6:	f000 000f 	and.w	r0, r0, #15
 80036da:	0109      	lsls	r1, r1, #4
 80036dc:	4403      	add	r3, r0
 80036de:	b2c9      	uxtb	r1, r1
 80036e0:	7619      	strb	r1, [r3, #24]
 80036e2:	f85d fb04 	ldr.w	pc, [sp], #4
 80036e6:	bf00      	nop
 80036e8:	e000ed00 	.word	0xe000ed00
 80036ec:	e000ecfc 	.word	0xe000ecfc

080036f0 <HAL_NVIC_EnableIRQ>:
 80036f0:	2800      	cmp	r0, #0
 80036f2:	db08      	blt.n	8003706 <HAL_NVIC_EnableIRQ+0x16>
 80036f4:	0941      	lsrs	r1, r0, #5
 80036f6:	4a04      	ldr	r2, [pc, #16]	; (8003708 <HAL_NVIC_EnableIRQ+0x18>)
 80036f8:	f000 001f 	and.w	r0, r0, #31
 80036fc:	2301      	movs	r3, #1
 80036fe:	fa03 f000 	lsl.w	r0, r3, r0
 8003702:	f842 0021 	str.w	r0, [r2, r1, lsl #2]
 8003706:	4770      	bx	lr
 8003708:	e000e100 	.word	0xe000e100

0800370c <HAL_SYSTICK_Config>:
 800370c:	3801      	subs	r0, #1
 800370e:	f1b0 7f80 	cmp.w	r0, #16777216	; 0x1000000
 8003712:	d210      	bcs.n	8003736 <HAL_SYSTICK_Config+0x2a>
 8003714:	b410      	push	{r4}
 8003716:	f04f 23e0 	mov.w	r3, #3758153728	; 0xe000e000
 800371a:	4c08      	ldr	r4, [pc, #32]	; (800373c <HAL_SYSTICK_Config+0x30>)
 800371c:	6158      	str	r0, [r3, #20]
 800371e:	f04f 0cf0 	mov.w	ip, #240	; 0xf0
 8003722:	f884 c023 	strb.w	ip, [r4, #35]	; 0x23
 8003726:	2200      	movs	r2, #0
 8003728:	2107      	movs	r1, #7
 800372a:	4610      	mov	r0, r2
 800372c:	619a      	str	r2, [r3, #24]
 800372e:	f85d 4b04 	ldr.w	r4, [sp], #4
 8003732:	6119      	str	r1, [r3, #16]
 8003734:	4770      	bx	lr
 8003736:	2001      	movs	r0, #1
 8003738:	4770      	bx	lr
 800373a:	bf00      	nop
 800373c:	e000ed00 	.word	0xe000ed00

08003740 <HAL_DMA_Init>:
 8003740:	2800      	cmp	r0, #0
 8003742:	d035      	beq.n	80037b0 <HAL_DMA_Init+0x70>
 8003744:	e9d0 3201 	ldrd	r3, r2, [r0, #4]
 8003748:	b410      	push	{r4}
 800374a:	68c4      	ldr	r4, [r0, #12]
 800374c:	6801      	ldr	r1, [r0, #0]
 800374e:	4313      	orrs	r3, r2
 8003750:	6902      	ldr	r2, [r0, #16]
 8003752:	4323      	orrs	r3, r4
 8003754:	4313      	orrs	r3, r2
 8003756:	e9d0 4205 	ldrd	r4, r2, [r0, #20]
 800375a:	4323      	orrs	r3, r4
 800375c:	4313      	orrs	r3, r2
 800375e:	69c2      	ldr	r2, [r0, #28]
 8003760:	4c14      	ldr	r4, [pc, #80]	; (80037b4 <HAL_DMA_Init+0x74>)
 8003762:	4313      	orrs	r3, r2
 8003764:	680a      	ldr	r2, [r1, #0]
 8003766:	f422 527f 	bic.w	r2, r2, #16320	; 0x3fc0
 800376a:	f022 0230 	bic.w	r2, r2, #48	; 0x30
 800376e:	4313      	orrs	r3, r2
 8003770:	42a1      	cmp	r1, r4
 8003772:	600b      	str	r3, [r1, #0]
 8003774:	d912      	bls.n	800379c <HAL_DMA_Init+0x5c>
 8003776:	4b10      	ldr	r3, [pc, #64]	; (80037b8 <HAL_DMA_Init+0x78>)
 8003778:	4a10      	ldr	r2, [pc, #64]	; (80037bc <HAL_DMA_Init+0x7c>)
 800377a:	4c11      	ldr	r4, [pc, #68]	; (80037c0 <HAL_DMA_Init+0x80>)
 800377c:	440b      	add	r3, r1
 800377e:	fba2 2303 	umull	r2, r3, r2, r3
 8003782:	091b      	lsrs	r3, r3, #4
 8003784:	009b      	lsls	r3, r3, #2
 8003786:	f44f 7180 	mov.w	r1, #256	; 0x100
 800378a:	2200      	movs	r2, #0
 800378c:	8401      	strh	r1, [r0, #32]
 800378e:	e9c0 430f 	strd	r4, r3, [r0, #60]	; 0x3c
 8003792:	6382      	str	r2, [r0, #56]	; 0x38
 8003794:	f85d 4b04 	ldr.w	r4, [sp], #4
 8003798:	4610      	mov	r0, r2
 800379a:	4770      	bx	lr
 800379c:	4b09      	ldr	r3, [pc, #36]	; (80037c4 <HAL_DMA_Init+0x84>)
 800379e:	4a07      	ldr	r2, [pc, #28]	; (80037bc <HAL_DMA_Init+0x7c>)
 80037a0:	440b      	add	r3, r1
 80037a2:	fba2 2303 	umull	r2, r3, r2, r3
 80037a6:	091b      	lsrs	r3, r3, #4
 80037a8:	f2a4 4407 	subw	r4, r4, #1031	; 0x407
 80037ac:	009b      	lsls	r3, r3, #2
 80037ae:	e7ea      	b.n	8003786 <HAL_DMA_Init+0x46>
 80037b0:	2001      	movs	r0, #1
 80037b2:	4770      	bx	lr
 80037b4:	40020407 	.word	0x40020407
 80037b8:	bffdfbf8 	.word	0xbffdfbf8
 80037bc:	cccccccd 	.word	0xcccccccd
 80037c0:	40020400 	.word	0x40020400
 80037c4:	bffdfff8 	.word	0xbffdfff8

080037c8 <HAL_DMA_Start_IT>:
 80037c8:	b470      	push	{r4, r5, r6}
 80037ca:	f890 4020 	ldrb.w	r4, [r0, #32]
 80037ce:	2c01      	cmp	r4, #1
 80037d0:	d039      	beq.n	8003846 <HAL_DMA_Start_IT+0x7e>
 80037d2:	f890 c021 	ldrb.w	ip, [r0, #33]	; 0x21
 80037d6:	2401      	movs	r4, #1
 80037d8:	45a4      	cmp	ip, r4
 80037da:	f880 4020 	strb.w	r4, [r0, #32]
 80037de:	d005      	beq.n	80037ec <HAL_DMA_Start_IT+0x24>
 80037e0:	2300      	movs	r3, #0
 80037e2:	f880 3020 	strb.w	r3, [r0, #32]
 80037e6:	bc70      	pop	{r4, r5, r6}
 80037e8:	2002      	movs	r0, #2
 80037ea:	4770      	bx	lr
 80037ec:	2502      	movs	r5, #2
 80037ee:	f880 5021 	strb.w	r5, [r0, #33]	; 0x21
 80037f2:	6804      	ldr	r4, [r0, #0]
 80037f4:	6bc6      	ldr	r6, [r0, #60]	; 0x3c
 80037f6:	2500      	movs	r5, #0
 80037f8:	6385      	str	r5, [r0, #56]	; 0x38
 80037fa:	6825      	ldr	r5, [r4, #0]
 80037fc:	f025 0501 	bic.w	r5, r5, #1
 8003800:	6025      	str	r5, [r4, #0]
 8003802:	6c05      	ldr	r5, [r0, #64]	; 0x40
 8003804:	fa0c f505 	lsl.w	r5, ip, r5
 8003808:	6075      	str	r5, [r6, #4]
 800380a:	6063      	str	r3, [r4, #4]
 800380c:	6843      	ldr	r3, [r0, #4]
 800380e:	2b10      	cmp	r3, #16
 8003810:	6ac3      	ldr	r3, [r0, #44]	; 0x2c
 8003812:	bf0b      	itete	eq
 8003814:	60a2      	streq	r2, [r4, #8]
 8003816:	60a1      	strne	r1, [r4, #8]
 8003818:	60e1      	streq	r1, [r4, #12]
 800381a:	60e2      	strne	r2, [r4, #12]
 800381c:	b153      	cbz	r3, 8003834 <HAL_DMA_Start_IT+0x6c>
 800381e:	6823      	ldr	r3, [r4, #0]
 8003820:	f043 030e 	orr.w	r3, r3, #14
 8003824:	6023      	str	r3, [r4, #0]
 8003826:	6823      	ldr	r3, [r4, #0]
 8003828:	f043 0301 	orr.w	r3, r3, #1
 800382c:	2000      	movs	r0, #0
 800382e:	6023      	str	r3, [r4, #0]
 8003830:	bc70      	pop	{r4, r5, r6}
 8003832:	4770      	bx	lr
 8003834:	6823      	ldr	r3, [r4, #0]
 8003836:	f043 030a 	orr.w	r3, r3, #10
 800383a:	6023      	str	r3, [r4, #0]
 800383c:	6823      	ldr	r3, [r4, #0]
 800383e:	f023 0304 	bic.w	r3, r3, #4
 8003842:	6023      	str	r3, [r4, #0]
 8003844:	e7ef      	b.n	8003826 <HAL_DMA_Start_IT+0x5e>
 8003846:	2002      	movs	r0, #2
 8003848:	bc70      	pop	{r4, r5, r6}
 800384a:	4770      	bx	lr

0800384c <HAL_DMA_Abort>:
 800384c:	f890 2021 	ldrb.w	r2, [r0, #33]	; 0x21
 8003850:	2a02      	cmp	r2, #2
 8003852:	4603      	mov	r3, r0
 8003854:	d006      	beq.n	8003864 <HAL_DMA_Abort+0x18>
 8003856:	2104      	movs	r1, #4
 8003858:	2200      	movs	r2, #0
 800385a:	6381      	str	r1, [r0, #56]	; 0x38
 800385c:	f880 2020 	strb.w	r2, [r0, #32]
 8003860:	2001      	movs	r0, #1
 8003862:	4770      	bx	lr
 8003864:	6802      	ldr	r2, [r0, #0]
 8003866:	6811      	ldr	r1, [r2, #0]
 8003868:	f021 010e 	bic.w	r1, r1, #14
 800386c:	b410      	push	{r4}
 800386e:	6c04      	ldr	r4, [r0, #64]	; 0x40
 8003870:	6bc0      	ldr	r0, [r0, #60]	; 0x3c
 8003872:	6011      	str	r1, [r2, #0]
 8003874:	6811      	ldr	r1, [r2, #0]
 8003876:	f021 0101 	bic.w	r1, r1, #1
 800387a:	6011      	str	r1, [r2, #0]
 800387c:	2201      	movs	r2, #1
 800387e:	40a2      	lsls	r2, r4
 8003880:	f44f 7180 	mov.w	r1, #256	; 0x100
 8003884:	6042      	str	r2, [r0, #4]
 8003886:	8419      	strh	r1, [r3, #32]
 8003888:	2000      	movs	r0, #0
 800388a:	f85d 4b04 	ldr.w	r4, [sp], #4
 800388e:	4770      	bx	lr

08003890 <HAL_DMA_Abort_IT>:
 8003890:	f890 2021 	ldrb.w	r2, [r0, #33]	; 0x21
 8003894:	2a02      	cmp	r2, #2
 8003896:	d003      	beq.n	80038a0 <HAL_DMA_Abort_IT+0x10>
 8003898:	2204      	movs	r2, #4
 800389a:	6382      	str	r2, [r0, #56]	; 0x38
 800389c:	2001      	movs	r0, #1
 800389e:	4770      	bx	lr
 80038a0:	6802      	ldr	r2, [r0, #0]
 80038a2:	6811      	ldr	r1, [r2, #0]
 80038a4:	f021 010e 	bic.w	r1, r1, #14
 80038a8:	b510      	push	{r4, lr}
 80038aa:	6bc4      	ldr	r4, [r0, #60]	; 0x3c
 80038ac:	6011      	str	r1, [r2, #0]
 80038ae:	6811      	ldr	r1, [r2, #0]
 80038b0:	f021 0101 	bic.w	r1, r1, #1
 80038b4:	6011      	str	r1, [r2, #0]
 80038b6:	6c02      	ldr	r2, [r0, #64]	; 0x40
 80038b8:	2101      	movs	r1, #1
 80038ba:	4091      	lsls	r1, r2
 80038bc:	6b42      	ldr	r2, [r0, #52]	; 0x34
 80038be:	6061      	str	r1, [r4, #4]
 80038c0:	f44f 7c80 	mov.w	ip, #256	; 0x100
 80038c4:	f8a0 c020 	strh.w	ip, [r0, #32]
 80038c8:	b112      	cbz	r2, 80038d0 <HAL_DMA_Abort_IT+0x40>
 80038ca:	4790      	blx	r2
 80038cc:	2000      	movs	r0, #0
 80038ce:	bd10      	pop	{r4, pc}
 80038d0:	4610      	mov	r0, r2
 80038d2:	bd10      	pop	{r4, pc}

080038d4 <HAL_DMA_IRQHandler>:
 80038d4:	b470      	push	{r4, r5, r6}
 80038d6:	6bc6      	ldr	r6, [r0, #60]	; 0x3c
 80038d8:	6c02      	ldr	r2, [r0, #64]	; 0x40
 80038da:	6831      	ldr	r1, [r6, #0]
 80038dc:	6804      	ldr	r4, [r0, #0]
 80038de:	2304      	movs	r3, #4
 80038e0:	4093      	lsls	r3, r2
 80038e2:	420b      	tst	r3, r1
 80038e4:	6825      	ldr	r5, [r4, #0]
 80038e6:	d00e      	beq.n	8003906 <HAL_DMA_IRQHandler+0x32>
 80038e8:	f015 0f04 	tst.w	r5, #4
 80038ec:	d00b      	beq.n	8003906 <HAL_DMA_IRQHandler+0x32>
 80038ee:	6822      	ldr	r2, [r4, #0]
 80038f0:	0692      	lsls	r2, r2, #26
 80038f2:	d403      	bmi.n	80038fc <HAL_DMA_IRQHandler+0x28>
 80038f4:	6822      	ldr	r2, [r4, #0]
 80038f6:	f022 0204 	bic.w	r2, r2, #4
 80038fa:	6022      	str	r2, [r4, #0]
 80038fc:	6ac2      	ldr	r2, [r0, #44]	; 0x2c
 80038fe:	6073      	str	r3, [r6, #4]
 8003900:	b1ca      	cbz	r2, 8003936 <HAL_DMA_IRQHandler+0x62>
 8003902:	bc70      	pop	{r4, r5, r6}
 8003904:	4710      	bx	r2
 8003906:	2302      	movs	r3, #2
 8003908:	4093      	lsls	r3, r2
 800390a:	420b      	tst	r3, r1
 800390c:	d015      	beq.n	800393a <HAL_DMA_IRQHandler+0x66>
 800390e:	f015 0f02 	tst.w	r5, #2
 8003912:	d012      	beq.n	800393a <HAL_DMA_IRQHandler+0x66>
 8003914:	6822      	ldr	r2, [r4, #0]
 8003916:	0692      	lsls	r2, r2, #26
 8003918:	d406      	bmi.n	8003928 <HAL_DMA_IRQHandler+0x54>
 800391a:	6822      	ldr	r2, [r4, #0]
 800391c:	f022 020a 	bic.w	r2, r2, #10
 8003920:	6022      	str	r2, [r4, #0]
 8003922:	2201      	movs	r2, #1
 8003924:	f880 2021 	strb.w	r2, [r0, #33]	; 0x21
 8003928:	6a82      	ldr	r2, [r0, #40]	; 0x28
 800392a:	6073      	str	r3, [r6, #4]
 800392c:	2100      	movs	r1, #0
 800392e:	f880 1020 	strb.w	r1, [r0, #32]
 8003932:	2a00      	cmp	r2, #0
 8003934:	d1e5      	bne.n	8003902 <HAL_DMA_IRQHandler+0x2e>
 8003936:	bc70      	pop	{r4, r5, r6}
 8003938:	4770      	bx	lr
 800393a:	2308      	movs	r3, #8
 800393c:	4093      	lsls	r3, r2
 800393e:	420b      	tst	r3, r1
 8003940:	d0f9      	beq.n	8003936 <HAL_DMA_IRQHandler+0x62>
 8003942:	072b      	lsls	r3, r5, #28
 8003944:	d5f7      	bpl.n	8003936 <HAL_DMA_IRQHandler+0x62>
 8003946:	6823      	ldr	r3, [r4, #0]
 8003948:	6b01      	ldr	r1, [r0, #48]	; 0x30
 800394a:	f023 030e 	bic.w	r3, r3, #14
 800394e:	6023      	str	r3, [r4, #0]
 8003950:	2301      	movs	r3, #1
 8003952:	fa03 f202 	lsl.w	r2, r3, r2
 8003956:	f44f 7480 	mov.w	r4, #256	; 0x100
 800395a:	6072      	str	r2, [r6, #4]
 800395c:	8404      	strh	r4, [r0, #32]
 800395e:	6383      	str	r3, [r0, #56]	; 0x38
 8003960:	2900      	cmp	r1, #0
 8003962:	d0e8      	beq.n	8003936 <HAL_DMA_IRQHandler+0x62>
 8003964:	bc70      	pop	{r4, r5, r6}
 8003966:	4708      	bx	r1

08003968 <HAL_FLASH_Program>:
 8003968:	e92d 4ff0 	stmdb	sp!, {r4, r5, r6, r7, r8, r9, sl, fp, lr}
 800396c:	f8df a188 	ldr.w	sl, [pc, #392]	; 8003af8 <HAL_FLASH_Program+0x190>
 8003970:	4699      	mov	r9, r3
 8003972:	f89a 3018 	ldrb.w	r3, [sl, #24]
 8003976:	2b01      	cmp	r3, #1
 8003978:	b083      	sub	sp, #12
 800397a:	f000 80ad 	beq.w	8003ad8 <HAL_FLASH_Program+0x170>
 800397e:	2301      	movs	r3, #1
 8003980:	4606      	mov	r6, r0
 8003982:	4688      	mov	r8, r1
 8003984:	4693      	mov	fp, r2
 8003986:	f88a 3018 	strb.w	r3, [sl, #24]
 800398a:	f7fe fcfb 	bl	8002384 <HAL_GetTick>
 800398e:	4d59      	ldr	r5, [pc, #356]	; (8003af4 <HAL_FLASH_Program+0x18c>)
 8003990:	4604      	mov	r4, r0
 8003992:	f24c 3750 	movw	r7, #50000	; 0xc350
 8003996:	e005      	b.n	80039a4 <HAL_FLASH_Program+0x3c>
 8003998:	f7fe fcf4 	bl	8002384 <HAL_GetTick>
 800399c:	1b00      	subs	r0, r0, r4
 800399e:	42b8      	cmp	r0, r7
 80039a0:	f200 8083 	bhi.w	8003aaa <HAL_FLASH_Program+0x142>
 80039a4:	68eb      	ldr	r3, [r5, #12]
 80039a6:	07db      	lsls	r3, r3, #31
 80039a8:	d4f6      	bmi.n	8003998 <HAL_FLASH_Program+0x30>
 80039aa:	68eb      	ldr	r3, [r5, #12]
 80039ac:	0698      	lsls	r0, r3, #26
 80039ae:	bf44      	itt	mi
 80039b0:	2320      	movmi	r3, #32
 80039b2:	60eb      	strmi	r3, [r5, #12]
 80039b4:	4b4f      	ldr	r3, [pc, #316]	; (8003af4 <HAL_FLASH_Program+0x18c>)
 80039b6:	68da      	ldr	r2, [r3, #12]
 80039b8:	06d1      	lsls	r1, r2, #27
 80039ba:	d478      	bmi.n	8003aae <HAL_FLASH_Program+0x146>
 80039bc:	68df      	ldr	r7, [r3, #12]
 80039be:	f017 0704 	ands.w	r7, r7, #4
 80039c2:	d174      	bne.n	8003aae <HAL_FLASH_Program+0x146>
 80039c4:	2e01      	cmp	r6, #1
 80039c6:	d003      	beq.n	80039d0 <HAL_FLASH_Program+0x68>
 80039c8:	2e02      	cmp	r6, #2
 80039ca:	bf0c      	ite	eq
 80039cc:	2602      	moveq	r6, #2
 80039ce:	2604      	movne	r6, #4
 80039d0:	eb08 0346 	add.w	r3, r8, r6, lsl #1
 80039d4:	4c47      	ldr	r4, [pc, #284]	; (8003af4 <HAL_FLASH_Program+0x18c>)
 80039d6:	9301      	str	r3, [sp, #4]
 80039d8:	f24c 3650 	movw	r6, #50000	; 0xc350
 80039dc:	f1c7 0220 	rsb	r2, r7, #32
 80039e0:	fa09 f202 	lsl.w	r2, r9, r2
 80039e4:	fa2b f307 	lsr.w	r3, fp, r7
 80039e8:	4313      	orrs	r3, r2
 80039ea:	2200      	movs	r2, #0
 80039ec:	f8ca 201c 	str.w	r2, [sl, #28]
 80039f0:	f1a7 0120 	sub.w	r1, r7, #32
 80039f4:	6922      	ldr	r2, [r4, #16]
 80039f6:	fa29 f101 	lsr.w	r1, r9, r1
 80039fa:	430b      	orrs	r3, r1
 80039fc:	b29b      	uxth	r3, r3
 80039fe:	f042 0201 	orr.w	r2, r2, #1
 8003a02:	6122      	str	r2, [r4, #16]
 8003a04:	f8a8 3000 	strh.w	r3, [r8]
 8003a08:	f7fe fcbc 	bl	8002384 <HAL_GetTick>
 8003a0c:	4605      	mov	r5, r0
 8003a0e:	e004      	b.n	8003a1a <HAL_FLASH_Program+0xb2>
 8003a10:	f7fe fcb8 	bl	8002384 <HAL_GetTick>
 8003a14:	1b40      	subs	r0, r0, r5
 8003a16:	42b0      	cmp	r0, r6
 8003a18:	d81f      	bhi.n	8003a5a <HAL_FLASH_Program+0xf2>
 8003a1a:	68e3      	ldr	r3, [r4, #12]
 8003a1c:	07db      	lsls	r3, r3, #31
 8003a1e:	d4f7      	bmi.n	8003a10 <HAL_FLASH_Program+0xa8>
 8003a20:	68e3      	ldr	r3, [r4, #12]
 8003a22:	0698      	lsls	r0, r3, #26
 8003a24:	bf44      	itt	mi
 8003a26:	2320      	movmi	r3, #32
 8003a28:	60e3      	strmi	r3, [r4, #12]
 8003a2a:	68e3      	ldr	r3, [r4, #12]
 8003a2c:	06d9      	lsls	r1, r3, #27
 8003a2e:	d41a      	bmi.n	8003a66 <HAL_FLASH_Program+0xfe>
 8003a30:	68e0      	ldr	r0, [r4, #12]
 8003a32:	f010 0004 	ands.w	r0, r0, #4
 8003a36:	d116      	bne.n	8003a66 <HAL_FLASH_Program+0xfe>
 8003a38:	6923      	ldr	r3, [r4, #16]
 8003a3a:	f023 0301 	bic.w	r3, r3, #1
 8003a3e:	6123      	str	r3, [r4, #16]
 8003a40:	9b01      	ldr	r3, [sp, #4]
 8003a42:	f108 0802 	add.w	r8, r8, #2
 8003a46:	4598      	cmp	r8, r3
 8003a48:	f107 0710 	add.w	r7, r7, #16
 8003a4c:	d1c6      	bne.n	80039dc <HAL_FLASH_Program+0x74>
 8003a4e:	2300      	movs	r3, #0
 8003a50:	f88a 3018 	strb.w	r3, [sl, #24]
 8003a54:	b003      	add	sp, #12
 8003a56:	e8bd 8ff0 	ldmia.w	sp!, {r4, r5, r6, r7, r8, r9, sl, fp, pc}
 8003a5a:	6923      	ldr	r3, [r4, #16]
 8003a5c:	f023 0301 	bic.w	r3, r3, #1
 8003a60:	2003      	movs	r0, #3
 8003a62:	6123      	str	r3, [r4, #16]
 8003a64:	e7f3      	b.n	8003a4e <HAL_FLASH_Program+0xe6>
 8003a66:	4b23      	ldr	r3, [pc, #140]	; (8003af4 <HAL_FLASH_Program+0x18c>)
 8003a68:	68db      	ldr	r3, [r3, #12]
 8003a6a:	f013 0310 	ands.w	r3, r3, #16
 8003a6e:	d01a      	beq.n	8003aa6 <HAL_FLASH_Program+0x13e>
 8003a70:	f8da 301c 	ldr.w	r3, [sl, #28]
 8003a74:	f043 0302 	orr.w	r3, r3, #2
 8003a78:	f8ca 301c 	str.w	r3, [sl, #28]
 8003a7c:	2114      	movs	r1, #20
 8003a7e:	2310      	movs	r3, #16
 8003a80:	4a1c      	ldr	r2, [pc, #112]	; (8003af4 <HAL_FLASH_Program+0x18c>)
 8003a82:	68d2      	ldr	r2, [r2, #12]
 8003a84:	0752      	lsls	r2, r2, #29
 8003a86:	d506      	bpl.n	8003a96 <HAL_FLASH_Program+0x12e>
 8003a88:	f8da 201c 	ldr.w	r2, [sl, #28]
 8003a8c:	f042 0201 	orr.w	r2, r2, #1
 8003a90:	460b      	mov	r3, r1
 8003a92:	f8ca 201c 	str.w	r2, [sl, #28]
 8003a96:	4a17      	ldr	r2, [pc, #92]	; (8003af4 <HAL_FLASH_Program+0x18c>)
 8003a98:	60d3      	str	r3, [r2, #12]
 8003a9a:	6913      	ldr	r3, [r2, #16]
 8003a9c:	f023 0301 	bic.w	r3, r3, #1
 8003aa0:	2001      	movs	r0, #1
 8003aa2:	6113      	str	r3, [r2, #16]
 8003aa4:	e7d3      	b.n	8003a4e <HAL_FLASH_Program+0xe6>
 8003aa6:	2104      	movs	r1, #4
 8003aa8:	e7ea      	b.n	8003a80 <HAL_FLASH_Program+0x118>
 8003aaa:	2003      	movs	r0, #3
 8003aac:	e7cf      	b.n	8003a4e <HAL_FLASH_Program+0xe6>
 8003aae:	4b11      	ldr	r3, [pc, #68]	; (8003af4 <HAL_FLASH_Program+0x18c>)
 8003ab0:	68db      	ldr	r3, [r3, #12]
 8003ab2:	f013 0310 	ands.w	r3, r3, #16
 8003ab6:	d113      	bne.n	8003ae0 <HAL_FLASH_Program+0x178>
 8003ab8:	2104      	movs	r1, #4
 8003aba:	4a0e      	ldr	r2, [pc, #56]	; (8003af4 <HAL_FLASH_Program+0x18c>)
 8003abc:	68d2      	ldr	r2, [r2, #12]
 8003abe:	0752      	lsls	r2, r2, #29
 8003ac0:	d506      	bpl.n	8003ad0 <HAL_FLASH_Program+0x168>
 8003ac2:	f8da 201c 	ldr.w	r2, [sl, #28]
 8003ac6:	f042 0201 	orr.w	r2, r2, #1
 8003aca:	460b      	mov	r3, r1
 8003acc:	f8ca 201c 	str.w	r2, [sl, #28]
 8003ad0:	4a08      	ldr	r2, [pc, #32]	; (8003af4 <HAL_FLASH_Program+0x18c>)
 8003ad2:	2001      	movs	r0, #1
 8003ad4:	60d3      	str	r3, [r2, #12]
 8003ad6:	e7ba      	b.n	8003a4e <HAL_FLASH_Program+0xe6>
 8003ad8:	2002      	movs	r0, #2
 8003ada:	b003      	add	sp, #12
 8003adc:	e8bd 8ff0 	ldmia.w	sp!, {r4, r5, r6, r7, r8, r9, sl, fp, pc}
 8003ae0:	f8da 301c 	ldr.w	r3, [sl, #28]
 8003ae4:	f043 0302 	orr.w	r3, r3, #2
 8003ae8:	f8ca 301c 	str.w	r3, [sl, #28]
 8003aec:	2114      	movs	r1, #20
 8003aee:	2310      	movs	r3, #16
 8003af0:	e7e3      	b.n	8003aba <HAL_FLASH_Program+0x152>
 8003af2:	bf00      	nop
 8003af4:	40022000 	.word	0x40022000
 8003af8:	200015a0 	.word	0x200015a0

08003afc <HAL_FLASH_Unlock>:
 8003afc:	4b06      	ldr	r3, [pc, #24]	; (8003b18 <HAL_FLASH_Unlock+0x1c>)
 8003afe:	6918      	ldr	r0, [r3, #16]
 8003b00:	f010 0080 	ands.w	r0, r0, #128	; 0x80
 8003b04:	d006      	beq.n	8003b14 <HAL_FLASH_Unlock+0x18>
 8003b06:	4905      	ldr	r1, [pc, #20]	; (8003b1c <HAL_FLASH_Unlock+0x20>)
 8003b08:	4a05      	ldr	r2, [pc, #20]	; (8003b20 <HAL_FLASH_Unlock+0x24>)
 8003b0a:	6059      	str	r1, [r3, #4]
 8003b0c:	605a      	str	r2, [r3, #4]
 8003b0e:	6918      	ldr	r0, [r3, #16]
 8003b10:	f3c0 10c0 	ubfx	r0, r0, #7, #1
 8003b14:	4770      	bx	lr
 8003b16:	bf00      	nop
 8003b18:	40022000 	.word	0x40022000
 8003b1c:	45670123 	.word	0x45670123
 8003b20:	cdef89ab 	.word	0xcdef89ab

08003b24 <HAL_FLASH_Lock>:
 8003b24:	4a03      	ldr	r2, [pc, #12]	; (8003b34 <HAL_FLASH_Lock+0x10>)
 8003b26:	6913      	ldr	r3, [r2, #16]
 8003b28:	f043 0380 	orr.w	r3, r3, #128	; 0x80
 8003b2c:	2000      	movs	r0, #0
 8003b2e:	6113      	str	r3, [r2, #16]
 8003b30:	4770      	bx	lr
 8003b32:	bf00      	nop
 8003b34:	40022000 	.word	0x40022000

08003b38 <FLASH_WaitForLastOperation>:
 8003b38:	b570      	push	{r4, r5, r6, lr}
 8003b3a:	4604      	mov	r4, r0
 8003b3c:	f7fe fc22 	bl	8002384 <HAL_GetTick>
 8003b40:	4e1e      	ldr	r6, [pc, #120]	; (8003bbc <FLASH_WaitForLastOperation+0x84>)
 8003b42:	4605      	mov	r5, r0
 8003b44:	1c60      	adds	r0, r4, #1
 8003b46:	d112      	bne.n	8003b6e <FLASH_WaitForLastOperation+0x36>
 8003b48:	4a1c      	ldr	r2, [pc, #112]	; (8003bbc <FLASH_WaitForLastOperation+0x84>)
 8003b4a:	68d3      	ldr	r3, [r2, #12]
 8003b4c:	07d9      	lsls	r1, r3, #31
 8003b4e:	d4fc      	bmi.n	8003b4a <FLASH_WaitForLastOperation+0x12>
 8003b50:	4b1a      	ldr	r3, [pc, #104]	; (8003bbc <FLASH_WaitForLastOperation+0x84>)
 8003b52:	68da      	ldr	r2, [r3, #12]
 8003b54:	0690      	lsls	r0, r2, #26
 8003b56:	bf44      	itt	mi
 8003b58:	2220      	movmi	r2, #32
 8003b5a:	60da      	strmi	r2, [r3, #12]
 8003b5c:	4b17      	ldr	r3, [pc, #92]	; (8003bbc <FLASH_WaitForLastOperation+0x84>)
 8003b5e:	68da      	ldr	r2, [r3, #12]
 8003b60:	06d1      	lsls	r1, r2, #27
 8003b62:	d40f      	bmi.n	8003b84 <FLASH_WaitForLastOperation+0x4c>
 8003b64:	68d8      	ldr	r0, [r3, #12]
 8003b66:	f010 0004 	ands.w	r0, r0, #4
 8003b6a:	d10b      	bne.n	8003b84 <FLASH_WaitForLastOperation+0x4c>
 8003b6c:	bd70      	pop	{r4, r5, r6, pc}
 8003b6e:	68f3      	ldr	r3, [r6, #12]
 8003b70:	07db      	lsls	r3, r3, #31
 8003b72:	d5ed      	bpl.n	8003b50 <FLASH_WaitForLastOperation+0x18>
 8003b74:	b124      	cbz	r4, 8003b80 <FLASH_WaitForLastOperation+0x48>
 8003b76:	f7fe fc05 	bl	8002384 <HAL_GetTick>
 8003b7a:	1b40      	subs	r0, r0, r5
 8003b7c:	42a0      	cmp	r0, r4
 8003b7e:	d9e1      	bls.n	8003b44 <FLASH_WaitForLastOperation+0xc>
 8003b80:	2003      	movs	r0, #3
 8003b82:	bd70      	pop	{r4, r5, r6, pc}
 8003b84:	4b0d      	ldr	r3, [pc, #52]	; (8003bbc <FLASH_WaitForLastOperation+0x84>)
 8003b86:	68db      	ldr	r3, [r3, #12]
 8003b88:	f013 0310 	ands.w	r3, r3, #16
 8003b8c:	d014      	beq.n	8003bb8 <FLASH_WaitForLastOperation+0x80>
 8003b8e:	490c      	ldr	r1, [pc, #48]	; (8003bc0 <FLASH_WaitForLastOperation+0x88>)
 8003b90:	69ca      	ldr	r2, [r1, #28]
 8003b92:	f042 0202 	orr.w	r2, r2, #2
 8003b96:	2014      	movs	r0, #20
 8003b98:	2310      	movs	r3, #16
 8003b9a:	61ca      	str	r2, [r1, #28]
 8003b9c:	4a07      	ldr	r2, [pc, #28]	; (8003bbc <FLASH_WaitForLastOperation+0x84>)
 8003b9e:	68d2      	ldr	r2, [r2, #12]
 8003ba0:	0752      	lsls	r2, r2, #29
 8003ba2:	d505      	bpl.n	8003bb0 <FLASH_WaitForLastOperation+0x78>
 8003ba4:	4906      	ldr	r1, [pc, #24]	; (8003bc0 <FLASH_WaitForLastOperation+0x88>)
 8003ba6:	69ca      	ldr	r2, [r1, #28]
 8003ba8:	f042 0201 	orr.w	r2, r2, #1
 8003bac:	4603      	mov	r3, r0
 8003bae:	61ca      	str	r2, [r1, #28]
 8003bb0:	4a02      	ldr	r2, [pc, #8]	; (8003bbc <FLASH_WaitForLastOperation+0x84>)
 8003bb2:	2001      	movs	r0, #1
 8003bb4:	60d3      	str	r3, [r2, #12]
 8003bb6:	bd70      	pop	{r4, r5, r6, pc}
 8003bb8:	2004      	movs	r0, #4
 8003bba:	e7ef      	b.n	8003b9c <FLASH_WaitForLastOperation+0x64>
 8003bbc:	40022000 	.word	0x40022000
 8003bc0:	200015a0 	.word	0x200015a0

08003bc4 <HAL_FLASHEx_Erase>:
 8003bc4:	e92d 43f8 	stmdb	sp!, {r3, r4, r5, r6, r7, r8, r9, lr}
 8003bc8:	4e2d      	ldr	r6, [pc, #180]	; (8003c80 <HAL_FLASHEx_Erase+0xbc>)
 8003bca:	7e33      	ldrb	r3, [r6, #24]
 8003bcc:	2b01      	cmp	r3, #1
 8003bce:	d054      	beq.n	8003c7a <HAL_FLASHEx_Erase+0xb6>
 8003bd0:	2301      	movs	r3, #1
 8003bd2:	7633      	strb	r3, [r6, #24]
 8003bd4:	6803      	ldr	r3, [r0, #0]
 8003bd6:	2b01      	cmp	r3, #1
 8003bd8:	4681      	mov	r9, r0
 8003bda:	d031      	beq.n	8003c40 <HAL_FLASHEx_Erase+0x7c>
 8003bdc:	f24c 3050 	movw	r0, #50000	; 0xc350
 8003be0:	4688      	mov	r8, r1
 8003be2:	f7ff ffa9 	bl	8003b38 <FLASH_WaitForLastOperation>
 8003be6:	4607      	mov	r7, r0
 8003be8:	bb78      	cbnz	r0, 8003c4a <HAL_FLASHEx_Erase+0x86>
 8003bea:	f04f 33ff 	mov.w	r3, #4294967295
 8003bee:	f8c8 3000 	str.w	r3, [r8]
 8003bf2:	e9d9 5301 	ldrd	r5, r3, [r9, #4]
 8003bf6:	eb05 23c3 	add.w	r3, r5, r3, lsl #11
 8003bfa:	429d      	cmp	r5, r3
 8003bfc:	d225      	bcs.n	8003c4a <HAL_FLASHEx_Erase+0x86>
 8003bfe:	4c21      	ldr	r4, [pc, #132]	; (8003c84 <HAL_FLASHEx_Erase+0xc0>)
 8003c00:	e007      	b.n	8003c12 <HAL_FLASHEx_Erase+0x4e>
 8003c02:	e9d9 3201 	ldrd	r3, r2, [r9, #4]
 8003c06:	f505 6500 	add.w	r5, r5, #2048	; 0x800
 8003c0a:	eb03 23c2 	add.w	r3, r3, r2, lsl #11
 8003c0e:	42ab      	cmp	r3, r5
 8003c10:	d91c      	bls.n	8003c4c <HAL_FLASHEx_Erase+0x88>
 8003c12:	61f7      	str	r7, [r6, #28]
 8003c14:	6923      	ldr	r3, [r4, #16]
 8003c16:	f043 0302 	orr.w	r3, r3, #2
 8003c1a:	6123      	str	r3, [r4, #16]
 8003c1c:	6165      	str	r5, [r4, #20]
 8003c1e:	6923      	ldr	r3, [r4, #16]
 8003c20:	f043 0340 	orr.w	r3, r3, #64	; 0x40
 8003c24:	6123      	str	r3, [r4, #16]
 8003c26:	f24c 3050 	movw	r0, #50000	; 0xc350
 8003c2a:	f7ff ff85 	bl	8003b38 <FLASH_WaitForLastOperation>
 8003c2e:	6923      	ldr	r3, [r4, #16]
 8003c30:	f023 0302 	bic.w	r3, r3, #2
 8003c34:	6123      	str	r3, [r4, #16]
 8003c36:	2800      	cmp	r0, #0
 8003c38:	d0e3      	beq.n	8003c02 <HAL_FLASHEx_Erase+0x3e>
 8003c3a:	f8c8 5000 	str.w	r5, [r8]
 8003c3e:	e005      	b.n	8003c4c <HAL_FLASHEx_Erase+0x88>
 8003c40:	f24c 3050 	movw	r0, #50000	; 0xc350
 8003c44:	f7ff ff78 	bl	8003b38 <FLASH_WaitForLastOperation>
 8003c48:	b120      	cbz	r0, 8003c54 <HAL_FLASHEx_Erase+0x90>
 8003c4a:	2001      	movs	r0, #1
 8003c4c:	2300      	movs	r3, #0
 8003c4e:	7633      	strb	r3, [r6, #24]
 8003c50:	e8bd 83f8 	ldmia.w	sp!, {r3, r4, r5, r6, r7, r8, r9, pc}
 8003c54:	4c0b      	ldr	r4, [pc, #44]	; (8003c84 <HAL_FLASHEx_Erase+0xc0>)
 8003c56:	61f0      	str	r0, [r6, #28]
 8003c58:	6923      	ldr	r3, [r4, #16]
 8003c5a:	f043 0304 	orr.w	r3, r3, #4
 8003c5e:	6123      	str	r3, [r4, #16]
 8003c60:	6923      	ldr	r3, [r4, #16]
 8003c62:	f043 0340 	orr.w	r3, r3, #64	; 0x40
 8003c66:	6123      	str	r3, [r4, #16]
 8003c68:	f24c 3050 	movw	r0, #50000	; 0xc350
 8003c6c:	f7ff ff64 	bl	8003b38 <FLASH_WaitForLastOperation>
 8003c70:	6923      	ldr	r3, [r4, #16]
 8003c72:	f023 0304 	bic.w	r3, r3, #4
 8003c76:	6123      	str	r3, [r4, #16]
 8003c78:	e7e8      	b.n	8003c4c <HAL_FLASHEx_Erase+0x88>
 8003c7a:	2002      	movs	r0, #2
 8003c7c:	e8bd 83f8 	ldmia.w	sp!, {r3, r4, r5, r6, r7, r8, r9, pc}
 8003c80:	200015a0 	.word	0x200015a0
 8003c84:	40022000 	.word	0x40022000

08003c88 <HAL_GPIO_Init>:
 8003c88:	e92d 4ff0 	stmdb	sp!, {r4, r5, r6, r7, r8, r9, sl, fp, lr}
 8003c8c:	680c      	ldr	r4, [r1, #0]
 8003c8e:	b085      	sub	sp, #20
 8003c90:	2c00      	cmp	r4, #0
 8003c92:	d07e      	beq.n	8003d92 <HAL_GPIO_Init+0x10a>
 8003c94:	f04f 0c00 	mov.w	ip, #0
 8003c98:	f8df a1bc 	ldr.w	sl, [pc, #444]	; 8003e58 <HAL_GPIO_Init+0x1d0>
 8003c9c:	4663      	mov	r3, ip
 8003c9e:	f04f 0b01 	mov.w	fp, #1
 8003ca2:	4689      	mov	r9, r1
 8003ca4:	fa0b f503 	lsl.w	r5, fp, r3
 8003ca8:	ea15 0804 	ands.w	r8, r5, r4
 8003cac:	d06b      	beq.n	8003d86 <HAL_GPIO_Init+0xfe>
 8003cae:	f8d9 7004 	ldr.w	r7, [r9, #4]
 8003cb2:	f007 0203 	and.w	r2, r7, #3
 8003cb6:	1e51      	subs	r1, r2, #1
 8003cb8:	2901      	cmp	r1, #1
 8003cba:	d96d      	bls.n	8003d98 <HAL_GPIO_Init+0x110>
 8003cbc:	2a03      	cmp	r2, #3
 8003cbe:	f040 80ac 	bne.w	8003e1a <HAL_GPIO_Init+0x192>
 8003cc2:	fa02 f20c 	lsl.w	r2, r2, ip
 8003cc6:	43d1      	mvns	r1, r2
 8003cc8:	6805      	ldr	r5, [r0, #0]
 8003cca:	4029      	ands	r1, r5
 8003ccc:	430a      	orrs	r2, r1
 8003cce:	f417 3f40 	tst.w	r7, #196608	; 0x30000
 8003cd2:	6002      	str	r2, [r0, #0]
 8003cd4:	d057      	beq.n	8003d86 <HAL_GPIO_Init+0xfe>
 8003cd6:	f8da 2018 	ldr.w	r2, [sl, #24]
 8003cda:	f042 0201 	orr.w	r2, r2, #1
 8003cde:	f8ca 2018 	str.w	r2, [sl, #24]
 8003ce2:	f8da 2018 	ldr.w	r2, [sl, #24]
 8003ce6:	f002 0201 	and.w	r2, r2, #1
 8003cea:	9203      	str	r2, [sp, #12]
 8003cec:	9a03      	ldr	r2, [sp, #12]
 8003cee:	f023 0203 	bic.w	r2, r3, #3
 8003cf2:	f102 4280 	add.w	r2, r2, #1073741824	; 0x40000000
 8003cf6:	f502 3280 	add.w	r2, r2, #65536	; 0x10000
 8003cfa:	f003 0103 	and.w	r1, r3, #3
 8003cfe:	6895      	ldr	r5, [r2, #8]
 8003d00:	0089      	lsls	r1, r1, #2
 8003d02:	260f      	movs	r6, #15
 8003d04:	fa06 fe01 	lsl.w	lr, r6, r1
 8003d08:	f1b0 4f90 	cmp.w	r0, #1207959552	; 0x48000000
 8003d0c:	ea25 050e 	bic.w	r5, r5, lr
 8003d10:	d015      	beq.n	8003d3e <HAL_GPIO_Init+0xb6>
 8003d12:	4e4c      	ldr	r6, [pc, #304]	; (8003e44 <HAL_GPIO_Init+0x1bc>)
 8003d14:	42b0      	cmp	r0, r6
 8003d16:	f000 808b 	beq.w	8003e30 <HAL_GPIO_Init+0x1a8>
 8003d1a:	4e4b      	ldr	r6, [pc, #300]	; (8003e48 <HAL_GPIO_Init+0x1c0>)
 8003d1c:	42b0      	cmp	r0, r6
 8003d1e:	f000 808b 	beq.w	8003e38 <HAL_GPIO_Init+0x1b0>
 8003d22:	4e4a      	ldr	r6, [pc, #296]	; (8003e4c <HAL_GPIO_Init+0x1c4>)
 8003d24:	42b0      	cmp	r0, r6
 8003d26:	d07d      	beq.n	8003e24 <HAL_GPIO_Init+0x19c>
 8003d28:	4e49      	ldr	r6, [pc, #292]	; (8003e50 <HAL_GPIO_Init+0x1c8>)
 8003d2a:	42b0      	cmp	r0, r6
 8003d2c:	bf0b      	itete	eq
 8003d2e:	f04f 0e04 	moveq.w	lr, #4
 8003d32:	2605      	movne	r6, #5
 8003d34:	fa0e f101 	lsleq.w	r1, lr, r1
 8003d38:	fa06 f101 	lslne.w	r1, r6, r1
 8003d3c:	430d      	orrs	r5, r1
 8003d3e:	6095      	str	r5, [r2, #8]
 8003d40:	4a44      	ldr	r2, [pc, #272]	; (8003e54 <HAL_GPIO_Init+0x1cc>)
 8003d42:	4944      	ldr	r1, [pc, #272]	; (8003e54 <HAL_GPIO_Init+0x1cc>)
 8003d44:	6812      	ldr	r2, [r2, #0]
 8003d46:	ea6f 0508 	mvn.w	r5, r8
 8003d4a:	03fe      	lsls	r6, r7, #15
 8003d4c:	bf54      	ite	pl
 8003d4e:	402a      	andpl	r2, r5
 8003d50:	ea48 0202 	orrmi.w	r2, r8, r2
 8003d54:	600a      	str	r2, [r1, #0]
 8003d56:	684a      	ldr	r2, [r1, #4]
 8003d58:	03b9      	lsls	r1, r7, #14
 8003d5a:	493e      	ldr	r1, [pc, #248]	; (8003e54 <HAL_GPIO_Init+0x1cc>)
 8003d5c:	bf54      	ite	pl
 8003d5e:	402a      	andpl	r2, r5
 8003d60:	ea48 0202 	orrmi.w	r2, r8, r2
 8003d64:	604a      	str	r2, [r1, #4]
 8003d66:	6889      	ldr	r1, [r1, #8]
 8003d68:	4a3a      	ldr	r2, [pc, #232]	; (8003e54 <HAL_GPIO_Init+0x1cc>)
 8003d6a:	02fe      	lsls	r6, r7, #11
 8003d6c:	bf54      	ite	pl
 8003d6e:	4029      	andpl	r1, r5
 8003d70:	ea48 0101 	orrmi.w	r1, r8, r1
 8003d74:	6091      	str	r1, [r2, #8]
 8003d76:	68d2      	ldr	r2, [r2, #12]
 8003d78:	02b9      	lsls	r1, r7, #10
 8003d7a:	4936      	ldr	r1, [pc, #216]	; (8003e54 <HAL_GPIO_Init+0x1cc>)
 8003d7c:	bf54      	ite	pl
 8003d7e:	402a      	andpl	r2, r5
 8003d80:	ea48 0202 	orrmi.w	r2, r8, r2
 8003d84:	60ca      	str	r2, [r1, #12]
 8003d86:	3301      	adds	r3, #1
 8003d88:	fa34 f203 	lsrs.w	r2, r4, r3
 8003d8c:	f10c 0c02 	add.w	ip, ip, #2
 8003d90:	d188      	bne.n	8003ca4 <HAL_GPIO_Init+0x1c>
 8003d92:	b005      	add	sp, #20
 8003d94:	e8bd 8ff0 	ldmia.w	sp!, {r4, r5, r6, r7, r8, r9, sl, fp, pc}
 8003d98:	6881      	ldr	r1, [r0, #8]
 8003d9a:	f8d9 600c 	ldr.w	r6, [r9, #12]
 8003d9e:	f04f 0e03 	mov.w	lr, #3
 8003da2:	fa0e fe0c 	lsl.w	lr, lr, ip
 8003da6:	ea21 010e 	bic.w	r1, r1, lr
 8003daa:	fa06 f60c 	lsl.w	r6, r6, ip
 8003dae:	4331      	orrs	r1, r6
 8003db0:	6081      	str	r1, [r0, #8]
 8003db2:	ea6f 010e 	mvn.w	r1, lr
 8003db6:	f8d0 e004 	ldr.w	lr, [r0, #4]
 8003dba:	ea2e 0e05 	bic.w	lr, lr, r5
 8003dbe:	f3c7 1500 	ubfx	r5, r7, #4, #1
 8003dc2:	409d      	lsls	r5, r3
 8003dc4:	ea45 050e 	orr.w	r5, r5, lr
 8003dc8:	6045      	str	r5, [r0, #4]
 8003dca:	68c5      	ldr	r5, [r0, #12]
 8003dcc:	ea05 0e01 	and.w	lr, r5, r1
 8003dd0:	f8d9 5008 	ldr.w	r5, [r9, #8]
 8003dd4:	fa05 f50c 	lsl.w	r5, r5, ip
 8003dd8:	ea45 050e 	orr.w	r5, r5, lr
 8003ddc:	2a02      	cmp	r2, #2
 8003dde:	60c5      	str	r5, [r0, #12]
 8003de0:	fa02 f20c 	lsl.w	r2, r2, ip
 8003de4:	f47f af70 	bne.w	8003cc8 <HAL_GPIO_Init+0x40>
 8003de8:	08dd      	lsrs	r5, r3, #3
 8003dea:	eb00 0585 	add.w	r5, r0, r5, lsl #2
 8003dee:	9501      	str	r5, [sp, #4]
 8003df0:	6a2e      	ldr	r6, [r5, #32]
 8003df2:	f8d9 5010 	ldr.w	r5, [r9, #16]
 8003df6:	9600      	str	r6, [sp, #0]
 8003df8:	f003 0e07 	and.w	lr, r3, #7
 8003dfc:	ea4f 0e8e 	mov.w	lr, lr, lsl #2
 8003e00:	260f      	movs	r6, #15
 8003e02:	fa05 f50e 	lsl.w	r5, r5, lr
 8003e06:	fa06 fe0e 	lsl.w	lr, r6, lr
 8003e0a:	9e00      	ldr	r6, [sp, #0]
 8003e0c:	ea26 0e0e 	bic.w	lr, r6, lr
 8003e10:	9e01      	ldr	r6, [sp, #4]
 8003e12:	ea45 050e 	orr.w	r5, r5, lr
 8003e16:	6235      	str	r5, [r6, #32]
 8003e18:	e756      	b.n	8003cc8 <HAL_GPIO_Init+0x40>
 8003e1a:	2103      	movs	r1, #3
 8003e1c:	fa01 f10c 	lsl.w	r1, r1, ip
 8003e20:	43c9      	mvns	r1, r1
 8003e22:	e7d2      	b.n	8003dca <HAL_GPIO_Init+0x142>
 8003e24:	f04f 0e03 	mov.w	lr, #3
 8003e28:	fa0e f101 	lsl.w	r1, lr, r1
 8003e2c:	430d      	orrs	r5, r1
 8003e2e:	e786      	b.n	8003d3e <HAL_GPIO_Init+0xb6>
 8003e30:	fa0b f101 	lsl.w	r1, fp, r1
 8003e34:	430d      	orrs	r5, r1
 8003e36:	e782      	b.n	8003d3e <HAL_GPIO_Init+0xb6>
 8003e38:	f04f 0e02 	mov.w	lr, #2
 8003e3c:	fa0e f101 	lsl.w	r1, lr, r1
 8003e40:	430d      	orrs	r5, r1
 8003e42:	e77c      	b.n	8003d3e <HAL_GPIO_Init+0xb6>
 8003e44:	48000400 	.word	0x48000400
 8003e48:	48000800 	.word	0x48000800
 8003e4c:	48000c00 	.word	0x48000c00
 8003e50:	48001000 	.word	0x48001000
 8003e54:	40010400 	.word	0x40010400
 8003e58:	40021000 	.word	0x40021000

08003e5c <HAL_GPIO_WritePin>:
 8003e5c:	b10a      	cbz	r2, 8003e62 <HAL_GPIO_WritePin+0x6>
 8003e5e:	6181      	str	r1, [r0, #24]
 8003e60:	4770      	bx	lr
 8003e62:	6281      	str	r1, [r0, #40]	; 0x28
 8003e64:	4770      	bx	lr
 8003e66:	bf00      	nop

08003e68 <HAL_RCC_OscConfig>:
 8003e68:	2800      	cmp	r0, #0
 8003e6a:	f000 828c 	beq.w	8004386 <HAL_RCC_OscConfig+0x51e>
 8003e6e:	e92d 43f0 	stmdb	sp!, {r4, r5, r6, r7, r8, r9, lr}
 8003e72:	6803      	ldr	r3, [r0, #0]
 8003e74:	07d9      	lsls	r1, r3, #31
 8003e76:	b083      	sub	sp, #12
 8003e78:	4604      	mov	r4, r0
 8003e7a:	d54f      	bpl.n	8003f1c <HAL_RCC_OscConfig+0xb4>
 8003e7c:	49b4      	ldr	r1, [pc, #720]	; (8004150 <HAL_RCC_OscConfig+0x2e8>)
 8003e7e:	684a      	ldr	r2, [r1, #4]
 8003e80:	f002 020c 	and.w	r2, r2, #12
 8003e84:	2a04      	cmp	r2, #4
 8003e86:	f000 816d 	beq.w	8004164 <HAL_RCC_OscConfig+0x2fc>
 8003e8a:	684a      	ldr	r2, [r1, #4]
 8003e8c:	f002 020c 	and.w	r2, r2, #12
 8003e90:	2a08      	cmp	r2, #8
 8003e92:	f000 8163 	beq.w	800415c <HAL_RCC_OscConfig+0x2f4>
 8003e96:	6863      	ldr	r3, [r4, #4]
 8003e98:	f5b3 3f80 	cmp.w	r3, #65536	; 0x10000
 8003e9c:	d017      	beq.n	8003ece <HAL_RCC_OscConfig+0x66>
 8003e9e:	2b00      	cmp	r3, #0
 8003ea0:	f000 819c 	beq.w	80041dc <HAL_RCC_OscConfig+0x374>
 8003ea4:	f5b3 2fa0 	cmp.w	r3, #327680	; 0x50000
 8003ea8:	f000 8258 	beq.w	800435c <HAL_RCC_OscConfig+0x4f4>
 8003eac:	4ba8      	ldr	r3, [pc, #672]	; (8004150 <HAL_RCC_OscConfig+0x2e8>)
 8003eae:	681a      	ldr	r2, [r3, #0]
 8003eb0:	f422 3280 	bic.w	r2, r2, #65536	; 0x10000
 8003eb4:	601a      	str	r2, [r3, #0]
 8003eb6:	681a      	ldr	r2, [r3, #0]
 8003eb8:	f422 2280 	bic.w	r2, r2, #262144	; 0x40000
 8003ebc:	601a      	str	r2, [r3, #0]
 8003ebe:	4aa4      	ldr	r2, [pc, #656]	; (8004150 <HAL_RCC_OscConfig+0x2e8>)
 8003ec0:	68a1      	ldr	r1, [r4, #8]
 8003ec2:	6ad3      	ldr	r3, [r2, #44]	; 0x2c
 8003ec4:	f023 030f 	bic.w	r3, r3, #15
 8003ec8:	430b      	orrs	r3, r1
 8003eca:	62d3      	str	r3, [r2, #44]	; 0x2c
 8003ecc:	e00a      	b.n	8003ee4 <HAL_RCC_OscConfig+0x7c>
 8003ece:	4aa0      	ldr	r2, [pc, #640]	; (8004150 <HAL_RCC_OscConfig+0x2e8>)
 8003ed0:	6813      	ldr	r3, [r2, #0]
 8003ed2:	f443 3380 	orr.w	r3, r3, #65536	; 0x10000
 8003ed6:	6013      	str	r3, [r2, #0]
 8003ed8:	6ad3      	ldr	r3, [r2, #44]	; 0x2c
 8003eda:	68a1      	ldr	r1, [r4, #8]
 8003edc:	f023 030f 	bic.w	r3, r3, #15
 8003ee0:	430b      	orrs	r3, r1
 8003ee2:	62d3      	str	r3, [r2, #44]	; 0x2c
 8003ee4:	f7fe fa4e 	bl	8002384 <HAL_GetTick>
 8003ee8:	4f99      	ldr	r7, [pc, #612]	; (8004150 <HAL_RCC_OscConfig+0x2e8>)
 8003eea:	4605      	mov	r5, r0
 8003eec:	f44f 3800 	mov.w	r8, #131072	; 0x20000
 8003ef0:	2601      	movs	r6, #1
 8003ef2:	e005      	b.n	8003f00 <HAL_RCC_OscConfig+0x98>
 8003ef4:	f7fe fa46 	bl	8002384 <HAL_GetTick>
 8003ef8:	1b40      	subs	r0, r0, r5
 8003efa:	2864      	cmp	r0, #100	; 0x64
 8003efc:	f200 816a 	bhi.w	80041d4 <HAL_RCC_OscConfig+0x36c>
 8003f00:	fa98 f3a8 	rbit	r3, r8
 8003f04:	683a      	ldr	r2, [r7, #0]
 8003f06:	fa98 f3a8 	rbit	r3, r8
 8003f0a:	fab3 f383 	clz	r3, r3
 8003f0e:	f003 031f 	and.w	r3, r3, #31
 8003f12:	fa06 f303 	lsl.w	r3, r6, r3
 8003f16:	4213      	tst	r3, r2
 8003f18:	d0ec      	beq.n	8003ef4 <HAL_RCC_OscConfig+0x8c>
 8003f1a:	6823      	ldr	r3, [r4, #0]
 8003f1c:	079f      	lsls	r7, r3, #30
 8003f1e:	d541      	bpl.n	8003fa4 <HAL_RCC_OscConfig+0x13c>
 8003f20:	4a8b      	ldr	r2, [pc, #556]	; (8004150 <HAL_RCC_OscConfig+0x2e8>)
 8003f22:	6851      	ldr	r1, [r2, #4]
 8003f24:	f011 0f0c 	tst.w	r1, #12
 8003f28:	f000 80c8 	beq.w	80040bc <HAL_RCC_OscConfig+0x254>
 8003f2c:	6851      	ldr	r1, [r2, #4]
 8003f2e:	f001 010c 	and.w	r1, r1, #12
 8003f32:	2908      	cmp	r1, #8
 8003f34:	f000 80be 	beq.w	80040b4 <HAL_RCC_OscConfig+0x24c>
 8003f38:	6922      	ldr	r2, [r4, #16]
 8003f3a:	2a00      	cmp	r2, #0
 8003f3c:	f000 81ad 	beq.w	800429a <HAL_RCC_OscConfig+0x432>
 8003f40:	2501      	movs	r5, #1
 8003f42:	fa95 f3a5 	rbit	r3, r5
 8003f46:	fab3 f383 	clz	r3, r3
 8003f4a:	f103 5384 	add.w	r3, r3, #276824064	; 0x10800000
 8003f4e:	f503 1384 	add.w	r3, r3, #1081344	; 0x108000
 8003f52:	009b      	lsls	r3, r3, #2
 8003f54:	4f7e      	ldr	r7, [pc, #504]	; (8004150 <HAL_RCC_OscConfig+0x2e8>)
 8003f56:	601d      	str	r5, [r3, #0]
 8003f58:	f7fe fa14 	bl	8002384 <HAL_GetTick>
 8003f5c:	f04f 0802 	mov.w	r8, #2
 8003f60:	4606      	mov	r6, r0
 8003f62:	e005      	b.n	8003f70 <HAL_RCC_OscConfig+0x108>
 8003f64:	f7fe fa0e 	bl	8002384 <HAL_GetTick>
 8003f68:	1b80      	subs	r0, r0, r6
 8003f6a:	2802      	cmp	r0, #2
 8003f6c:	f200 8132 	bhi.w	80041d4 <HAL_RCC_OscConfig+0x36c>
 8003f70:	fa98 f3a8 	rbit	r3, r8
 8003f74:	683a      	ldr	r2, [r7, #0]
 8003f76:	fa98 f3a8 	rbit	r3, r8
 8003f7a:	fab3 f383 	clz	r3, r3
 8003f7e:	f003 031f 	and.w	r3, r3, #31
 8003f82:	fa05 f303 	lsl.w	r3, r5, r3
 8003f86:	4213      	tst	r3, r2
 8003f88:	d0ec      	beq.n	8003f64 <HAL_RCC_OscConfig+0xfc>
 8003f8a:	6839      	ldr	r1, [r7, #0]
 8003f8c:	22f8      	movs	r2, #248	; 0xf8
 8003f8e:	fa92 f2a2 	rbit	r2, r2
 8003f92:	6963      	ldr	r3, [r4, #20]
 8003f94:	fab2 f282 	clz	r2, r2
 8003f98:	4093      	lsls	r3, r2
 8003f9a:	f021 02f8 	bic.w	r2, r1, #248	; 0xf8
 8003f9e:	4313      	orrs	r3, r2
 8003fa0:	603b      	str	r3, [r7, #0]
 8003fa2:	6823      	ldr	r3, [r4, #0]
 8003fa4:	071d      	lsls	r5, r3, #28
 8003fa6:	d421      	bmi.n	8003fec <HAL_RCC_OscConfig+0x184>
 8003fa8:	0758      	lsls	r0, r3, #29
 8003faa:	d54c      	bpl.n	8004046 <HAL_RCC_OscConfig+0x1de>
 8003fac:	4b68      	ldr	r3, [pc, #416]	; (8004150 <HAL_RCC_OscConfig+0x2e8>)
 8003fae:	69da      	ldr	r2, [r3, #28]
 8003fb0:	00d1      	lsls	r1, r2, #3
 8003fb2:	f140 80c1 	bpl.w	8004138 <HAL_RCC_OscConfig+0x2d0>
 8003fb6:	f04f 0800 	mov.w	r8, #0
 8003fba:	4d66      	ldr	r5, [pc, #408]	; (8004154 <HAL_RCC_OscConfig+0x2ec>)
 8003fbc:	682b      	ldr	r3, [r5, #0]
 8003fbe:	05da      	lsls	r2, r3, #23
 8003fc0:	f140 80f8 	bpl.w	80041b4 <HAL_RCC_OscConfig+0x34c>
 8003fc4:	68e3      	ldr	r3, [r4, #12]
 8003fc6:	2b01      	cmp	r3, #1
 8003fc8:	f000 818d 	beq.w	80042e6 <HAL_RCC_OscConfig+0x47e>
 8003fcc:	2b00      	cmp	r3, #0
 8003fce:	f000 812e 	beq.w	800422e <HAL_RCC_OscConfig+0x3c6>
 8003fd2:	2b05      	cmp	r3, #5
 8003fd4:	4b5e      	ldr	r3, [pc, #376]	; (8004150 <HAL_RCC_OscConfig+0x2e8>)
 8003fd6:	6a1a      	ldr	r2, [r3, #32]
 8003fd8:	f000 81cd 	beq.w	8004376 <HAL_RCC_OscConfig+0x50e>
 8003fdc:	f022 0201 	bic.w	r2, r2, #1
 8003fe0:	621a      	str	r2, [r3, #32]
 8003fe2:	6a1a      	ldr	r2, [r3, #32]
 8003fe4:	f022 0204 	bic.w	r2, r2, #4
 8003fe8:	621a      	str	r2, [r3, #32]
 8003fea:	e181      	b.n	80042f0 <HAL_RCC_OscConfig+0x488>
 8003fec:	69a2      	ldr	r2, [r4, #24]
 8003fee:	2a00      	cmp	r2, #0
 8003ff0:	d07b      	beq.n	80040ea <HAL_RCC_OscConfig+0x282>
 8003ff2:	2501      	movs	r5, #1
 8003ff4:	fa95 f2a5 	rbit	r2, r5
 8003ff8:	4b57      	ldr	r3, [pc, #348]	; (8004158 <HAL_RCC_OscConfig+0x2f0>)
 8003ffa:	4f55      	ldr	r7, [pc, #340]	; (8004150 <HAL_RCC_OscConfig+0x2e8>)
 8003ffc:	fab2 f282 	clz	r2, r2
 8004000:	4413      	add	r3, r2
 8004002:	009b      	lsls	r3, r3, #2
 8004004:	f04f 0802 	mov.w	r8, #2
 8004008:	601d      	str	r5, [r3, #0]
 800400a:	f7fe f9bb 	bl	8002384 <HAL_GetTick>
 800400e:	4606      	mov	r6, r0
 8004010:	e005      	b.n	800401e <HAL_RCC_OscConfig+0x1b6>
 8004012:	f7fe f9b7 	bl	8002384 <HAL_GetTick>
 8004016:	1b80      	subs	r0, r0, r6
 8004018:	2802      	cmp	r0, #2
 800401a:	f200 80db 	bhi.w	80041d4 <HAL_RCC_OscConfig+0x36c>
 800401e:	fa98 f3a8 	rbit	r3, r8
 8004022:	fa98 f3a8 	rbit	r3, r8
 8004026:	fa98 f3a8 	rbit	r3, r8
 800402a:	6a7a      	ldr	r2, [r7, #36]	; 0x24
 800402c:	fa98 f3a8 	rbit	r3, r8
 8004030:	fab3 f383 	clz	r3, r3
 8004034:	f003 031f 	and.w	r3, r3, #31
 8004038:	fa05 f303 	lsl.w	r3, r5, r3
 800403c:	4213      	tst	r3, r2
 800403e:	d0e8      	beq.n	8004012 <HAL_RCC_OscConfig+0x1aa>
 8004040:	6823      	ldr	r3, [r4, #0]
 8004042:	0758      	lsls	r0, r3, #29
 8004044:	d4b2      	bmi.n	8003fac <HAL_RCC_OscConfig+0x144>
 8004046:	69e0      	ldr	r0, [r4, #28]
 8004048:	b380      	cbz	r0, 80040ac <HAL_RCC_OscConfig+0x244>
 800404a:	4d41      	ldr	r5, [pc, #260]	; (8004150 <HAL_RCC_OscConfig+0x2e8>)
 800404c:	686b      	ldr	r3, [r5, #4]
 800404e:	f003 030c 	and.w	r3, r3, #12
 8004052:	2b08      	cmp	r3, #8
 8004054:	f000 8171 	beq.w	800433a <HAL_RCC_OscConfig+0x4d2>
 8004058:	2802      	cmp	r0, #2
 800405a:	f04f 7380 	mov.w	r3, #16777216	; 0x1000000
 800405e:	f000 8194 	beq.w	800438a <HAL_RCC_OscConfig+0x522>
 8004062:	fa93 f3a3 	rbit	r3, r3
 8004066:	fab3 f383 	clz	r3, r3
 800406a:	f103 5384 	add.w	r3, r3, #276824064	; 0x10800000
 800406e:	f503 1384 	add.w	r3, r3, #1081344	; 0x108000
 8004072:	009b      	lsls	r3, r3, #2
 8004074:	2200      	movs	r2, #0
 8004076:	601a      	str	r2, [r3, #0]
 8004078:	f7fe f984 	bl	8002384 <HAL_GetTick>
 800407c:	f04f 7700 	mov.w	r7, #33554432	; 0x2000000
 8004080:	4604      	mov	r4, r0
 8004082:	2601      	movs	r6, #1
 8004084:	e005      	b.n	8004092 <HAL_RCC_OscConfig+0x22a>
 8004086:	f7fe f97d 	bl	8002384 <HAL_GetTick>
 800408a:	1b00      	subs	r0, r0, r4
 800408c:	2802      	cmp	r0, #2
 800408e:	f200 80a1 	bhi.w	80041d4 <HAL_RCC_OscConfig+0x36c>
 8004092:	fa97 f3a7 	rbit	r3, r7
 8004096:	682a      	ldr	r2, [r5, #0]
 8004098:	fa97 f3a7 	rbit	r3, r7
 800409c:	fab3 f383 	clz	r3, r3
 80040a0:	f003 031f 	and.w	r3, r3, #31
 80040a4:	fa06 f303 	lsl.w	r3, r6, r3
 80040a8:	4213      	tst	r3, r2
 80040aa:	d1ec      	bne.n	8004086 <HAL_RCC_OscConfig+0x21e>
 80040ac:	2000      	movs	r0, #0
 80040ae:	b003      	add	sp, #12
 80040b0:	e8bd 83f0 	ldmia.w	sp!, {r4, r5, r6, r7, r8, r9, pc}
 80040b4:	6852      	ldr	r2, [r2, #4]
 80040b6:	03d6      	lsls	r6, r2, #15
 80040b8:	f53f af3e 	bmi.w	8003f38 <HAL_RCC_OscConfig+0xd0>
 80040bc:	2202      	movs	r2, #2
 80040be:	fa92 f1a2 	rbit	r1, r2
 80040c2:	4923      	ldr	r1, [pc, #140]	; (8004150 <HAL_RCC_OscConfig+0x2e8>)
 80040c4:	6808      	ldr	r0, [r1, #0]
 80040c6:	fa92 f2a2 	rbit	r2, r2
 80040ca:	fab2 f282 	clz	r2, r2
 80040ce:	f002 021f 	and.w	r2, r2, #31
 80040d2:	2101      	movs	r1, #1
 80040d4:	fa01 f202 	lsl.w	r2, r1, r2
 80040d8:	4202      	tst	r2, r0
 80040da:	d05a      	beq.n	8004192 <HAL_RCC_OscConfig+0x32a>
 80040dc:	6922      	ldr	r2, [r4, #16]
 80040de:	428a      	cmp	r2, r1
 80040e0:	d057      	beq.n	8004192 <HAL_RCC_OscConfig+0x32a>
 80040e2:	2001      	movs	r0, #1
 80040e4:	b003      	add	sp, #12
 80040e6:	e8bd 83f0 	ldmia.w	sp!, {r4, r5, r6, r7, r8, r9, pc}
 80040ea:	2601      	movs	r6, #1
 80040ec:	fa96 f1a6 	rbit	r1, r6
 80040f0:	4b19      	ldr	r3, [pc, #100]	; (8004158 <HAL_RCC_OscConfig+0x2f0>)
 80040f2:	4f17      	ldr	r7, [pc, #92]	; (8004150 <HAL_RCC_OscConfig+0x2e8>)
 80040f4:	fab1 f181 	clz	r1, r1
 80040f8:	440b      	add	r3, r1
 80040fa:	009b      	lsls	r3, r3, #2
 80040fc:	f04f 0802 	mov.w	r8, #2
 8004100:	601a      	str	r2, [r3, #0]
 8004102:	f7fe f93f 	bl	8002384 <HAL_GetTick>
 8004106:	4605      	mov	r5, r0
 8004108:	e004      	b.n	8004114 <HAL_RCC_OscConfig+0x2ac>
 800410a:	f7fe f93b 	bl	8002384 <HAL_GetTick>
 800410e:	1b40      	subs	r0, r0, r5
 8004110:	2802      	cmp	r0, #2
 8004112:	d85f      	bhi.n	80041d4 <HAL_RCC_OscConfig+0x36c>
 8004114:	fa98 f3a8 	rbit	r3, r8
 8004118:	fa98 f3a8 	rbit	r3, r8
 800411c:	fa98 f3a8 	rbit	r3, r8
 8004120:	6a7a      	ldr	r2, [r7, #36]	; 0x24
 8004122:	fa98 f3a8 	rbit	r3, r8
 8004126:	fab3 f383 	clz	r3, r3
 800412a:	f003 031f 	and.w	r3, r3, #31
 800412e:	fa06 f303 	lsl.w	r3, r6, r3
 8004132:	4213      	tst	r3, r2
 8004134:	d1e9      	bne.n	800410a <HAL_RCC_OscConfig+0x2a2>
 8004136:	e783      	b.n	8004040 <HAL_RCC_OscConfig+0x1d8>
 8004138:	69da      	ldr	r2, [r3, #28]
 800413a:	f042 5280 	orr.w	r2, r2, #268435456	; 0x10000000
 800413e:	61da      	str	r2, [r3, #28]
 8004140:	69db      	ldr	r3, [r3, #28]
 8004142:	f003 5380 	and.w	r3, r3, #268435456	; 0x10000000
 8004146:	9301      	str	r3, [sp, #4]
 8004148:	9b01      	ldr	r3, [sp, #4]
 800414a:	f04f 0801 	mov.w	r8, #1
 800414e:	e734      	b.n	8003fba <HAL_RCC_OscConfig+0x152>
 8004150:	40021000 	.word	0x40021000
 8004154:	40007000 	.word	0x40007000
 8004158:	10908120 	.word	0x10908120
 800415c:	684a      	ldr	r2, [r1, #4]
 800415e:	03d2      	lsls	r2, r2, #15
 8004160:	f57f ae99 	bpl.w	8003e96 <HAL_RCC_OscConfig+0x2e>
 8004164:	f44f 3200 	mov.w	r2, #131072	; 0x20000
 8004168:	fa92 f1a2 	rbit	r1, r2
 800416c:	49b1      	ldr	r1, [pc, #708]	; (8004434 <HAL_RCC_OscConfig+0x5cc>)
 800416e:	6808      	ldr	r0, [r1, #0]
 8004170:	fa92 f2a2 	rbit	r2, r2
 8004174:	fab2 f282 	clz	r2, r2
 8004178:	f002 021f 	and.w	r2, r2, #31
 800417c:	2101      	movs	r1, #1
 800417e:	fa01 f202 	lsl.w	r2, r1, r2
 8004182:	4202      	tst	r2, r0
 8004184:	f43f aeca 	beq.w	8003f1c <HAL_RCC_OscConfig+0xb4>
 8004188:	6862      	ldr	r2, [r4, #4]
 800418a:	2a00      	cmp	r2, #0
 800418c:	f47f aec6 	bne.w	8003f1c <HAL_RCC_OscConfig+0xb4>
 8004190:	e7a7      	b.n	80040e2 <HAL_RCC_OscConfig+0x27a>
 8004192:	4da8      	ldr	r5, [pc, #672]	; (8004434 <HAL_RCC_OscConfig+0x5cc>)
 8004194:	22f8      	movs	r2, #248	; 0xf8
 8004196:	6828      	ldr	r0, [r5, #0]
 8004198:	fa92 f2a2 	rbit	r2, r2
 800419c:	fab2 f182 	clz	r1, r2
 80041a0:	6962      	ldr	r2, [r4, #20]
 80041a2:	f020 00f8 	bic.w	r0, r0, #248	; 0xf8
 80041a6:	408a      	lsls	r2, r1
 80041a8:	4302      	orrs	r2, r0
 80041aa:	602a      	str	r2, [r5, #0]
 80041ac:	071d      	lsls	r5, r3, #28
 80041ae:	f57f aefb 	bpl.w	8003fa8 <HAL_RCC_OscConfig+0x140>
 80041b2:	e71b      	b.n	8003fec <HAL_RCC_OscConfig+0x184>
 80041b4:	682b      	ldr	r3, [r5, #0]
 80041b6:	f443 7380 	orr.w	r3, r3, #256	; 0x100
 80041ba:	602b      	str	r3, [r5, #0]
 80041bc:	f7fe f8e2 	bl	8002384 <HAL_GetTick>
 80041c0:	4606      	mov	r6, r0
 80041c2:	682b      	ldr	r3, [r5, #0]
 80041c4:	05db      	lsls	r3, r3, #23
 80041c6:	f53f aefd 	bmi.w	8003fc4 <HAL_RCC_OscConfig+0x15c>
 80041ca:	f7fe f8db 	bl	8002384 <HAL_GetTick>
 80041ce:	1b80      	subs	r0, r0, r6
 80041d0:	2864      	cmp	r0, #100	; 0x64
 80041d2:	d9f6      	bls.n	80041c2 <HAL_RCC_OscConfig+0x35a>
 80041d4:	2003      	movs	r0, #3
 80041d6:	b003      	add	sp, #12
 80041d8:	e8bd 83f0 	ldmia.w	sp!, {r4, r5, r6, r7, r8, r9, pc}
 80041dc:	4d95      	ldr	r5, [pc, #596]	; (8004434 <HAL_RCC_OscConfig+0x5cc>)
 80041de:	682b      	ldr	r3, [r5, #0]
 80041e0:	f423 3380 	bic.w	r3, r3, #65536	; 0x10000
 80041e4:	602b      	str	r3, [r5, #0]
 80041e6:	682b      	ldr	r3, [r5, #0]
 80041e8:	f423 2380 	bic.w	r3, r3, #262144	; 0x40000
 80041ec:	602b      	str	r3, [r5, #0]
 80041ee:	6aeb      	ldr	r3, [r5, #44]	; 0x2c
 80041f0:	68a2      	ldr	r2, [r4, #8]
 80041f2:	f023 030f 	bic.w	r3, r3, #15
 80041f6:	4313      	orrs	r3, r2
 80041f8:	62eb      	str	r3, [r5, #44]	; 0x2c
 80041fa:	f7fe f8c3 	bl	8002384 <HAL_GetTick>
 80041fe:	f44f 3800 	mov.w	r8, #131072	; 0x20000
 8004202:	4606      	mov	r6, r0
 8004204:	2701      	movs	r7, #1
 8004206:	e004      	b.n	8004212 <HAL_RCC_OscConfig+0x3aa>
 8004208:	f7fe f8bc 	bl	8002384 <HAL_GetTick>
 800420c:	1b80      	subs	r0, r0, r6
 800420e:	2864      	cmp	r0, #100	; 0x64
 8004210:	d8e0      	bhi.n	80041d4 <HAL_RCC_OscConfig+0x36c>
 8004212:	fa98 f3a8 	rbit	r3, r8
 8004216:	682a      	ldr	r2, [r5, #0]
 8004218:	fa98 f3a8 	rbit	r3, r8
 800421c:	fab3 f383 	clz	r3, r3
 8004220:	f003 031f 	and.w	r3, r3, #31
 8004224:	fa07 f303 	lsl.w	r3, r7, r3
 8004228:	4213      	tst	r3, r2
 800422a:	d1ed      	bne.n	8004208 <HAL_RCC_OscConfig+0x3a0>
 800422c:	e675      	b.n	8003f1a <HAL_RCC_OscConfig+0xb2>
 800422e:	4d81      	ldr	r5, [pc, #516]	; (8004434 <HAL_RCC_OscConfig+0x5cc>)
 8004230:	6a2b      	ldr	r3, [r5, #32]
 8004232:	f023 0301 	bic.w	r3, r3, #1
 8004236:	622b      	str	r3, [r5, #32]
 8004238:	6a2b      	ldr	r3, [r5, #32]
 800423a:	f023 0304 	bic.w	r3, r3, #4
 800423e:	622b      	str	r3, [r5, #32]
 8004240:	f7fe f8a0 	bl	8002384 <HAL_GetTick>
 8004244:	f04f 0902 	mov.w	r9, #2
 8004248:	4606      	mov	r6, r0
 800424a:	2701      	movs	r7, #1
 800424c:	e013      	b.n	8004276 <HAL_RCC_OscConfig+0x40e>
 800424e:	fa99 f3a9 	rbit	r3, r9
 8004252:	6a6a      	ldr	r2, [r5, #36]	; 0x24
 8004254:	fa99 f3a9 	rbit	r3, r9
 8004258:	fab3 f383 	clz	r3, r3
 800425c:	f003 031f 	and.w	r3, r3, #31
 8004260:	fa07 f303 	lsl.w	r3, r7, r3
 8004264:	4213      	tst	r3, r2
 8004266:	d00e      	beq.n	8004286 <HAL_RCC_OscConfig+0x41e>
 8004268:	f7fe f88c 	bl	8002384 <HAL_GetTick>
 800426c:	f241 3388 	movw	r3, #5000	; 0x1388
 8004270:	1b80      	subs	r0, r0, r6
 8004272:	4298      	cmp	r0, r3
 8004274:	d8ae      	bhi.n	80041d4 <HAL_RCC_OscConfig+0x36c>
 8004276:	fa99 f3a9 	rbit	r3, r9
 800427a:	fa99 f3a9 	rbit	r3, r9
 800427e:	2b00      	cmp	r3, #0
 8004280:	d0e5      	beq.n	800424e <HAL_RCC_OscConfig+0x3e6>
 8004282:	6a2a      	ldr	r2, [r5, #32]
 8004284:	e7e6      	b.n	8004254 <HAL_RCC_OscConfig+0x3ec>
 8004286:	f1b8 0f00 	cmp.w	r8, #0
 800428a:	f43f aedc 	beq.w	8004046 <HAL_RCC_OscConfig+0x1de>
 800428e:	4a69      	ldr	r2, [pc, #420]	; (8004434 <HAL_RCC_OscConfig+0x5cc>)
 8004290:	69d3      	ldr	r3, [r2, #28]
 8004292:	f023 5380 	bic.w	r3, r3, #268435456	; 0x10000000
 8004296:	61d3      	str	r3, [r2, #28]
 8004298:	e6d5      	b.n	8004046 <HAL_RCC_OscConfig+0x1de>
 800429a:	2601      	movs	r6, #1
 800429c:	fa96 f3a6 	rbit	r3, r6
 80042a0:	fab3 f383 	clz	r3, r3
 80042a4:	f103 5384 	add.w	r3, r3, #276824064	; 0x10800000
 80042a8:	f503 1384 	add.w	r3, r3, #1081344	; 0x108000
 80042ac:	009b      	lsls	r3, r3, #2
 80042ae:	4f61      	ldr	r7, [pc, #388]	; (8004434 <HAL_RCC_OscConfig+0x5cc>)
 80042b0:	601a      	str	r2, [r3, #0]
 80042b2:	f7fe f867 	bl	8002384 <HAL_GetTick>
 80042b6:	f04f 0802 	mov.w	r8, #2
 80042ba:	4605      	mov	r5, r0
 80042bc:	e004      	b.n	80042c8 <HAL_RCC_OscConfig+0x460>
 80042be:	f7fe f861 	bl	8002384 <HAL_GetTick>
 80042c2:	1b40      	subs	r0, r0, r5
 80042c4:	2802      	cmp	r0, #2
 80042c6:	d885      	bhi.n	80041d4 <HAL_RCC_OscConfig+0x36c>
 80042c8:	fa98 f3a8 	rbit	r3, r8
 80042cc:	683a      	ldr	r2, [r7, #0]
 80042ce:	fa98 f3a8 	rbit	r3, r8
 80042d2:	fab3 f383 	clz	r3, r3
 80042d6:	f003 031f 	and.w	r3, r3, #31
 80042da:	fa06 f303 	lsl.w	r3, r6, r3
 80042de:	4213      	tst	r3, r2
 80042e0:	d1ed      	bne.n	80042be <HAL_RCC_OscConfig+0x456>
 80042e2:	6823      	ldr	r3, [r4, #0]
 80042e4:	e65e      	b.n	8003fa4 <HAL_RCC_OscConfig+0x13c>
 80042e6:	4a53      	ldr	r2, [pc, #332]	; (8004434 <HAL_RCC_OscConfig+0x5cc>)
 80042e8:	6a13      	ldr	r3, [r2, #32]
 80042ea:	f043 0301 	orr.w	r3, r3, #1
 80042ee:	6213      	str	r3, [r2, #32]
 80042f0:	f7fe f848 	bl	8002384 <HAL_GetTick>
 80042f4:	4f4f      	ldr	r7, [pc, #316]	; (8004434 <HAL_RCC_OscConfig+0x5cc>)
 80042f6:	4605      	mov	r5, r0
 80042f8:	f04f 0902 	mov.w	r9, #2
 80042fc:	2601      	movs	r6, #1
 80042fe:	e014      	b.n	800432a <HAL_RCC_OscConfig+0x4c2>
 8004300:	fa99 f3a9 	rbit	r3, r9
 8004304:	6a7a      	ldr	r2, [r7, #36]	; 0x24
 8004306:	fa99 f3a9 	rbit	r3, r9
 800430a:	fab3 f383 	clz	r3, r3
 800430e:	f003 031f 	and.w	r3, r3, #31
 8004312:	fa06 f303 	lsl.w	r3, r6, r3
 8004316:	4213      	tst	r3, r2
 8004318:	d1b5      	bne.n	8004286 <HAL_RCC_OscConfig+0x41e>
 800431a:	f7fe f833 	bl	8002384 <HAL_GetTick>
 800431e:	f241 3388 	movw	r3, #5000	; 0x1388
 8004322:	1b40      	subs	r0, r0, r5
 8004324:	4298      	cmp	r0, r3
 8004326:	f63f af55 	bhi.w	80041d4 <HAL_RCC_OscConfig+0x36c>
 800432a:	fa99 f3a9 	rbit	r3, r9
 800432e:	fa99 f3a9 	rbit	r3, r9
 8004332:	2b00      	cmp	r3, #0
 8004334:	d0e4      	beq.n	8004300 <HAL_RCC_OscConfig+0x498>
 8004336:	6a3a      	ldr	r2, [r7, #32]
 8004338:	e7e5      	b.n	8004306 <HAL_RCC_OscConfig+0x49e>
 800433a:	2801      	cmp	r0, #1
 800433c:	f43f aeb7 	beq.w	80040ae <HAL_RCC_OscConfig+0x246>
 8004340:	686b      	ldr	r3, [r5, #4]
 8004342:	6a22      	ldr	r2, [r4, #32]
 8004344:	f403 3180 	and.w	r1, r3, #65536	; 0x10000
 8004348:	4291      	cmp	r1, r2
 800434a:	f47f aeca 	bne.w	80040e2 <HAL_RCC_OscConfig+0x27a>
 800434e:	6a60      	ldr	r0, [r4, #36]	; 0x24
 8004350:	f403 1370 	and.w	r3, r3, #3932160	; 0x3c0000
 8004354:	1a18      	subs	r0, r3, r0
 8004356:	bf18      	it	ne
 8004358:	2001      	movne	r0, #1
 800435a:	e6a8      	b.n	80040ae <HAL_RCC_OscConfig+0x246>
 800435c:	f103 4380 	add.w	r3, r3, #1073741824	; 0x40000000
 8004360:	f5a3 333c 	sub.w	r3, r3, #192512	; 0x2f000
 8004364:	681a      	ldr	r2, [r3, #0]
 8004366:	f442 2280 	orr.w	r2, r2, #262144	; 0x40000
 800436a:	601a      	str	r2, [r3, #0]
 800436c:	681a      	ldr	r2, [r3, #0]
 800436e:	f442 3280 	orr.w	r2, r2, #65536	; 0x10000
 8004372:	601a      	str	r2, [r3, #0]
 8004374:	e5a3      	b.n	8003ebe <HAL_RCC_OscConfig+0x56>
 8004376:	f042 0204 	orr.w	r2, r2, #4
 800437a:	621a      	str	r2, [r3, #32]
 800437c:	6a1a      	ldr	r2, [r3, #32]
 800437e:	f042 0201 	orr.w	r2, r2, #1
 8004382:	621a      	str	r2, [r3, #32]
 8004384:	e7b4      	b.n	80042f0 <HAL_RCC_OscConfig+0x488>
 8004386:	2001      	movs	r0, #1
 8004388:	4770      	bx	lr
 800438a:	fa93 f3a3 	rbit	r3, r3
 800438e:	fab3 f383 	clz	r3, r3
 8004392:	f103 5384 	add.w	r3, r3, #276824064	; 0x10800000
 8004396:	f503 1384 	add.w	r3, r3, #1081344	; 0x108000
 800439a:	009b      	lsls	r3, r3, #2
 800439c:	2200      	movs	r2, #0
 800439e:	601a      	str	r2, [r3, #0]
 80043a0:	f7fd fff0 	bl	8002384 <HAL_GetTick>
 80043a4:	f04f 7800 	mov.w	r8, #33554432	; 0x2000000
 80043a8:	4606      	mov	r6, r0
 80043aa:	2701      	movs	r7, #1
 80043ac:	e005      	b.n	80043ba <HAL_RCC_OscConfig+0x552>
 80043ae:	f7fd ffe9 	bl	8002384 <HAL_GetTick>
 80043b2:	1b80      	subs	r0, r0, r6
 80043b4:	2802      	cmp	r0, #2
 80043b6:	f63f af0d 	bhi.w	80041d4 <HAL_RCC_OscConfig+0x36c>
 80043ba:	fa98 f3a8 	rbit	r3, r8
 80043be:	682a      	ldr	r2, [r5, #0]
 80043c0:	fa98 f3a8 	rbit	r3, r8
 80043c4:	fab3 f383 	clz	r3, r3
 80043c8:	f003 031f 	and.w	r3, r3, #31
 80043cc:	fa07 f303 	lsl.w	r3, r7, r3
 80043d0:	4213      	tst	r3, r2
 80043d2:	d1ec      	bne.n	80043ae <HAL_RCC_OscConfig+0x546>
 80043d4:	e9d4 1308 	ldrd	r1, r3, [r4, #32]
 80043d8:	686a      	ldr	r2, [r5, #4]
 80043da:	430b      	orrs	r3, r1
 80043dc:	f422 1274 	bic.w	r2, r2, #3997696	; 0x3d0000
 80043e0:	4313      	orrs	r3, r2
 80043e2:	606b      	str	r3, [r5, #4]
 80043e4:	f04f 7380 	mov.w	r3, #16777216	; 0x1000000
 80043e8:	fa93 f3a3 	rbit	r3, r3
 80043ec:	fab3 f383 	clz	r3, r3
 80043f0:	f103 5384 	add.w	r3, r3, #276824064	; 0x10800000
 80043f4:	f503 1384 	add.w	r3, r3, #1081344	; 0x108000
 80043f8:	009b      	lsls	r3, r3, #2
 80043fa:	4d0e      	ldr	r5, [pc, #56]	; (8004434 <HAL_RCC_OscConfig+0x5cc>)
 80043fc:	601f      	str	r7, [r3, #0]
 80043fe:	f7fd ffc1 	bl	8002384 <HAL_GetTick>
 8004402:	f04f 7700 	mov.w	r7, #33554432	; 0x2000000
 8004406:	4604      	mov	r4, r0
 8004408:	2601      	movs	r6, #1
 800440a:	e005      	b.n	8004418 <HAL_RCC_OscConfig+0x5b0>
 800440c:	f7fd ffba 	bl	8002384 <HAL_GetTick>
 8004410:	1b00      	subs	r0, r0, r4
 8004412:	2802      	cmp	r0, #2
 8004414:	f63f aede 	bhi.w	80041d4 <HAL_RCC_OscConfig+0x36c>
 8004418:	fa97 f3a7 	rbit	r3, r7
 800441c:	682a      	ldr	r2, [r5, #0]
 800441e:	fa97 f3a7 	rbit	r3, r7
 8004422:	fab3 f383 	clz	r3, r3
 8004426:	f003 031f 	and.w	r3, r3, #31
 800442a:	fa06 f303 	lsl.w	r3, r6, r3
 800442e:	4213      	tst	r3, r2
 8004430:	d0ec      	beq.n	800440c <HAL_RCC_OscConfig+0x5a4>
 8004432:	e63b      	b.n	80040ac <HAL_RCC_OscConfig+0x244>
 8004434:	40021000 	.word	0x40021000

08004438 <HAL_RCC_ClockConfig>:
 8004438:	2800      	cmp	r0, #0
 800443a:	f000 80c8 	beq.w	80045ce <HAL_RCC_ClockConfig+0x196>
 800443e:	4a6f      	ldr	r2, [pc, #444]	; (80045fc <HAL_RCC_ClockConfig+0x1c4>)
 8004440:	6813      	ldr	r3, [r2, #0]
 8004442:	f003 0307 	and.w	r3, r3, #7
 8004446:	428b      	cmp	r3, r1
 8004448:	e92d 41f0 	stmdb	sp!, {r4, r5, r6, r7, r8, lr}
 800444c:	460d      	mov	r5, r1
 800444e:	4604      	mov	r4, r0
 8004450:	d20c      	bcs.n	800446c <HAL_RCC_ClockConfig+0x34>
 8004452:	6813      	ldr	r3, [r2, #0]
 8004454:	f023 0307 	bic.w	r3, r3, #7
 8004458:	430b      	orrs	r3, r1
 800445a:	6013      	str	r3, [r2, #0]
 800445c:	6813      	ldr	r3, [r2, #0]
 800445e:	f003 0307 	and.w	r3, r3, #7
 8004462:	428b      	cmp	r3, r1
 8004464:	d002      	beq.n	800446c <HAL_RCC_ClockConfig+0x34>
 8004466:	2001      	movs	r0, #1
 8004468:	e8bd 81f0 	ldmia.w	sp!, {r4, r5, r6, r7, r8, pc}
 800446c:	6823      	ldr	r3, [r4, #0]
 800446e:	079f      	lsls	r7, r3, #30
 8004470:	d506      	bpl.n	8004480 <HAL_RCC_ClockConfig+0x48>
 8004472:	4963      	ldr	r1, [pc, #396]	; (8004600 <HAL_RCC_ClockConfig+0x1c8>)
 8004474:	68a0      	ldr	r0, [r4, #8]
 8004476:	684a      	ldr	r2, [r1, #4]
 8004478:	f022 02f0 	bic.w	r2, r2, #240	; 0xf0
 800447c:	4302      	orrs	r2, r0
 800447e:	604a      	str	r2, [r1, #4]
 8004480:	07de      	lsls	r6, r3, #31
 8004482:	d52f      	bpl.n	80044e4 <HAL_RCC_ClockConfig+0xac>
 8004484:	6861      	ldr	r1, [r4, #4]
 8004486:	2901      	cmp	r1, #1
 8004488:	f000 80a3 	beq.w	80045d2 <HAL_RCC_ClockConfig+0x19a>
 800448c:	2902      	cmp	r1, #2
 800448e:	f000 808b 	beq.w	80045a8 <HAL_RCC_ClockConfig+0x170>
 8004492:	2202      	movs	r2, #2
 8004494:	fa92 f3a2 	rbit	r3, r2
 8004498:	4b59      	ldr	r3, [pc, #356]	; (8004600 <HAL_RCC_ClockConfig+0x1c8>)
 800449a:	6818      	ldr	r0, [r3, #0]
 800449c:	fa92 f2a2 	rbit	r2, r2
 80044a0:	fab2 f282 	clz	r2, r2
 80044a4:	f002 021f 	and.w	r2, r2, #31
 80044a8:	2301      	movs	r3, #1
 80044aa:	fa03 f202 	lsl.w	r2, r3, r2
 80044ae:	4202      	tst	r2, r0
 80044b0:	d0d9      	beq.n	8004466 <HAL_RCC_ClockConfig+0x2e>
 80044b2:	4e53      	ldr	r6, [pc, #332]	; (8004600 <HAL_RCC_ClockConfig+0x1c8>)
 80044b4:	6873      	ldr	r3, [r6, #4]
 80044b6:	f023 0303 	bic.w	r3, r3, #3
 80044ba:	430b      	orrs	r3, r1
 80044bc:	6073      	str	r3, [r6, #4]
 80044be:	f7fd ff61 	bl	8002384 <HAL_GetTick>
 80044c2:	f241 3888 	movw	r8, #5000	; 0x1388
 80044c6:	4607      	mov	r7, r0
 80044c8:	e005      	b.n	80044d6 <HAL_RCC_ClockConfig+0x9e>
 80044ca:	f7fd ff5b 	bl	8002384 <HAL_GetTick>
 80044ce:	1bc0      	subs	r0, r0, r7
 80044d0:	4540      	cmp	r0, r8
 80044d2:	f200 8090 	bhi.w	80045f6 <HAL_RCC_ClockConfig+0x1be>
 80044d6:	6873      	ldr	r3, [r6, #4]
 80044d8:	6862      	ldr	r2, [r4, #4]
 80044da:	f003 030c 	and.w	r3, r3, #12
 80044de:	ebb3 0f82 	cmp.w	r3, r2, lsl #2
 80044e2:	d1f2      	bne.n	80044ca <HAL_RCC_ClockConfig+0x92>
 80044e4:	4a45      	ldr	r2, [pc, #276]	; (80045fc <HAL_RCC_ClockConfig+0x1c4>)
 80044e6:	6813      	ldr	r3, [r2, #0]
 80044e8:	f003 0307 	and.w	r3, r3, #7
 80044ec:	42ab      	cmp	r3, r5
 80044ee:	d909      	bls.n	8004504 <HAL_RCC_ClockConfig+0xcc>
 80044f0:	6813      	ldr	r3, [r2, #0]
 80044f2:	f023 0307 	bic.w	r3, r3, #7
 80044f6:	432b      	orrs	r3, r5
 80044f8:	6013      	str	r3, [r2, #0]
 80044fa:	6813      	ldr	r3, [r2, #0]
 80044fc:	f003 0307 	and.w	r3, r3, #7
 8004500:	42ab      	cmp	r3, r5
 8004502:	d1b0      	bne.n	8004466 <HAL_RCC_ClockConfig+0x2e>
 8004504:	6823      	ldr	r3, [r4, #0]
 8004506:	0758      	lsls	r0, r3, #29
 8004508:	d506      	bpl.n	8004518 <HAL_RCC_ClockConfig+0xe0>
 800450a:	493d      	ldr	r1, [pc, #244]	; (8004600 <HAL_RCC_ClockConfig+0x1c8>)
 800450c:	68e0      	ldr	r0, [r4, #12]
 800450e:	684a      	ldr	r2, [r1, #4]
 8004510:	f422 62e0 	bic.w	r2, r2, #1792	; 0x700
 8004514:	4302      	orrs	r2, r0
 8004516:	604a      	str	r2, [r1, #4]
 8004518:	0719      	lsls	r1, r3, #28
 800451a:	d507      	bpl.n	800452c <HAL_RCC_ClockConfig+0xf4>
 800451c:	4a38      	ldr	r2, [pc, #224]	; (8004600 <HAL_RCC_ClockConfig+0x1c8>)
 800451e:	6921      	ldr	r1, [r4, #16]
 8004520:	6853      	ldr	r3, [r2, #4]
 8004522:	f423 5360 	bic.w	r3, r3, #14336	; 0x3800
 8004526:	ea43 03c1 	orr.w	r3, r3, r1, lsl #3
 800452a:	6053      	str	r3, [r2, #4]
 800452c:	4934      	ldr	r1, [pc, #208]	; (8004600 <HAL_RCC_ClockConfig+0x1c8>)
 800452e:	684a      	ldr	r2, [r1, #4]
 8004530:	f002 030c 	and.w	r3, r2, #12
 8004534:	2b08      	cmp	r3, #8
 8004536:	d017      	beq.n	8004568 <HAL_RCC_ClockConfig+0x130>
 8004538:	4932      	ldr	r1, [pc, #200]	; (8004604 <HAL_RCC_ClockConfig+0x1cc>)
 800453a:	4b31      	ldr	r3, [pc, #196]	; (8004600 <HAL_RCC_ClockConfig+0x1c8>)
 800453c:	22f0      	movs	r2, #240	; 0xf0
 800453e:	685b      	ldr	r3, [r3, #4]
 8004540:	fa92 f2a2 	rbit	r2, r2
 8004544:	fab2 f282 	clz	r2, r2
 8004548:	f003 03f0 	and.w	r3, r3, #240	; 0xf0
 800454c:	40d3      	lsrs	r3, r2
 800454e:	4a2e      	ldr	r2, [pc, #184]	; (8004608 <HAL_RCC_ClockConfig+0x1d0>)
 8004550:	482e      	ldr	r0, [pc, #184]	; (800460c <HAL_RCC_ClockConfig+0x1d4>)
 8004552:	5cd3      	ldrb	r3, [r2, r3]
 8004554:	4a2e      	ldr	r2, [pc, #184]	; (8004610 <HAL_RCC_ClockConfig+0x1d8>)
 8004556:	6800      	ldr	r0, [r0, #0]
 8004558:	fa21 f303 	lsr.w	r3, r1, r3
 800455c:	6013      	str	r3, [r2, #0]
 800455e:	f7fd fecf 	bl	8002300 <HAL_InitTick>
 8004562:	2000      	movs	r0, #0
 8004564:	e8bd 81f0 	ldmia.w	sp!, {r4, r5, r6, r7, r8, pc}
 8004568:	f44f 1370 	mov.w	r3, #3932160	; 0x3c0000
 800456c:	fa93 f3a3 	rbit	r3, r3
 8004570:	f402 1070 	and.w	r0, r2, #3932160	; 0x3c0000
 8004574:	fab3 f383 	clz	r3, r3
 8004578:	4c26      	ldr	r4, [pc, #152]	; (8004614 <HAL_RCC_ClockConfig+0x1dc>)
 800457a:	6ac9      	ldr	r1, [r1, #44]	; 0x2c
 800457c:	fa20 f303 	lsr.w	r3, r0, r3
 8004580:	200f      	movs	r0, #15
 8004582:	5ce3      	ldrb	r3, [r4, r3]
 8004584:	fa90 f0a0 	rbit	r0, r0
 8004588:	fab0 f080 	clz	r0, r0
 800458c:	f001 010f 	and.w	r1, r1, #15
 8004590:	40c1      	lsrs	r1, r0
 8004592:	4c21      	ldr	r4, [pc, #132]	; (8004618 <HAL_RCC_ClockConfig+0x1e0>)
 8004594:	03d2      	lsls	r2, r2, #15
 8004596:	5c60      	ldrb	r0, [r4, r1]
 8004598:	bf4a      	itet	mi
 800459a:	491a      	ldrmi	r1, [pc, #104]	; (8004604 <HAL_RCC_ClockConfig+0x1cc>)
 800459c:	491f      	ldrpl	r1, [pc, #124]	; (800461c <HAL_RCC_ClockConfig+0x1e4>)
 800459e:	fbb1 f1f0 	udivmi	r1, r1, r0
 80045a2:	fb03 f101 	mul.w	r1, r3, r1
 80045a6:	e7c8      	b.n	800453a <HAL_RCC_ClockConfig+0x102>
 80045a8:	f04f 7300 	mov.w	r3, #33554432	; 0x2000000
 80045ac:	fa93 f2a3 	rbit	r2, r3
 80045b0:	4a13      	ldr	r2, [pc, #76]	; (8004600 <HAL_RCC_ClockConfig+0x1c8>)
 80045b2:	6810      	ldr	r0, [r2, #0]
 80045b4:	fa93 f3a3 	rbit	r3, r3
 80045b8:	fab3 f383 	clz	r3, r3
 80045bc:	f003 031f 	and.w	r3, r3, #31
 80045c0:	2201      	movs	r2, #1
 80045c2:	fa02 f303 	lsl.w	r3, r2, r3
 80045c6:	4203      	tst	r3, r0
 80045c8:	f47f af73 	bne.w	80044b2 <HAL_RCC_ClockConfig+0x7a>
 80045cc:	e74b      	b.n	8004466 <HAL_RCC_ClockConfig+0x2e>
 80045ce:	2001      	movs	r0, #1
 80045d0:	4770      	bx	lr
 80045d2:	f44f 3200 	mov.w	r2, #131072	; 0x20000
 80045d6:	fa92 f3a2 	rbit	r3, r2
 80045da:	4b09      	ldr	r3, [pc, #36]	; (8004600 <HAL_RCC_ClockConfig+0x1c8>)
 80045dc:	681b      	ldr	r3, [r3, #0]
 80045de:	fa92 f2a2 	rbit	r2, r2
 80045e2:	fab2 f282 	clz	r2, r2
 80045e6:	f002 021f 	and.w	r2, r2, #31
 80045ea:	fa01 f202 	lsl.w	r2, r1, r2
 80045ee:	421a      	tst	r2, r3
 80045f0:	f47f af5f 	bne.w	80044b2 <HAL_RCC_ClockConfig+0x7a>
 80045f4:	e737      	b.n	8004466 <HAL_RCC_ClockConfig+0x2e>
 80045f6:	2003      	movs	r0, #3
 80045f8:	e736      	b.n	8004468 <HAL_RCC_ClockConfig+0x30>
 80045fa:	bf00      	nop
 80045fc:	40022000 	.word	0x40022000
 8004600:	40021000 	.word	0x40021000
 8004604:	007a1200 	.word	0x007a1200
 8004608:	0800b678 	.word	0x0800b678
 800460c:	2000000c 	.word	0x2000000c
 8004610:	20000004 	.word	0x20000004
 8004614:	0800b690 	.word	0x0800b690
 8004618:	0800b6a0 	.word	0x0800b6a0
 800461c:	003d0900 	.word	0x003d0900

08004620 <HAL_RCC_GetSysClockFreq>:
 8004620:	4915      	ldr	r1, [pc, #84]	; (8004678 <HAL_RCC_GetSysClockFreq+0x58>)
 8004622:	684b      	ldr	r3, [r1, #4]
 8004624:	f003 020c 	and.w	r2, r3, #12
 8004628:	2a08      	cmp	r2, #8
 800462a:	d001      	beq.n	8004630 <HAL_RCC_GetSysClockFreq+0x10>
 800462c:	4813      	ldr	r0, [pc, #76]	; (800467c <HAL_RCC_GetSysClockFreq+0x5c>)
 800462e:	4770      	bx	lr
 8004630:	b410      	push	{r4}
 8004632:	f44f 1270 	mov.w	r2, #3932160	; 0x3c0000
 8004636:	fa92 f2a2 	rbit	r2, r2
 800463a:	fab2 f282 	clz	r2, r2
 800463e:	f403 1070 	and.w	r0, r3, #3932160	; 0x3c0000
 8004642:	4c0f      	ldr	r4, [pc, #60]	; (8004680 <HAL_RCC_GetSysClockFreq+0x60>)
 8004644:	40d0      	lsrs	r0, r2
 8004646:	6aca      	ldr	r2, [r1, #44]	; 0x2c
 8004648:	5c20      	ldrb	r0, [r4, r0]
 800464a:	210f      	movs	r1, #15
 800464c:	fa91 f1a1 	rbit	r1, r1
 8004650:	03db      	lsls	r3, r3, #15
 8004652:	fab1 f181 	clz	r1, r1
 8004656:	f002 020f 	and.w	r2, r2, #15
 800465a:	4c0a      	ldr	r4, [pc, #40]	; (8004684 <HAL_RCC_GetSysClockFreq+0x64>)
 800465c:	bf4c      	ite	mi
 800465e:	4b07      	ldrmi	r3, [pc, #28]	; (800467c <HAL_RCC_GetSysClockFreq+0x5c>)
 8004660:	4b09      	ldrpl	r3, [pc, #36]	; (8004688 <HAL_RCC_GetSysClockFreq+0x68>)
 8004662:	fa22 f201 	lsr.w	r2, r2, r1
 8004666:	5ca2      	ldrb	r2, [r4, r2]
 8004668:	f85d 4b04 	ldr.w	r4, [sp], #4
 800466c:	bf48      	it	mi
 800466e:	fbb3 f3f2 	udivmi	r3, r3, r2
 8004672:	fb03 f000 	mul.w	r0, r3, r0
 8004676:	4770      	bx	lr
 8004678:	40021000 	.word	0x40021000
 800467c:	007a1200 	.word	0x007a1200
 8004680:	0800b690 	.word	0x0800b690
 8004684:	0800b6a0 	.word	0x0800b6a0
 8004688:	003d0900 	.word	0x003d0900

0800468c <HAL_RCC_GetPCLK1Freq>:
 800468c:	4b08      	ldr	r3, [pc, #32]	; (80046b0 <HAL_RCC_GetPCLK1Freq+0x24>)
 800468e:	f44f 62e0 	mov.w	r2, #1792	; 0x700
 8004692:	685b      	ldr	r3, [r3, #4]
 8004694:	fa92 f2a2 	rbit	r2, r2
 8004698:	fab2 f282 	clz	r2, r2
 800469c:	f403 63e0 	and.w	r3, r3, #1792	; 0x700
 80046a0:	4904      	ldr	r1, [pc, #16]	; (80046b4 <HAL_RCC_GetPCLK1Freq+0x28>)
 80046a2:	4805      	ldr	r0, [pc, #20]	; (80046b8 <HAL_RCC_GetPCLK1Freq+0x2c>)
 80046a4:	40d3      	lsrs	r3, r2
 80046a6:	6800      	ldr	r0, [r0, #0]
 80046a8:	5ccb      	ldrb	r3, [r1, r3]
 80046aa:	40d8      	lsrs	r0, r3
 80046ac:	4770      	bx	lr
 80046ae:	bf00      	nop
 80046b0:	40021000 	.word	0x40021000
 80046b4:	0800b688 	.word	0x0800b688
 80046b8:	20000004 	.word	0x20000004

080046bc <HAL_RCC_GetPCLK2Freq>:
 80046bc:	4b08      	ldr	r3, [pc, #32]	; (80046e0 <HAL_RCC_GetPCLK2Freq+0x24>)
 80046be:	f44f 5260 	mov.w	r2, #14336	; 0x3800
 80046c2:	685b      	ldr	r3, [r3, #4]
 80046c4:	fa92 f2a2 	rbit	r2, r2
 80046c8:	fab2 f282 	clz	r2, r2
 80046cc:	f403 5360 	and.w	r3, r3, #14336	; 0x3800
 80046d0:	4904      	ldr	r1, [pc, #16]	; (80046e4 <HAL_RCC_GetPCLK2Freq+0x28>)
 80046d2:	4805      	ldr	r0, [pc, #20]	; (80046e8 <HAL_RCC_GetPCLK2Freq+0x2c>)
 80046d4:	40d3      	lsrs	r3, r2
 80046d6:	6800      	ldr	r0, [r0, #0]
 80046d8:	5ccb      	ldrb	r3, [r1, r3]
 80046da:	40d8      	lsrs	r0, r3
 80046dc:	4770      	bx	lr
 80046de:	bf00      	nop
 80046e0:	40021000 	.word	0x40021000
 80046e4:	0800b688 	.word	0x0800b688
 80046e8:	20000004 	.word	0x20000004

080046ec <HAL_RCCEx_PeriphCLKConfig>:
 80046ec:	e92d 43f0 	stmdb	sp!, {r4, r5, r6, r7, r8, r9, lr}
 80046f0:	6803      	ldr	r3, [r0, #0]
 80046f2:	03dd      	lsls	r5, r3, #15
 80046f4:	b083      	sub	sp, #12
 80046f6:	4604      	mov	r4, r0
 80046f8:	d540      	bpl.n	800477c <HAL_RCCEx_PeriphCLKConfig+0x90>
 80046fa:	4b84      	ldr	r3, [pc, #528]	; (800490c <HAL_RCCEx_PeriphCLKConfig+0x220>)
 80046fc:	69da      	ldr	r2, [r3, #28]
 80046fe:	00d0      	lsls	r0, r2, #3
 8004700:	f140 80ba 	bpl.w	8004878 <HAL_RCCEx_PeriphCLKConfig+0x18c>
 8004704:	4e82      	ldr	r6, [pc, #520]	; (8004910 <HAL_RCCEx_PeriphCLKConfig+0x224>)
 8004706:	6833      	ldr	r3, [r6, #0]
 8004708:	05d9      	lsls	r1, r3, #23
 800470a:	f04f 0500 	mov.w	r5, #0
 800470e:	f140 80c3 	bpl.w	8004898 <HAL_RCCEx_PeriphCLKConfig+0x1ac>
 8004712:	f8df 81f8 	ldr.w	r8, [pc, #504]	; 800490c <HAL_RCCEx_PeriphCLKConfig+0x220>
 8004716:	f8d8 3020 	ldr.w	r3, [r8, #32]
 800471a:	f413 7340 	ands.w	r3, r3, #768	; 0x300
 800471e:	d020      	beq.n	8004762 <HAL_RCCEx_PeriphCLKConfig+0x76>
 8004720:	6861      	ldr	r1, [r4, #4]
 8004722:	f401 7240 	and.w	r2, r1, #768	; 0x300
 8004726:	429a      	cmp	r2, r3
 8004728:	d01c      	beq.n	8004764 <HAL_RCCEx_PeriphCLKConfig+0x78>
 800472a:	f8d8 1020 	ldr.w	r1, [r8, #32]
 800472e:	f44f 3380 	mov.w	r3, #65536	; 0x10000
 8004732:	f421 7040 	bic.w	r0, r1, #768	; 0x300
 8004736:	fa93 f2a3 	rbit	r2, r3
 800473a:	4f76      	ldr	r7, [pc, #472]	; (8004914 <HAL_RCCEx_PeriphCLKConfig+0x228>)
 800473c:	fab2 f282 	clz	r2, r2
 8004740:	443a      	add	r2, r7
 8004742:	0092      	lsls	r2, r2, #2
 8004744:	2601      	movs	r6, #1
 8004746:	6016      	str	r6, [r2, #0]
 8004748:	fa93 f3a3 	rbit	r3, r3
 800474c:	fab3 f383 	clz	r3, r3
 8004750:	443b      	add	r3, r7
 8004752:	009b      	lsls	r3, r3, #2
 8004754:	2200      	movs	r2, #0
 8004756:	601a      	str	r2, [r3, #0]
 8004758:	07cb      	lsls	r3, r1, #31
 800475a:	f8c8 0020 	str.w	r0, [r8, #32]
 800475e:	f100 80af 	bmi.w	80048c0 <HAL_RCCEx_PeriphCLKConfig+0x1d4>
 8004762:	6861      	ldr	r1, [r4, #4]
 8004764:	4a69      	ldr	r2, [pc, #420]	; (800490c <HAL_RCCEx_PeriphCLKConfig+0x220>)
 8004766:	6a13      	ldr	r3, [r2, #32]
 8004768:	f423 7340 	bic.w	r3, r3, #768	; 0x300
 800476c:	430b      	orrs	r3, r1
 800476e:	6213      	str	r3, [r2, #32]
 8004770:	b11d      	cbz	r5, 800477a <HAL_RCCEx_PeriphCLKConfig+0x8e>
 8004772:	69d3      	ldr	r3, [r2, #28]
 8004774:	f023 5380 	bic.w	r3, r3, #268435456	; 0x10000000
 8004778:	61d3      	str	r3, [r2, #28]
 800477a:	6823      	ldr	r3, [r4, #0]
 800477c:	07df      	lsls	r7, r3, #31
 800477e:	d506      	bpl.n	800478e <HAL_RCCEx_PeriphCLKConfig+0xa2>
 8004780:	4962      	ldr	r1, [pc, #392]	; (800490c <HAL_RCCEx_PeriphCLKConfig+0x220>)
 8004782:	68a0      	ldr	r0, [r4, #8]
 8004784:	6b0a      	ldr	r2, [r1, #48]	; 0x30
 8004786:	f022 0203 	bic.w	r2, r2, #3
 800478a:	4302      	orrs	r2, r0
 800478c:	630a      	str	r2, [r1, #48]	; 0x30
 800478e:	079e      	lsls	r6, r3, #30
 8004790:	d506      	bpl.n	80047a0 <HAL_RCCEx_PeriphCLKConfig+0xb4>
 8004792:	495e      	ldr	r1, [pc, #376]	; (800490c <HAL_RCCEx_PeriphCLKConfig+0x220>)
 8004794:	68e0      	ldr	r0, [r4, #12]
 8004796:	6b0a      	ldr	r2, [r1, #48]	; 0x30
 8004798:	f422 3240 	bic.w	r2, r2, #196608	; 0x30000
 800479c:	4302      	orrs	r2, r0
 800479e:	630a      	str	r2, [r1, #48]	; 0x30
 80047a0:	075d      	lsls	r5, r3, #29
 80047a2:	d506      	bpl.n	80047b2 <HAL_RCCEx_PeriphCLKConfig+0xc6>
 80047a4:	4959      	ldr	r1, [pc, #356]	; (800490c <HAL_RCCEx_PeriphCLKConfig+0x220>)
 80047a6:	6920      	ldr	r0, [r4, #16]
 80047a8:	6b0a      	ldr	r2, [r1, #48]	; 0x30
 80047aa:	f422 2240 	bic.w	r2, r2, #786432	; 0xc0000
 80047ae:	4302      	orrs	r2, r0
 80047b0:	630a      	str	r2, [r1, #48]	; 0x30
 80047b2:	0698      	lsls	r0, r3, #26
 80047b4:	d506      	bpl.n	80047c4 <HAL_RCCEx_PeriphCLKConfig+0xd8>
 80047b6:	4955      	ldr	r1, [pc, #340]	; (800490c <HAL_RCCEx_PeriphCLKConfig+0x220>)
 80047b8:	69e0      	ldr	r0, [r4, #28]
 80047ba:	6b0a      	ldr	r2, [r1, #48]	; 0x30
 80047bc:	f022 0210 	bic.w	r2, r2, #16
 80047c0:	4302      	orrs	r2, r0
 80047c2:	630a      	str	r2, [r1, #48]	; 0x30
 80047c4:	0399      	lsls	r1, r3, #14
 80047c6:	d506      	bpl.n	80047d6 <HAL_RCCEx_PeriphCLKConfig+0xea>
 80047c8:	4950      	ldr	r1, [pc, #320]	; (800490c <HAL_RCCEx_PeriphCLKConfig+0x220>)
 80047ca:	6ba0      	ldr	r0, [r4, #56]	; 0x38
 80047cc:	684a      	ldr	r2, [r1, #4]
 80047ce:	f422 0280 	bic.w	r2, r2, #4194304	; 0x400000
 80047d2:	4302      	orrs	r2, r0
 80047d4:	604a      	str	r2, [r1, #4]
 80047d6:	065a      	lsls	r2, r3, #25
 80047d8:	d506      	bpl.n	80047e8 <HAL_RCCEx_PeriphCLKConfig+0xfc>
 80047da:	494c      	ldr	r1, [pc, #304]	; (800490c <HAL_RCCEx_PeriphCLKConfig+0x220>)
 80047dc:	6a20      	ldr	r0, [r4, #32]
 80047de:	6b0a      	ldr	r2, [r1, #48]	; 0x30
 80047e0:	f022 0220 	bic.w	r2, r2, #32
 80047e4:	4302      	orrs	r2, r0
 80047e6:	630a      	str	r2, [r1, #48]	; 0x30
 80047e8:	071f      	lsls	r7, r3, #28
 80047ea:	d506      	bpl.n	80047fa <HAL_RCCEx_PeriphCLKConfig+0x10e>
 80047ec:	4947      	ldr	r1, [pc, #284]	; (800490c <HAL_RCCEx_PeriphCLKConfig+0x220>)
 80047ee:	6960      	ldr	r0, [r4, #20]
 80047f0:	6b0a      	ldr	r2, [r1, #48]	; 0x30
 80047f2:	f422 1240 	bic.w	r2, r2, #3145728	; 0x300000
 80047f6:	4302      	orrs	r2, r0
 80047f8:	630a      	str	r2, [r1, #48]	; 0x30
 80047fa:	06de      	lsls	r6, r3, #27
 80047fc:	d506      	bpl.n	800480c <HAL_RCCEx_PeriphCLKConfig+0x120>
 80047fe:	4943      	ldr	r1, [pc, #268]	; (800490c <HAL_RCCEx_PeriphCLKConfig+0x220>)
 8004800:	69a0      	ldr	r0, [r4, #24]
 8004802:	6b0a      	ldr	r2, [r1, #48]	; 0x30
 8004804:	f422 0240 	bic.w	r2, r2, #12582912	; 0xc00000
 8004808:	4302      	orrs	r2, r0
 800480a:	630a      	str	r2, [r1, #48]	; 0x30
 800480c:	059d      	lsls	r5, r3, #22
 800480e:	d506      	bpl.n	800481e <HAL_RCCEx_PeriphCLKConfig+0x132>
 8004810:	493e      	ldr	r1, [pc, #248]	; (800490c <HAL_RCCEx_PeriphCLKConfig+0x220>)
 8004812:	6ae0      	ldr	r0, [r4, #44]	; 0x2c
 8004814:	684a      	ldr	r2, [r1, #4]
 8004816:	f422 0200 	bic.w	r2, r2, #8388608	; 0x800000
 800481a:	4302      	orrs	r2, r0
 800481c:	604a      	str	r2, [r1, #4]
 800481e:	0618      	lsls	r0, r3, #24
 8004820:	d506      	bpl.n	8004830 <HAL_RCCEx_PeriphCLKConfig+0x144>
 8004822:	493a      	ldr	r1, [pc, #232]	; (800490c <HAL_RCCEx_PeriphCLKConfig+0x220>)
 8004824:	6a60      	ldr	r0, [r4, #36]	; 0x24
 8004826:	6aca      	ldr	r2, [r1, #44]	; 0x2c
 8004828:	f422 72f8 	bic.w	r2, r2, #496	; 0x1f0
 800482c:	4302      	orrs	r2, r0
 800482e:	62ca      	str	r2, [r1, #44]	; 0x2c
 8004830:	05d9      	lsls	r1, r3, #23
 8004832:	d506      	bpl.n	8004842 <HAL_RCCEx_PeriphCLKConfig+0x156>
 8004834:	4935      	ldr	r1, [pc, #212]	; (800490c <HAL_RCCEx_PeriphCLKConfig+0x220>)
 8004836:	6aa0      	ldr	r0, [r4, #40]	; 0x28
 8004838:	6aca      	ldr	r2, [r1, #44]	; 0x2c
 800483a:	f422 5278 	bic.w	r2, r2, #15872	; 0x3e00
 800483e:	4302      	orrs	r2, r0
 8004840:	62ca      	str	r2, [r1, #44]	; 0x2c
 8004842:	04da      	lsls	r2, r3, #19
 8004844:	d506      	bpl.n	8004854 <HAL_RCCEx_PeriphCLKConfig+0x168>
 8004846:	4931      	ldr	r1, [pc, #196]	; (800490c <HAL_RCCEx_PeriphCLKConfig+0x220>)
 8004848:	6b20      	ldr	r0, [r4, #48]	; 0x30
 800484a:	6b0a      	ldr	r2, [r1, #48]	; 0x30
 800484c:	f422 7280 	bic.w	r2, r2, #256	; 0x100
 8004850:	4302      	orrs	r2, r0
 8004852:	630a      	str	r2, [r1, #48]	; 0x30
 8004854:	f413 5300 	ands.w	r3, r3, #8192	; 0x2000
 8004858:	d103      	bne.n	8004862 <HAL_RCCEx_PeriphCLKConfig+0x176>
 800485a:	4618      	mov	r0, r3
 800485c:	b003      	add	sp, #12
 800485e:	e8bd 83f0 	ldmia.w	sp!, {r4, r5, r6, r7, r8, r9, pc}
 8004862:	4a2a      	ldr	r2, [pc, #168]	; (800490c <HAL_RCCEx_PeriphCLKConfig+0x220>)
 8004864:	6b61      	ldr	r1, [r4, #52]	; 0x34
 8004866:	6b13      	ldr	r3, [r2, #48]	; 0x30
 8004868:	f423 7300 	bic.w	r3, r3, #512	; 0x200
 800486c:	2000      	movs	r0, #0
 800486e:	430b      	orrs	r3, r1
 8004870:	6313      	str	r3, [r2, #48]	; 0x30
 8004872:	b003      	add	sp, #12
 8004874:	e8bd 83f0 	ldmia.w	sp!, {r4, r5, r6, r7, r8, r9, pc}
 8004878:	69da      	ldr	r2, [r3, #28]
 800487a:	4e25      	ldr	r6, [pc, #148]	; (8004910 <HAL_RCCEx_PeriphCLKConfig+0x224>)
 800487c:	f042 5280 	orr.w	r2, r2, #268435456	; 0x10000000
 8004880:	61da      	str	r2, [r3, #28]
 8004882:	69db      	ldr	r3, [r3, #28]
 8004884:	f003 5380 	and.w	r3, r3, #268435456	; 0x10000000
 8004888:	9301      	str	r3, [sp, #4]
 800488a:	9b01      	ldr	r3, [sp, #4]
 800488c:	6833      	ldr	r3, [r6, #0]
 800488e:	05d9      	lsls	r1, r3, #23
 8004890:	f04f 0501 	mov.w	r5, #1
 8004894:	f53f af3d 	bmi.w	8004712 <HAL_RCCEx_PeriphCLKConfig+0x26>
 8004898:	6833      	ldr	r3, [r6, #0]
 800489a:	f443 7380 	orr.w	r3, r3, #256	; 0x100
 800489e:	6033      	str	r3, [r6, #0]
 80048a0:	f7fd fd70 	bl	8002384 <HAL_GetTick>
 80048a4:	4607      	mov	r7, r0
 80048a6:	6833      	ldr	r3, [r6, #0]
 80048a8:	05da      	lsls	r2, r3, #23
 80048aa:	f53f af32 	bmi.w	8004712 <HAL_RCCEx_PeriphCLKConfig+0x26>
 80048ae:	f7fd fd69 	bl	8002384 <HAL_GetTick>
 80048b2:	1bc0      	subs	r0, r0, r7
 80048b4:	2864      	cmp	r0, #100	; 0x64
 80048b6:	d9f6      	bls.n	80048a6 <HAL_RCCEx_PeriphCLKConfig+0x1ba>
 80048b8:	2003      	movs	r0, #3
 80048ba:	b003      	add	sp, #12
 80048bc:	e8bd 83f0 	ldmia.w	sp!, {r4, r5, r6, r7, r8, r9, pc}
 80048c0:	f7fd fd60 	bl	8002384 <HAL_GetTick>
 80048c4:	f04f 0902 	mov.w	r9, #2
 80048c8:	4607      	mov	r7, r0
 80048ca:	e015      	b.n	80048f8 <HAL_RCCEx_PeriphCLKConfig+0x20c>
 80048cc:	fa99 f3a9 	rbit	r3, r9
 80048d0:	f8d8 2024 	ldr.w	r2, [r8, #36]	; 0x24
 80048d4:	fa99 f3a9 	rbit	r3, r9
 80048d8:	fab3 f383 	clz	r3, r3
 80048dc:	f003 031f 	and.w	r3, r3, #31
 80048e0:	fa06 f303 	lsl.w	r3, r6, r3
 80048e4:	4213      	tst	r3, r2
 80048e6:	f47f af3c 	bne.w	8004762 <HAL_RCCEx_PeriphCLKConfig+0x76>
 80048ea:	f7fd fd4b 	bl	8002384 <HAL_GetTick>
 80048ee:	f241 3388 	movw	r3, #5000	; 0x1388
 80048f2:	1bc0      	subs	r0, r0, r7
 80048f4:	4298      	cmp	r0, r3
 80048f6:	d8df      	bhi.n	80048b8 <HAL_RCCEx_PeriphCLKConfig+0x1cc>
 80048f8:	fa99 f3a9 	rbit	r3, r9
 80048fc:	fa99 f3a9 	rbit	r3, r9
 8004900:	2b00      	cmp	r3, #0
 8004902:	d0e3      	beq.n	80048cc <HAL_RCCEx_PeriphCLKConfig+0x1e0>
 8004904:	f8d8 2020 	ldr.w	r2, [r8, #32]
 8004908:	e7e4      	b.n	80048d4 <HAL_RCCEx_PeriphCLKConfig+0x1e8>
 800490a:	bf00      	nop
 800490c:	40021000 	.word	0x40021000
 8004910:	40007000 	.word	0x40007000
 8004914:	10908100 	.word	0x10908100

08004918 <HAL_SPI_Init>:
 8004918:	2800      	cmp	r0, #0
 800491a:	d077      	beq.n	8004a0c <HAL_SPI_Init+0xf4>
 800491c:	e92d 41f0 	stmdb	sp!, {r4, r5, r6, r7, r8, lr}
 8004920:	6a46      	ldr	r6, [r0, #36]	; 0x24
 8004922:	4604      	mov	r4, r0
 8004924:	2e00      	cmp	r6, #0
 8004926:	d058      	beq.n	80049da <HAL_SPI_Init+0xc2>
 8004928:	2300      	movs	r3, #0
 800492a:	e9c0 3304 	strd	r3, r3, [r0, #16]
 800492e:	f894 305d 	ldrb.w	r3, [r4, #93]	; 0x5d
 8004932:	2200      	movs	r2, #0
 8004934:	62a2      	str	r2, [r4, #40]	; 0x28
 8004936:	f003 02ff 	and.w	r2, r3, #255	; 0xff
 800493a:	2b00      	cmp	r3, #0
 800493c:	d059      	beq.n	80049f2 <HAL_SPI_Init+0xda>
 800493e:	6821      	ldr	r1, [r4, #0]
 8004940:	68e2      	ldr	r2, [r4, #12]
 8004942:	2302      	movs	r3, #2
 8004944:	f884 305d 	strb.w	r3, [r4, #93]	; 0x5d
 8004948:	6808      	ldr	r0, [r1, #0]
 800494a:	f5b2 6fe0 	cmp.w	r2, #1792	; 0x700
 800494e:	f020 0040 	bic.w	r0, r0, #64	; 0x40
 8004952:	6008      	str	r0, [r1, #0]
 8004954:	d947      	bls.n	80049e6 <HAL_SPI_Init+0xce>
 8004956:	f5b2 6f70 	cmp.w	r2, #3840	; 0xf00
 800495a:	d159      	bne.n	8004a10 <HAL_SPI_Init+0xf8>
 800495c:	6aa3      	ldr	r3, [r4, #40]	; 0x28
 800495e:	2000      	movs	r0, #0
 8004960:	f403 5500 	and.w	r5, r3, #8192	; 0x2000
 8004964:	68a3      	ldr	r3, [r4, #8]
 8004966:	6a27      	ldr	r7, [r4, #32]
 8004968:	f402 6e70 	and.w	lr, r2, #3840	; 0xf00
 800496c:	6862      	ldr	r2, [r4, #4]
 800496e:	f403 4304 	and.w	r3, r3, #33792	; 0x8400
 8004972:	f402 7282 	and.w	r2, r2, #260	; 0x104
 8004976:	431a      	orrs	r2, r3
 8004978:	6923      	ldr	r3, [r4, #16]
 800497a:	f003 0302 	and.w	r3, r3, #2
 800497e:	431a      	orrs	r2, r3
 8004980:	6963      	ldr	r3, [r4, #20]
 8004982:	f003 0301 	and.w	r3, r3, #1
 8004986:	431a      	orrs	r2, r3
 8004988:	6b63      	ldr	r3, [r4, #52]	; 0x34
 800498a:	f003 0308 	and.w	r3, r3, #8
 800498e:	f006 0c10 	and.w	ip, r6, #16
 8004992:	ea43 0e0e 	orr.w	lr, r3, lr
 8004996:	69a6      	ldr	r6, [r4, #24]
 8004998:	69e3      	ldr	r3, [r4, #28]
 800499a:	f003 0838 	and.w	r8, r3, #56	; 0x38
 800499e:	f406 7300 	and.w	r3, r6, #512	; 0x200
 80049a2:	4313      	orrs	r3, r2
 80049a4:	f007 0780 	and.w	r7, r7, #128	; 0x80
 80049a8:	ea43 0308 	orr.w	r3, r3, r8
 80049ac:	433b      	orrs	r3, r7
 80049ae:	432b      	orrs	r3, r5
 80049b0:	600b      	str	r3, [r1, #0]
 80049b2:	0c33      	lsrs	r3, r6, #16
 80049b4:	f003 0304 	and.w	r3, r3, #4
 80049b8:	ea4e 0303 	orr.w	r3, lr, r3
 80049bc:	ea43 030c 	orr.w	r3, r3, ip
 80049c0:	4303      	orrs	r3, r0
 80049c2:	604b      	str	r3, [r1, #4]
 80049c4:	69cb      	ldr	r3, [r1, #28]
 80049c6:	2000      	movs	r0, #0
 80049c8:	f423 6300 	bic.w	r3, r3, #2048	; 0x800
 80049cc:	2201      	movs	r2, #1
 80049ce:	61cb      	str	r3, [r1, #28]
 80049d0:	6620      	str	r0, [r4, #96]	; 0x60
 80049d2:	f884 205d 	strb.w	r2, [r4, #93]	; 0x5d
 80049d6:	e8bd 81f0 	ldmia.w	sp!, {r4, r5, r6, r7, r8, pc}
 80049da:	6843      	ldr	r3, [r0, #4]
 80049dc:	f5b3 7f82 	cmp.w	r3, #260	; 0x104
 80049e0:	d0a5      	beq.n	800492e <HAL_SPI_Init+0x16>
 80049e2:	61c6      	str	r6, [r0, #28]
 80049e4:	e7a3      	b.n	800492e <HAL_SPI_Init+0x16>
 80049e6:	d00b      	beq.n	8004a00 <HAL_SPI_Init+0xe8>
 80049e8:	f44f 5080 	mov.w	r0, #4096	; 0x1000
 80049ec:	2500      	movs	r5, #0
 80049ee:	62a5      	str	r5, [r4, #40]	; 0x28
 80049f0:	e7b8      	b.n	8004964 <HAL_SPI_Init+0x4c>
 80049f2:	f884 205c 	strb.w	r2, [r4, #92]	; 0x5c
 80049f6:	4620      	mov	r0, r4
 80049f8:	f7fc ff5a 	bl	80018b0 <HAL_SPI_MspInit>
 80049fc:	6a66      	ldr	r6, [r4, #36]	; 0x24
 80049fe:	e79e      	b.n	800493e <HAL_SPI_Init+0x26>
 8004a00:	6aa3      	ldr	r3, [r4, #40]	; 0x28
 8004a02:	f44f 5080 	mov.w	r0, #4096	; 0x1000
 8004a06:	f403 5500 	and.w	r5, r3, #8192	; 0x2000
 8004a0a:	e7ab      	b.n	8004964 <HAL_SPI_Init+0x4c>
 8004a0c:	2001      	movs	r0, #1
 8004a0e:	4770      	bx	lr
 8004a10:	2000      	movs	r0, #0
 8004a12:	e7eb      	b.n	80049ec <HAL_SPI_Init+0xd4>

08004a14 <TIM_OC1_SetConfig>:
 8004a14:	6a03      	ldr	r3, [r0, #32]
 8004a16:	f023 0301 	bic.w	r3, r3, #1
 8004a1a:	6203      	str	r3, [r0, #32]
 8004a1c:	6a03      	ldr	r3, [r0, #32]
 8004a1e:	b470      	push	{r4, r5, r6}
 8004a20:	6844      	ldr	r4, [r0, #4]
 8004a22:	6982      	ldr	r2, [r0, #24]
 8004a24:	680d      	ldr	r5, [r1, #0]
 8004a26:	f422 3280 	bic.w	r2, r2, #65536	; 0x10000
 8004a2a:	f022 0273 	bic.w	r2, r2, #115	; 0x73
 8004a2e:	432a      	orrs	r2, r5
 8004a30:	688d      	ldr	r5, [r1, #8]
 8004a32:	f023 0302 	bic.w	r3, r3, #2
 8004a36:	432b      	orrs	r3, r5
 8004a38:	4d13      	ldr	r5, [pc, #76]	; (8004a88 <TIM_OC1_SetConfig+0x74>)
 8004a3a:	42a8      	cmp	r0, r5
 8004a3c:	d00f      	beq.n	8004a5e <TIM_OC1_SetConfig+0x4a>
 8004a3e:	f505 6500 	add.w	r5, r5, #2048	; 0x800
 8004a42:	42a8      	cmp	r0, r5
 8004a44:	d00b      	beq.n	8004a5e <TIM_OC1_SetConfig+0x4a>
 8004a46:	f505 6540 	add.w	r5, r5, #3072	; 0xc00
 8004a4a:	42a8      	cmp	r0, r5
 8004a4c:	d007      	beq.n	8004a5e <TIM_OC1_SetConfig+0x4a>
 8004a4e:	f505 6580 	add.w	r5, r5, #1024	; 0x400
 8004a52:	42a8      	cmp	r0, r5
 8004a54:	d003      	beq.n	8004a5e <TIM_OC1_SetConfig+0x4a>
 8004a56:	f505 6580 	add.w	r5, r5, #1024	; 0x400
 8004a5a:	42a8      	cmp	r0, r5
 8004a5c:	d10d      	bne.n	8004a7a <TIM_OC1_SetConfig+0x66>
 8004a5e:	68cd      	ldr	r5, [r1, #12]
 8004a60:	f023 0308 	bic.w	r3, r3, #8
 8004a64:	432b      	orrs	r3, r5
 8004a66:	e9d1 6505 	ldrd	r6, r5, [r1, #20]
 8004a6a:	f424 7440 	bic.w	r4, r4, #768	; 0x300
 8004a6e:	ea46 0c05 	orr.w	ip, r6, r5
 8004a72:	f023 0304 	bic.w	r3, r3, #4
 8004a76:	ea4c 0404 	orr.w	r4, ip, r4
 8004a7a:	6849      	ldr	r1, [r1, #4]
 8004a7c:	6044      	str	r4, [r0, #4]
 8004a7e:	6182      	str	r2, [r0, #24]
 8004a80:	bc70      	pop	{r4, r5, r6}
 8004a82:	6341      	str	r1, [r0, #52]	; 0x34
 8004a84:	6203      	str	r3, [r0, #32]
 8004a86:	4770      	bx	lr
 8004a88:	40012c00 	.word	0x40012c00

08004a8c <TIM_OC3_SetConfig>:
 8004a8c:	6a03      	ldr	r3, [r0, #32]
 8004a8e:	f423 7380 	bic.w	r3, r3, #256	; 0x100
 8004a92:	6203      	str	r3, [r0, #32]
 8004a94:	6a03      	ldr	r3, [r0, #32]
 8004a96:	b470      	push	{r4, r5, r6}
 8004a98:	6844      	ldr	r4, [r0, #4]
 8004a9a:	69c2      	ldr	r2, [r0, #28]
 8004a9c:	680d      	ldr	r5, [r1, #0]
 8004a9e:	f422 3280 	bic.w	r2, r2, #65536	; 0x10000
 8004aa2:	f022 0273 	bic.w	r2, r2, #115	; 0x73
 8004aa6:	432a      	orrs	r2, r5
 8004aa8:	688d      	ldr	r5, [r1, #8]
 8004aaa:	f423 7300 	bic.w	r3, r3, #512	; 0x200
 8004aae:	ea43 2305 	orr.w	r3, r3, r5, lsl #8
 8004ab2:	4d15      	ldr	r5, [pc, #84]	; (8004b08 <TIM_OC3_SetConfig+0x7c>)
 8004ab4:	42a8      	cmp	r0, r5
 8004ab6:	d010      	beq.n	8004ada <TIM_OC3_SetConfig+0x4e>
 8004ab8:	f505 6500 	add.w	r5, r5, #2048	; 0x800
 8004abc:	42a8      	cmp	r0, r5
 8004abe:	d00c      	beq.n	8004ada <TIM_OC3_SetConfig+0x4e>
 8004ac0:	f505 6540 	add.w	r5, r5, #3072	; 0xc00
 8004ac4:	42a8      	cmp	r0, r5
 8004ac6:	d00f      	beq.n	8004ae8 <TIM_OC3_SetConfig+0x5c>
 8004ac8:	f505 6580 	add.w	r5, r5, #1024	; 0x400
 8004acc:	42a8      	cmp	r0, r5
 8004ace:	d00b      	beq.n	8004ae8 <TIM_OC3_SetConfig+0x5c>
 8004ad0:	f505 6580 	add.w	r5, r5, #1024	; 0x400
 8004ad4:	42a8      	cmp	r0, r5
 8004ad6:	d10f      	bne.n	8004af8 <TIM_OC3_SetConfig+0x6c>
 8004ad8:	e006      	b.n	8004ae8 <TIM_OC3_SetConfig+0x5c>
 8004ada:	68cd      	ldr	r5, [r1, #12]
 8004adc:	f423 6300 	bic.w	r3, r3, #2048	; 0x800
 8004ae0:	ea43 2305 	orr.w	r3, r3, r5, lsl #8
 8004ae4:	f423 6380 	bic.w	r3, r3, #1024	; 0x400
 8004ae8:	e9d1 6505 	ldrd	r6, r5, [r1, #20]
 8004aec:	f424 5440 	bic.w	r4, r4, #12288	; 0x3000
 8004af0:	ea46 0c05 	orr.w	ip, r6, r5
 8004af4:	ea44 140c 	orr.w	r4, r4, ip, lsl #4
 8004af8:	6849      	ldr	r1, [r1, #4]
 8004afa:	6044      	str	r4, [r0, #4]
 8004afc:	61c2      	str	r2, [r0, #28]
 8004afe:	bc70      	pop	{r4, r5, r6}
 8004b00:	63c1      	str	r1, [r0, #60]	; 0x3c
 8004b02:	6203      	str	r3, [r0, #32]
 8004b04:	4770      	bx	lr
 8004b06:	bf00      	nop
 8004b08:	40012c00 	.word	0x40012c00

08004b0c <HAL_TIM_PWM_Init>:
 8004b0c:	2800      	cmp	r0, #0
 8004b0e:	f000 8081 	beq.w	8004c14 <HAL_TIM_PWM_Init+0x108>
 8004b12:	b510      	push	{r4, lr}
 8004b14:	f890 303d 	ldrb.w	r3, [r0, #61]	; 0x3d
 8004b18:	4604      	mov	r4, r0
 8004b1a:	f003 02ff 	and.w	r2, r3, #255	; 0xff
 8004b1e:	2b00      	cmp	r3, #0
 8004b20:	d06d      	beq.n	8004bfe <HAL_TIM_PWM_Init+0xf2>
 8004b22:	6822      	ldr	r2, [r4, #0]
 8004b24:	493c      	ldr	r1, [pc, #240]	; (8004c18 <HAL_TIM_PWM_Init+0x10c>)
 8004b26:	2302      	movs	r3, #2
 8004b28:	f884 303d 	strb.w	r3, [r4, #61]	; 0x3d
 8004b2c:	428a      	cmp	r2, r1
 8004b2e:	6813      	ldr	r3, [r2, #0]
 8004b30:	d051      	beq.n	8004bd6 <HAL_TIM_PWM_Init+0xca>
 8004b32:	f1b2 4f80 	cmp.w	r2, #1073741824	; 0x40000000
 8004b36:	d021      	beq.n	8004b7c <HAL_TIM_PWM_Init+0x70>
 8004b38:	f5a1 3194 	sub.w	r1, r1, #75776	; 0x12800
 8004b3c:	428a      	cmp	r2, r1
 8004b3e:	d01d      	beq.n	8004b7c <HAL_TIM_PWM_Init+0x70>
 8004b40:	f501 6180 	add.w	r1, r1, #1024	; 0x400
 8004b44:	428a      	cmp	r2, r1
 8004b46:	d019      	beq.n	8004b7c <HAL_TIM_PWM_Init+0x70>
 8004b48:	f501 3196 	add.w	r1, r1, #76800	; 0x12c00
 8004b4c:	428a      	cmp	r2, r1
 8004b4e:	d042      	beq.n	8004bd6 <HAL_TIM_PWM_Init+0xca>
 8004b50:	f501 6140 	add.w	r1, r1, #3072	; 0xc00
 8004b54:	428a      	cmp	r2, r1
 8004b56:	d057      	beq.n	8004c08 <HAL_TIM_PWM_Init+0xfc>
 8004b58:	f501 6180 	add.w	r1, r1, #1024	; 0x400
 8004b5c:	428a      	cmp	r2, r1
 8004b5e:	d053      	beq.n	8004c08 <HAL_TIM_PWM_Init+0xfc>
 8004b60:	f501 6180 	add.w	r1, r1, #1024	; 0x400
 8004b64:	428a      	cmp	r2, r1
 8004b66:	d04f      	beq.n	8004c08 <HAL_TIM_PWM_Init+0xfc>
 8004b68:	69a0      	ldr	r0, [r4, #24]
 8004b6a:	68e1      	ldr	r1, [r4, #12]
 8004b6c:	f023 0380 	bic.w	r3, r3, #128	; 0x80
 8004b70:	4303      	orrs	r3, r0
 8004b72:	6013      	str	r3, [r2, #0]
 8004b74:	6863      	ldr	r3, [r4, #4]
 8004b76:	62d1      	str	r1, [r2, #44]	; 0x2c
 8004b78:	6293      	str	r3, [r2, #40]	; 0x28
 8004b7a:	e010      	b.n	8004b9e <HAL_TIM_PWM_Init+0x92>
 8004b7c:	68a1      	ldr	r1, [r4, #8]
 8004b7e:	6920      	ldr	r0, [r4, #16]
 8004b80:	f023 0370 	bic.w	r3, r3, #112	; 0x70
 8004b84:	430b      	orrs	r3, r1
 8004b86:	f423 7340 	bic.w	r3, r3, #768	; 0x300
 8004b8a:	69a1      	ldr	r1, [r4, #24]
 8004b8c:	4303      	orrs	r3, r0
 8004b8e:	f023 0380 	bic.w	r3, r3, #128	; 0x80
 8004b92:	68e0      	ldr	r0, [r4, #12]
 8004b94:	430b      	orrs	r3, r1
 8004b96:	6861      	ldr	r1, [r4, #4]
 8004b98:	6013      	str	r3, [r2, #0]
 8004b9a:	62d0      	str	r0, [r2, #44]	; 0x2c
 8004b9c:	6291      	str	r1, [r2, #40]	; 0x28
 8004b9e:	2301      	movs	r3, #1
 8004ba0:	6153      	str	r3, [r2, #20]
 8004ba2:	f884 3048 	strb.w	r3, [r4, #72]	; 0x48
 8004ba6:	f884 303e 	strb.w	r3, [r4, #62]	; 0x3e
 8004baa:	f884 303f 	strb.w	r3, [r4, #63]	; 0x3f
 8004bae:	f884 3040 	strb.w	r3, [r4, #64]	; 0x40
 8004bb2:	f884 3041 	strb.w	r3, [r4, #65]	; 0x41
 8004bb6:	f884 3042 	strb.w	r3, [r4, #66]	; 0x42
 8004bba:	f884 3043 	strb.w	r3, [r4, #67]	; 0x43
 8004bbe:	f884 3044 	strb.w	r3, [r4, #68]	; 0x44
 8004bc2:	f884 3045 	strb.w	r3, [r4, #69]	; 0x45
 8004bc6:	f884 3046 	strb.w	r3, [r4, #70]	; 0x46
 8004bca:	f884 3047 	strb.w	r3, [r4, #71]	; 0x47
 8004bce:	f884 303d 	strb.w	r3, [r4, #61]	; 0x3d
 8004bd2:	2000      	movs	r0, #0
 8004bd4:	bd10      	pop	{r4, pc}
 8004bd6:	68a0      	ldr	r0, [r4, #8]
 8004bd8:	6921      	ldr	r1, [r4, #16]
 8004bda:	f023 0370 	bic.w	r3, r3, #112	; 0x70
 8004bde:	4303      	orrs	r3, r0
 8004be0:	f423 7340 	bic.w	r3, r3, #768	; 0x300
 8004be4:	430b      	orrs	r3, r1
 8004be6:	69a1      	ldr	r1, [r4, #24]
 8004be8:	f023 0380 	bic.w	r3, r3, #128	; 0x80
 8004bec:	430b      	orrs	r3, r1
 8004bee:	6013      	str	r3, [r2, #0]
 8004bf0:	68e3      	ldr	r3, [r4, #12]
 8004bf2:	62d3      	str	r3, [r2, #44]	; 0x2c
 8004bf4:	6863      	ldr	r3, [r4, #4]
 8004bf6:	6293      	str	r3, [r2, #40]	; 0x28
 8004bf8:	6963      	ldr	r3, [r4, #20]
 8004bfa:	6313      	str	r3, [r2, #48]	; 0x30
 8004bfc:	e7cf      	b.n	8004b9e <HAL_TIM_PWM_Init+0x92>
 8004bfe:	f880 203c 	strb.w	r2, [r0, #60]	; 0x3c
 8004c02:	f7fc fffd 	bl	8001c00 <HAL_TIM_PWM_MspInit>
 8004c06:	e78c      	b.n	8004b22 <HAL_TIM_PWM_Init+0x16>
 8004c08:	6920      	ldr	r0, [r4, #16]
 8004c0a:	69a1      	ldr	r1, [r4, #24]
 8004c0c:	f423 7340 	bic.w	r3, r3, #768	; 0x300
 8004c10:	4303      	orrs	r3, r0
 8004c12:	e7e9      	b.n	8004be8 <HAL_TIM_PWM_Init+0xdc>
 8004c14:	2001      	movs	r0, #1
 8004c16:	4770      	bx	lr
 8004c18:	40012c00 	.word	0x40012c00

08004c1c <HAL_TIM_OC_DelayElapsedCallback>:
 8004c1c:	4770      	bx	lr
 8004c1e:	bf00      	nop

08004c20 <HAL_TIM_IC_CaptureCallback>:
 8004c20:	4770      	bx	lr
 8004c22:	bf00      	nop

08004c24 <HAL_TIM_PWM_PulseFinishedCallback>:
 8004c24:	4770      	bx	lr
 8004c26:	bf00      	nop

08004c28 <HAL_TIM_TriggerCallback>:
 8004c28:	4770      	bx	lr
 8004c2a:	bf00      	nop

08004c2c <HAL_TIM_IRQHandler>:
 8004c2c:	6803      	ldr	r3, [r0, #0]
 8004c2e:	691a      	ldr	r2, [r3, #16]
 8004c30:	0791      	lsls	r1, r2, #30
 8004c32:	b510      	push	{r4, lr}
 8004c34:	4604      	mov	r4, r0
 8004c36:	d502      	bpl.n	8004c3e <HAL_TIM_IRQHandler+0x12>
 8004c38:	68da      	ldr	r2, [r3, #12]
 8004c3a:	0792      	lsls	r2, r2, #30
 8004c3c:	d468      	bmi.n	8004d10 <HAL_TIM_IRQHandler+0xe4>
 8004c3e:	691a      	ldr	r2, [r3, #16]
 8004c40:	0752      	lsls	r2, r2, #29
 8004c42:	d502      	bpl.n	8004c4a <HAL_TIM_IRQHandler+0x1e>
 8004c44:	68da      	ldr	r2, [r3, #12]
 8004c46:	0750      	lsls	r0, r2, #29
 8004c48:	d44f      	bmi.n	8004cea <HAL_TIM_IRQHandler+0xbe>
 8004c4a:	691a      	ldr	r2, [r3, #16]
 8004c4c:	0711      	lsls	r1, r2, #28
 8004c4e:	d502      	bpl.n	8004c56 <HAL_TIM_IRQHandler+0x2a>
 8004c50:	68da      	ldr	r2, [r3, #12]
 8004c52:	0712      	lsls	r2, r2, #28
 8004c54:	d437      	bmi.n	8004cc6 <HAL_TIM_IRQHandler+0x9a>
 8004c56:	691a      	ldr	r2, [r3, #16]
 8004c58:	06d0      	lsls	r0, r2, #27
 8004c5a:	d502      	bpl.n	8004c62 <HAL_TIM_IRQHandler+0x36>
 8004c5c:	68da      	ldr	r2, [r3, #12]
 8004c5e:	06d1      	lsls	r1, r2, #27
 8004c60:	d41e      	bmi.n	8004ca0 <HAL_TIM_IRQHandler+0x74>
 8004c62:	691a      	ldr	r2, [r3, #16]
 8004c64:	07d2      	lsls	r2, r2, #31
 8004c66:	d502      	bpl.n	8004c6e <HAL_TIM_IRQHandler+0x42>
 8004c68:	68da      	ldr	r2, [r3, #12]
 8004c6a:	07d0      	lsls	r0, r2, #31
 8004c6c:	d469      	bmi.n	8004d42 <HAL_TIM_IRQHandler+0x116>
 8004c6e:	691a      	ldr	r2, [r3, #16]
 8004c70:	0611      	lsls	r1, r2, #24
 8004c72:	d502      	bpl.n	8004c7a <HAL_TIM_IRQHandler+0x4e>
 8004c74:	68da      	ldr	r2, [r3, #12]
 8004c76:	0612      	lsls	r2, r2, #24
 8004c78:	d46b      	bmi.n	8004d52 <HAL_TIM_IRQHandler+0x126>
 8004c7a:	691a      	ldr	r2, [r3, #16]
 8004c7c:	05d0      	lsls	r0, r2, #23
 8004c7e:	d502      	bpl.n	8004c86 <HAL_TIM_IRQHandler+0x5a>
 8004c80:	68da      	ldr	r2, [r3, #12]
 8004c82:	0611      	lsls	r1, r2, #24
 8004c84:	d46d      	bmi.n	8004d62 <HAL_TIM_IRQHandler+0x136>
 8004c86:	691a      	ldr	r2, [r3, #16]
 8004c88:	0652      	lsls	r2, r2, #25
 8004c8a:	d502      	bpl.n	8004c92 <HAL_TIM_IRQHandler+0x66>
 8004c8c:	68da      	ldr	r2, [r3, #12]
 8004c8e:	0650      	lsls	r0, r2, #25
 8004c90:	d46f      	bmi.n	8004d72 <HAL_TIM_IRQHandler+0x146>
 8004c92:	691a      	ldr	r2, [r3, #16]
 8004c94:	0691      	lsls	r1, r2, #26
 8004c96:	d502      	bpl.n	8004c9e <HAL_TIM_IRQHandler+0x72>
 8004c98:	68da      	ldr	r2, [r3, #12]
 8004c9a:	0692      	lsls	r2, r2, #26
 8004c9c:	d449      	bmi.n	8004d32 <HAL_TIM_IRQHandler+0x106>
 8004c9e:	bd10      	pop	{r4, pc}
 8004ca0:	f06f 0110 	mvn.w	r1, #16
 8004ca4:	2208      	movs	r2, #8
 8004ca6:	6119      	str	r1, [r3, #16]
 8004ca8:	7722      	strb	r2, [r4, #28]
 8004caa:	69db      	ldr	r3, [r3, #28]
 8004cac:	f413 7f40 	tst.w	r3, #768	; 0x300
 8004cb0:	4620      	mov	r0, r4
 8004cb2:	d16f      	bne.n	8004d94 <HAL_TIM_IRQHandler+0x168>
 8004cb4:	f7ff ffb2 	bl	8004c1c <HAL_TIM_OC_DelayElapsedCallback>
 8004cb8:	4620      	mov	r0, r4
 8004cba:	f7ff ffb3 	bl	8004c24 <HAL_TIM_PWM_PulseFinishedCallback>
 8004cbe:	2200      	movs	r2, #0
 8004cc0:	6823      	ldr	r3, [r4, #0]
 8004cc2:	7722      	strb	r2, [r4, #28]
 8004cc4:	e7cd      	b.n	8004c62 <HAL_TIM_IRQHandler+0x36>
 8004cc6:	f06f 0108 	mvn.w	r1, #8
 8004cca:	2204      	movs	r2, #4
 8004ccc:	6119      	str	r1, [r3, #16]
 8004cce:	7722      	strb	r2, [r4, #28]
 8004cd0:	69db      	ldr	r3, [r3, #28]
 8004cd2:	079b      	lsls	r3, r3, #30
 8004cd4:	4620      	mov	r0, r4
 8004cd6:	d15a      	bne.n	8004d8e <HAL_TIM_IRQHandler+0x162>
 8004cd8:	f7ff ffa0 	bl	8004c1c <HAL_TIM_OC_DelayElapsedCallback>
 8004cdc:	4620      	mov	r0, r4
 8004cde:	f7ff ffa1 	bl	8004c24 <HAL_TIM_PWM_PulseFinishedCallback>
 8004ce2:	2200      	movs	r2, #0
 8004ce4:	6823      	ldr	r3, [r4, #0]
 8004ce6:	7722      	strb	r2, [r4, #28]
 8004ce8:	e7b5      	b.n	8004c56 <HAL_TIM_IRQHandler+0x2a>
 8004cea:	f06f 0104 	mvn.w	r1, #4
 8004cee:	2202      	movs	r2, #2
 8004cf0:	6119      	str	r1, [r3, #16]
 8004cf2:	7722      	strb	r2, [r4, #28]
 8004cf4:	699b      	ldr	r3, [r3, #24]
 8004cf6:	f413 7f40 	tst.w	r3, #768	; 0x300
 8004cfa:	4620      	mov	r0, r4
 8004cfc:	d144      	bne.n	8004d88 <HAL_TIM_IRQHandler+0x15c>
 8004cfe:	f7ff ff8d 	bl	8004c1c <HAL_TIM_OC_DelayElapsedCallback>
 8004d02:	4620      	mov	r0, r4
 8004d04:	f7ff ff8e 	bl	8004c24 <HAL_TIM_PWM_PulseFinishedCallback>
 8004d08:	2200      	movs	r2, #0
 8004d0a:	6823      	ldr	r3, [r4, #0]
 8004d0c:	7722      	strb	r2, [r4, #28]
 8004d0e:	e79c      	b.n	8004c4a <HAL_TIM_IRQHandler+0x1e>
 8004d10:	f06f 0102 	mvn.w	r1, #2
 8004d14:	2201      	movs	r2, #1
 8004d16:	6119      	str	r1, [r3, #16]
 8004d18:	7702      	strb	r2, [r0, #28]
 8004d1a:	699b      	ldr	r3, [r3, #24]
 8004d1c:	0799      	lsls	r1, r3, #30
 8004d1e:	d130      	bne.n	8004d82 <HAL_TIM_IRQHandler+0x156>
 8004d20:	f7ff ff7c 	bl	8004c1c <HAL_TIM_OC_DelayElapsedCallback>
 8004d24:	4620      	mov	r0, r4
 8004d26:	f7ff ff7d 	bl	8004c24 <HAL_TIM_PWM_PulseFinishedCallback>
 8004d2a:	2200      	movs	r2, #0
 8004d2c:	6823      	ldr	r3, [r4, #0]
 8004d2e:	7722      	strb	r2, [r4, #28]
 8004d30:	e785      	b.n	8004c3e <HAL_TIM_IRQHandler+0x12>
 8004d32:	f06f 0220 	mvn.w	r2, #32
 8004d36:	4620      	mov	r0, r4
 8004d38:	611a      	str	r2, [r3, #16]
 8004d3a:	e8bd 4010 	ldmia.w	sp!, {r4, lr}
 8004d3e:	f000 ba2d 	b.w	800519c <HAL_TIMEx_CommutCallback>
 8004d42:	f06f 0201 	mvn.w	r2, #1
 8004d46:	611a      	str	r2, [r3, #16]
 8004d48:	4620      	mov	r0, r4
 8004d4a:	f7fc fb59 	bl	8001400 <HAL_TIM_PeriodElapsedCallback>
 8004d4e:	6823      	ldr	r3, [r4, #0]
 8004d50:	e78d      	b.n	8004c6e <HAL_TIM_IRQHandler+0x42>
 8004d52:	f06f 0280 	mvn.w	r2, #128	; 0x80
 8004d56:	611a      	str	r2, [r3, #16]
 8004d58:	4620      	mov	r0, r4
 8004d5a:	f000 fa21 	bl	80051a0 <HAL_TIMEx_BreakCallback>
 8004d5e:	6823      	ldr	r3, [r4, #0]
 8004d60:	e78b      	b.n	8004c7a <HAL_TIM_IRQHandler+0x4e>
 8004d62:	f46f 7280 	mvn.w	r2, #256	; 0x100
 8004d66:	611a      	str	r2, [r3, #16]
 8004d68:	4620      	mov	r0, r4
 8004d6a:	f000 fa1b 	bl	80051a4 <HAL_TIMEx_Break2Callback>
 8004d6e:	6823      	ldr	r3, [r4, #0]
 8004d70:	e789      	b.n	8004c86 <HAL_TIM_IRQHandler+0x5a>
 8004d72:	f06f 0240 	mvn.w	r2, #64	; 0x40
 8004d76:	611a      	str	r2, [r3, #16]
 8004d78:	4620      	mov	r0, r4
 8004d7a:	f7ff ff55 	bl	8004c28 <HAL_TIM_TriggerCallback>
 8004d7e:	6823      	ldr	r3, [r4, #0]
 8004d80:	e787      	b.n	8004c92 <HAL_TIM_IRQHandler+0x66>
 8004d82:	f7ff ff4d 	bl	8004c20 <HAL_TIM_IC_CaptureCallback>
 8004d86:	e7d0      	b.n	8004d2a <HAL_TIM_IRQHandler+0xfe>
 8004d88:	f7ff ff4a 	bl	8004c20 <HAL_TIM_IC_CaptureCallback>
 8004d8c:	e7bc      	b.n	8004d08 <HAL_TIM_IRQHandler+0xdc>
 8004d8e:	f7ff ff47 	bl	8004c20 <HAL_TIM_IC_CaptureCallback>
 8004d92:	e7a6      	b.n	8004ce2 <HAL_TIM_IRQHandler+0xb6>
 8004d94:	f7ff ff44 	bl	8004c20 <HAL_TIM_IC_CaptureCallback>
 8004d98:	e791      	b.n	8004cbe <HAL_TIM_IRQHandler+0x92>
 8004d9a:	bf00      	nop

08004d9c <TIM_OC2_SetConfig>:
 8004d9c:	6a03      	ldr	r3, [r0, #32]
 8004d9e:	f023 0310 	bic.w	r3, r3, #16
 8004da2:	6203      	str	r3, [r0, #32]
 8004da4:	6a03      	ldr	r3, [r0, #32]
 8004da6:	b470      	push	{r4, r5, r6}
 8004da8:	6844      	ldr	r4, [r0, #4]
 8004daa:	6982      	ldr	r2, [r0, #24]
 8004dac:	680d      	ldr	r5, [r1, #0]
 8004dae:	f022 7280 	bic.w	r2, r2, #16777216	; 0x1000000
 8004db2:	f422 42e6 	bic.w	r2, r2, #29440	; 0x7300
 8004db6:	ea42 2205 	orr.w	r2, r2, r5, lsl #8
 8004dba:	688d      	ldr	r5, [r1, #8]
 8004dbc:	f023 0320 	bic.w	r3, r3, #32
 8004dc0:	ea43 1305 	orr.w	r3, r3, r5, lsl #4
 8004dc4:	4d14      	ldr	r5, [pc, #80]	; (8004e18 <TIM_OC2_SetConfig+0x7c>)
 8004dc6:	42a8      	cmp	r0, r5
 8004dc8:	d010      	beq.n	8004dec <TIM_OC2_SetConfig+0x50>
 8004dca:	f505 6500 	add.w	r5, r5, #2048	; 0x800
 8004dce:	42a8      	cmp	r0, r5
 8004dd0:	d00c      	beq.n	8004dec <TIM_OC2_SetConfig+0x50>
 8004dd2:	f505 6540 	add.w	r5, r5, #3072	; 0xc00
 8004dd6:	42a8      	cmp	r0, r5
 8004dd8:	d00f      	beq.n	8004dfa <TIM_OC2_SetConfig+0x5e>
 8004dda:	f505 6580 	add.w	r5, r5, #1024	; 0x400
 8004dde:	42a8      	cmp	r0, r5
 8004de0:	d00b      	beq.n	8004dfa <TIM_OC2_SetConfig+0x5e>
 8004de2:	f505 6580 	add.w	r5, r5, #1024	; 0x400
 8004de6:	42a8      	cmp	r0, r5
 8004de8:	d10f      	bne.n	8004e0a <TIM_OC2_SetConfig+0x6e>
 8004dea:	e006      	b.n	8004dfa <TIM_OC2_SetConfig+0x5e>
 8004dec:	68cd      	ldr	r5, [r1, #12]
 8004dee:	f023 0380 	bic.w	r3, r3, #128	; 0x80
 8004df2:	ea43 1305 	orr.w	r3, r3, r5, lsl #4
 8004df6:	f023 0340 	bic.w	r3, r3, #64	; 0x40
 8004dfa:	e9d1 6505 	ldrd	r6, r5, [r1, #20]
 8004dfe:	f424 6440 	bic.w	r4, r4, #3072	; 0xc00
 8004e02:	ea46 0c05 	orr.w	ip, r6, r5
 8004e06:	ea44 048c 	orr.w	r4, r4, ip, lsl #2
 8004e0a:	6849      	ldr	r1, [r1, #4]
 8004e0c:	6044      	str	r4, [r0, #4]
 8004e0e:	6182      	str	r2, [r0, #24]
 8004e10:	bc70      	pop	{r4, r5, r6}
 8004e12:	6381      	str	r1, [r0, #56]	; 0x38
 8004e14:	6203      	str	r3, [r0, #32]
 8004e16:	4770      	bx	lr
 8004e18:	40012c00 	.word	0x40012c00

08004e1c <HAL_TIM_PWM_ConfigChannel>:
 8004e1c:	f890 303c 	ldrb.w	r3, [r0, #60]	; 0x3c
 8004e20:	2b01      	cmp	r3, #1
 8004e22:	f000 812b 	beq.w	800507c <HAL_TIM_PWM_ConfigChannel+0x260>
 8004e26:	2301      	movs	r3, #1
 8004e28:	b570      	push	{r4, r5, r6, lr}
 8004e2a:	4604      	mov	r4, r0
 8004e2c:	460d      	mov	r5, r1
 8004e2e:	f880 303c 	strb.w	r3, [r0, #60]	; 0x3c
 8004e32:	2a14      	cmp	r2, #20
 8004e34:	d816      	bhi.n	8004e64 <HAL_TIM_PWM_ConfigChannel+0x48>
 8004e36:	e8df f012 	tbh	[pc, r2, lsl #1]
 8004e3a:	005d      	.short	0x005d
 8004e3c:	00150015 	.word	0x00150015
 8004e40:	00720015 	.word	0x00720015
 8004e44:	00150015 	.word	0x00150015
 8004e48:	00880015 	.word	0x00880015
 8004e4c:	00150015 	.word	0x00150015
 8004e50:	009d0015 	.word	0x009d0015
 8004e54:	00150015 	.word	0x00150015
 8004e58:	00e00015 	.word	0x00e00015
 8004e5c:	00150015 	.word	0x00150015
 8004e60:	001a0015 	.word	0x001a0015
 8004e64:	2300      	movs	r3, #0
 8004e66:	f884 303c 	strb.w	r3, [r4, #60]	; 0x3c
 8004e6a:	2001      	movs	r0, #1
 8004e6c:	bd70      	pop	{r4, r5, r6, pc}
 8004e6e:	6803      	ldr	r3, [r0, #0]
 8004e70:	682e      	ldr	r6, [r5, #0]
 8004e72:	6a1a      	ldr	r2, [r3, #32]
 8004e74:	f422 1280 	bic.w	r2, r2, #1048576	; 0x100000
 8004e78:	621a      	str	r2, [r3, #32]
 8004e7a:	6a1a      	ldr	r2, [r3, #32]
 8004e7c:	6858      	ldr	r0, [r3, #4]
 8004e7e:	6d59      	ldr	r1, [r3, #84]	; 0x54
 8004e80:	f021 7180 	bic.w	r1, r1, #16777216	; 0x1000000
 8004e84:	f421 41e0 	bic.w	r1, r1, #28672	; 0x7000
 8004e88:	ea41 2106 	orr.w	r1, r1, r6, lsl #8
 8004e8c:	68ae      	ldr	r6, [r5, #8]
 8004e8e:	f422 1200 	bic.w	r2, r2, #2097152	; 0x200000
 8004e92:	ea42 5206 	orr.w	r2, r2, r6, lsl #20
 8004e96:	4e7a      	ldr	r6, [pc, #488]	; (8005080 <HAL_TIM_PWM_ConfigChannel+0x264>)
 8004e98:	42b3      	cmp	r3, r6
 8004e9a:	d00f      	beq.n	8004ebc <HAL_TIM_PWM_ConfigChannel+0xa0>
 8004e9c:	f506 6600 	add.w	r6, r6, #2048	; 0x800
 8004ea0:	42b3      	cmp	r3, r6
 8004ea2:	d00b      	beq.n	8004ebc <HAL_TIM_PWM_ConfigChannel+0xa0>
 8004ea4:	f506 6640 	add.w	r6, r6, #3072	; 0xc00
 8004ea8:	42b3      	cmp	r3, r6
 8004eaa:	d007      	beq.n	8004ebc <HAL_TIM_PWM_ConfigChannel+0xa0>
 8004eac:	f506 6680 	add.w	r6, r6, #1024	; 0x400
 8004eb0:	42b3      	cmp	r3, r6
 8004eb2:	d003      	beq.n	8004ebc <HAL_TIM_PWM_ConfigChannel+0xa0>
 8004eb4:	f506 6680 	add.w	r6, r6, #1024	; 0x400
 8004eb8:	42b3      	cmp	r3, r6
 8004eba:	d104      	bne.n	8004ec6 <HAL_TIM_PWM_ConfigChannel+0xaa>
 8004ebc:	696e      	ldr	r6, [r5, #20]
 8004ebe:	f420 2080 	bic.w	r0, r0, #262144	; 0x40000
 8004ec2:	ea40 2086 	orr.w	r0, r0, r6, lsl #10
 8004ec6:	6058      	str	r0, [r3, #4]
 8004ec8:	6559      	str	r1, [r3, #84]	; 0x54
 8004eca:	6869      	ldr	r1, [r5, #4]
 8004ecc:	65d9      	str	r1, [r3, #92]	; 0x5c
 8004ece:	621a      	str	r2, [r3, #32]
 8004ed0:	6d59      	ldr	r1, [r3, #84]	; 0x54
 8004ed2:	692d      	ldr	r5, [r5, #16]
 8004ed4:	f441 6100 	orr.w	r1, r1, #2048	; 0x800
 8004ed8:	6559      	str	r1, [r3, #84]	; 0x54
 8004eda:	6d59      	ldr	r1, [r3, #84]	; 0x54
 8004edc:	f421 6180 	bic.w	r1, r1, #1024	; 0x400
 8004ee0:	6559      	str	r1, [r3, #84]	; 0x54
 8004ee2:	6d5a      	ldr	r2, [r3, #84]	; 0x54
 8004ee4:	ea42 2205 	orr.w	r2, r2, r5, lsl #8
 8004ee8:	655a      	str	r2, [r3, #84]	; 0x54
 8004eea:	2300      	movs	r3, #0
 8004eec:	f884 303c 	strb.w	r3, [r4, #60]	; 0x3c
 8004ef0:	2000      	movs	r0, #0
 8004ef2:	bd70      	pop	{r4, r5, r6, pc}
 8004ef4:	6800      	ldr	r0, [r0, #0]
 8004ef6:	f7ff fd8d 	bl	8004a14 <TIM_OC1_SetConfig>
 8004efa:	6823      	ldr	r3, [r4, #0]
 8004efc:	6928      	ldr	r0, [r5, #16]
 8004efe:	6999      	ldr	r1, [r3, #24]
 8004f00:	f041 0108 	orr.w	r1, r1, #8
 8004f04:	6199      	str	r1, [r3, #24]
 8004f06:	6999      	ldr	r1, [r3, #24]
 8004f08:	f021 0104 	bic.w	r1, r1, #4
 8004f0c:	6199      	str	r1, [r3, #24]
 8004f0e:	699a      	ldr	r2, [r3, #24]
 8004f10:	4302      	orrs	r2, r0
 8004f12:	619a      	str	r2, [r3, #24]
 8004f14:	2300      	movs	r3, #0
 8004f16:	f884 303c 	strb.w	r3, [r4, #60]	; 0x3c
 8004f1a:	2000      	movs	r0, #0
 8004f1c:	bd70      	pop	{r4, r5, r6, pc}
 8004f1e:	6800      	ldr	r0, [r0, #0]
 8004f20:	f7ff ff3c 	bl	8004d9c <TIM_OC2_SetConfig>
 8004f24:	6823      	ldr	r3, [r4, #0]
 8004f26:	6928      	ldr	r0, [r5, #16]
 8004f28:	6999      	ldr	r1, [r3, #24]
 8004f2a:	f441 6100 	orr.w	r1, r1, #2048	; 0x800
 8004f2e:	6199      	str	r1, [r3, #24]
 8004f30:	6999      	ldr	r1, [r3, #24]
 8004f32:	f421 6180 	bic.w	r1, r1, #1024	; 0x400
 8004f36:	6199      	str	r1, [r3, #24]
 8004f38:	699a      	ldr	r2, [r3, #24]
 8004f3a:	ea42 2200 	orr.w	r2, r2, r0, lsl #8
 8004f3e:	619a      	str	r2, [r3, #24]
 8004f40:	2300      	movs	r3, #0
 8004f42:	f884 303c 	strb.w	r3, [r4, #60]	; 0x3c
 8004f46:	2000      	movs	r0, #0
 8004f48:	bd70      	pop	{r4, r5, r6, pc}
 8004f4a:	6800      	ldr	r0, [r0, #0]
 8004f4c:	f7ff fd9e 	bl	8004a8c <TIM_OC3_SetConfig>
 8004f50:	6823      	ldr	r3, [r4, #0]
 8004f52:	6928      	ldr	r0, [r5, #16]
 8004f54:	69d9      	ldr	r1, [r3, #28]
 8004f56:	f041 0108 	orr.w	r1, r1, #8
 8004f5a:	61d9      	str	r1, [r3, #28]
 8004f5c:	69d9      	ldr	r1, [r3, #28]
 8004f5e:	f021 0104 	bic.w	r1, r1, #4
 8004f62:	61d9      	str	r1, [r3, #28]
 8004f64:	69da      	ldr	r2, [r3, #28]
 8004f66:	4302      	orrs	r2, r0
 8004f68:	61da      	str	r2, [r3, #28]
 8004f6a:	2300      	movs	r3, #0
 8004f6c:	f884 303c 	strb.w	r3, [r4, #60]	; 0x3c
 8004f70:	2000      	movs	r0, #0
 8004f72:	bd70      	pop	{r4, r5, r6, pc}
 8004f74:	6803      	ldr	r3, [r0, #0]
 8004f76:	682e      	ldr	r6, [r5, #0]
 8004f78:	6a1a      	ldr	r2, [r3, #32]
 8004f7a:	f422 5280 	bic.w	r2, r2, #4096	; 0x1000
 8004f7e:	621a      	str	r2, [r3, #32]
 8004f80:	6a1a      	ldr	r2, [r3, #32]
 8004f82:	6858      	ldr	r0, [r3, #4]
 8004f84:	69d9      	ldr	r1, [r3, #28]
 8004f86:	f021 7180 	bic.w	r1, r1, #16777216	; 0x1000000
 8004f8a:	f421 41e6 	bic.w	r1, r1, #29440	; 0x7300
 8004f8e:	ea41 2106 	orr.w	r1, r1, r6, lsl #8
 8004f92:	68ae      	ldr	r6, [r5, #8]
 8004f94:	f422 5200 	bic.w	r2, r2, #8192	; 0x2000
 8004f98:	ea42 3206 	orr.w	r2, r2, r6, lsl #12
 8004f9c:	4e38      	ldr	r6, [pc, #224]	; (8005080 <HAL_TIM_PWM_ConfigChannel+0x264>)
 8004f9e:	42b3      	cmp	r3, r6
 8004fa0:	d00f      	beq.n	8004fc2 <HAL_TIM_PWM_ConfigChannel+0x1a6>
 8004fa2:	f506 6600 	add.w	r6, r6, #2048	; 0x800
 8004fa6:	42b3      	cmp	r3, r6
 8004fa8:	d00b      	beq.n	8004fc2 <HAL_TIM_PWM_ConfigChannel+0x1a6>
 8004faa:	f506 6640 	add.w	r6, r6, #3072	; 0xc00
 8004fae:	42b3      	cmp	r3, r6
 8004fb0:	d007      	beq.n	8004fc2 <HAL_TIM_PWM_ConfigChannel+0x1a6>
 8004fb2:	f506 6680 	add.w	r6, r6, #1024	; 0x400
 8004fb6:	42b3      	cmp	r3, r6
 8004fb8:	d003      	beq.n	8004fc2 <HAL_TIM_PWM_ConfigChannel+0x1a6>
 8004fba:	f506 6680 	add.w	r6, r6, #1024	; 0x400
 8004fbe:	42b3      	cmp	r3, r6
 8004fc0:	d104      	bne.n	8004fcc <HAL_TIM_PWM_ConfigChannel+0x1b0>
 8004fc2:	696e      	ldr	r6, [r5, #20]
 8004fc4:	f420 4080 	bic.w	r0, r0, #16384	; 0x4000
 8004fc8:	ea40 1086 	orr.w	r0, r0, r6, lsl #6
 8004fcc:	6058      	str	r0, [r3, #4]
 8004fce:	61d9      	str	r1, [r3, #28]
 8004fd0:	6869      	ldr	r1, [r5, #4]
 8004fd2:	6419      	str	r1, [r3, #64]	; 0x40
 8004fd4:	621a      	str	r2, [r3, #32]
 8004fd6:	69d9      	ldr	r1, [r3, #28]
 8004fd8:	692d      	ldr	r5, [r5, #16]
 8004fda:	f441 6100 	orr.w	r1, r1, #2048	; 0x800
 8004fde:	61d9      	str	r1, [r3, #28]
 8004fe0:	69d9      	ldr	r1, [r3, #28]
 8004fe2:	f421 6180 	bic.w	r1, r1, #1024	; 0x400
 8004fe6:	61d9      	str	r1, [r3, #28]
 8004fe8:	69da      	ldr	r2, [r3, #28]
 8004fea:	ea42 2205 	orr.w	r2, r2, r5, lsl #8
 8004fee:	61da      	str	r2, [r3, #28]
 8004ff0:	2300      	movs	r3, #0
 8004ff2:	f884 303c 	strb.w	r3, [r4, #60]	; 0x3c
 8004ff6:	2000      	movs	r0, #0
 8004ff8:	bd70      	pop	{r4, r5, r6, pc}
 8004ffa:	6803      	ldr	r3, [r0, #0]
 8004ffc:	682e      	ldr	r6, [r5, #0]
 8004ffe:	6a1a      	ldr	r2, [r3, #32]
 8005000:	f422 3280 	bic.w	r2, r2, #65536	; 0x10000
 8005004:	621a      	str	r2, [r3, #32]
 8005006:	6a1a      	ldr	r2, [r3, #32]
 8005008:	6858      	ldr	r0, [r3, #4]
 800500a:	6d59      	ldr	r1, [r3, #84]	; 0x54
 800500c:	f421 3180 	bic.w	r1, r1, #65536	; 0x10000
 8005010:	f021 0170 	bic.w	r1, r1, #112	; 0x70
 8005014:	4331      	orrs	r1, r6
 8005016:	68ae      	ldr	r6, [r5, #8]
 8005018:	f422 3200 	bic.w	r2, r2, #131072	; 0x20000
 800501c:	ea42 4206 	orr.w	r2, r2, r6, lsl #16
 8005020:	4e17      	ldr	r6, [pc, #92]	; (8005080 <HAL_TIM_PWM_ConfigChannel+0x264>)
 8005022:	42b3      	cmp	r3, r6
 8005024:	d00f      	beq.n	8005046 <HAL_TIM_PWM_ConfigChannel+0x22a>
 8005026:	f506 6600 	add.w	r6, r6, #2048	; 0x800
 800502a:	42b3      	cmp	r3, r6
 800502c:	d00b      	beq.n	8005046 <HAL_TIM_PWM_ConfigChannel+0x22a>
 800502e:	f506 6640 	add.w	r6, r6, #3072	; 0xc00
 8005032:	42b3      	cmp	r3, r6
 8005034:	d007      	beq.n	8005046 <HAL_TIM_PWM_ConfigChannel+0x22a>
 8005036:	f506 6680 	add.w	r6, r6, #1024	; 0x400
 800503a:	42b3      	cmp	r3, r6
 800503c:	d003      	beq.n	8005046 <HAL_TIM_PWM_ConfigChannel+0x22a>
 800503e:	f506 6680 	add.w	r6, r6, #1024	; 0x400
 8005042:	42b3      	cmp	r3, r6
 8005044:	d104      	bne.n	8005050 <HAL_TIM_PWM_ConfigChannel+0x234>
 8005046:	696e      	ldr	r6, [r5, #20]
 8005048:	f420 3080 	bic.w	r0, r0, #65536	; 0x10000
 800504c:	ea40 2006 	orr.w	r0, r0, r6, lsl #8
 8005050:	6058      	str	r0, [r3, #4]
 8005052:	6559      	str	r1, [r3, #84]	; 0x54
 8005054:	6869      	ldr	r1, [r5, #4]
 8005056:	6599      	str	r1, [r3, #88]	; 0x58
 8005058:	621a      	str	r2, [r3, #32]
 800505a:	6d59      	ldr	r1, [r3, #84]	; 0x54
 800505c:	692d      	ldr	r5, [r5, #16]
 800505e:	f041 0108 	orr.w	r1, r1, #8
 8005062:	6559      	str	r1, [r3, #84]	; 0x54
 8005064:	6d59      	ldr	r1, [r3, #84]	; 0x54
 8005066:	f021 0104 	bic.w	r1, r1, #4
 800506a:	6559      	str	r1, [r3, #84]	; 0x54
 800506c:	6d5a      	ldr	r2, [r3, #84]	; 0x54
 800506e:	432a      	orrs	r2, r5
 8005070:	655a      	str	r2, [r3, #84]	; 0x54
 8005072:	2300      	movs	r3, #0
 8005074:	f884 303c 	strb.w	r3, [r4, #60]	; 0x3c
 8005078:	2000      	movs	r0, #0
 800507a:	bd70      	pop	{r4, r5, r6, pc}
 800507c:	2002      	movs	r0, #2
 800507e:	4770      	bx	lr
 8005080:	40012c00 	.word	0x40012c00

08005084 <HAL_TIMEx_MasterConfigSynchronization>:
 8005084:	f890 303c 	ldrb.w	r3, [r0, #60]	; 0x3c
 8005088:	2b01      	cmp	r3, #1
 800508a:	d03a      	beq.n	8005102 <HAL_TIMEx_MasterConfigSynchronization+0x7e>
 800508c:	b470      	push	{r4, r5, r6}
 800508e:	6802      	ldr	r2, [r0, #0]
 8005090:	4d1d      	ldr	r5, [pc, #116]	; (8005108 <HAL_TIMEx_MasterConfigSynchronization+0x84>)
 8005092:	2302      	movs	r3, #2
 8005094:	f880 303d 	strb.w	r3, [r0, #61]	; 0x3d
 8005098:	42aa      	cmp	r2, r5
 800509a:	6853      	ldr	r3, [r2, #4]
 800509c:	6894      	ldr	r4, [r2, #8]
 800509e:	d026      	beq.n	80050ee <HAL_TIMEx_MasterConfigSynchronization+0x6a>
 80050a0:	f505 6500 	add.w	r5, r5, #2048	; 0x800
 80050a4:	42aa      	cmp	r2, r5
 80050a6:	d022      	beq.n	80050ee <HAL_TIMEx_MasterConfigSynchronization+0x6a>
 80050a8:	680e      	ldr	r6, [r1, #0]
 80050aa:	f023 0370 	bic.w	r3, r3, #112	; 0x70
 80050ae:	4333      	orrs	r3, r6
 80050b0:	f1b2 4f80 	cmp.w	r2, #1073741824	; 0x40000000
 80050b4:	6053      	str	r3, [r2, #4]
 80050b6:	d00c      	beq.n	80050d2 <HAL_TIMEx_MasterConfigSynchronization+0x4e>
 80050b8:	4b14      	ldr	r3, [pc, #80]	; (800510c <HAL_TIMEx_MasterConfigSynchronization+0x88>)
 80050ba:	429a      	cmp	r2, r3
 80050bc:	d009      	beq.n	80050d2 <HAL_TIMEx_MasterConfigSynchronization+0x4e>
 80050be:	f503 6380 	add.w	r3, r3, #1024	; 0x400
 80050c2:	429a      	cmp	r2, r3
 80050c4:	d005      	beq.n	80050d2 <HAL_TIMEx_MasterConfigSynchronization+0x4e>
 80050c6:	42aa      	cmp	r2, r5
 80050c8:	d003      	beq.n	80050d2 <HAL_TIMEx_MasterConfigSynchronization+0x4e>
 80050ca:	f503 339c 	add.w	r3, r3, #79872	; 0x13800
 80050ce:	429a      	cmp	r2, r3
 80050d0:	d104      	bne.n	80050dc <HAL_TIMEx_MasterConfigSynchronization+0x58>
 80050d2:	688b      	ldr	r3, [r1, #8]
 80050d4:	f024 0480 	bic.w	r4, r4, #128	; 0x80
 80050d8:	431c      	orrs	r4, r3
 80050da:	6094      	str	r4, [r2, #8]
 80050dc:	2300      	movs	r3, #0
 80050de:	2201      	movs	r2, #1
 80050e0:	f880 203d 	strb.w	r2, [r0, #61]	; 0x3d
 80050e4:	f880 303c 	strb.w	r3, [r0, #60]	; 0x3c
 80050e8:	bc70      	pop	{r4, r5, r6}
 80050ea:	4618      	mov	r0, r3
 80050ec:	4770      	bx	lr
 80050ee:	684d      	ldr	r5, [r1, #4]
 80050f0:	f423 0370 	bic.w	r3, r3, #15728640	; 0xf00000
 80050f4:	432b      	orrs	r3, r5
 80050f6:	680d      	ldr	r5, [r1, #0]
 80050f8:	f023 0370 	bic.w	r3, r3, #112	; 0x70
 80050fc:	432b      	orrs	r3, r5
 80050fe:	6053      	str	r3, [r2, #4]
 8005100:	e7e7      	b.n	80050d2 <HAL_TIMEx_MasterConfigSynchronization+0x4e>
 8005102:	2002      	movs	r0, #2
 8005104:	4770      	bx	lr
 8005106:	bf00      	nop
 8005108:	40012c00 	.word	0x40012c00
 800510c:	40000400 	.word	0x40000400

08005110 <HAL_TIMEx_ConfigBreakDeadTime>:
 8005110:	f890 303c 	ldrb.w	r3, [r0, #60]	; 0x3c
 8005114:	2b01      	cmp	r3, #1
 8005116:	d03d      	beq.n	8005194 <HAL_TIMEx_ConfigBreakDeadTime+0x84>
 8005118:	b410      	push	{r4}
 800511a:	e9d1 4302 	ldrd	r4, r3, [r1, #8]
 800511e:	f423 7340 	bic.w	r3, r3, #768	; 0x300
 8005122:	4602      	mov	r2, r0
 8005124:	4323      	orrs	r3, r4
 8005126:	6848      	ldr	r0, [r1, #4]
 8005128:	680c      	ldr	r4, [r1, #0]
 800512a:	f423 6380 	bic.w	r3, r3, #1024	; 0x400
 800512e:	4303      	orrs	r3, r0
 8005130:	f423 6300 	bic.w	r3, r3, #2048	; 0x800
 8005134:	6908      	ldr	r0, [r1, #16]
 8005136:	4323      	orrs	r3, r4
 8005138:	f423 5380 	bic.w	r3, r3, #4096	; 0x1000
 800513c:	694c      	ldr	r4, [r1, #20]
 800513e:	4303      	orrs	r3, r0
 8005140:	f423 5300 	bic.w	r3, r3, #8192	; 0x2000
 8005144:	6a88      	ldr	r0, [r1, #40]	; 0x28
 8005146:	4323      	orrs	r3, r4
 8005148:	f423 4380 	bic.w	r3, r3, #16384	; 0x4000
 800514c:	698c      	ldr	r4, [r1, #24]
 800514e:	4303      	orrs	r3, r0
 8005150:	f423 2370 	bic.w	r3, r3, #983040	; 0xf0000
 8005154:	6810      	ldr	r0, [r2, #0]
 8005156:	ea43 4304 	orr.w	r3, r3, r4, lsl #16
 800515a:	4c0f      	ldr	r4, [pc, #60]	; (8005198 <HAL_TIMEx_ConfigBreakDeadTime+0x88>)
 800515c:	42a0      	cmp	r0, r4
 800515e:	d00b      	beq.n	8005178 <HAL_TIMEx_ConfigBreakDeadTime+0x68>
 8005160:	f504 6400 	add.w	r4, r4, #2048	; 0x800
 8005164:	42a0      	cmp	r0, r4
 8005166:	d007      	beq.n	8005178 <HAL_TIMEx_ConfigBreakDeadTime+0x68>
 8005168:	2100      	movs	r1, #0
 800516a:	6443      	str	r3, [r0, #68]	; 0x44
 800516c:	f882 103c 	strb.w	r1, [r2, #60]	; 0x3c
 8005170:	4608      	mov	r0, r1
 8005172:	f85d 4b04 	ldr.w	r4, [sp], #4
 8005176:	4770      	bx	lr
 8005178:	6a4c      	ldr	r4, [r1, #36]	; 0x24
 800517a:	f423 0370 	bic.w	r3, r3, #15728640	; 0xf00000
 800517e:	ea43 5304 	orr.w	r3, r3, r4, lsl #20
 8005182:	69cc      	ldr	r4, [r1, #28]
 8005184:	6a09      	ldr	r1, [r1, #32]
 8005186:	f023 7380 	bic.w	r3, r3, #16777216	; 0x1000000
 800518a:	4323      	orrs	r3, r4
 800518c:	f023 7300 	bic.w	r3, r3, #33554432	; 0x2000000
 8005190:	430b      	orrs	r3, r1
 8005192:	e7e9      	b.n	8005168 <HAL_TIMEx_ConfigBreakDeadTime+0x58>
 8005194:	2002      	movs	r0, #2
 8005196:	4770      	bx	lr
 8005198:	40012c00 	.word	0x40012c00

0800519c <HAL_TIMEx_CommutCallback>:
 800519c:	4770      	bx	lr
 800519e:	bf00      	nop

080051a0 <HAL_TIMEx_BreakCallback>:
 80051a0:	4770      	bx	lr
 80051a2:	bf00      	nop

080051a4 <HAL_TIMEx_Break2Callback>:
 80051a4:	4770      	bx	lr
 80051a6:	bf00      	nop

080051a8 <HAL_UART_Transmit_DMA>:
 80051a8:	b5f8      	push	{r3, r4, r5, r6, r7, lr}
 80051aa:	6f86      	ldr	r6, [r0, #120]	; 0x78
 80051ac:	2e20      	cmp	r6, #32
 80051ae:	d140      	bne.n	8005232 <HAL_UART_Transmit_DMA+0x8a>
 80051b0:	2900      	cmp	r1, #0
 80051b2:	d03c      	beq.n	800522e <HAL_UART_Transmit_DMA+0x86>
 80051b4:	2a00      	cmp	r2, #0
 80051b6:	d03a      	beq.n	800522e <HAL_UART_Transmit_DMA+0x86>
 80051b8:	4604      	mov	r4, r0
 80051ba:	f890 0074 	ldrb.w	r0, [r0, #116]	; 0x74
 80051be:	2801      	cmp	r0, #1
 80051c0:	d037      	beq.n	8005232 <HAL_UART_Transmit_DMA+0x8a>
 80051c2:	6ee0      	ldr	r0, [r4, #108]	; 0x6c
 80051c4:	f8a4 2052 	strh.w	r2, [r4, #82]	; 0x52
 80051c8:	2700      	movs	r7, #0
 80051ca:	2501      	movs	r5, #1
 80051cc:	2321      	movs	r3, #33	; 0x21
 80051ce:	f8c4 7080 	str.w	r7, [r4, #128]	; 0x80
 80051d2:	64e1      	str	r1, [r4, #76]	; 0x4c
 80051d4:	f8a4 2050 	strh.w	r2, [r4, #80]	; 0x50
 80051d8:	f884 5074 	strb.w	r5, [r4, #116]	; 0x74
 80051dc:	67a3      	str	r3, [r4, #120]	; 0x78
 80051de:	b190      	cbz	r0, 8005206 <HAL_UART_Transmit_DMA+0x5e>
 80051e0:	f8df c064 	ldr.w	ip, [pc, #100]	; 8005248 <HAL_UART_Transmit_DMA+0xa0>
 80051e4:	6347      	str	r7, [r0, #52]	; 0x34
 80051e6:	4613      	mov	r3, r2
 80051e8:	6822      	ldr	r2, [r4, #0]
 80051ea:	f8c0 c028 	str.w	ip, [r0, #40]	; 0x28
 80051ee:	f8df c05c 	ldr.w	ip, [pc, #92]	; 800524c <HAL_UART_Transmit_DMA+0xa4>
 80051f2:	f8c0 c02c 	str.w	ip, [r0, #44]	; 0x2c
 80051f6:	f8df c058 	ldr.w	ip, [pc, #88]	; 8005250 <HAL_UART_Transmit_DMA+0xa8>
 80051fa:	f8c0 c030 	str.w	ip, [r0, #48]	; 0x30
 80051fe:	3228      	adds	r2, #40	; 0x28
 8005200:	f7fe fae2 	bl	80037c8 <HAL_DMA_Start_IT>
 8005204:	b9b8      	cbnz	r0, 8005236 <HAL_UART_Transmit_DMA+0x8e>
 8005206:	6822      	ldr	r2, [r4, #0]
 8005208:	2140      	movs	r1, #64	; 0x40
 800520a:	2300      	movs	r3, #0
 800520c:	6211      	str	r1, [r2, #32]
 800520e:	f884 3074 	strb.w	r3, [r4, #116]	; 0x74
 8005212:	f102 0308 	add.w	r3, r2, #8
 8005216:	e853 3f00 	ldrex	r3, [r3]
 800521a:	f043 0380 	orr.w	r3, r3, #128	; 0x80
 800521e:	f102 0008 	add.w	r0, r2, #8
 8005222:	e840 3100 	strex	r1, r3, [r0]
 8005226:	2900      	cmp	r1, #0
 8005228:	d1f3      	bne.n	8005212 <HAL_UART_Transmit_DMA+0x6a>
 800522a:	2000      	movs	r0, #0
 800522c:	bdf8      	pop	{r3, r4, r5, r6, r7, pc}
 800522e:	2001      	movs	r0, #1
 8005230:	bdf8      	pop	{r3, r4, r5, r6, r7, pc}
 8005232:	2002      	movs	r0, #2
 8005234:	bdf8      	pop	{r3, r4, r5, r6, r7, pc}
 8005236:	2310      	movs	r3, #16
 8005238:	f884 7074 	strb.w	r7, [r4, #116]	; 0x74
 800523c:	f8c4 3080 	str.w	r3, [r4, #128]	; 0x80
 8005240:	4628      	mov	r0, r5
 8005242:	67a6      	str	r6, [r4, #120]	; 0x78
 8005244:	bdf8      	pop	{r3, r4, r5, r6, r7, pc}
 8005246:	bf00      	nop
 8005248:	08005259 	.word	0x08005259
 800524c:	080052a1 	.word	0x080052a1
 8005250:	080052b1 	.word	0x080052b1

08005254 <HAL_UART_TxCpltCallback>:
 8005254:	4770      	bx	lr
 8005256:	bf00      	nop

08005258 <UART_DMATransmitCplt>:
 8005258:	b508      	push	{r3, lr}
 800525a:	6983      	ldr	r3, [r0, #24]
 800525c:	6a40      	ldr	r0, [r0, #36]	; 0x24
 800525e:	2b20      	cmp	r3, #32
 8005260:	d018      	beq.n	8005294 <UART_DMATransmitCplt+0x3c>
 8005262:	2300      	movs	r3, #0
 8005264:	6802      	ldr	r2, [r0, #0]
 8005266:	f8a0 3052 	strh.w	r3, [r0, #82]	; 0x52
 800526a:	f102 0308 	add.w	r3, r2, #8
 800526e:	e853 3f00 	ldrex	r3, [r3]
 8005272:	f023 0380 	bic.w	r3, r3, #128	; 0x80
 8005276:	f102 0008 	add.w	r0, r2, #8
 800527a:	e840 3100 	strex	r1, r3, [r0]
 800527e:	2900      	cmp	r1, #0
 8005280:	d1f3      	bne.n	800526a <UART_DMATransmitCplt+0x12>
 8005282:	e852 3f00 	ldrex	r3, [r2]
 8005286:	f043 0340 	orr.w	r3, r3, #64	; 0x40
 800528a:	e842 3100 	strex	r1, r3, [r2]
 800528e:	2900      	cmp	r1, #0
 8005290:	d1f7      	bne.n	8005282 <UART_DMATransmitCplt+0x2a>
 8005292:	bd08      	pop	{r3, pc}
 8005294:	f7ff ffde 	bl	8005254 <HAL_UART_TxCpltCallback>
 8005298:	bd08      	pop	{r3, pc}
 800529a:	bf00      	nop

0800529c <HAL_UART_TxHalfCpltCallback>:
 800529c:	4770      	bx	lr
 800529e:	bf00      	nop

080052a0 <UART_DMATxHalfCplt>:
 80052a0:	b508      	push	{r3, lr}
 80052a2:	6a40      	ldr	r0, [r0, #36]	; 0x24
 80052a4:	f7ff fffa 	bl	800529c <HAL_UART_TxHalfCpltCallback>
 80052a8:	bd08      	pop	{r3, pc}
 80052aa:	bf00      	nop

080052ac <HAL_UART_ErrorCallback>:
 80052ac:	4770      	bx	lr
 80052ae:	bf00      	nop

080052b0 <UART_DMAError>:
 80052b0:	6a40      	ldr	r0, [r0, #36]	; 0x24
 80052b2:	6803      	ldr	r3, [r0, #0]
 80052b4:	6f81      	ldr	r1, [r0, #120]	; 0x78
 80052b6:	b510      	push	{r4, lr}
 80052b8:	6fc4      	ldr	r4, [r0, #124]	; 0x7c
 80052ba:	689a      	ldr	r2, [r3, #8]
 80052bc:	0612      	lsls	r2, r2, #24
 80052be:	d501      	bpl.n	80052c4 <UART_DMAError+0x14>
 80052c0:	2921      	cmp	r1, #33	; 0x21
 80052c2:	d00d      	beq.n	80052e0 <UART_DMAError+0x30>
 80052c4:	689a      	ldr	r2, [r3, #8]
 80052c6:	0652      	lsls	r2, r2, #25
 80052c8:	d501      	bpl.n	80052ce <UART_DMAError+0x1e>
 80052ca:	2c22      	cmp	r4, #34	; 0x22
 80052cc:	d016      	beq.n	80052fc <UART_DMAError+0x4c>
 80052ce:	f8d0 3080 	ldr.w	r3, [r0, #128]	; 0x80
 80052d2:	f043 0310 	orr.w	r3, r3, #16
 80052d6:	f8c0 3080 	str.w	r3, [r0, #128]	; 0x80
 80052da:	f7ff ffe7 	bl	80052ac <HAL_UART_ErrorCallback>
 80052de:	bd10      	pop	{r4, pc}
 80052e0:	2200      	movs	r2, #0
 80052e2:	f8a0 2052 	strh.w	r2, [r0, #82]	; 0x52
 80052e6:	e853 2f00 	ldrex	r2, [r3]
 80052ea:	f022 02c0 	bic.w	r2, r2, #192	; 0xc0
 80052ee:	e843 2100 	strex	r1, r2, [r3]
 80052f2:	2900      	cmp	r1, #0
 80052f4:	d1f7      	bne.n	80052e6 <UART_DMAError+0x36>
 80052f6:	2220      	movs	r2, #32
 80052f8:	6782      	str	r2, [r0, #120]	; 0x78
 80052fa:	e7e3      	b.n	80052c4 <UART_DMAError+0x14>
 80052fc:	2200      	movs	r2, #0
 80052fe:	f8a0 205a 	strh.w	r2, [r0, #90]	; 0x5a
 8005302:	e853 2f00 	ldrex	r2, [r3]
 8005306:	f422 7290 	bic.w	r2, r2, #288	; 0x120
 800530a:	e843 2100 	strex	r1, r2, [r3]
 800530e:	2900      	cmp	r1, #0
 8005310:	d1f7      	bne.n	8005302 <UART_DMAError+0x52>
 8005312:	f103 0208 	add.w	r2, r3, #8
 8005316:	e852 2f00 	ldrex	r2, [r2]
 800531a:	f022 0201 	bic.w	r2, r2, #1
 800531e:	f103 0408 	add.w	r4, r3, #8
 8005322:	e844 2100 	strex	r1, r2, [r4]
 8005326:	2900      	cmp	r1, #0
 8005328:	d1f3      	bne.n	8005312 <UART_DMAError+0x62>
 800532a:	6e02      	ldr	r2, [r0, #96]	; 0x60
 800532c:	2a01      	cmp	r2, #1
 800532e:	d005      	beq.n	800533c <UART_DMAError+0x8c>
 8005330:	2300      	movs	r3, #0
 8005332:	2220      	movs	r2, #32
 8005334:	67c2      	str	r2, [r0, #124]	; 0x7c
 8005336:	6643      	str	r3, [r0, #100]	; 0x64
 8005338:	6603      	str	r3, [r0, #96]	; 0x60
 800533a:	e7c8      	b.n	80052ce <UART_DMAError+0x1e>
 800533c:	e853 2f00 	ldrex	r2, [r3]
 8005340:	f022 0210 	bic.w	r2, r2, #16
 8005344:	e843 2100 	strex	r1, r2, [r3]
 8005348:	2900      	cmp	r1, #0
 800534a:	d0f1      	beq.n	8005330 <UART_DMAError+0x80>
 800534c:	e853 2f00 	ldrex	r2, [r3]
 8005350:	f022 0210 	bic.w	r2, r2, #16
 8005354:	e843 2100 	strex	r1, r2, [r3]
 8005358:	2900      	cmp	r1, #0
 800535a:	d1ef      	bne.n	800533c <UART_DMAError+0x8c>
 800535c:	e7e8      	b.n	8005330 <UART_DMAError+0x80>
 800535e:	bf00      	nop

08005360 <UART_DMAAbortOnError>:
 8005360:	b508      	push	{r3, lr}
 8005362:	6a40      	ldr	r0, [r0, #36]	; 0x24
 8005364:	2300      	movs	r3, #0
 8005366:	f8a0 305a 	strh.w	r3, [r0, #90]	; 0x5a
 800536a:	f8a0 3052 	strh.w	r3, [r0, #82]	; 0x52
 800536e:	f7ff ff9d 	bl	80052ac <HAL_UART_ErrorCallback>
 8005372:	bd08      	pop	{r3, pc}

08005374 <HAL_UARTEx_RxEventCallback>:
 8005374:	4770      	bx	lr
 8005376:	bf00      	nop

08005378 <HAL_UART_IRQHandler>:
 8005378:	6803      	ldr	r3, [r0, #0]
 800537a:	69da      	ldr	r2, [r3, #28]
 800537c:	6819      	ldr	r1, [r3, #0]
 800537e:	f640 0c0f 	movw	ip, #2063	; 0x80f
 8005382:	ea12 0f0c 	tst.w	r2, ip
 8005386:	b570      	push	{r4, r5, r6, lr}
 8005388:	689d      	ldr	r5, [r3, #8]
 800538a:	4604      	mov	r4, r0
 800538c:	d17c      	bne.n	8005488 <HAL_UART_IRQHandler+0x110>
 800538e:	0696      	lsls	r6, r2, #26
 8005390:	d502      	bpl.n	8005398 <HAL_UART_IRQHandler+0x20>
 8005392:	068e      	lsls	r6, r1, #26
 8005394:	f100 8110 	bmi.w	80055b8 <HAL_UART_IRQHandler+0x240>
 8005398:	6e20      	ldr	r0, [r4, #96]	; 0x60
 800539a:	2801      	cmp	r0, #1
 800539c:	d024      	beq.n	80053e8 <HAL_UART_IRQHandler+0x70>
 800539e:	02d6      	lsls	r6, r2, #11
 80053a0:	d502      	bpl.n	80053a8 <HAL_UART_IRQHandler+0x30>
 80053a2:	0268      	lsls	r0, r5, #9
 80053a4:	f100 810d 	bmi.w	80055c2 <HAL_UART_IRQHandler+0x24a>
 80053a8:	0616      	lsls	r6, r2, #24
 80053aa:	d414      	bmi.n	80053d6 <HAL_UART_IRQHandler+0x5e>
 80053ac:	0650      	lsls	r0, r2, #25
 80053ae:	d501      	bpl.n	80053b4 <HAL_UART_IRQHandler+0x3c>
 80053b0:	064a      	lsls	r2, r1, #25
 80053b2:	d400      	bmi.n	80053b6 <HAL_UART_IRQHandler+0x3e>
 80053b4:	bd70      	pop	{r4, r5, r6, pc}
 80053b6:	e853 2f00 	ldrex	r2, [r3]
 80053ba:	f022 0240 	bic.w	r2, r2, #64	; 0x40
 80053be:	e843 2100 	strex	r1, r2, [r3]
 80053c2:	2900      	cmp	r1, #0
 80053c4:	d1f7      	bne.n	80053b6 <HAL_UART_IRQHandler+0x3e>
 80053c6:	2220      	movs	r2, #32
 80053c8:	2300      	movs	r3, #0
 80053ca:	67a2      	str	r2, [r4, #120]	; 0x78
 80053cc:	66a3      	str	r3, [r4, #104]	; 0x68
 80053ce:	4620      	mov	r0, r4
 80053d0:	f7ff ff40 	bl	8005254 <HAL_UART_TxCpltCallback>
 80053d4:	bd70      	pop	{r4, r5, r6, pc}
 80053d6:	060d      	lsls	r5, r1, #24
 80053d8:	d5e8      	bpl.n	80053ac <HAL_UART_IRQHandler+0x34>
 80053da:	6ea3      	ldr	r3, [r4, #104]	; 0x68
 80053dc:	2b00      	cmp	r3, #0
 80053de:	d0e9      	beq.n	80053b4 <HAL_UART_IRQHandler+0x3c>
 80053e0:	4620      	mov	r0, r4
 80053e2:	e8bd 4070 	ldmia.w	sp!, {r4, r5, r6, lr}
 80053e6:	4718      	bx	r3
 80053e8:	06d6      	lsls	r6, r2, #27
 80053ea:	d5d8      	bpl.n	800539e <HAL_UART_IRQHandler+0x26>
 80053ec:	06c8      	lsls	r0, r1, #27
 80053ee:	d5d6      	bpl.n	800539e <HAL_UART_IRQHandler+0x26>
 80053f0:	2210      	movs	r2, #16
 80053f2:	621a      	str	r2, [r3, #32]
 80053f4:	689a      	ldr	r2, [r3, #8]
 80053f6:	0652      	lsls	r2, r2, #25
 80053f8:	f140 8100 	bpl.w	80055fc <HAL_UART_IRQHandler+0x284>
 80053fc:	6f20      	ldr	r0, [r4, #112]	; 0x70
 80053fe:	6802      	ldr	r2, [r0, #0]
 8005400:	6852      	ldr	r2, [r2, #4]
 8005402:	b292      	uxth	r2, r2
 8005404:	2a00      	cmp	r2, #0
 8005406:	d0d5      	beq.n	80053b4 <HAL_UART_IRQHandler+0x3c>
 8005408:	f8b4 1058 	ldrh.w	r1, [r4, #88]	; 0x58
 800540c:	4291      	cmp	r1, r2
 800540e:	d9d1      	bls.n	80053b4 <HAL_UART_IRQHandler+0x3c>
 8005410:	f8a4 205a 	strh.w	r2, [r4, #90]	; 0x5a
 8005414:	6982      	ldr	r2, [r0, #24]
 8005416:	2a20      	cmp	r2, #32
 8005418:	d02e      	beq.n	8005478 <HAL_UART_IRQHandler+0x100>
 800541a:	e853 2f00 	ldrex	r2, [r3]
 800541e:	f422 7280 	bic.w	r2, r2, #256	; 0x100
 8005422:	e843 2100 	strex	r1, r2, [r3]
 8005426:	2900      	cmp	r1, #0
 8005428:	d1f7      	bne.n	800541a <HAL_UART_IRQHandler+0xa2>
 800542a:	f103 0208 	add.w	r2, r3, #8
 800542e:	e852 2f00 	ldrex	r2, [r2]
 8005432:	f022 0201 	bic.w	r2, r2, #1
 8005436:	f103 0508 	add.w	r5, r3, #8
 800543a:	e845 2100 	strex	r1, r2, [r5]
 800543e:	2900      	cmp	r1, #0
 8005440:	d1f3      	bne.n	800542a <HAL_UART_IRQHandler+0xb2>
 8005442:	f103 0208 	add.w	r2, r3, #8
 8005446:	e852 2f00 	ldrex	r2, [r2]
 800544a:	f022 0240 	bic.w	r2, r2, #64	; 0x40
 800544e:	f103 0508 	add.w	r5, r3, #8
 8005452:	e845 2100 	strex	r1, r2, [r5]
 8005456:	2900      	cmp	r1, #0
 8005458:	d1f3      	bne.n	8005442 <HAL_UART_IRQHandler+0xca>
 800545a:	2220      	movs	r2, #32
 800545c:	67e2      	str	r2, [r4, #124]	; 0x7c
 800545e:	6621      	str	r1, [r4, #96]	; 0x60
 8005460:	e853 2f00 	ldrex	r2, [r3]
 8005464:	f022 0210 	bic.w	r2, r2, #16
 8005468:	e843 2100 	strex	r1, r2, [r3]
 800546c:	2900      	cmp	r1, #0
 800546e:	d1f7      	bne.n	8005460 <HAL_UART_IRQHandler+0xe8>
 8005470:	f7fe f9ec 	bl	800384c <HAL_DMA_Abort>
 8005474:	f8b4 1058 	ldrh.w	r1, [r4, #88]	; 0x58
 8005478:	f8b4 305a 	ldrh.w	r3, [r4, #90]	; 0x5a
 800547c:	1ac9      	subs	r1, r1, r3
 800547e:	4620      	mov	r0, r4
 8005480:	b289      	uxth	r1, r1
 8005482:	f7ff ff77 	bl	8005374 <HAL_UARTEx_RxEventCallback>
 8005486:	bd70      	pop	{r4, r5, r6, pc}
 8005488:	4879      	ldr	r0, [pc, #484]	; (8005670 <HAL_UART_IRQHandler+0x2f8>)
 800548a:	f005 0601 	and.w	r6, r5, #1
 800548e:	4008      	ands	r0, r1
 8005490:	4330      	orrs	r0, r6
 8005492:	d081      	beq.n	8005398 <HAL_UART_IRQHandler+0x20>
 8005494:	07d5      	lsls	r5, r2, #31
 8005496:	d509      	bpl.n	80054ac <HAL_UART_IRQHandler+0x134>
 8005498:	05c8      	lsls	r0, r1, #23
 800549a:	d507      	bpl.n	80054ac <HAL_UART_IRQHandler+0x134>
 800549c:	2001      	movs	r0, #1
 800549e:	6218      	str	r0, [r3, #32]
 80054a0:	f8d4 0080 	ldr.w	r0, [r4, #128]	; 0x80
 80054a4:	f040 0001 	orr.w	r0, r0, #1
 80054a8:	f8c4 0080 	str.w	r0, [r4, #128]	; 0x80
 80054ac:	0795      	lsls	r5, r2, #30
 80054ae:	d57e      	bpl.n	80055ae <HAL_UART_IRQHandler+0x236>
 80054b0:	b18e      	cbz	r6, 80054d6 <HAL_UART_IRQHandler+0x15e>
 80054b2:	2002      	movs	r0, #2
 80054b4:	6218      	str	r0, [r3, #32]
 80054b6:	f8d4 0080 	ldr.w	r0, [r4, #128]	; 0x80
 80054ba:	f040 0004 	orr.w	r0, r0, #4
 80054be:	f8c4 0080 	str.w	r0, [r4, #128]	; 0x80
 80054c2:	0750      	lsls	r0, r2, #29
 80054c4:	d507      	bpl.n	80054d6 <HAL_UART_IRQHandler+0x15e>
 80054c6:	2004      	movs	r0, #4
 80054c8:	6218      	str	r0, [r3, #32]
 80054ca:	f8d4 0080 	ldr.w	r0, [r4, #128]	; 0x80
 80054ce:	f040 0002 	orr.w	r0, r0, #2
 80054d2:	f8c4 0080 	str.w	r0, [r4, #128]	; 0x80
 80054d6:	0710      	lsls	r0, r2, #28
 80054d8:	d50b      	bpl.n	80054f2 <HAL_UART_IRQHandler+0x17a>
 80054da:	f001 0020 	and.w	r0, r1, #32
 80054de:	4330      	orrs	r0, r6
 80054e0:	d007      	beq.n	80054f2 <HAL_UART_IRQHandler+0x17a>
 80054e2:	2008      	movs	r0, #8
 80054e4:	6218      	str	r0, [r3, #32]
 80054e6:	f8d4 0080 	ldr.w	r0, [r4, #128]	; 0x80
 80054ea:	f040 0008 	orr.w	r0, r0, #8
 80054ee:	f8c4 0080 	str.w	r0, [r4, #128]	; 0x80
 80054f2:	0516      	lsls	r6, r2, #20
 80054f4:	d50a      	bpl.n	800550c <HAL_UART_IRQHandler+0x194>
 80054f6:	014d      	lsls	r5, r1, #5
 80054f8:	d508      	bpl.n	800550c <HAL_UART_IRQHandler+0x194>
 80054fa:	f44f 6000 	mov.w	r0, #2048	; 0x800
 80054fe:	6218      	str	r0, [r3, #32]
 8005500:	f8d4 0080 	ldr.w	r0, [r4, #128]	; 0x80
 8005504:	f040 0020 	orr.w	r0, r0, #32
 8005508:	f8c4 0080 	str.w	r0, [r4, #128]	; 0x80
 800550c:	f8d4 0080 	ldr.w	r0, [r4, #128]	; 0x80
 8005510:	2800      	cmp	r0, #0
 8005512:	f43f af4f 	beq.w	80053b4 <HAL_UART_IRQHandler+0x3c>
 8005516:	0690      	lsls	r0, r2, #26
 8005518:	d506      	bpl.n	8005528 <HAL_UART_IRQHandler+0x1b0>
 800551a:	0689      	lsls	r1, r1, #26
 800551c:	d504      	bpl.n	8005528 <HAL_UART_IRQHandler+0x1b0>
 800551e:	6e62      	ldr	r2, [r4, #100]	; 0x64
 8005520:	b112      	cbz	r2, 8005528 <HAL_UART_IRQHandler+0x1b0>
 8005522:	4620      	mov	r0, r4
 8005524:	4790      	blx	r2
 8005526:	6823      	ldr	r3, [r4, #0]
 8005528:	f8d4 5080 	ldr.w	r5, [r4, #128]	; 0x80
 800552c:	689a      	ldr	r2, [r3, #8]
 800552e:	f005 0528 	and.w	r5, r5, #40	; 0x28
 8005532:	f002 0240 	and.w	r2, r2, #64	; 0x40
 8005536:	4315      	orrs	r5, r2
 8005538:	f000 8094 	beq.w	8005664 <HAL_UART_IRQHandler+0x2ec>
 800553c:	e853 2f00 	ldrex	r2, [r3]
 8005540:	f422 7290 	bic.w	r2, r2, #288	; 0x120
 8005544:	e843 2100 	strex	r1, r2, [r3]
 8005548:	2900      	cmp	r1, #0
 800554a:	d1f7      	bne.n	800553c <HAL_UART_IRQHandler+0x1c4>
 800554c:	f103 0208 	add.w	r2, r3, #8
 8005550:	e852 2f00 	ldrex	r2, [r2]
 8005554:	f022 0201 	bic.w	r2, r2, #1
 8005558:	f103 0008 	add.w	r0, r3, #8
 800555c:	e840 2100 	strex	r1, r2, [r0]
 8005560:	2900      	cmp	r1, #0
 8005562:	d1f3      	bne.n	800554c <HAL_UART_IRQHandler+0x1d4>
 8005564:	6e22      	ldr	r2, [r4, #96]	; 0x60
 8005566:	2a01      	cmp	r2, #1
 8005568:	d033      	beq.n	80055d2 <HAL_UART_IRQHandler+0x25a>
 800556a:	2200      	movs	r2, #0
 800556c:	2120      	movs	r1, #32
 800556e:	67e1      	str	r1, [r4, #124]	; 0x7c
 8005570:	6622      	str	r2, [r4, #96]	; 0x60
 8005572:	6899      	ldr	r1, [r3, #8]
 8005574:	6662      	str	r2, [r4, #100]	; 0x64
 8005576:	064a      	lsls	r2, r1, #25
 8005578:	d53c      	bpl.n	80055f4 <HAL_UART_IRQHandler+0x27c>
 800557a:	f103 0208 	add.w	r2, r3, #8
 800557e:	e852 2f00 	ldrex	r2, [r2]
 8005582:	f022 0240 	bic.w	r2, r2, #64	; 0x40
 8005586:	f103 0008 	add.w	r0, r3, #8
 800558a:	e840 2100 	strex	r1, r2, [r0]
 800558e:	2900      	cmp	r1, #0
 8005590:	d1f3      	bne.n	800557a <HAL_UART_IRQHandler+0x202>
 8005592:	6f20      	ldr	r0, [r4, #112]	; 0x70
 8005594:	b370      	cbz	r0, 80055f4 <HAL_UART_IRQHandler+0x27c>
 8005596:	4b37      	ldr	r3, [pc, #220]	; (8005674 <HAL_UART_IRQHandler+0x2fc>)
 8005598:	6343      	str	r3, [r0, #52]	; 0x34
 800559a:	f7fe f979 	bl	8003890 <HAL_DMA_Abort_IT>
 800559e:	2800      	cmp	r0, #0
 80055a0:	f43f af08 	beq.w	80053b4 <HAL_UART_IRQHandler+0x3c>
 80055a4:	6f20      	ldr	r0, [r4, #112]	; 0x70
 80055a6:	e8bd 4070 	ldmia.w	sp!, {r4, r5, r6, lr}
 80055aa:	6b43      	ldr	r3, [r0, #52]	; 0x34
 80055ac:	4718      	bx	r3
 80055ae:	0755      	lsls	r5, r2, #29
 80055b0:	d591      	bpl.n	80054d6 <HAL_UART_IRQHandler+0x15e>
 80055b2:	2e00      	cmp	r6, #0
 80055b4:	d187      	bne.n	80054c6 <HAL_UART_IRQHandler+0x14e>
 80055b6:	e78e      	b.n	80054d6 <HAL_UART_IRQHandler+0x15e>
 80055b8:	6e43      	ldr	r3, [r0, #100]	; 0x64
 80055ba:	2b00      	cmp	r3, #0
 80055bc:	f47f af11 	bne.w	80053e2 <HAL_UART_IRQHandler+0x6a>
 80055c0:	e6f8      	b.n	80053b4 <HAL_UART_IRQHandler+0x3c>
 80055c2:	f44f 1280 	mov.w	r2, #1048576	; 0x100000
 80055c6:	4620      	mov	r0, r4
 80055c8:	621a      	str	r2, [r3, #32]
 80055ca:	e8bd 4070 	ldmia.w	sp!, {r4, r5, r6, lr}
 80055ce:	f000 bab3 	b.w	8005b38 <HAL_UARTEx_WakeupCallback>
 80055d2:	e853 2f00 	ldrex	r2, [r3]
 80055d6:	f022 0210 	bic.w	r2, r2, #16
 80055da:	e843 2100 	strex	r1, r2, [r3]
 80055de:	2900      	cmp	r1, #0
 80055e0:	d0c3      	beq.n	800556a <HAL_UART_IRQHandler+0x1f2>
 80055e2:	e853 2f00 	ldrex	r2, [r3]
 80055e6:	f022 0210 	bic.w	r2, r2, #16
 80055ea:	e843 2100 	strex	r1, r2, [r3]
 80055ee:	2900      	cmp	r1, #0
 80055f0:	d1ef      	bne.n	80055d2 <HAL_UART_IRQHandler+0x25a>
 80055f2:	e7ba      	b.n	800556a <HAL_UART_IRQHandler+0x1f2>
 80055f4:	4620      	mov	r0, r4
 80055f6:	f7ff fe59 	bl	80052ac <HAL_UART_ErrorCallback>
 80055fa:	bd70      	pop	{r4, r5, r6, pc}
 80055fc:	f8b4 105a 	ldrh.w	r1, [r4, #90]	; 0x5a
 8005600:	f8b4 205a 	ldrh.w	r2, [r4, #90]	; 0x5a
 8005604:	b292      	uxth	r2, r2
 8005606:	b289      	uxth	r1, r1
 8005608:	2a00      	cmp	r2, #0
 800560a:	f43f aed3 	beq.w	80053b4 <HAL_UART_IRQHandler+0x3c>
 800560e:	f8b4 2058 	ldrh.w	r2, [r4, #88]	; 0x58
 8005612:	1a51      	subs	r1, r2, r1
 8005614:	b289      	uxth	r1, r1
 8005616:	2900      	cmp	r1, #0
 8005618:	f43f aecc 	beq.w	80053b4 <HAL_UART_IRQHandler+0x3c>
 800561c:	e853 2f00 	ldrex	r2, [r3]
 8005620:	f422 7290 	bic.w	r2, r2, #288	; 0x120
 8005624:	e843 2000 	strex	r0, r2, [r3]
 8005628:	2800      	cmp	r0, #0
 800562a:	d1f7      	bne.n	800561c <HAL_UART_IRQHandler+0x2a4>
 800562c:	f103 0208 	add.w	r2, r3, #8
 8005630:	e852 2f00 	ldrex	r2, [r2]
 8005634:	f022 0201 	bic.w	r2, r2, #1
 8005638:	f103 0508 	add.w	r5, r3, #8
 800563c:	e845 2000 	strex	r0, r2, [r5]
 8005640:	2800      	cmp	r0, #0
 8005642:	d1f3      	bne.n	800562c <HAL_UART_IRQHandler+0x2b4>
 8005644:	2220      	movs	r2, #32
 8005646:	67e2      	str	r2, [r4, #124]	; 0x7c
 8005648:	6660      	str	r0, [r4, #100]	; 0x64
 800564a:	6620      	str	r0, [r4, #96]	; 0x60
 800564c:	e853 2f00 	ldrex	r2, [r3]
 8005650:	f022 0210 	bic.w	r2, r2, #16
 8005654:	e843 2000 	strex	r0, r2, [r3]
 8005658:	2800      	cmp	r0, #0
 800565a:	d1f7      	bne.n	800564c <HAL_UART_IRQHandler+0x2d4>
 800565c:	4620      	mov	r0, r4
 800565e:	f7ff fe89 	bl	8005374 <HAL_UARTEx_RxEventCallback>
 8005662:	bd70      	pop	{r4, r5, r6, pc}
 8005664:	4620      	mov	r0, r4
 8005666:	f7ff fe21 	bl	80052ac <HAL_UART_ErrorCallback>
 800566a:	f8c4 5080 	str.w	r5, [r4, #128]	; 0x80
 800566e:	bd70      	pop	{r4, r5, r6, pc}
 8005670:	04000120 	.word	0x04000120
 8005674:	08005361 	.word	0x08005361

08005678 <UART_SetConfig>:
 8005678:	b538      	push	{r3, r4, r5, lr}
 800567a:	4604      	mov	r4, r0
 800567c:	6802      	ldr	r2, [r0, #0]
 800567e:	6883      	ldr	r3, [r0, #8]
 8005680:	6925      	ldr	r5, [r4, #16]
 8005682:	6810      	ldr	r0, [r2, #0]
 8005684:	69e1      	ldr	r1, [r4, #28]
 8005686:	432b      	orrs	r3, r5
 8005688:	6965      	ldr	r5, [r4, #20]
 800568a:	f420 4016 	bic.w	r0, r0, #38400	; 0x9600
 800568e:	432b      	orrs	r3, r5
 8005690:	f020 000c 	bic.w	r0, r0, #12
 8005694:	430b      	orrs	r3, r1
 8005696:	4303      	orrs	r3, r0
 8005698:	6013      	str	r3, [r2, #0]
 800569a:	6853      	ldr	r3, [r2, #4]
 800569c:	68e0      	ldr	r0, [r4, #12]
 800569e:	6a25      	ldr	r5, [r4, #32]
 80056a0:	f423 5340 	bic.w	r3, r3, #12288	; 0x3000
 80056a4:	4303      	orrs	r3, r0
 80056a6:	6053      	str	r3, [r2, #4]
 80056a8:	6890      	ldr	r0, [r2, #8]
 80056aa:	69a3      	ldr	r3, [r4, #24]
 80056ac:	f420 6030 	bic.w	r0, r0, #2816	; 0xb00
 80056b0:	432b      	orrs	r3, r5
 80056b2:	4303      	orrs	r3, r0
 80056b4:	487d      	ldr	r0, [pc, #500]	; (80058ac <UART_SetConfig+0x234>)
 80056b6:	6093      	str	r3, [r2, #8]
 80056b8:	4282      	cmp	r2, r0
 80056ba:	d046      	beq.n	800574a <UART_SetConfig+0xd2>
 80056bc:	4b7c      	ldr	r3, [pc, #496]	; (80058b0 <UART_SetConfig+0x238>)
 80056be:	429a      	cmp	r2, r3
 80056c0:	d00f      	beq.n	80056e2 <UART_SetConfig+0x6a>
 80056c2:	4b7c      	ldr	r3, [pc, #496]	; (80058b4 <UART_SetConfig+0x23c>)
 80056c4:	429a      	cmp	r2, r3
 80056c6:	f000 80a3 	beq.w	8005810 <UART_SetConfig+0x198>
 80056ca:	4b7b      	ldr	r3, [pc, #492]	; (80058b8 <UART_SetConfig+0x240>)
 80056cc:	429a      	cmp	r2, r3
 80056ce:	f000 80b4 	beq.w	800583a <UART_SetConfig+0x1c2>
 80056d2:	4b7a      	ldr	r3, [pc, #488]	; (80058bc <UART_SetConfig+0x244>)
 80056d4:	429a      	cmp	r2, r3
 80056d6:	d063      	beq.n	80057a0 <UART_SetConfig+0x128>
 80056d8:	2300      	movs	r3, #0
 80056da:	e9c4 3319 	strd	r3, r3, [r4, #100]	; 0x64
 80056de:	2001      	movs	r0, #1
 80056e0:	bd38      	pop	{r3, r4, r5, pc}
 80056e2:	f503 33e6 	add.w	r3, r3, #117760	; 0x1cc00
 80056e6:	6b1b      	ldr	r3, [r3, #48]	; 0x30
 80056e8:	f403 3340 	and.w	r3, r3, #196608	; 0x30000
 80056ec:	f5b3 3f00 	cmp.w	r3, #131072	; 0x20000
 80056f0:	d069      	beq.n	80057c6 <UART_SetConfig+0x14e>
 80056f2:	d80f      	bhi.n	8005714 <UART_SetConfig+0x9c>
 80056f4:	2b00      	cmp	r3, #0
 80056f6:	d05c      	beq.n	80057b2 <UART_SetConfig+0x13a>
 80056f8:	f5b3 3f80 	cmp.w	r3, #65536	; 0x10000
 80056fc:	d1ec      	bne.n	80056d8 <UART_SetConfig+0x60>
 80056fe:	f5b1 4f00 	cmp.w	r1, #32768	; 0x8000
 8005702:	d066      	beq.n	80057d2 <UART_SetConfig+0x15a>
 8005704:	f7fe ff8c 	bl	8004620 <HAL_RCC_GetSysClockFreq>
 8005708:	b960      	cbnz	r0, 8005724 <UART_SetConfig+0xac>
 800570a:	2300      	movs	r3, #0
 800570c:	e9c4 3319 	strd	r3, r3, [r4, #100]	; 0x64
 8005710:	2000      	movs	r0, #0
 8005712:	bd38      	pop	{r3, r4, r5, pc}
 8005714:	f5b3 3f40 	cmp.w	r3, #196608	; 0x30000
 8005718:	d1de      	bne.n	80056d8 <UART_SetConfig+0x60>
 800571a:	f5b1 4f00 	cmp.w	r1, #32768	; 0x8000
 800571e:	f000 80c2 	beq.w	80058a6 <UART_SetConfig+0x22e>
 8005722:	4867      	ldr	r0, [pc, #412]	; (80058c0 <UART_SetConfig+0x248>)
 8005724:	6863      	ldr	r3, [r4, #4]
 8005726:	eb00 0053 	add.w	r0, r0, r3, lsr #1
 800572a:	fbb0 f3f3 	udiv	r3, r0, r3
 800572e:	b29b      	uxth	r3, r3
 8005730:	f64f 72ef 	movw	r2, #65519	; 0xffef
 8005734:	f1a3 0110 	sub.w	r1, r3, #16
 8005738:	4291      	cmp	r1, r2
 800573a:	d8cd      	bhi.n	80056d8 <UART_SetConfig+0x60>
 800573c:	6822      	ldr	r2, [r4, #0]
 800573e:	60d3      	str	r3, [r2, #12]
 8005740:	2300      	movs	r3, #0
 8005742:	e9c4 3319 	strd	r3, r3, [r4, #100]	; 0x64
 8005746:	2000      	movs	r0, #0
 8005748:	bd38      	pop	{r3, r4, r5, pc}
 800574a:	4b5e      	ldr	r3, [pc, #376]	; (80058c4 <UART_SetConfig+0x24c>)
 800574c:	6b1b      	ldr	r3, [r3, #48]	; 0x30
 800574e:	f003 0303 	and.w	r3, r3, #3
 8005752:	3b01      	subs	r3, #1
 8005754:	2b02      	cmp	r3, #2
 8005756:	d906      	bls.n	8005766 <UART_SetConfig+0xee>
 8005758:	f5b1 4f00 	cmp.w	r1, #32768	; 0x8000
 800575c:	f000 8082 	beq.w	8005864 <UART_SetConfig+0x1ec>
 8005760:	f7fe ffac 	bl	80046bc <HAL_RCC_GetPCLK2Freq>
 8005764:	e7d0      	b.n	8005708 <UART_SetConfig+0x90>
 8005766:	4a58      	ldr	r2, [pc, #352]	; (80058c8 <UART_SetConfig+0x250>)
 8005768:	f5b1 4f00 	cmp.w	r1, #32768	; 0x8000
 800576c:	5cd3      	ldrb	r3, [r2, r3]
 800576e:	d07f      	beq.n	8005870 <UART_SetConfig+0x1f8>
 8005770:	2b08      	cmp	r3, #8
 8005772:	d8b1      	bhi.n	80056d8 <UART_SetConfig+0x60>
 8005774:	a201      	add	r2, pc, #4	; (adr r2, 800577c <UART_SetConfig+0x104>)
 8005776:	f852 f023 	ldr.w	pc, [r2, r3, lsl #2]
 800577a:	bf00      	nop
 800577c:	080057b9 	.word	0x080057b9
 8005780:	08005761 	.word	0x08005761
 8005784:	08005723 	.word	0x08005723
 8005788:	080056d9 	.word	0x080056d9
 800578c:	08005705 	.word	0x08005705
 8005790:	080056d9 	.word	0x080056d9
 8005794:	080056d9 	.word	0x080056d9
 8005798:	080056d9 	.word	0x080056d9
 800579c:	080057cd 	.word	0x080057cd
 80057a0:	4b48      	ldr	r3, [pc, #288]	; (80058c4 <UART_SetConfig+0x24c>)
 80057a2:	6b1b      	ldr	r3, [r3, #48]	; 0x30
 80057a4:	f403 0340 	and.w	r3, r3, #12582912	; 0xc00000
 80057a8:	f5b3 0f00 	cmp.w	r3, #8388608	; 0x800000
 80057ac:	d00b      	beq.n	80057c6 <UART_SetConfig+0x14e>
 80057ae:	d82b      	bhi.n	8005808 <UART_SetConfig+0x190>
 80057b0:	b92b      	cbnz	r3, 80057be <UART_SetConfig+0x146>
 80057b2:	f5b1 4f00 	cmp.w	r1, #32768	; 0x8000
 80057b6:	d058      	beq.n	800586a <UART_SetConfig+0x1f2>
 80057b8:	f7fe ff68 	bl	800468c <HAL_RCC_GetPCLK1Freq>
 80057bc:	e7a4      	b.n	8005708 <UART_SetConfig+0x90>
 80057be:	f5b3 0f80 	cmp.w	r3, #4194304	; 0x400000
 80057c2:	d09c      	beq.n	80056fe <UART_SetConfig+0x86>
 80057c4:	e788      	b.n	80056d8 <UART_SetConfig+0x60>
 80057c6:	f5b1 4f00 	cmp.w	r1, #32768	; 0x8000
 80057ca:	d069      	beq.n	80058a0 <UART_SetConfig+0x228>
 80057cc:	f44f 4000 	mov.w	r0, #32768	; 0x8000
 80057d0:	e7a8      	b.n	8005724 <UART_SetConfig+0xac>
 80057d2:	f7fe ff25 	bl	8004620 <HAL_RCC_GetSysClockFreq>
 80057d6:	2800      	cmp	r0, #0
 80057d8:	d097      	beq.n	800570a <UART_SetConfig+0x92>
 80057da:	0043      	lsls	r3, r0, #1
 80057dc:	6862      	ldr	r2, [r4, #4]
 80057de:	eb03 0352 	add.w	r3, r3, r2, lsr #1
 80057e2:	fbb3 f3f2 	udiv	r3, r3, r2
 80057e6:	b29a      	uxth	r2, r3
 80057e8:	f1a2 0010 	sub.w	r0, r2, #16
 80057ec:	f64f 71ef 	movw	r1, #65519	; 0xffef
 80057f0:	4288      	cmp	r0, r1
 80057f2:	f63f af71 	bhi.w	80056d8 <UART_SetConfig+0x60>
 80057f6:	f023 030f 	bic.w	r3, r3, #15
 80057fa:	6821      	ldr	r1, [r4, #0]
 80057fc:	b29b      	uxth	r3, r3
 80057fe:	f3c2 0242 	ubfx	r2, r2, #1, #3
 8005802:	4313      	orrs	r3, r2
 8005804:	60cb      	str	r3, [r1, #12]
 8005806:	e780      	b.n	800570a <UART_SetConfig+0x92>
 8005808:	f5b3 0f40 	cmp.w	r3, #12582912	; 0xc00000
 800580c:	d085      	beq.n	800571a <UART_SetConfig+0xa2>
 800580e:	e763      	b.n	80056d8 <UART_SetConfig+0x60>
 8005810:	f503 33e4 	add.w	r3, r3, #116736	; 0x1c800
 8005814:	6b1b      	ldr	r3, [r3, #48]	; 0x30
 8005816:	f403 2340 	and.w	r3, r3, #786432	; 0xc0000
 800581a:	f5b3 2f00 	cmp.w	r3, #524288	; 0x80000
 800581e:	d0d2      	beq.n	80057c6 <UART_SetConfig+0x14e>
 8005820:	d806      	bhi.n	8005830 <UART_SetConfig+0x1b8>
 8005822:	2b00      	cmp	r3, #0
 8005824:	d0c5      	beq.n	80057b2 <UART_SetConfig+0x13a>
 8005826:	f5b3 2f80 	cmp.w	r3, #262144	; 0x40000
 800582a:	f43f af68 	beq.w	80056fe <UART_SetConfig+0x86>
 800582e:	e753      	b.n	80056d8 <UART_SetConfig+0x60>
 8005830:	f5b3 2f40 	cmp.w	r3, #786432	; 0xc0000
 8005834:	f43f af71 	beq.w	800571a <UART_SetConfig+0xa2>
 8005838:	e74e      	b.n	80056d8 <UART_SetConfig+0x60>
 800583a:	f503 33e2 	add.w	r3, r3, #115712	; 0x1c400
 800583e:	6b1b      	ldr	r3, [r3, #48]	; 0x30
 8005840:	f403 1340 	and.w	r3, r3, #3145728	; 0x300000
 8005844:	f5b3 1f00 	cmp.w	r3, #2097152	; 0x200000
 8005848:	d0bd      	beq.n	80057c6 <UART_SetConfig+0x14e>
 800584a:	d806      	bhi.n	800585a <UART_SetConfig+0x1e2>
 800584c:	2b00      	cmp	r3, #0
 800584e:	d0b0      	beq.n	80057b2 <UART_SetConfig+0x13a>
 8005850:	f5b3 1f80 	cmp.w	r3, #1048576	; 0x100000
 8005854:	f43f af53 	beq.w	80056fe <UART_SetConfig+0x86>
 8005858:	e73e      	b.n	80056d8 <UART_SetConfig+0x60>
 800585a:	f5b3 1f40 	cmp.w	r3, #3145728	; 0x300000
 800585e:	f43f af5c 	beq.w	800571a <UART_SetConfig+0xa2>
 8005862:	e739      	b.n	80056d8 <UART_SetConfig+0x60>
 8005864:	f7fe ff2a 	bl	80046bc <HAL_RCC_GetPCLK2Freq>
 8005868:	e7b5      	b.n	80057d6 <UART_SetConfig+0x15e>
 800586a:	f7fe ff0f 	bl	800468c <HAL_RCC_GetPCLK1Freq>
 800586e:	e7b2      	b.n	80057d6 <UART_SetConfig+0x15e>
 8005870:	2b08      	cmp	r3, #8
 8005872:	f63f af31 	bhi.w	80056d8 <UART_SetConfig+0x60>
 8005876:	a201      	add	r2, pc, #4	; (adr r2, 800587c <UART_SetConfig+0x204>)
 8005878:	f852 f023 	ldr.w	pc, [r2, r3, lsl #2]
 800587c:	0800586b 	.word	0x0800586b
 8005880:	08005865 	.word	0x08005865
 8005884:	080058a7 	.word	0x080058a7
 8005888:	080056d9 	.word	0x080056d9
 800588c:	080057d3 	.word	0x080057d3
 8005890:	080056d9 	.word	0x080056d9
 8005894:	080056d9 	.word	0x080056d9
 8005898:	080056d9 	.word	0x080056d9
 800589c:	080058a1 	.word	0x080058a1
 80058a0:	f44f 3380 	mov.w	r3, #65536	; 0x10000
 80058a4:	e79a      	b.n	80057dc <UART_SetConfig+0x164>
 80058a6:	4b09      	ldr	r3, [pc, #36]	; (80058cc <UART_SetConfig+0x254>)
 80058a8:	e798      	b.n	80057dc <UART_SetConfig+0x164>
 80058aa:	bf00      	nop
 80058ac:	40013800 	.word	0x40013800
 80058b0:	40004400 	.word	0x40004400
 80058b4:	40004800 	.word	0x40004800
 80058b8:	40004c00 	.word	0x40004c00
 80058bc:	40005000 	.word	0x40005000
 80058c0:	007a1200 	.word	0x007a1200
 80058c4:	40021000 	.word	0x40021000
 80058c8:	0800b6b0 	.word	0x0800b6b0
 80058cc:	00f42400 	.word	0x00f42400

080058d0 <UART_AdvFeatureConfig>:
 80058d0:	6a43      	ldr	r3, [r0, #36]	; 0x24
 80058d2:	07da      	lsls	r2, r3, #31
 80058d4:	b410      	push	{r4}
 80058d6:	d506      	bpl.n	80058e6 <UART_AdvFeatureConfig+0x16>
 80058d8:	6801      	ldr	r1, [r0, #0]
 80058da:	6a84      	ldr	r4, [r0, #40]	; 0x28
 80058dc:	684a      	ldr	r2, [r1, #4]
 80058de:	f422 3200 	bic.w	r2, r2, #131072	; 0x20000
 80058e2:	4322      	orrs	r2, r4
 80058e4:	604a      	str	r2, [r1, #4]
 80058e6:	079c      	lsls	r4, r3, #30
 80058e8:	d506      	bpl.n	80058f8 <UART_AdvFeatureConfig+0x28>
 80058ea:	6801      	ldr	r1, [r0, #0]
 80058ec:	6ac4      	ldr	r4, [r0, #44]	; 0x2c
 80058ee:	684a      	ldr	r2, [r1, #4]
 80058f0:	f422 3280 	bic.w	r2, r2, #65536	; 0x10000
 80058f4:	4322      	orrs	r2, r4
 80058f6:	604a      	str	r2, [r1, #4]
 80058f8:	0759      	lsls	r1, r3, #29
 80058fa:	d506      	bpl.n	800590a <UART_AdvFeatureConfig+0x3a>
 80058fc:	6801      	ldr	r1, [r0, #0]
 80058fe:	6b04      	ldr	r4, [r0, #48]	; 0x30
 8005900:	684a      	ldr	r2, [r1, #4]
 8005902:	f422 2280 	bic.w	r2, r2, #262144	; 0x40000
 8005906:	4322      	orrs	r2, r4
 8005908:	604a      	str	r2, [r1, #4]
 800590a:	071a      	lsls	r2, r3, #28
 800590c:	d506      	bpl.n	800591c <UART_AdvFeatureConfig+0x4c>
 800590e:	6801      	ldr	r1, [r0, #0]
 8005910:	6b44      	ldr	r4, [r0, #52]	; 0x34
 8005912:	684a      	ldr	r2, [r1, #4]
 8005914:	f422 4200 	bic.w	r2, r2, #32768	; 0x8000
 8005918:	4322      	orrs	r2, r4
 800591a:	604a      	str	r2, [r1, #4]
 800591c:	06dc      	lsls	r4, r3, #27
 800591e:	d506      	bpl.n	800592e <UART_AdvFeatureConfig+0x5e>
 8005920:	6801      	ldr	r1, [r0, #0]
 8005922:	6b84      	ldr	r4, [r0, #56]	; 0x38
 8005924:	688a      	ldr	r2, [r1, #8]
 8005926:	f422 5280 	bic.w	r2, r2, #4096	; 0x1000
 800592a:	4322      	orrs	r2, r4
 800592c:	608a      	str	r2, [r1, #8]
 800592e:	0699      	lsls	r1, r3, #26
 8005930:	d506      	bpl.n	8005940 <UART_AdvFeatureConfig+0x70>
 8005932:	6801      	ldr	r1, [r0, #0]
 8005934:	6bc4      	ldr	r4, [r0, #60]	; 0x3c
 8005936:	688a      	ldr	r2, [r1, #8]
 8005938:	f422 5200 	bic.w	r2, r2, #8192	; 0x2000
 800593c:	4322      	orrs	r2, r4
 800593e:	608a      	str	r2, [r1, #8]
 8005940:	065a      	lsls	r2, r3, #25
 8005942:	d509      	bpl.n	8005958 <UART_AdvFeatureConfig+0x88>
 8005944:	6801      	ldr	r1, [r0, #0]
 8005946:	6c04      	ldr	r4, [r0, #64]	; 0x40
 8005948:	684a      	ldr	r2, [r1, #4]
 800594a:	f422 1280 	bic.w	r2, r2, #1048576	; 0x100000
 800594e:	4322      	orrs	r2, r4
 8005950:	f5b4 1f80 	cmp.w	r4, #1048576	; 0x100000
 8005954:	604a      	str	r2, [r1, #4]
 8005956:	d00b      	beq.n	8005970 <UART_AdvFeatureConfig+0xa0>
 8005958:	061b      	lsls	r3, r3, #24
 800595a:	d506      	bpl.n	800596a <UART_AdvFeatureConfig+0x9a>
 800595c:	6802      	ldr	r2, [r0, #0]
 800595e:	6c81      	ldr	r1, [r0, #72]	; 0x48
 8005960:	6853      	ldr	r3, [r2, #4]
 8005962:	f423 2300 	bic.w	r3, r3, #524288	; 0x80000
 8005966:	430b      	orrs	r3, r1
 8005968:	6053      	str	r3, [r2, #4]
 800596a:	f85d 4b04 	ldr.w	r4, [sp], #4
 800596e:	4770      	bx	lr
 8005970:	684a      	ldr	r2, [r1, #4]
 8005972:	6c44      	ldr	r4, [r0, #68]	; 0x44
 8005974:	f422 02c0 	bic.w	r2, r2, #6291456	; 0x600000
 8005978:	4322      	orrs	r2, r4
 800597a:	604a      	str	r2, [r1, #4]
 800597c:	e7ec      	b.n	8005958 <UART_AdvFeatureConfig+0x88>
 800597e:	bf00      	nop

08005980 <UART_WaitOnFlagUntilTimeout>:
 8005980:	e92d 43f8 	stmdb	sp!, {r3, r4, r5, r6, r7, r8, r9, lr}
 8005984:	f8dd 8020 	ldr.w	r8, [sp, #32]
 8005988:	6804      	ldr	r4, [r0, #0]
 800598a:	4607      	mov	r7, r0
 800598c:	460e      	mov	r6, r1
 800598e:	4615      	mov	r5, r2
 8005990:	4699      	mov	r9, r3
 8005992:	f1b8 3fff 	cmp.w	r8, #4294967295
 8005996:	d10a      	bne.n	80059ae <UART_WaitOnFlagUntilTimeout+0x2e>
 8005998:	69e3      	ldr	r3, [r4, #28]
 800599a:	ea36 0303 	bics.w	r3, r6, r3
 800599e:	bf0c      	ite	eq
 80059a0:	2301      	moveq	r3, #1
 80059a2:	2300      	movne	r3, #0
 80059a4:	429d      	cmp	r5, r3
 80059a6:	d0f7      	beq.n	8005998 <UART_WaitOnFlagUntilTimeout+0x18>
 80059a8:	2000      	movs	r0, #0
 80059aa:	e8bd 83f8 	ldmia.w	sp!, {r3, r4, r5, r6, r7, r8, r9, pc}
 80059ae:	69e3      	ldr	r3, [r4, #28]
 80059b0:	ea36 0303 	bics.w	r3, r6, r3
 80059b4:	bf0c      	ite	eq
 80059b6:	2301      	moveq	r3, #1
 80059b8:	2300      	movne	r3, #0
 80059ba:	42ab      	cmp	r3, r5
 80059bc:	d1f4      	bne.n	80059a8 <UART_WaitOnFlagUntilTimeout+0x28>
 80059be:	f7fc fce1 	bl	8002384 <HAL_GetTick>
 80059c2:	eba0 0009 	sub.w	r0, r0, r9
 80059c6:	4540      	cmp	r0, r8
 80059c8:	d831      	bhi.n	8005a2e <UART_WaitOnFlagUntilTimeout+0xae>
 80059ca:	f1b8 0f00 	cmp.w	r8, #0
 80059ce:	d02e      	beq.n	8005a2e <UART_WaitOnFlagUntilTimeout+0xae>
 80059d0:	683c      	ldr	r4, [r7, #0]
 80059d2:	6823      	ldr	r3, [r4, #0]
 80059d4:	0759      	lsls	r1, r3, #29
 80059d6:	4622      	mov	r2, r4
 80059d8:	d5db      	bpl.n	8005992 <UART_WaitOnFlagUntilTimeout+0x12>
 80059da:	69e3      	ldr	r3, [r4, #28]
 80059dc:	051b      	lsls	r3, r3, #20
 80059de:	d5d8      	bpl.n	8005992 <UART_WaitOnFlagUntilTimeout+0x12>
 80059e0:	f44f 6300 	mov.w	r3, #2048	; 0x800
 80059e4:	6223      	str	r3, [r4, #32]
 80059e6:	e854 3f00 	ldrex	r3, [r4]
 80059ea:	f423 73d0 	bic.w	r3, r3, #416	; 0x1a0
 80059ee:	e844 3100 	strex	r1, r3, [r4]
 80059f2:	b139      	cbz	r1, 8005a04 <UART_WaitOnFlagUntilTimeout+0x84>
 80059f4:	e852 3f00 	ldrex	r3, [r2]
 80059f8:	f423 73d0 	bic.w	r3, r3, #416	; 0x1a0
 80059fc:	e842 3100 	strex	r1, r3, [r2]
 8005a00:	2900      	cmp	r1, #0
 8005a02:	d1f7      	bne.n	80059f4 <UART_WaitOnFlagUntilTimeout+0x74>
 8005a04:	f102 0308 	add.w	r3, r2, #8
 8005a08:	e853 3f00 	ldrex	r3, [r3]
 8005a0c:	f023 0301 	bic.w	r3, r3, #1
 8005a10:	f102 0008 	add.w	r0, r2, #8
 8005a14:	e840 3100 	strex	r1, r3, [r0]
 8005a18:	2900      	cmp	r1, #0
 8005a1a:	d1f3      	bne.n	8005a04 <UART_WaitOnFlagUntilTimeout+0x84>
 8005a1c:	2320      	movs	r3, #32
 8005a1e:	67bb      	str	r3, [r7, #120]	; 0x78
 8005a20:	f887 1074 	strb.w	r1, [r7, #116]	; 0x74
 8005a24:	67fb      	str	r3, [r7, #124]	; 0x7c
 8005a26:	2003      	movs	r0, #3
 8005a28:	f8c7 3080 	str.w	r3, [r7, #128]	; 0x80
 8005a2c:	e7bd      	b.n	80059aa <UART_WaitOnFlagUntilTimeout+0x2a>
 8005a2e:	683a      	ldr	r2, [r7, #0]
 8005a30:	e852 3f00 	ldrex	r3, [r2]
 8005a34:	f423 73d0 	bic.w	r3, r3, #416	; 0x1a0
 8005a38:	e842 3100 	strex	r1, r3, [r2]
 8005a3c:	2900      	cmp	r1, #0
 8005a3e:	d1f7      	bne.n	8005a30 <UART_WaitOnFlagUntilTimeout+0xb0>
 8005a40:	f102 0308 	add.w	r3, r2, #8
 8005a44:	e853 3f00 	ldrex	r3, [r3]
 8005a48:	f023 0301 	bic.w	r3, r3, #1
 8005a4c:	f102 0008 	add.w	r0, r2, #8
 8005a50:	e840 3100 	strex	r1, r3, [r0]
 8005a54:	2900      	cmp	r1, #0
 8005a56:	d1f3      	bne.n	8005a40 <UART_WaitOnFlagUntilTimeout+0xc0>
 8005a58:	2320      	movs	r3, #32
 8005a5a:	67bb      	str	r3, [r7, #120]	; 0x78
 8005a5c:	f887 1074 	strb.w	r1, [r7, #116]	; 0x74
 8005a60:	67fb      	str	r3, [r7, #124]	; 0x7c
 8005a62:	2003      	movs	r0, #3
 8005a64:	e7a1      	b.n	80059aa <UART_WaitOnFlagUntilTimeout+0x2a>
 8005a66:	bf00      	nop

08005a68 <HAL_UART_Init>:
 8005a68:	2800      	cmp	r0, #0
 8005a6a:	d062      	beq.n	8005b32 <HAL_UART_Init+0xca>
 8005a6c:	b570      	push	{r4, r5, r6, lr}
 8005a6e:	6f83      	ldr	r3, [r0, #120]	; 0x78
 8005a70:	b082      	sub	sp, #8
 8005a72:	4604      	mov	r4, r0
 8005a74:	2b00      	cmp	r3, #0
 8005a76:	d049      	beq.n	8005b0c <HAL_UART_Init+0xa4>
 8005a78:	6822      	ldr	r2, [r4, #0]
 8005a7a:	2324      	movs	r3, #36	; 0x24
 8005a7c:	67a3      	str	r3, [r4, #120]	; 0x78
 8005a7e:	6813      	ldr	r3, [r2, #0]
 8005a80:	f023 0301 	bic.w	r3, r3, #1
 8005a84:	4620      	mov	r0, r4
 8005a86:	6013      	str	r3, [r2, #0]
 8005a88:	f7ff fdf6 	bl	8005678 <UART_SetConfig>
 8005a8c:	2801      	cmp	r0, #1
 8005a8e:	d03a      	beq.n	8005b06 <HAL_UART_Init+0x9e>
 8005a90:	6a63      	ldr	r3, [r4, #36]	; 0x24
 8005a92:	2b00      	cmp	r3, #0
 8005a94:	d133      	bne.n	8005afe <HAL_UART_Init+0x96>
 8005a96:	6823      	ldr	r3, [r4, #0]
 8005a98:	6859      	ldr	r1, [r3, #4]
 8005a9a:	f421 4190 	bic.w	r1, r1, #18432	; 0x4800
 8005a9e:	6059      	str	r1, [r3, #4]
 8005aa0:	6899      	ldr	r1, [r3, #8]
 8005aa2:	f021 012a 	bic.w	r1, r1, #42	; 0x2a
 8005aa6:	6099      	str	r1, [r3, #8]
 8005aa8:	6819      	ldr	r1, [r3, #0]
 8005aaa:	2500      	movs	r5, #0
 8005aac:	f041 0101 	orr.w	r1, r1, #1
 8005ab0:	6019      	str	r1, [r3, #0]
 8005ab2:	f8c4 5080 	str.w	r5, [r4, #128]	; 0x80
 8005ab6:	f7fc fc65 	bl	8002384 <HAL_GetTick>
 8005aba:	6823      	ldr	r3, [r4, #0]
 8005abc:	681a      	ldr	r2, [r3, #0]
 8005abe:	0712      	lsls	r2, r2, #28
 8005ac0:	4606      	mov	r6, r0
 8005ac2:	d40c      	bmi.n	8005ade <HAL_UART_Init+0x76>
 8005ac4:	681b      	ldr	r3, [r3, #0]
 8005ac6:	075b      	lsls	r3, r3, #29
 8005ac8:	d425      	bmi.n	8005b16 <HAL_UART_Init+0xae>
 8005aca:	2300      	movs	r3, #0
 8005acc:	2220      	movs	r2, #32
 8005ace:	67a2      	str	r2, [r4, #120]	; 0x78
 8005ad0:	f884 3074 	strb.w	r3, [r4, #116]	; 0x74
 8005ad4:	67e2      	str	r2, [r4, #124]	; 0x7c
 8005ad6:	4618      	mov	r0, r3
 8005ad8:	6623      	str	r3, [r4, #96]	; 0x60
 8005ada:	b002      	add	sp, #8
 8005adc:	bd70      	pop	{r4, r5, r6, pc}
 8005ade:	f06f 437e 	mvn.w	r3, #4261412864	; 0xfe000000
 8005ae2:	9300      	str	r3, [sp, #0]
 8005ae4:	462a      	mov	r2, r5
 8005ae6:	4603      	mov	r3, r0
 8005ae8:	f44f 1100 	mov.w	r1, #2097152	; 0x200000
 8005aec:	4620      	mov	r0, r4
 8005aee:	f7ff ff47 	bl	8005980 <UART_WaitOnFlagUntilTimeout>
 8005af2:	b9e0      	cbnz	r0, 8005b2e <HAL_UART_Init+0xc6>
 8005af4:	6823      	ldr	r3, [r4, #0]
 8005af6:	681b      	ldr	r3, [r3, #0]
 8005af8:	075b      	lsls	r3, r3, #29
 8005afa:	d40c      	bmi.n	8005b16 <HAL_UART_Init+0xae>
 8005afc:	e7e5      	b.n	8005aca <HAL_UART_Init+0x62>
 8005afe:	4620      	mov	r0, r4
 8005b00:	f7ff fee6 	bl	80058d0 <UART_AdvFeatureConfig>
 8005b04:	e7c7      	b.n	8005a96 <HAL_UART_Init+0x2e>
 8005b06:	2001      	movs	r0, #1
 8005b08:	b002      	add	sp, #8
 8005b0a:	bd70      	pop	{r4, r5, r6, pc}
 8005b0c:	f880 3074 	strb.w	r3, [r0, #116]	; 0x74
 8005b10:	f7fc fb76 	bl	8002200 <HAL_UART_MspInit>
 8005b14:	e7b0      	b.n	8005a78 <HAL_UART_Init+0x10>
 8005b16:	f06f 437e 	mvn.w	r3, #4261412864	; 0xfe000000
 8005b1a:	9300      	str	r3, [sp, #0]
 8005b1c:	2200      	movs	r2, #0
 8005b1e:	4633      	mov	r3, r6
 8005b20:	f44f 0180 	mov.w	r1, #4194304	; 0x400000
 8005b24:	4620      	mov	r0, r4
 8005b26:	f7ff ff2b 	bl	8005980 <UART_WaitOnFlagUntilTimeout>
 8005b2a:	2800      	cmp	r0, #0
 8005b2c:	d0cd      	beq.n	8005aca <HAL_UART_Init+0x62>
 8005b2e:	2003      	movs	r0, #3
 8005b30:	e7d3      	b.n	8005ada <HAL_UART_Init+0x72>
 8005b32:	2001      	movs	r0, #1
 8005b34:	4770      	bx	lr
 8005b36:	bf00      	nop

08005b38 <HAL_UARTEx_WakeupCallback>:
 8005b38:	4770      	bx	lr
 8005b3a:	bf00      	nop
 8005b3c:	0000      	movs	r0, r0
	...

08005b40 <sin>:
 8005b40:	b51f      	push	{r0, r1, r2, r3, r4, lr}
 8005b42:	ec53 2b10 	vmov	r2, r3, d0
 8005b46:	4828      	ldr	r0, [pc, #160]	; (8005be8 <sin+0xa8>)
 8005b48:	f023 4100 	bic.w	r1, r3, #2147483648	; 0x80000000
 8005b4c:	4281      	cmp	r1, r0
 8005b4e:	dc07      	bgt.n	8005b60 <sin+0x20>
 8005b50:	ed9f 1b23 	vldr	d1, [pc, #140]	; 8005be0 <sin+0xa0>
 8005b54:	2000      	movs	r0, #0
 8005b56:	b005      	add	sp, #20
 8005b58:	f85d eb04 	ldr.w	lr, [sp], #4
 8005b5c:	f000 be6c 	b.w	8006838 <__kernel_sin>
 8005b60:	4822      	ldr	r0, [pc, #136]	; (8005bec <sin+0xac>)
 8005b62:	4281      	cmp	r1, r0
 8005b64:	dd09      	ble.n	8005b7a <sin+0x3a>
 8005b66:	ee10 0a10 	vmov	r0, s0
 8005b6a:	4619      	mov	r1, r3
 8005b6c:	f7fa fb8c 	bl	8000288 <__aeabi_dsub>
 8005b70:	ec41 0b10 	vmov	d0, r0, r1
 8005b74:	b005      	add	sp, #20
 8005b76:	f85d fb04 	ldr.w	pc, [sp], #4
 8005b7a:	4668      	mov	r0, sp
 8005b7c:	f000 f838 	bl	8005bf0 <__ieee754_rem_pio2>
 8005b80:	f000 0003 	and.w	r0, r0, #3
 8005b84:	2801      	cmp	r0, #1
 8005b86:	d00c      	beq.n	8005ba2 <sin+0x62>
 8005b88:	2802      	cmp	r0, #2
 8005b8a:	d011      	beq.n	8005bb0 <sin+0x70>
 8005b8c:	b9f0      	cbnz	r0, 8005bcc <sin+0x8c>
 8005b8e:	ed9d 1b02 	vldr	d1, [sp, #8]
 8005b92:	ed9d 0b00 	vldr	d0, [sp]
 8005b96:	2001      	movs	r0, #1
 8005b98:	f000 fe4e 	bl	8006838 <__kernel_sin>
 8005b9c:	ec51 0b10 	vmov	r0, r1, d0
 8005ba0:	e7e6      	b.n	8005b70 <sin+0x30>
 8005ba2:	ed9d 1b02 	vldr	d1, [sp, #8]
 8005ba6:	ed9d 0b00 	vldr	d0, [sp]
 8005baa:	f000 fa2d 	bl	8006008 <__kernel_cos>
 8005bae:	e7f5      	b.n	8005b9c <sin+0x5c>
 8005bb0:	ed9d 1b02 	vldr	d1, [sp, #8]
 8005bb4:	ed9d 0b00 	vldr	d0, [sp]
 8005bb8:	2001      	movs	r0, #1
 8005bba:	f000 fe3d 	bl	8006838 <__kernel_sin>
 8005bbe:	ec53 2b10 	vmov	r2, r3, d0
 8005bc2:	ee10 0a10 	vmov	r0, s0
 8005bc6:	f103 4100 	add.w	r1, r3, #2147483648	; 0x80000000
 8005bca:	e7d1      	b.n	8005b70 <sin+0x30>
 8005bcc:	ed9d 1b02 	vldr	d1, [sp, #8]
 8005bd0:	ed9d 0b00 	vldr	d0, [sp]
 8005bd4:	f000 fa18 	bl	8006008 <__kernel_cos>
 8005bd8:	e7f1      	b.n	8005bbe <sin+0x7e>
 8005bda:	bf00      	nop
 8005bdc:	f3af 8000 	nop.w
	...
 8005be8:	3fe921fb 	.word	0x3fe921fb
 8005bec:	7fefffff 	.word	0x7fefffff

08005bf0 <__ieee754_rem_pio2>:
 8005bf0:	e92d 4ff0 	stmdb	sp!, {r4, r5, r6, r7, r8, r9, sl, fp, lr}
 8005bf4:	ed2d 8b02 	vpush	{d8}
 8005bf8:	ec55 4b10 	vmov	r4, r5, d0
 8005bfc:	4bca      	ldr	r3, [pc, #808]	; (8005f28 <__ieee754_rem_pio2+0x338>)
 8005bfe:	b08b      	sub	sp, #44	; 0x2c
 8005c00:	f025 4800 	bic.w	r8, r5, #2147483648	; 0x80000000
 8005c04:	4598      	cmp	r8, r3
 8005c06:	4682      	mov	sl, r0
 8005c08:	9502      	str	r5, [sp, #8]
 8005c0a:	dc08      	bgt.n	8005c1e <__ieee754_rem_pio2+0x2e>
 8005c0c:	2200      	movs	r2, #0
 8005c0e:	2300      	movs	r3, #0
 8005c10:	ed80 0b00 	vstr	d0, [r0]
 8005c14:	e9c0 2302 	strd	r2, r3, [r0, #8]
 8005c18:	f04f 0b00 	mov.w	fp, #0
 8005c1c:	e028      	b.n	8005c70 <__ieee754_rem_pio2+0x80>
 8005c1e:	4bc3      	ldr	r3, [pc, #780]	; (8005f2c <__ieee754_rem_pio2+0x33c>)
 8005c20:	4598      	cmp	r8, r3
 8005c22:	dc78      	bgt.n	8005d16 <__ieee754_rem_pio2+0x126>
 8005c24:	9b02      	ldr	r3, [sp, #8]
 8005c26:	4ec2      	ldr	r6, [pc, #776]	; (8005f30 <__ieee754_rem_pio2+0x340>)
 8005c28:	2b00      	cmp	r3, #0
 8005c2a:	ee10 0a10 	vmov	r0, s0
 8005c2e:	a3b0      	add	r3, pc, #704	; (adr r3, 8005ef0 <__ieee754_rem_pio2+0x300>)
 8005c30:	e9d3 2300 	ldrd	r2, r3, [r3]
 8005c34:	4629      	mov	r1, r5
 8005c36:	dd39      	ble.n	8005cac <__ieee754_rem_pio2+0xbc>
 8005c38:	f7fa fb26 	bl	8000288 <__aeabi_dsub>
 8005c3c:	45b0      	cmp	r8, r6
 8005c3e:	4604      	mov	r4, r0
 8005c40:	460d      	mov	r5, r1
 8005c42:	d01b      	beq.n	8005c7c <__ieee754_rem_pio2+0x8c>
 8005c44:	a3ac      	add	r3, pc, #688	; (adr r3, 8005ef8 <__ieee754_rem_pio2+0x308>)
 8005c46:	e9d3 2300 	ldrd	r2, r3, [r3]
 8005c4a:	f7fa fb1d 	bl	8000288 <__aeabi_dsub>
 8005c4e:	4602      	mov	r2, r0
 8005c50:	460b      	mov	r3, r1
 8005c52:	e9ca 2300 	strd	r2, r3, [sl]
 8005c56:	4620      	mov	r0, r4
 8005c58:	4629      	mov	r1, r5
 8005c5a:	f7fa fb15 	bl	8000288 <__aeabi_dsub>
 8005c5e:	a3a6      	add	r3, pc, #664	; (adr r3, 8005ef8 <__ieee754_rem_pio2+0x308>)
 8005c60:	e9d3 2300 	ldrd	r2, r3, [r3]
 8005c64:	f7fa fb10 	bl	8000288 <__aeabi_dsub>
 8005c68:	e9ca 0102 	strd	r0, r1, [sl, #8]
 8005c6c:	f04f 0b01 	mov.w	fp, #1
 8005c70:	4658      	mov	r0, fp
 8005c72:	b00b      	add	sp, #44	; 0x2c
 8005c74:	ecbd 8b02 	vpop	{d8}
 8005c78:	e8bd 8ff0 	ldmia.w	sp!, {r4, r5, r6, r7, r8, r9, sl, fp, pc}
 8005c7c:	a3a0      	add	r3, pc, #640	; (adr r3, 8005f00 <__ieee754_rem_pio2+0x310>)
 8005c7e:	e9d3 2300 	ldrd	r2, r3, [r3]
 8005c82:	f7fa fb01 	bl	8000288 <__aeabi_dsub>
 8005c86:	a3a0      	add	r3, pc, #640	; (adr r3, 8005f08 <__ieee754_rem_pio2+0x318>)
 8005c88:	e9d3 2300 	ldrd	r2, r3, [r3]
 8005c8c:	4604      	mov	r4, r0
 8005c8e:	460d      	mov	r5, r1
 8005c90:	f7fa fafa 	bl	8000288 <__aeabi_dsub>
 8005c94:	4602      	mov	r2, r0
 8005c96:	460b      	mov	r3, r1
 8005c98:	e9ca 2300 	strd	r2, r3, [sl]
 8005c9c:	4620      	mov	r0, r4
 8005c9e:	4629      	mov	r1, r5
 8005ca0:	f7fa faf2 	bl	8000288 <__aeabi_dsub>
 8005ca4:	a398      	add	r3, pc, #608	; (adr r3, 8005f08 <__ieee754_rem_pio2+0x318>)
 8005ca6:	e9d3 2300 	ldrd	r2, r3, [r3]
 8005caa:	e7db      	b.n	8005c64 <__ieee754_rem_pio2+0x74>
 8005cac:	f7fa faee 	bl	800028c <__adddf3>
 8005cb0:	45b0      	cmp	r8, r6
 8005cb2:	4604      	mov	r4, r0
 8005cb4:	460d      	mov	r5, r1
 8005cb6:	d016      	beq.n	8005ce6 <__ieee754_rem_pio2+0xf6>
 8005cb8:	a38f      	add	r3, pc, #572	; (adr r3, 8005ef8 <__ieee754_rem_pio2+0x308>)
 8005cba:	e9d3 2300 	ldrd	r2, r3, [r3]
 8005cbe:	f7fa fae5 	bl	800028c <__adddf3>
 8005cc2:	4602      	mov	r2, r0
 8005cc4:	460b      	mov	r3, r1
 8005cc6:	e9ca 2300 	strd	r2, r3, [sl]
 8005cca:	4620      	mov	r0, r4
 8005ccc:	4629      	mov	r1, r5
 8005cce:	f7fa fadb 	bl	8000288 <__aeabi_dsub>
 8005cd2:	a389      	add	r3, pc, #548	; (adr r3, 8005ef8 <__ieee754_rem_pio2+0x308>)
 8005cd4:	e9d3 2300 	ldrd	r2, r3, [r3]
 8005cd8:	f7fa fad8 	bl	800028c <__adddf3>
 8005cdc:	f04f 3bff 	mov.w	fp, #4294967295
 8005ce0:	e9ca 0102 	strd	r0, r1, [sl, #8]
 8005ce4:	e7c4      	b.n	8005c70 <__ieee754_rem_pio2+0x80>
 8005ce6:	a386      	add	r3, pc, #536	; (adr r3, 8005f00 <__ieee754_rem_pio2+0x310>)
 8005ce8:	e9d3 2300 	ldrd	r2, r3, [r3]
 8005cec:	f7fa face 	bl	800028c <__adddf3>
 8005cf0:	a385      	add	r3, pc, #532	; (adr r3, 8005f08 <__ieee754_rem_pio2+0x318>)
 8005cf2:	e9d3 2300 	ldrd	r2, r3, [r3]
 8005cf6:	4604      	mov	r4, r0
 8005cf8:	460d      	mov	r5, r1
 8005cfa:	f7fa fac7 	bl	800028c <__adddf3>
 8005cfe:	4602      	mov	r2, r0
 8005d00:	460b      	mov	r3, r1
 8005d02:	e9ca 2300 	strd	r2, r3, [sl]
 8005d06:	4620      	mov	r0, r4
 8005d08:	4629      	mov	r1, r5
 8005d0a:	f7fa fabd 	bl	8000288 <__aeabi_dsub>
 8005d0e:	a37e      	add	r3, pc, #504	; (adr r3, 8005f08 <__ieee754_rem_pio2+0x318>)
 8005d10:	e9d3 2300 	ldrd	r2, r3, [r3]
 8005d14:	e7e0      	b.n	8005cd8 <__ieee754_rem_pio2+0xe8>
 8005d16:	4b87      	ldr	r3, [pc, #540]	; (8005f34 <__ieee754_rem_pio2+0x344>)
 8005d18:	4598      	cmp	r8, r3
 8005d1a:	f300 80d9 	bgt.w	8005ed0 <__ieee754_rem_pio2+0x2e0>
 8005d1e:	f000 fe49 	bl	80069b4 <fabs>
 8005d22:	ec55 4b10 	vmov	r4, r5, d0
 8005d26:	ee10 0a10 	vmov	r0, s0
 8005d2a:	a379      	add	r3, pc, #484	; (adr r3, 8005f10 <__ieee754_rem_pio2+0x320>)
 8005d2c:	e9d3 2300 	ldrd	r2, r3, [r3]
 8005d30:	4629      	mov	r1, r5
 8005d32:	f7fa fc61 	bl	80005f8 <__aeabi_dmul>
 8005d36:	4b80      	ldr	r3, [pc, #512]	; (8005f38 <__ieee754_rem_pio2+0x348>)
 8005d38:	2200      	movs	r2, #0
 8005d3a:	f7fa faa7 	bl	800028c <__adddf3>
 8005d3e:	f7fa ff0b 	bl	8000b58 <__aeabi_d2iz>
 8005d42:	4683      	mov	fp, r0
 8005d44:	f7fa fbee 	bl	8000524 <__aeabi_i2d>
 8005d48:	4602      	mov	r2, r0
 8005d4a:	460b      	mov	r3, r1
 8005d4c:	ec43 2b18 	vmov	d8, r2, r3
 8005d50:	a367      	add	r3, pc, #412	; (adr r3, 8005ef0 <__ieee754_rem_pio2+0x300>)
 8005d52:	e9d3 2300 	ldrd	r2, r3, [r3]
 8005d56:	f7fa fc4f 	bl	80005f8 <__aeabi_dmul>
 8005d5a:	4602      	mov	r2, r0
 8005d5c:	460b      	mov	r3, r1
 8005d5e:	4620      	mov	r0, r4
 8005d60:	4629      	mov	r1, r5
 8005d62:	f7fa fa91 	bl	8000288 <__aeabi_dsub>
 8005d66:	a364      	add	r3, pc, #400	; (adr r3, 8005ef8 <__ieee754_rem_pio2+0x308>)
 8005d68:	e9d3 2300 	ldrd	r2, r3, [r3]
 8005d6c:	4606      	mov	r6, r0
 8005d6e:	460f      	mov	r7, r1
 8005d70:	ec51 0b18 	vmov	r0, r1, d8
 8005d74:	f7fa fc40 	bl	80005f8 <__aeabi_dmul>
 8005d78:	f1bb 0f1f 	cmp.w	fp, #31
 8005d7c:	4604      	mov	r4, r0
 8005d7e:	460d      	mov	r5, r1
 8005d80:	dc0d      	bgt.n	8005d9e <__ieee754_rem_pio2+0x1ae>
 8005d82:	4b6e      	ldr	r3, [pc, #440]	; (8005f3c <__ieee754_rem_pio2+0x34c>)
 8005d84:	f10b 32ff 	add.w	r2, fp, #4294967295
 8005d88:	f853 3022 	ldr.w	r3, [r3, r2, lsl #2]
 8005d8c:	4543      	cmp	r3, r8
 8005d8e:	d006      	beq.n	8005d9e <__ieee754_rem_pio2+0x1ae>
 8005d90:	4622      	mov	r2, r4
 8005d92:	462b      	mov	r3, r5
 8005d94:	4630      	mov	r0, r6
 8005d96:	4639      	mov	r1, r7
 8005d98:	f7fa fa76 	bl	8000288 <__aeabi_dsub>
 8005d9c:	e00f      	b.n	8005dbe <__ieee754_rem_pio2+0x1ce>
 8005d9e:	462b      	mov	r3, r5
 8005da0:	4622      	mov	r2, r4
 8005da2:	4630      	mov	r0, r6
 8005da4:	4639      	mov	r1, r7
 8005da6:	f7fa fa6f 	bl	8000288 <__aeabi_dsub>
 8005daa:	ea4f 5328 	mov.w	r3, r8, asr #20
 8005dae:	9303      	str	r3, [sp, #12]
 8005db0:	f3c1 530a 	ubfx	r3, r1, #20, #11
 8005db4:	ebc3 5818 	rsb	r8, r3, r8, lsr #20
 8005db8:	f1b8 0f10 	cmp.w	r8, #16
 8005dbc:	dc02      	bgt.n	8005dc4 <__ieee754_rem_pio2+0x1d4>
 8005dbe:	e9ca 0100 	strd	r0, r1, [sl]
 8005dc2:	e039      	b.n	8005e38 <__ieee754_rem_pio2+0x248>
 8005dc4:	a34e      	add	r3, pc, #312	; (adr r3, 8005f00 <__ieee754_rem_pio2+0x310>)
 8005dc6:	e9d3 2300 	ldrd	r2, r3, [r3]
 8005dca:	ec51 0b18 	vmov	r0, r1, d8
 8005dce:	f7fa fc13 	bl	80005f8 <__aeabi_dmul>
 8005dd2:	4604      	mov	r4, r0
 8005dd4:	460d      	mov	r5, r1
 8005dd6:	4602      	mov	r2, r0
 8005dd8:	460b      	mov	r3, r1
 8005dda:	4630      	mov	r0, r6
 8005ddc:	4639      	mov	r1, r7
 8005dde:	f7fa fa53 	bl	8000288 <__aeabi_dsub>
 8005de2:	4602      	mov	r2, r0
 8005de4:	460b      	mov	r3, r1
 8005de6:	4680      	mov	r8, r0
 8005de8:	4689      	mov	r9, r1
 8005dea:	4630      	mov	r0, r6
 8005dec:	4639      	mov	r1, r7
 8005dee:	f7fa fa4b 	bl	8000288 <__aeabi_dsub>
 8005df2:	4622      	mov	r2, r4
 8005df4:	462b      	mov	r3, r5
 8005df6:	f7fa fa47 	bl	8000288 <__aeabi_dsub>
 8005dfa:	a343      	add	r3, pc, #268	; (adr r3, 8005f08 <__ieee754_rem_pio2+0x318>)
 8005dfc:	e9d3 2300 	ldrd	r2, r3, [r3]
 8005e00:	4604      	mov	r4, r0
 8005e02:	460d      	mov	r5, r1
 8005e04:	ec51 0b18 	vmov	r0, r1, d8
 8005e08:	f7fa fbf6 	bl	80005f8 <__aeabi_dmul>
 8005e0c:	4622      	mov	r2, r4
 8005e0e:	462b      	mov	r3, r5
 8005e10:	f7fa fa3a 	bl	8000288 <__aeabi_dsub>
 8005e14:	4602      	mov	r2, r0
 8005e16:	460b      	mov	r3, r1
 8005e18:	4604      	mov	r4, r0
 8005e1a:	460d      	mov	r5, r1
 8005e1c:	4640      	mov	r0, r8
 8005e1e:	4649      	mov	r1, r9
 8005e20:	f7fa fa32 	bl	8000288 <__aeabi_dsub>
 8005e24:	9a03      	ldr	r2, [sp, #12]
 8005e26:	f3c1 530a 	ubfx	r3, r1, #20, #11
 8005e2a:	1ad3      	subs	r3, r2, r3
 8005e2c:	2b31      	cmp	r3, #49	; 0x31
 8005e2e:	dc24      	bgt.n	8005e7a <__ieee754_rem_pio2+0x28a>
 8005e30:	e9ca 0100 	strd	r0, r1, [sl]
 8005e34:	4646      	mov	r6, r8
 8005e36:	464f      	mov	r7, r9
 8005e38:	e9da 8900 	ldrd	r8, r9, [sl]
 8005e3c:	4630      	mov	r0, r6
 8005e3e:	4642      	mov	r2, r8
 8005e40:	464b      	mov	r3, r9
 8005e42:	4639      	mov	r1, r7
 8005e44:	f7fa fa20 	bl	8000288 <__aeabi_dsub>
 8005e48:	462b      	mov	r3, r5
 8005e4a:	4622      	mov	r2, r4
 8005e4c:	f7fa fa1c 	bl	8000288 <__aeabi_dsub>
 8005e50:	9b02      	ldr	r3, [sp, #8]
 8005e52:	2b00      	cmp	r3, #0
 8005e54:	e9ca 0102 	strd	r0, r1, [sl, #8]
 8005e58:	f6bf af0a 	bge.w	8005c70 <__ieee754_rem_pio2+0x80>
 8005e5c:	f109 4300 	add.w	r3, r9, #2147483648	; 0x80000000
 8005e60:	f8ca 3004 	str.w	r3, [sl, #4]
 8005e64:	f101 4300 	add.w	r3, r1, #2147483648	; 0x80000000
 8005e68:	f8ca 8000 	str.w	r8, [sl]
 8005e6c:	f8ca 0008 	str.w	r0, [sl, #8]
 8005e70:	f8ca 300c 	str.w	r3, [sl, #12]
 8005e74:	f1cb 0b00 	rsb	fp, fp, #0
 8005e78:	e6fa      	b.n	8005c70 <__ieee754_rem_pio2+0x80>
 8005e7a:	a327      	add	r3, pc, #156	; (adr r3, 8005f18 <__ieee754_rem_pio2+0x328>)
 8005e7c:	e9d3 2300 	ldrd	r2, r3, [r3]
 8005e80:	ec51 0b18 	vmov	r0, r1, d8
 8005e84:	f7fa fbb8 	bl	80005f8 <__aeabi_dmul>
 8005e88:	4604      	mov	r4, r0
 8005e8a:	460d      	mov	r5, r1
 8005e8c:	4602      	mov	r2, r0
 8005e8e:	460b      	mov	r3, r1
 8005e90:	4640      	mov	r0, r8
 8005e92:	4649      	mov	r1, r9
 8005e94:	f7fa f9f8 	bl	8000288 <__aeabi_dsub>
 8005e98:	4602      	mov	r2, r0
 8005e9a:	460b      	mov	r3, r1
 8005e9c:	4606      	mov	r6, r0
 8005e9e:	460f      	mov	r7, r1
 8005ea0:	4640      	mov	r0, r8
 8005ea2:	4649      	mov	r1, r9
 8005ea4:	f7fa f9f0 	bl	8000288 <__aeabi_dsub>
 8005ea8:	4622      	mov	r2, r4
 8005eaa:	462b      	mov	r3, r5
 8005eac:	f7fa f9ec 	bl	8000288 <__aeabi_dsub>
 8005eb0:	a31b      	add	r3, pc, #108	; (adr r3, 8005f20 <__ieee754_rem_pio2+0x330>)
 8005eb2:	e9d3 2300 	ldrd	r2, r3, [r3]
 8005eb6:	4604      	mov	r4, r0
 8005eb8:	460d      	mov	r5, r1
 8005eba:	ec51 0b18 	vmov	r0, r1, d8
 8005ebe:	f7fa fb9b 	bl	80005f8 <__aeabi_dmul>
 8005ec2:	4622      	mov	r2, r4
 8005ec4:	462b      	mov	r3, r5
 8005ec6:	f7fa f9df 	bl	8000288 <__aeabi_dsub>
 8005eca:	4604      	mov	r4, r0
 8005ecc:	460d      	mov	r5, r1
 8005ece:	e75f      	b.n	8005d90 <__ieee754_rem_pio2+0x1a0>
 8005ed0:	4b1b      	ldr	r3, [pc, #108]	; (8005f40 <__ieee754_rem_pio2+0x350>)
 8005ed2:	4598      	cmp	r8, r3
 8005ed4:	dd36      	ble.n	8005f44 <__ieee754_rem_pio2+0x354>
 8005ed6:	ee10 2a10 	vmov	r2, s0
 8005eda:	462b      	mov	r3, r5
 8005edc:	4620      	mov	r0, r4
 8005ede:	4629      	mov	r1, r5
 8005ee0:	f7fa f9d2 	bl	8000288 <__aeabi_dsub>
 8005ee4:	e9ca 0102 	strd	r0, r1, [sl, #8]
 8005ee8:	e9ca 0100 	strd	r0, r1, [sl]
 8005eec:	e694      	b.n	8005c18 <__ieee754_rem_pio2+0x28>
 8005eee:	bf00      	nop
 8005ef0:	54400000 	.word	0x54400000
 8005ef4:	3ff921fb 	.word	0x3ff921fb
 8005ef8:	1a626331 	.word	0x1a626331
 8005efc:	3dd0b461 	.word	0x3dd0b461
 8005f00:	1a600000 	.word	0x1a600000
 8005f04:	3dd0b461 	.word	0x3dd0b461
 8005f08:	2e037073 	.word	0x2e037073
 8005f0c:	3ba3198a 	.word	0x3ba3198a
 8005f10:	6dc9c883 	.word	0x6dc9c883
 8005f14:	3fe45f30 	.word	0x3fe45f30
 8005f18:	2e000000 	.word	0x2e000000
 8005f1c:	3ba3198a 	.word	0x3ba3198a
 8005f20:	252049c1 	.word	0x252049c1
 8005f24:	397b839a 	.word	0x397b839a
 8005f28:	3fe921fb 	.word	0x3fe921fb
 8005f2c:	4002d97b 	.word	0x4002d97b
 8005f30:	3ff921fb 	.word	0x3ff921fb
 8005f34:	413921fb 	.word	0x413921fb
 8005f38:	3fe00000 	.word	0x3fe00000
 8005f3c:	0800b6b4 	.word	0x0800b6b4
 8005f40:	7fefffff 	.word	0x7fefffff
 8005f44:	ea4f 5428 	mov.w	r4, r8, asr #20
 8005f48:	f2a4 4416 	subw	r4, r4, #1046	; 0x416
 8005f4c:	ee10 0a10 	vmov	r0, s0
 8005f50:	eba8 5104 	sub.w	r1, r8, r4, lsl #20
 8005f54:	ee10 6a10 	vmov	r6, s0
 8005f58:	460f      	mov	r7, r1
 8005f5a:	f7fa fdfd 	bl	8000b58 <__aeabi_d2iz>
 8005f5e:	f7fa fae1 	bl	8000524 <__aeabi_i2d>
 8005f62:	4602      	mov	r2, r0
 8005f64:	460b      	mov	r3, r1
 8005f66:	4630      	mov	r0, r6
 8005f68:	4639      	mov	r1, r7
 8005f6a:	e9cd 2304 	strd	r2, r3, [sp, #16]
 8005f6e:	f7fa f98b 	bl	8000288 <__aeabi_dsub>
 8005f72:	4b23      	ldr	r3, [pc, #140]	; (8006000 <__ieee754_rem_pio2+0x410>)
 8005f74:	2200      	movs	r2, #0
 8005f76:	f7fa fb3f 	bl	80005f8 <__aeabi_dmul>
 8005f7a:	460f      	mov	r7, r1
 8005f7c:	4606      	mov	r6, r0
 8005f7e:	f7fa fdeb 	bl	8000b58 <__aeabi_d2iz>
 8005f82:	f7fa facf 	bl	8000524 <__aeabi_i2d>
 8005f86:	4602      	mov	r2, r0
 8005f88:	460b      	mov	r3, r1
 8005f8a:	4630      	mov	r0, r6
 8005f8c:	4639      	mov	r1, r7
 8005f8e:	e9cd 2306 	strd	r2, r3, [sp, #24]
 8005f92:	f7fa f979 	bl	8000288 <__aeabi_dsub>
 8005f96:	4b1a      	ldr	r3, [pc, #104]	; (8006000 <__ieee754_rem_pio2+0x410>)
 8005f98:	2200      	movs	r2, #0
 8005f9a:	f7fa fb2d 	bl	80005f8 <__aeabi_dmul>
 8005f9e:	e9cd 0108 	strd	r0, r1, [sp, #32]
 8005fa2:	ad04      	add	r5, sp, #16
 8005fa4:	f04f 0803 	mov.w	r8, #3
 8005fa8:	46a9      	mov	r9, r5
 8005faa:	2600      	movs	r6, #0
 8005fac:	2700      	movs	r7, #0
 8005fae:	4632      	mov	r2, r6
 8005fb0:	463b      	mov	r3, r7
 8005fb2:	e9d5 0104 	ldrd	r0, r1, [r5, #16]
 8005fb6:	46c3      	mov	fp, r8
 8005fb8:	3d08      	subs	r5, #8
 8005fba:	f108 38ff 	add.w	r8, r8, #4294967295
 8005fbe:	f7fa fd83 	bl	8000ac8 <__aeabi_dcmpeq>
 8005fc2:	2800      	cmp	r0, #0
 8005fc4:	d1f3      	bne.n	8005fae <__ieee754_rem_pio2+0x3be>
 8005fc6:	4b0f      	ldr	r3, [pc, #60]	; (8006004 <__ieee754_rem_pio2+0x414>)
 8005fc8:	9301      	str	r3, [sp, #4]
 8005fca:	2302      	movs	r3, #2
 8005fcc:	9300      	str	r3, [sp, #0]
 8005fce:	4622      	mov	r2, r4
 8005fd0:	465b      	mov	r3, fp
 8005fd2:	4651      	mov	r1, sl
 8005fd4:	4648      	mov	r0, r9
 8005fd6:	f000 f8df 	bl	8006198 <__kernel_rem_pio2>
 8005fda:	9b02      	ldr	r3, [sp, #8]
 8005fdc:	2b00      	cmp	r3, #0
 8005fde:	4683      	mov	fp, r0
 8005fe0:	f6bf ae46 	bge.w	8005c70 <__ieee754_rem_pio2+0x80>
 8005fe4:	e9da 2100 	ldrd	r2, r1, [sl]
 8005fe8:	f101 4300 	add.w	r3, r1, #2147483648	; 0x80000000
 8005fec:	e9ca 2300 	strd	r2, r3, [sl]
 8005ff0:	e9da 2102 	ldrd	r2, r1, [sl, #8]
 8005ff4:	f101 4300 	add.w	r3, r1, #2147483648	; 0x80000000
 8005ff8:	e9ca 2302 	strd	r2, r3, [sl, #8]
 8005ffc:	e73a      	b.n	8005e74 <__ieee754_rem_pio2+0x284>
 8005ffe:	bf00      	nop
 8006000:	41700000 	.word	0x41700000
 8006004:	0800b734 	.word	0x0800b734

08006008 <__kernel_cos>:
 8006008:	e92d 4ff7 	stmdb	sp!, {r0, r1, r2, r4, r5, r6, r7, r8, r9, sl, fp, lr}
 800600c:	ec57 6b10 	vmov	r6, r7, d0
 8006010:	f027 4800 	bic.w	r8, r7, #2147483648	; 0x80000000
 8006014:	f1b8 5f79 	cmp.w	r8, #1044381696	; 0x3e400000
 8006018:	ed8d 1b00 	vstr	d1, [sp]
 800601c:	da07      	bge.n	800602e <__kernel_cos+0x26>
 800601e:	ee10 0a10 	vmov	r0, s0
 8006022:	4639      	mov	r1, r7
 8006024:	f7fa fd98 	bl	8000b58 <__aeabi_d2iz>
 8006028:	2800      	cmp	r0, #0
 800602a:	f000 8088 	beq.w	800613e <__kernel_cos+0x136>
 800602e:	4632      	mov	r2, r6
 8006030:	463b      	mov	r3, r7
 8006032:	4630      	mov	r0, r6
 8006034:	4639      	mov	r1, r7
 8006036:	f7fa fadf 	bl	80005f8 <__aeabi_dmul>
 800603a:	4b51      	ldr	r3, [pc, #324]	; (8006180 <__kernel_cos+0x178>)
 800603c:	2200      	movs	r2, #0
 800603e:	4604      	mov	r4, r0
 8006040:	460d      	mov	r5, r1
 8006042:	f7fa fad9 	bl	80005f8 <__aeabi_dmul>
 8006046:	a340      	add	r3, pc, #256	; (adr r3, 8006148 <__kernel_cos+0x140>)
 8006048:	e9d3 2300 	ldrd	r2, r3, [r3]
 800604c:	4682      	mov	sl, r0
 800604e:	468b      	mov	fp, r1
 8006050:	4620      	mov	r0, r4
 8006052:	4629      	mov	r1, r5
 8006054:	f7fa fad0 	bl	80005f8 <__aeabi_dmul>
 8006058:	a33d      	add	r3, pc, #244	; (adr r3, 8006150 <__kernel_cos+0x148>)
 800605a:	e9d3 2300 	ldrd	r2, r3, [r3]
 800605e:	f7fa f915 	bl	800028c <__adddf3>
 8006062:	4622      	mov	r2, r4
 8006064:	462b      	mov	r3, r5
 8006066:	f7fa fac7 	bl	80005f8 <__aeabi_dmul>
 800606a:	a33b      	add	r3, pc, #236	; (adr r3, 8006158 <__kernel_cos+0x150>)
 800606c:	e9d3 2300 	ldrd	r2, r3, [r3]
 8006070:	f7fa f90a 	bl	8000288 <__aeabi_dsub>
 8006074:	4622      	mov	r2, r4
 8006076:	462b      	mov	r3, r5
 8006078:	f7fa fabe 	bl	80005f8 <__aeabi_dmul>
 800607c:	a338      	add	r3, pc, #224	; (adr r3, 8006160 <__kernel_cos+0x158>)
 800607e:	e9d3 2300 	ldrd	r2, r3, [r3]
 8006082:	f7fa f903 	bl	800028c <__adddf3>
 8006086:	4622      	mov	r2, r4
 8006088:	462b      	mov	r3, r5
 800608a:	f7fa fab5 	bl	80005f8 <__aeabi_dmul>
 800608e:	a336      	add	r3, pc, #216	; (adr r3, 8006168 <__kernel_cos+0x160>)
 8006090:	e9d3 2300 	ldrd	r2, r3, [r3]
 8006094:	f7fa f8f8 	bl	8000288 <__aeabi_dsub>
 8006098:	4622      	mov	r2, r4
 800609a:	462b      	mov	r3, r5
 800609c:	f7fa faac 	bl	80005f8 <__aeabi_dmul>
 80060a0:	a333      	add	r3, pc, #204	; (adr r3, 8006170 <__kernel_cos+0x168>)
 80060a2:	e9d3 2300 	ldrd	r2, r3, [r3]
 80060a6:	f7fa f8f1 	bl	800028c <__adddf3>
 80060aa:	4622      	mov	r2, r4
 80060ac:	462b      	mov	r3, r5
 80060ae:	f7fa faa3 	bl	80005f8 <__aeabi_dmul>
 80060b2:	4622      	mov	r2, r4
 80060b4:	462b      	mov	r3, r5
 80060b6:	f7fa fa9f 	bl	80005f8 <__aeabi_dmul>
 80060ba:	e9dd 2300 	ldrd	r2, r3, [sp]
 80060be:	4604      	mov	r4, r0
 80060c0:	460d      	mov	r5, r1
 80060c2:	4630      	mov	r0, r6
 80060c4:	4639      	mov	r1, r7
 80060c6:	f7fa fa97 	bl	80005f8 <__aeabi_dmul>
 80060ca:	460b      	mov	r3, r1
 80060cc:	4602      	mov	r2, r0
 80060ce:	4629      	mov	r1, r5
 80060d0:	4620      	mov	r0, r4
 80060d2:	f7fa f8d9 	bl	8000288 <__aeabi_dsub>
 80060d6:	4b2b      	ldr	r3, [pc, #172]	; (8006184 <__kernel_cos+0x17c>)
 80060d8:	4598      	cmp	r8, r3
 80060da:	4606      	mov	r6, r0
 80060dc:	460f      	mov	r7, r1
 80060de:	dc10      	bgt.n	8006102 <__kernel_cos+0xfa>
 80060e0:	4602      	mov	r2, r0
 80060e2:	460b      	mov	r3, r1
 80060e4:	4650      	mov	r0, sl
 80060e6:	4659      	mov	r1, fp
 80060e8:	f7fa f8ce 	bl	8000288 <__aeabi_dsub>
 80060ec:	460b      	mov	r3, r1
 80060ee:	4926      	ldr	r1, [pc, #152]	; (8006188 <__kernel_cos+0x180>)
 80060f0:	4602      	mov	r2, r0
 80060f2:	2000      	movs	r0, #0
 80060f4:	f7fa f8c8 	bl	8000288 <__aeabi_dsub>
 80060f8:	ec41 0b10 	vmov	d0, r0, r1
 80060fc:	b003      	add	sp, #12
 80060fe:	e8bd 8ff0 	ldmia.w	sp!, {r4, r5, r6, r7, r8, r9, sl, fp, pc}
 8006102:	4b22      	ldr	r3, [pc, #136]	; (800618c <__kernel_cos+0x184>)
 8006104:	4920      	ldr	r1, [pc, #128]	; (8006188 <__kernel_cos+0x180>)
 8006106:	4598      	cmp	r8, r3
 8006108:	bfcc      	ite	gt
 800610a:	4d21      	ldrgt	r5, [pc, #132]	; (8006190 <__kernel_cos+0x188>)
 800610c:	f5a8 1500 	suble.w	r5, r8, #2097152	; 0x200000
 8006110:	2400      	movs	r4, #0
 8006112:	4622      	mov	r2, r4
 8006114:	462b      	mov	r3, r5
 8006116:	2000      	movs	r0, #0
 8006118:	f7fa f8b6 	bl	8000288 <__aeabi_dsub>
 800611c:	4622      	mov	r2, r4
 800611e:	4680      	mov	r8, r0
 8006120:	4689      	mov	r9, r1
 8006122:	462b      	mov	r3, r5
 8006124:	4650      	mov	r0, sl
 8006126:	4659      	mov	r1, fp
 8006128:	f7fa f8ae 	bl	8000288 <__aeabi_dsub>
 800612c:	4632      	mov	r2, r6
 800612e:	463b      	mov	r3, r7
 8006130:	f7fa f8aa 	bl	8000288 <__aeabi_dsub>
 8006134:	4602      	mov	r2, r0
 8006136:	460b      	mov	r3, r1
 8006138:	4640      	mov	r0, r8
 800613a:	4649      	mov	r1, r9
 800613c:	e7da      	b.n	80060f4 <__kernel_cos+0xec>
 800613e:	ed9f 0b0e 	vldr	d0, [pc, #56]	; 8006178 <__kernel_cos+0x170>
 8006142:	e7db      	b.n	80060fc <__kernel_cos+0xf4>
 8006144:	f3af 8000 	nop.w
 8006148:	be8838d4 	.word	0xbe8838d4
 800614c:	bda8fae9 	.word	0xbda8fae9
 8006150:	bdb4b1c4 	.word	0xbdb4b1c4
 8006154:	3e21ee9e 	.word	0x3e21ee9e
 8006158:	809c52ad 	.word	0x809c52ad
 800615c:	3e927e4f 	.word	0x3e927e4f
 8006160:	19cb1590 	.word	0x19cb1590
 8006164:	3efa01a0 	.word	0x3efa01a0
 8006168:	16c15177 	.word	0x16c15177
 800616c:	3f56c16c 	.word	0x3f56c16c
 8006170:	5555554c 	.word	0x5555554c
 8006174:	3fa55555 	.word	0x3fa55555
 8006178:	00000000 	.word	0x00000000
 800617c:	3ff00000 	.word	0x3ff00000
 8006180:	3fe00000 	.word	0x3fe00000
 8006184:	3fd33332 	.word	0x3fd33332
 8006188:	3ff00000 	.word	0x3ff00000
 800618c:	3fe90000 	.word	0x3fe90000
 8006190:	3fd20000 	.word	0x3fd20000
 8006194:	00000000 	.word	0x00000000

08006198 <__kernel_rem_pio2>:
 8006198:	e92d 4ff0 	stmdb	sp!, {r4, r5, r6, r7, r8, r9, sl, fp, lr}
 800619c:	ed2d 8b02 	vpush	{d8}
 80061a0:	f5ad 7d1b 	sub.w	sp, sp, #620	; 0x26c
 80061a4:	f112 0f14 	cmn.w	r2, #20
 80061a8:	9308      	str	r3, [sp, #32]
 80061aa:	9101      	str	r1, [sp, #4]
 80061ac:	4bc4      	ldr	r3, [pc, #784]	; (80064c0 <__kernel_rem_pio2+0x328>)
 80061ae:	99a6      	ldr	r1, [sp, #664]	; 0x298
 80061b0:	900b      	str	r0, [sp, #44]	; 0x2c
 80061b2:	f853 3021 	ldr.w	r3, [r3, r1, lsl #2]
 80061b6:	9302      	str	r3, [sp, #8]
 80061b8:	9b08      	ldr	r3, [sp, #32]
 80061ba:	f103 33ff 	add.w	r3, r3, #4294967295
 80061be:	bfa8      	it	ge
 80061c0:	1ed4      	subge	r4, r2, #3
 80061c2:	9306      	str	r3, [sp, #24]
 80061c4:	bfb2      	itee	lt
 80061c6:	2400      	movlt	r4, #0
 80061c8:	2318      	movge	r3, #24
 80061ca:	fb94 f4f3 	sdivge	r4, r4, r3
 80061ce:	f06f 0317 	mvn.w	r3, #23
 80061d2:	fb04 3303 	mla	r3, r4, r3, r3
 80061d6:	eb03 0a02 	add.w	sl, r3, r2
 80061da:	9b02      	ldr	r3, [sp, #8]
 80061dc:	9a06      	ldr	r2, [sp, #24]
 80061de:	ed9f 8bb4 	vldr	d8, [pc, #720]	; 80064b0 <__kernel_rem_pio2+0x318>
 80061e2:	eb03 0802 	add.w	r8, r3, r2
 80061e6:	9ba7      	ldr	r3, [sp, #668]	; 0x29c
 80061e8:	1aa7      	subs	r7, r4, r2
 80061ea:	ae22      	add	r6, sp, #136	; 0x88
 80061ec:	eb03 0987 	add.w	r9, r3, r7, lsl #2
 80061f0:	2500      	movs	r5, #0
 80061f2:	4545      	cmp	r5, r8
 80061f4:	dd13      	ble.n	800621e <__kernel_rem_pio2+0x86>
 80061f6:	9b08      	ldr	r3, [sp, #32]
 80061f8:	ed9f 8bad 	vldr	d8, [pc, #692]	; 80064b0 <__kernel_rem_pio2+0x318>
 80061fc:	aa22      	add	r2, sp, #136	; 0x88
 80061fe:	eb02 05c3 	add.w	r5, r2, r3, lsl #3
 8006202:	f50d 7be4 	add.w	fp, sp, #456	; 0x1c8
 8006206:	f04f 0800 	mov.w	r8, #0
 800620a:	9b02      	ldr	r3, [sp, #8]
 800620c:	4598      	cmp	r8, r3
 800620e:	dc2f      	bgt.n	8006270 <__kernel_rem_pio2+0xd8>
 8006210:	ed8d 8b04 	vstr	d8, [sp, #16]
 8006214:	f8dd 902c 	ldr.w	r9, [sp, #44]	; 0x2c
 8006218:	462f      	mov	r7, r5
 800621a:	2600      	movs	r6, #0
 800621c:	e01b      	b.n	8006256 <__kernel_rem_pio2+0xbe>
 800621e:	42ef      	cmn	r7, r5
 8006220:	d407      	bmi.n	8006232 <__kernel_rem_pio2+0x9a>
 8006222:	f859 0025 	ldr.w	r0, [r9, r5, lsl #2]
 8006226:	f7fa f97d 	bl	8000524 <__aeabi_i2d>
 800622a:	e8e6 0102 	strd	r0, r1, [r6], #8
 800622e:	3501      	adds	r5, #1
 8006230:	e7df      	b.n	80061f2 <__kernel_rem_pio2+0x5a>
 8006232:	ec51 0b18 	vmov	r0, r1, d8
 8006236:	e7f8      	b.n	800622a <__kernel_rem_pio2+0x92>
 8006238:	e9d7 2300 	ldrd	r2, r3, [r7]
 800623c:	e8f9 0102 	ldrd	r0, r1, [r9], #8
 8006240:	f7fa f9da 	bl	80005f8 <__aeabi_dmul>
 8006244:	4602      	mov	r2, r0
 8006246:	460b      	mov	r3, r1
 8006248:	e9dd 0104 	ldrd	r0, r1, [sp, #16]
 800624c:	f7fa f81e 	bl	800028c <__adddf3>
 8006250:	e9cd 0104 	strd	r0, r1, [sp, #16]
 8006254:	3601      	adds	r6, #1
 8006256:	9b06      	ldr	r3, [sp, #24]
 8006258:	429e      	cmp	r6, r3
 800625a:	f1a7 0708 	sub.w	r7, r7, #8
 800625e:	ddeb      	ble.n	8006238 <__kernel_rem_pio2+0xa0>
 8006260:	ed9d 7b04 	vldr	d7, [sp, #16]
 8006264:	f108 0801 	add.w	r8, r8, #1
 8006268:	ecab 7b02 	vstmia	fp!, {d7}
 800626c:	3508      	adds	r5, #8
 800626e:	e7cc      	b.n	800620a <__kernel_rem_pio2+0x72>
 8006270:	9b02      	ldr	r3, [sp, #8]
 8006272:	aa0e      	add	r2, sp, #56	; 0x38
 8006274:	eb02 0383 	add.w	r3, r2, r3, lsl #2
 8006278:	930d      	str	r3, [sp, #52]	; 0x34
 800627a:	9ba7      	ldr	r3, [sp, #668]	; 0x29c
 800627c:	eb03 0384 	add.w	r3, r3, r4, lsl #2
 8006280:	9c02      	ldr	r4, [sp, #8]
 8006282:	930c      	str	r3, [sp, #48]	; 0x30
 8006284:	00e3      	lsls	r3, r4, #3
 8006286:	930a      	str	r3, [sp, #40]	; 0x28
 8006288:	ab9a      	add	r3, sp, #616	; 0x268
 800628a:	eb03 03c4 	add.w	r3, r3, r4, lsl #3
 800628e:	e953 6728 	ldrd	r6, r7, [r3, #-160]	; 0xa0
 8006292:	f10d 0838 	add.w	r8, sp, #56	; 0x38
 8006296:	ab72      	add	r3, sp, #456	; 0x1c8
 8006298:	eb03 05c4 	add.w	r5, r3, r4, lsl #3
 800629c:	46c3      	mov	fp, r8
 800629e:	46a1      	mov	r9, r4
 80062a0:	f1b9 0f00 	cmp.w	r9, #0
 80062a4:	f1a5 0508 	sub.w	r5, r5, #8
 80062a8:	dc77      	bgt.n	800639a <__kernel_rem_pio2+0x202>
 80062aa:	ec47 6b10 	vmov	d0, r6, r7
 80062ae:	4650      	mov	r0, sl
 80062b0:	f000 fc0a 	bl	8006ac8 <scalbn>
 80062b4:	ec57 6b10 	vmov	r6, r7, d0
 80062b8:	2200      	movs	r2, #0
 80062ba:	f04f 537f 	mov.w	r3, #1069547520	; 0x3fc00000
 80062be:	ee10 0a10 	vmov	r0, s0
 80062c2:	4639      	mov	r1, r7
 80062c4:	f7fa f998 	bl	80005f8 <__aeabi_dmul>
 80062c8:	ec41 0b10 	vmov	d0, r0, r1
 80062cc:	f000 fb7c 	bl	80069c8 <floor>
 80062d0:	4b7c      	ldr	r3, [pc, #496]	; (80064c4 <__kernel_rem_pio2+0x32c>)
 80062d2:	ec51 0b10 	vmov	r0, r1, d0
 80062d6:	2200      	movs	r2, #0
 80062d8:	f7fa f98e 	bl	80005f8 <__aeabi_dmul>
 80062dc:	4602      	mov	r2, r0
 80062de:	460b      	mov	r3, r1
 80062e0:	4630      	mov	r0, r6
 80062e2:	4639      	mov	r1, r7
 80062e4:	f7f9 ffd0 	bl	8000288 <__aeabi_dsub>
 80062e8:	460f      	mov	r7, r1
 80062ea:	4606      	mov	r6, r0
 80062ec:	f7fa fc34 	bl	8000b58 <__aeabi_d2iz>
 80062f0:	9004      	str	r0, [sp, #16]
 80062f2:	f7fa f917 	bl	8000524 <__aeabi_i2d>
 80062f6:	4602      	mov	r2, r0
 80062f8:	460b      	mov	r3, r1
 80062fa:	4630      	mov	r0, r6
 80062fc:	4639      	mov	r1, r7
 80062fe:	f7f9 ffc3 	bl	8000288 <__aeabi_dsub>
 8006302:	f1ba 0f00 	cmp.w	sl, #0
 8006306:	4606      	mov	r6, r0
 8006308:	460f      	mov	r7, r1
 800630a:	dd6d      	ble.n	80063e8 <__kernel_rem_pio2+0x250>
 800630c:	1e62      	subs	r2, r4, #1
 800630e:	ab0e      	add	r3, sp, #56	; 0x38
 8006310:	9d04      	ldr	r5, [sp, #16]
 8006312:	f853 0022 	ldr.w	r0, [r3, r2, lsl #2]
 8006316:	f1ca 0118 	rsb	r1, sl, #24
 800631a:	fa40 f301 	asr.w	r3, r0, r1
 800631e:	441d      	add	r5, r3
 8006320:	408b      	lsls	r3, r1
 8006322:	1ac0      	subs	r0, r0, r3
 8006324:	ab0e      	add	r3, sp, #56	; 0x38
 8006326:	9504      	str	r5, [sp, #16]
 8006328:	f843 0022 	str.w	r0, [r3, r2, lsl #2]
 800632c:	f1ca 0317 	rsb	r3, sl, #23
 8006330:	fa40 fb03 	asr.w	fp, r0, r3
 8006334:	f1bb 0f00 	cmp.w	fp, #0
 8006338:	dd65      	ble.n	8006406 <__kernel_rem_pio2+0x26e>
 800633a:	9b04      	ldr	r3, [sp, #16]
 800633c:	2200      	movs	r2, #0
 800633e:	3301      	adds	r3, #1
 8006340:	9304      	str	r3, [sp, #16]
 8006342:	4615      	mov	r5, r2
 8006344:	f06f 417f 	mvn.w	r1, #4278190080	; 0xff000000
 8006348:	4294      	cmp	r4, r2
 800634a:	f300 809c 	bgt.w	8006486 <__kernel_rem_pio2+0x2ee>
 800634e:	f1ba 0f00 	cmp.w	sl, #0
 8006352:	dd07      	ble.n	8006364 <__kernel_rem_pio2+0x1cc>
 8006354:	f1ba 0f01 	cmp.w	sl, #1
 8006358:	f000 80c0 	beq.w	80064dc <__kernel_rem_pio2+0x344>
 800635c:	f1ba 0f02 	cmp.w	sl, #2
 8006360:	f000 80c6 	beq.w	80064f0 <__kernel_rem_pio2+0x358>
 8006364:	f1bb 0f02 	cmp.w	fp, #2
 8006368:	d14d      	bne.n	8006406 <__kernel_rem_pio2+0x26e>
 800636a:	4632      	mov	r2, r6
 800636c:	463b      	mov	r3, r7
 800636e:	4956      	ldr	r1, [pc, #344]	; (80064c8 <__kernel_rem_pio2+0x330>)
 8006370:	2000      	movs	r0, #0
 8006372:	f7f9 ff89 	bl	8000288 <__aeabi_dsub>
 8006376:	4606      	mov	r6, r0
 8006378:	460f      	mov	r7, r1
 800637a:	2d00      	cmp	r5, #0
 800637c:	d043      	beq.n	8006406 <__kernel_rem_pio2+0x26e>
 800637e:	4650      	mov	r0, sl
 8006380:	ed9f 0b4d 	vldr	d0, [pc, #308]	; 80064b8 <__kernel_rem_pio2+0x320>
 8006384:	f000 fba0 	bl	8006ac8 <scalbn>
 8006388:	4630      	mov	r0, r6
 800638a:	4639      	mov	r1, r7
 800638c:	ec53 2b10 	vmov	r2, r3, d0
 8006390:	f7f9 ff7a 	bl	8000288 <__aeabi_dsub>
 8006394:	4606      	mov	r6, r0
 8006396:	460f      	mov	r7, r1
 8006398:	e035      	b.n	8006406 <__kernel_rem_pio2+0x26e>
 800639a:	4b4c      	ldr	r3, [pc, #304]	; (80064cc <__kernel_rem_pio2+0x334>)
 800639c:	2200      	movs	r2, #0
 800639e:	4630      	mov	r0, r6
 80063a0:	4639      	mov	r1, r7
 80063a2:	f7fa f929 	bl	80005f8 <__aeabi_dmul>
 80063a6:	f7fa fbd7 	bl	8000b58 <__aeabi_d2iz>
 80063aa:	f7fa f8bb 	bl	8000524 <__aeabi_i2d>
 80063ae:	4602      	mov	r2, r0
 80063b0:	460b      	mov	r3, r1
 80063b2:	ec43 2b18 	vmov	d8, r2, r3
 80063b6:	4b46      	ldr	r3, [pc, #280]	; (80064d0 <__kernel_rem_pio2+0x338>)
 80063b8:	2200      	movs	r2, #0
 80063ba:	f7fa f91d 	bl	80005f8 <__aeabi_dmul>
 80063be:	4602      	mov	r2, r0
 80063c0:	460b      	mov	r3, r1
 80063c2:	4630      	mov	r0, r6
 80063c4:	4639      	mov	r1, r7
 80063c6:	f7f9 ff5f 	bl	8000288 <__aeabi_dsub>
 80063ca:	f7fa fbc5 	bl	8000b58 <__aeabi_d2iz>
 80063ce:	e9d5 2300 	ldrd	r2, r3, [r5]
 80063d2:	f84b 0b04 	str.w	r0, [fp], #4
 80063d6:	ec51 0b18 	vmov	r0, r1, d8
 80063da:	f7f9 ff57 	bl	800028c <__adddf3>
 80063de:	f109 39ff 	add.w	r9, r9, #4294967295
 80063e2:	4606      	mov	r6, r0
 80063e4:	460f      	mov	r7, r1
 80063e6:	e75b      	b.n	80062a0 <__kernel_rem_pio2+0x108>
 80063e8:	d106      	bne.n	80063f8 <__kernel_rem_pio2+0x260>
 80063ea:	1e63      	subs	r3, r4, #1
 80063ec:	aa0e      	add	r2, sp, #56	; 0x38
 80063ee:	f852 0023 	ldr.w	r0, [r2, r3, lsl #2]
 80063f2:	ea4f 5be0 	mov.w	fp, r0, asr #23
 80063f6:	e79d      	b.n	8006334 <__kernel_rem_pio2+0x19c>
 80063f8:	4b36      	ldr	r3, [pc, #216]	; (80064d4 <__kernel_rem_pio2+0x33c>)
 80063fa:	2200      	movs	r2, #0
 80063fc:	f7fa fb82 	bl	8000b04 <__aeabi_dcmpge>
 8006400:	2800      	cmp	r0, #0
 8006402:	d13d      	bne.n	8006480 <__kernel_rem_pio2+0x2e8>
 8006404:	4683      	mov	fp, r0
 8006406:	2200      	movs	r2, #0
 8006408:	2300      	movs	r3, #0
 800640a:	4630      	mov	r0, r6
 800640c:	4639      	mov	r1, r7
 800640e:	f7fa fb5b 	bl	8000ac8 <__aeabi_dcmpeq>
 8006412:	2800      	cmp	r0, #0
 8006414:	f000 80c0 	beq.w	8006598 <__kernel_rem_pio2+0x400>
 8006418:	1e65      	subs	r5, r4, #1
 800641a:	462b      	mov	r3, r5
 800641c:	2200      	movs	r2, #0
 800641e:	9902      	ldr	r1, [sp, #8]
 8006420:	428b      	cmp	r3, r1
 8006422:	da6c      	bge.n	80064fe <__kernel_rem_pio2+0x366>
 8006424:	2a00      	cmp	r2, #0
 8006426:	f000 8089 	beq.w	800653c <__kernel_rem_pio2+0x3a4>
 800642a:	ab0e      	add	r3, sp, #56	; 0x38
 800642c:	f1aa 0a18 	sub.w	sl, sl, #24
 8006430:	f853 3025 	ldr.w	r3, [r3, r5, lsl #2]
 8006434:	2b00      	cmp	r3, #0
 8006436:	f000 80ad 	beq.w	8006594 <__kernel_rem_pio2+0x3fc>
 800643a:	4650      	mov	r0, sl
 800643c:	ed9f 0b1e 	vldr	d0, [pc, #120]	; 80064b8 <__kernel_rem_pio2+0x320>
 8006440:	f000 fb42 	bl	8006ac8 <scalbn>
 8006444:	ab9a      	add	r3, sp, #616	; 0x268
 8006446:	eb03 03c5 	add.w	r3, r3, r5, lsl #3
 800644a:	ec57 6b10 	vmov	r6, r7, d0
 800644e:	00ec      	lsls	r4, r5, #3
 8006450:	f1a3 0898 	sub.w	r8, r3, #152	; 0x98
 8006454:	46aa      	mov	sl, r5
 8006456:	f1ba 0f00 	cmp.w	sl, #0
 800645a:	f280 80d6 	bge.w	800660a <__kernel_rem_pio2+0x472>
 800645e:	ed9f 8b14 	vldr	d8, [pc, #80]	; 80064b0 <__kernel_rem_pio2+0x318>
 8006462:	462e      	mov	r6, r5
 8006464:	2e00      	cmp	r6, #0
 8006466:	f2c0 8104 	blt.w	8006672 <__kernel_rem_pio2+0x4da>
 800646a:	ab72      	add	r3, sp, #456	; 0x1c8
 800646c:	ed8d 8b06 	vstr	d8, [sp, #24]
 8006470:	f8df a064 	ldr.w	sl, [pc, #100]	; 80064d8 <__kernel_rem_pio2+0x340>
 8006474:	eb03 09c6 	add.w	r9, r3, r6, lsl #3
 8006478:	f04f 0800 	mov.w	r8, #0
 800647c:	1baf      	subs	r7, r5, r6
 800647e:	e0ea      	b.n	8006656 <__kernel_rem_pio2+0x4be>
 8006480:	f04f 0b02 	mov.w	fp, #2
 8006484:	e759      	b.n	800633a <__kernel_rem_pio2+0x1a2>
 8006486:	f8d8 3000 	ldr.w	r3, [r8]
 800648a:	b955      	cbnz	r5, 80064a2 <__kernel_rem_pio2+0x30a>
 800648c:	b123      	cbz	r3, 8006498 <__kernel_rem_pio2+0x300>
 800648e:	f1c3 7380 	rsb	r3, r3, #16777216	; 0x1000000
 8006492:	f8c8 3000 	str.w	r3, [r8]
 8006496:	2301      	movs	r3, #1
 8006498:	3201      	adds	r2, #1
 800649a:	f108 0804 	add.w	r8, r8, #4
 800649e:	461d      	mov	r5, r3
 80064a0:	e752      	b.n	8006348 <__kernel_rem_pio2+0x1b0>
 80064a2:	1acb      	subs	r3, r1, r3
 80064a4:	f8c8 3000 	str.w	r3, [r8]
 80064a8:	462b      	mov	r3, r5
 80064aa:	e7f5      	b.n	8006498 <__kernel_rem_pio2+0x300>
 80064ac:	f3af 8000 	nop.w
	...
 80064bc:	3ff00000 	.word	0x3ff00000
 80064c0:	0800b880 	.word	0x0800b880
 80064c4:	40200000 	.word	0x40200000
 80064c8:	3ff00000 	.word	0x3ff00000
 80064cc:	3e700000 	.word	0x3e700000
 80064d0:	41700000 	.word	0x41700000
 80064d4:	3fe00000 	.word	0x3fe00000
 80064d8:	0800b840 	.word	0x0800b840
 80064dc:	1e62      	subs	r2, r4, #1
 80064de:	ab0e      	add	r3, sp, #56	; 0x38
 80064e0:	f853 3022 	ldr.w	r3, [r3, r2, lsl #2]
 80064e4:	f3c3 0316 	ubfx	r3, r3, #0, #23
 80064e8:	a90e      	add	r1, sp, #56	; 0x38
 80064ea:	f841 3022 	str.w	r3, [r1, r2, lsl #2]
 80064ee:	e739      	b.n	8006364 <__kernel_rem_pio2+0x1cc>
 80064f0:	1e62      	subs	r2, r4, #1
 80064f2:	ab0e      	add	r3, sp, #56	; 0x38
 80064f4:	f853 3022 	ldr.w	r3, [r3, r2, lsl #2]
 80064f8:	f3c3 0315 	ubfx	r3, r3, #0, #22
 80064fc:	e7f4      	b.n	80064e8 <__kernel_rem_pio2+0x350>
 80064fe:	a90e      	add	r1, sp, #56	; 0x38
 8006500:	f851 1023 	ldr.w	r1, [r1, r3, lsl #2]
 8006504:	3b01      	subs	r3, #1
 8006506:	430a      	orrs	r2, r1
 8006508:	e789      	b.n	800641e <__kernel_rem_pio2+0x286>
 800650a:	3301      	adds	r3, #1
 800650c:	f852 1d04 	ldr.w	r1, [r2, #-4]!
 8006510:	2900      	cmp	r1, #0
 8006512:	d0fa      	beq.n	800650a <__kernel_rem_pio2+0x372>
 8006514:	9a0a      	ldr	r2, [sp, #40]	; 0x28
 8006516:	f502 721a 	add.w	r2, r2, #616	; 0x268
 800651a:	446a      	add	r2, sp
 800651c:	3a98      	subs	r2, #152	; 0x98
 800651e:	920a      	str	r2, [sp, #40]	; 0x28
 8006520:	9a08      	ldr	r2, [sp, #32]
 8006522:	18e3      	adds	r3, r4, r3
 8006524:	18a5      	adds	r5, r4, r2
 8006526:	aa22      	add	r2, sp, #136	; 0x88
 8006528:	f104 0801 	add.w	r8, r4, #1
 800652c:	eb02 05c5 	add.w	r5, r2, r5, lsl #3
 8006530:	9304      	str	r3, [sp, #16]
 8006532:	9b04      	ldr	r3, [sp, #16]
 8006534:	4543      	cmp	r3, r8
 8006536:	da04      	bge.n	8006542 <__kernel_rem_pio2+0x3aa>
 8006538:	461c      	mov	r4, r3
 800653a:	e6a3      	b.n	8006284 <__kernel_rem_pio2+0xec>
 800653c:	9a0d      	ldr	r2, [sp, #52]	; 0x34
 800653e:	2301      	movs	r3, #1
 8006540:	e7e4      	b.n	800650c <__kernel_rem_pio2+0x374>
 8006542:	9b0c      	ldr	r3, [sp, #48]	; 0x30
 8006544:	f853 0028 	ldr.w	r0, [r3, r8, lsl #2]
 8006548:	f7f9 ffec 	bl	8000524 <__aeabi_i2d>
 800654c:	e8e5 0102 	strd	r0, r1, [r5], #8
 8006550:	9b0b      	ldr	r3, [sp, #44]	; 0x2c
 8006552:	46ab      	mov	fp, r5
 8006554:	461c      	mov	r4, r3
 8006556:	f04f 0900 	mov.w	r9, #0
 800655a:	2600      	movs	r6, #0
 800655c:	2700      	movs	r7, #0
 800655e:	9b06      	ldr	r3, [sp, #24]
 8006560:	4599      	cmp	r9, r3
 8006562:	dd06      	ble.n	8006572 <__kernel_rem_pio2+0x3da>
 8006564:	9b0a      	ldr	r3, [sp, #40]	; 0x28
 8006566:	e8e3 6702 	strd	r6, r7, [r3], #8
 800656a:	f108 0801 	add.w	r8, r8, #1
 800656e:	930a      	str	r3, [sp, #40]	; 0x28
 8006570:	e7df      	b.n	8006532 <__kernel_rem_pio2+0x39a>
 8006572:	e97b 2302 	ldrd	r2, r3, [fp, #-8]!
 8006576:	e8f4 0102 	ldrd	r0, r1, [r4], #8
 800657a:	f7fa f83d 	bl	80005f8 <__aeabi_dmul>
 800657e:	4602      	mov	r2, r0
 8006580:	460b      	mov	r3, r1
 8006582:	4630      	mov	r0, r6
 8006584:	4639      	mov	r1, r7
 8006586:	f7f9 fe81 	bl	800028c <__adddf3>
 800658a:	f109 0901 	add.w	r9, r9, #1
 800658e:	4606      	mov	r6, r0
 8006590:	460f      	mov	r7, r1
 8006592:	e7e4      	b.n	800655e <__kernel_rem_pio2+0x3c6>
 8006594:	3d01      	subs	r5, #1
 8006596:	e748      	b.n	800642a <__kernel_rem_pio2+0x292>
 8006598:	ec47 6b10 	vmov	d0, r6, r7
 800659c:	f1ca 0000 	rsb	r0, sl, #0
 80065a0:	f000 fa92 	bl	8006ac8 <scalbn>
 80065a4:	ec57 6b10 	vmov	r6, r7, d0
 80065a8:	4ba0      	ldr	r3, [pc, #640]	; (800682c <__kernel_rem_pio2+0x694>)
 80065aa:	ee10 0a10 	vmov	r0, s0
 80065ae:	2200      	movs	r2, #0
 80065b0:	4639      	mov	r1, r7
 80065b2:	f7fa faa7 	bl	8000b04 <__aeabi_dcmpge>
 80065b6:	b1f8      	cbz	r0, 80065f8 <__kernel_rem_pio2+0x460>
 80065b8:	4b9d      	ldr	r3, [pc, #628]	; (8006830 <__kernel_rem_pio2+0x698>)
 80065ba:	2200      	movs	r2, #0
 80065bc:	4630      	mov	r0, r6
 80065be:	4639      	mov	r1, r7
 80065c0:	f7fa f81a 	bl	80005f8 <__aeabi_dmul>
 80065c4:	f7fa fac8 	bl	8000b58 <__aeabi_d2iz>
 80065c8:	4680      	mov	r8, r0
 80065ca:	f7f9 ffab 	bl	8000524 <__aeabi_i2d>
 80065ce:	4b97      	ldr	r3, [pc, #604]	; (800682c <__kernel_rem_pio2+0x694>)
 80065d0:	2200      	movs	r2, #0
 80065d2:	f7fa f811 	bl	80005f8 <__aeabi_dmul>
 80065d6:	460b      	mov	r3, r1
 80065d8:	4602      	mov	r2, r0
 80065da:	4639      	mov	r1, r7
 80065dc:	4630      	mov	r0, r6
 80065de:	f7f9 fe53 	bl	8000288 <__aeabi_dsub>
 80065e2:	f7fa fab9 	bl	8000b58 <__aeabi_d2iz>
 80065e6:	1c65      	adds	r5, r4, #1
 80065e8:	ab0e      	add	r3, sp, #56	; 0x38
 80065ea:	f10a 0a18 	add.w	sl, sl, #24
 80065ee:	f843 0024 	str.w	r0, [r3, r4, lsl #2]
 80065f2:	f843 8025 	str.w	r8, [r3, r5, lsl #2]
 80065f6:	e720      	b.n	800643a <__kernel_rem_pio2+0x2a2>
 80065f8:	4630      	mov	r0, r6
 80065fa:	4639      	mov	r1, r7
 80065fc:	f7fa faac 	bl	8000b58 <__aeabi_d2iz>
 8006600:	ab0e      	add	r3, sp, #56	; 0x38
 8006602:	4625      	mov	r5, r4
 8006604:	f843 0024 	str.w	r0, [r3, r4, lsl #2]
 8006608:	e717      	b.n	800643a <__kernel_rem_pio2+0x2a2>
 800660a:	ab0e      	add	r3, sp, #56	; 0x38
 800660c:	f853 002a 	ldr.w	r0, [r3, sl, lsl #2]
 8006610:	f7f9 ff88 	bl	8000524 <__aeabi_i2d>
 8006614:	4632      	mov	r2, r6
 8006616:	463b      	mov	r3, r7
 8006618:	f7f9 ffee 	bl	80005f8 <__aeabi_dmul>
 800661c:	4b84      	ldr	r3, [pc, #528]	; (8006830 <__kernel_rem_pio2+0x698>)
 800661e:	e968 0102 	strd	r0, r1, [r8, #-8]!
 8006622:	2200      	movs	r2, #0
 8006624:	4630      	mov	r0, r6
 8006626:	4639      	mov	r1, r7
 8006628:	f7f9 ffe6 	bl	80005f8 <__aeabi_dmul>
 800662c:	f10a 3aff 	add.w	sl, sl, #4294967295
 8006630:	4606      	mov	r6, r0
 8006632:	460f      	mov	r7, r1
 8006634:	e70f      	b.n	8006456 <__kernel_rem_pio2+0x2be>
 8006636:	e8f9 2302 	ldrd	r2, r3, [r9], #8
 800663a:	e8fa 0102 	ldrd	r0, r1, [sl], #8
 800663e:	f7f9 ffdb 	bl	80005f8 <__aeabi_dmul>
 8006642:	4602      	mov	r2, r0
 8006644:	460b      	mov	r3, r1
 8006646:	e9dd 0106 	ldrd	r0, r1, [sp, #24]
 800664a:	f7f9 fe1f 	bl	800028c <__adddf3>
 800664e:	e9cd 0106 	strd	r0, r1, [sp, #24]
 8006652:	f108 0801 	add.w	r8, r8, #1
 8006656:	9b02      	ldr	r3, [sp, #8]
 8006658:	4598      	cmp	r8, r3
 800665a:	dc01      	bgt.n	8006660 <__kernel_rem_pio2+0x4c8>
 800665c:	45b8      	cmp	r8, r7
 800665e:	ddea      	ble.n	8006636 <__kernel_rem_pio2+0x49e>
 8006660:	ed9d 7b06 	vldr	d7, [sp, #24]
 8006664:	ab4a      	add	r3, sp, #296	; 0x128
 8006666:	eb03 07c7 	add.w	r7, r3, r7, lsl #3
 800666a:	ed87 7b00 	vstr	d7, [r7]
 800666e:	3e01      	subs	r6, #1
 8006670:	e6f8      	b.n	8006464 <__kernel_rem_pio2+0x2cc>
 8006672:	9ba6      	ldr	r3, [sp, #664]	; 0x298
 8006674:	2b02      	cmp	r3, #2
 8006676:	dc0b      	bgt.n	8006690 <__kernel_rem_pio2+0x4f8>
 8006678:	2b00      	cmp	r3, #0
 800667a:	dc35      	bgt.n	80066e8 <__kernel_rem_pio2+0x550>
 800667c:	d059      	beq.n	8006732 <__kernel_rem_pio2+0x59a>
 800667e:	9b04      	ldr	r3, [sp, #16]
 8006680:	f003 0007 	and.w	r0, r3, #7
 8006684:	f50d 7d1b 	add.w	sp, sp, #620	; 0x26c
 8006688:	ecbd 8b02 	vpop	{d8}
 800668c:	e8bd 8ff0 	ldmia.w	sp!, {r4, r5, r6, r7, r8, r9, sl, fp, pc}
 8006690:	9ba6      	ldr	r3, [sp, #664]	; 0x298
 8006692:	2b03      	cmp	r3, #3
 8006694:	d1f3      	bne.n	800667e <__kernel_rem_pio2+0x4e6>
 8006696:	ab4a      	add	r3, sp, #296	; 0x128
 8006698:	4423      	add	r3, r4
 800669a:	9306      	str	r3, [sp, #24]
 800669c:	461c      	mov	r4, r3
 800669e:	469a      	mov	sl, r3
 80066a0:	9502      	str	r5, [sp, #8]
 80066a2:	9b02      	ldr	r3, [sp, #8]
 80066a4:	2b00      	cmp	r3, #0
 80066a6:	f1aa 0a08 	sub.w	sl, sl, #8
 80066aa:	dc6b      	bgt.n	8006784 <__kernel_rem_pio2+0x5ec>
 80066ac:	46aa      	mov	sl, r5
 80066ae:	f1ba 0f01 	cmp.w	sl, #1
 80066b2:	f1a4 0408 	sub.w	r4, r4, #8
 80066b6:	f300 8085 	bgt.w	80067c4 <__kernel_rem_pio2+0x62c>
 80066ba:	9c06      	ldr	r4, [sp, #24]
 80066bc:	2000      	movs	r0, #0
 80066be:	3408      	adds	r4, #8
 80066c0:	2100      	movs	r1, #0
 80066c2:	2d01      	cmp	r5, #1
 80066c4:	f300 809d 	bgt.w	8006802 <__kernel_rem_pio2+0x66a>
 80066c8:	e9dd 564a 	ldrd	r5, r6, [sp, #296]	; 0x128
 80066cc:	e9dd 784c 	ldrd	r7, r8, [sp, #304]	; 0x130
 80066d0:	f1bb 0f00 	cmp.w	fp, #0
 80066d4:	f040 809b 	bne.w	800680e <__kernel_rem_pio2+0x676>
 80066d8:	9b01      	ldr	r3, [sp, #4]
 80066da:	e9c3 5600 	strd	r5, r6, [r3]
 80066de:	e9c3 7802 	strd	r7, r8, [r3, #8]
 80066e2:	e9c3 0104 	strd	r0, r1, [r3, #16]
 80066e6:	e7ca      	b.n	800667e <__kernel_rem_pio2+0x4e6>
 80066e8:	3408      	adds	r4, #8
 80066ea:	ab4a      	add	r3, sp, #296	; 0x128
 80066ec:	441c      	add	r4, r3
 80066ee:	462e      	mov	r6, r5
 80066f0:	2000      	movs	r0, #0
 80066f2:	2100      	movs	r1, #0
 80066f4:	2e00      	cmp	r6, #0
 80066f6:	da36      	bge.n	8006766 <__kernel_rem_pio2+0x5ce>
 80066f8:	f1bb 0f00 	cmp.w	fp, #0
 80066fc:	d039      	beq.n	8006772 <__kernel_rem_pio2+0x5da>
 80066fe:	4602      	mov	r2, r0
 8006700:	f101 4300 	add.w	r3, r1, #2147483648	; 0x80000000
 8006704:	9c01      	ldr	r4, [sp, #4]
 8006706:	e9c4 2300 	strd	r2, r3, [r4]
 800670a:	4602      	mov	r2, r0
 800670c:	460b      	mov	r3, r1
 800670e:	e9dd 014a 	ldrd	r0, r1, [sp, #296]	; 0x128
 8006712:	f7f9 fdb9 	bl	8000288 <__aeabi_dsub>
 8006716:	ae4c      	add	r6, sp, #304	; 0x130
 8006718:	2401      	movs	r4, #1
 800671a:	42a5      	cmp	r5, r4
 800671c:	da2c      	bge.n	8006778 <__kernel_rem_pio2+0x5e0>
 800671e:	f1bb 0f00 	cmp.w	fp, #0
 8006722:	d002      	beq.n	800672a <__kernel_rem_pio2+0x592>
 8006724:	f101 4300 	add.w	r3, r1, #2147483648	; 0x80000000
 8006728:	4619      	mov	r1, r3
 800672a:	9b01      	ldr	r3, [sp, #4]
 800672c:	e9c3 0102 	strd	r0, r1, [r3, #8]
 8006730:	e7a5      	b.n	800667e <__kernel_rem_pio2+0x4e6>
 8006732:	f504 731a 	add.w	r3, r4, #616	; 0x268
 8006736:	eb0d 0403 	add.w	r4, sp, r3
 800673a:	f5a4 749c 	sub.w	r4, r4, #312	; 0x138
 800673e:	2000      	movs	r0, #0
 8006740:	2100      	movs	r1, #0
 8006742:	2d00      	cmp	r5, #0
 8006744:	da09      	bge.n	800675a <__kernel_rem_pio2+0x5c2>
 8006746:	f1bb 0f00 	cmp.w	fp, #0
 800674a:	d002      	beq.n	8006752 <__kernel_rem_pio2+0x5ba>
 800674c:	f101 4300 	add.w	r3, r1, #2147483648	; 0x80000000
 8006750:	4619      	mov	r1, r3
 8006752:	9b01      	ldr	r3, [sp, #4]
 8006754:	e9c3 0100 	strd	r0, r1, [r3]
 8006758:	e791      	b.n	800667e <__kernel_rem_pio2+0x4e6>
 800675a:	e974 2302 	ldrd	r2, r3, [r4, #-8]!
 800675e:	f7f9 fd95 	bl	800028c <__adddf3>
 8006762:	3d01      	subs	r5, #1
 8006764:	e7ed      	b.n	8006742 <__kernel_rem_pio2+0x5aa>
 8006766:	e974 2302 	ldrd	r2, r3, [r4, #-8]!
 800676a:	f7f9 fd8f 	bl	800028c <__adddf3>
 800676e:	3e01      	subs	r6, #1
 8006770:	e7c0      	b.n	80066f4 <__kernel_rem_pio2+0x55c>
 8006772:	4602      	mov	r2, r0
 8006774:	460b      	mov	r3, r1
 8006776:	e7c5      	b.n	8006704 <__kernel_rem_pio2+0x56c>
 8006778:	e8f6 2302 	ldrd	r2, r3, [r6], #8
 800677c:	f7f9 fd86 	bl	800028c <__adddf3>
 8006780:	3401      	adds	r4, #1
 8006782:	e7ca      	b.n	800671a <__kernel_rem_pio2+0x582>
 8006784:	e9da 8900 	ldrd	r8, r9, [sl]
 8006788:	e9da 6702 	ldrd	r6, r7, [sl, #8]
 800678c:	9b02      	ldr	r3, [sp, #8]
 800678e:	3b01      	subs	r3, #1
 8006790:	9302      	str	r3, [sp, #8]
 8006792:	4632      	mov	r2, r6
 8006794:	463b      	mov	r3, r7
 8006796:	4640      	mov	r0, r8
 8006798:	4649      	mov	r1, r9
 800679a:	f7f9 fd77 	bl	800028c <__adddf3>
 800679e:	e9cd 0108 	strd	r0, r1, [sp, #32]
 80067a2:	4602      	mov	r2, r0
 80067a4:	460b      	mov	r3, r1
 80067a6:	4640      	mov	r0, r8
 80067a8:	4649      	mov	r1, r9
 80067aa:	f7f9 fd6d 	bl	8000288 <__aeabi_dsub>
 80067ae:	4632      	mov	r2, r6
 80067b0:	463b      	mov	r3, r7
 80067b2:	f7f9 fd6b 	bl	800028c <__adddf3>
 80067b6:	ed9d 7b08 	vldr	d7, [sp, #32]
 80067ba:	e9ca 0102 	strd	r0, r1, [sl, #8]
 80067be:	ed8a 7b00 	vstr	d7, [sl]
 80067c2:	e76e      	b.n	80066a2 <__kernel_rem_pio2+0x50a>
 80067c4:	e9d4 8900 	ldrd	r8, r9, [r4]
 80067c8:	e9d4 6702 	ldrd	r6, r7, [r4, #8]
 80067cc:	4640      	mov	r0, r8
 80067ce:	4632      	mov	r2, r6
 80067d0:	463b      	mov	r3, r7
 80067d2:	4649      	mov	r1, r9
 80067d4:	f7f9 fd5a 	bl	800028c <__adddf3>
 80067d8:	e9cd 0102 	strd	r0, r1, [sp, #8]
 80067dc:	4602      	mov	r2, r0
 80067de:	460b      	mov	r3, r1
 80067e0:	4640      	mov	r0, r8
 80067e2:	4649      	mov	r1, r9
 80067e4:	f7f9 fd50 	bl	8000288 <__aeabi_dsub>
 80067e8:	4632      	mov	r2, r6
 80067ea:	463b      	mov	r3, r7
 80067ec:	f7f9 fd4e 	bl	800028c <__adddf3>
 80067f0:	ed9d 7b02 	vldr	d7, [sp, #8]
 80067f4:	e9c4 0102 	strd	r0, r1, [r4, #8]
 80067f8:	ed84 7b00 	vstr	d7, [r4]
 80067fc:	f10a 3aff 	add.w	sl, sl, #4294967295
 8006800:	e755      	b.n	80066ae <__kernel_rem_pio2+0x516>
 8006802:	e974 2302 	ldrd	r2, r3, [r4, #-8]!
 8006806:	f7f9 fd41 	bl	800028c <__adddf3>
 800680a:	3d01      	subs	r5, #1
 800680c:	e759      	b.n	80066c2 <__kernel_rem_pio2+0x52a>
 800680e:	9b01      	ldr	r3, [sp, #4]
 8006810:	9a01      	ldr	r2, [sp, #4]
 8006812:	601d      	str	r5, [r3, #0]
 8006814:	f106 4400 	add.w	r4, r6, #2147483648	; 0x80000000
 8006818:	605c      	str	r4, [r3, #4]
 800681a:	609f      	str	r7, [r3, #8]
 800681c:	f108 4300 	add.w	r3, r8, #2147483648	; 0x80000000
 8006820:	60d3      	str	r3, [r2, #12]
 8006822:	f101 4300 	add.w	r3, r1, #2147483648	; 0x80000000
 8006826:	6110      	str	r0, [r2, #16]
 8006828:	6153      	str	r3, [r2, #20]
 800682a:	e728      	b.n	800667e <__kernel_rem_pio2+0x4e6>
 800682c:	41700000 	.word	0x41700000
 8006830:	3e700000 	.word	0x3e700000
 8006834:	00000000 	.word	0x00000000

08006838 <__kernel_sin>:
 8006838:	e92d 4ff0 	stmdb	sp!, {r4, r5, r6, r7, r8, r9, sl, fp, lr}
 800683c:	ed2d 8b04 	vpush	{d8-d9}
 8006840:	eeb0 8a41 	vmov.f32	s16, s2
 8006844:	eef0 8a61 	vmov.f32	s17, s3
 8006848:	ec55 4b10 	vmov	r4, r5, d0
 800684c:	b083      	sub	sp, #12
 800684e:	f025 4300 	bic.w	r3, r5, #2147483648	; 0x80000000
 8006852:	f1b3 5f79 	cmp.w	r3, #1044381696	; 0x3e400000
 8006856:	9001      	str	r0, [sp, #4]
 8006858:	da06      	bge.n	8006868 <__kernel_sin+0x30>
 800685a:	ee10 0a10 	vmov	r0, s0
 800685e:	4629      	mov	r1, r5
 8006860:	f7fa f97a 	bl	8000b58 <__aeabi_d2iz>
 8006864:	2800      	cmp	r0, #0
 8006866:	d051      	beq.n	800690c <__kernel_sin+0xd4>
 8006868:	4622      	mov	r2, r4
 800686a:	462b      	mov	r3, r5
 800686c:	4620      	mov	r0, r4
 800686e:	4629      	mov	r1, r5
 8006870:	f7f9 fec2 	bl	80005f8 <__aeabi_dmul>
 8006874:	4682      	mov	sl, r0
 8006876:	468b      	mov	fp, r1
 8006878:	4602      	mov	r2, r0
 800687a:	460b      	mov	r3, r1
 800687c:	4620      	mov	r0, r4
 800687e:	4629      	mov	r1, r5
 8006880:	f7f9 feba 	bl	80005f8 <__aeabi_dmul>
 8006884:	a341      	add	r3, pc, #260	; (adr r3, 800698c <__kernel_sin+0x154>)
 8006886:	e9d3 2300 	ldrd	r2, r3, [r3]
 800688a:	4680      	mov	r8, r0
 800688c:	4689      	mov	r9, r1
 800688e:	4650      	mov	r0, sl
 8006890:	4659      	mov	r1, fp
 8006892:	f7f9 feb1 	bl	80005f8 <__aeabi_dmul>
 8006896:	a33f      	add	r3, pc, #252	; (adr r3, 8006994 <__kernel_sin+0x15c>)
 8006898:	e9d3 2300 	ldrd	r2, r3, [r3]
 800689c:	f7f9 fcf4 	bl	8000288 <__aeabi_dsub>
 80068a0:	4652      	mov	r2, sl
 80068a2:	465b      	mov	r3, fp
 80068a4:	f7f9 fea8 	bl	80005f8 <__aeabi_dmul>
 80068a8:	a33c      	add	r3, pc, #240	; (adr r3, 800699c <__kernel_sin+0x164>)
 80068aa:	e9d3 2300 	ldrd	r2, r3, [r3]
 80068ae:	f7f9 fced 	bl	800028c <__adddf3>
 80068b2:	4652      	mov	r2, sl
 80068b4:	465b      	mov	r3, fp
 80068b6:	f7f9 fe9f 	bl	80005f8 <__aeabi_dmul>
 80068ba:	a33a      	add	r3, pc, #232	; (adr r3, 80069a4 <__kernel_sin+0x16c>)
 80068bc:	e9d3 2300 	ldrd	r2, r3, [r3]
 80068c0:	f7f9 fce2 	bl	8000288 <__aeabi_dsub>
 80068c4:	4652      	mov	r2, sl
 80068c6:	465b      	mov	r3, fp
 80068c8:	f7f9 fe96 	bl	80005f8 <__aeabi_dmul>
 80068cc:	a337      	add	r3, pc, #220	; (adr r3, 80069ac <__kernel_sin+0x174>)
 80068ce:	e9d3 2300 	ldrd	r2, r3, [r3]
 80068d2:	f7f9 fcdb 	bl	800028c <__adddf3>
 80068d6:	9b01      	ldr	r3, [sp, #4]
 80068d8:	4606      	mov	r6, r0
 80068da:	460f      	mov	r7, r1
 80068dc:	b9eb      	cbnz	r3, 800691a <__kernel_sin+0xe2>
 80068de:	4602      	mov	r2, r0
 80068e0:	460b      	mov	r3, r1
 80068e2:	4650      	mov	r0, sl
 80068e4:	4659      	mov	r1, fp
 80068e6:	f7f9 fe87 	bl	80005f8 <__aeabi_dmul>
 80068ea:	a325      	add	r3, pc, #148	; (adr r3, 8006980 <__kernel_sin+0x148>)
 80068ec:	e9d3 2300 	ldrd	r2, r3, [r3]
 80068f0:	f7f9 fcca 	bl	8000288 <__aeabi_dsub>
 80068f4:	4642      	mov	r2, r8
 80068f6:	464b      	mov	r3, r9
 80068f8:	f7f9 fe7e 	bl	80005f8 <__aeabi_dmul>
 80068fc:	4602      	mov	r2, r0
 80068fe:	460b      	mov	r3, r1
 8006900:	4620      	mov	r0, r4
 8006902:	4629      	mov	r1, r5
 8006904:	f7f9 fcc2 	bl	800028c <__adddf3>
 8006908:	4604      	mov	r4, r0
 800690a:	460d      	mov	r5, r1
 800690c:	ec45 4b10 	vmov	d0, r4, r5
 8006910:	b003      	add	sp, #12
 8006912:	ecbd 8b04 	vpop	{d8-d9}
 8006916:	e8bd 8ff0 	ldmia.w	sp!, {r4, r5, r6, r7, r8, r9, sl, fp, pc}
 800691a:	4b1b      	ldr	r3, [pc, #108]	; (8006988 <__kernel_sin+0x150>)
 800691c:	ec51 0b18 	vmov	r0, r1, d8
 8006920:	2200      	movs	r2, #0
 8006922:	f7f9 fe69 	bl	80005f8 <__aeabi_dmul>
 8006926:	4632      	mov	r2, r6
 8006928:	ec41 0b19 	vmov	d9, r0, r1
 800692c:	463b      	mov	r3, r7
 800692e:	4640      	mov	r0, r8
 8006930:	4649      	mov	r1, r9
 8006932:	f7f9 fe61 	bl	80005f8 <__aeabi_dmul>
 8006936:	4602      	mov	r2, r0
 8006938:	460b      	mov	r3, r1
 800693a:	ec51 0b19 	vmov	r0, r1, d9
 800693e:	f7f9 fca3 	bl	8000288 <__aeabi_dsub>
 8006942:	4652      	mov	r2, sl
 8006944:	465b      	mov	r3, fp
 8006946:	f7f9 fe57 	bl	80005f8 <__aeabi_dmul>
 800694a:	ec53 2b18 	vmov	r2, r3, d8
 800694e:	f7f9 fc9b 	bl	8000288 <__aeabi_dsub>
 8006952:	a30b      	add	r3, pc, #44	; (adr r3, 8006980 <__kernel_sin+0x148>)
 8006954:	e9d3 2300 	ldrd	r2, r3, [r3]
 8006958:	4606      	mov	r6, r0
 800695a:	460f      	mov	r7, r1
 800695c:	4640      	mov	r0, r8
 800695e:	4649      	mov	r1, r9
 8006960:	f7f9 fe4a 	bl	80005f8 <__aeabi_dmul>
 8006964:	4602      	mov	r2, r0
 8006966:	460b      	mov	r3, r1
 8006968:	4630      	mov	r0, r6
 800696a:	4639      	mov	r1, r7
 800696c:	f7f9 fc8e 	bl	800028c <__adddf3>
 8006970:	4602      	mov	r2, r0
 8006972:	460b      	mov	r3, r1
 8006974:	4620      	mov	r0, r4
 8006976:	4629      	mov	r1, r5
 8006978:	f7f9 fc86 	bl	8000288 <__aeabi_dsub>
 800697c:	e7c4      	b.n	8006908 <__kernel_sin+0xd0>
 800697e:	bf00      	nop
 8006980:	55555549 	.word	0x55555549
 8006984:	3fc55555 	.word	0x3fc55555
 8006988:	3fe00000 	.word	0x3fe00000
 800698c:	5acfd57c 	.word	0x5acfd57c
 8006990:	3de5d93a 	.word	0x3de5d93a
 8006994:	8a2b9ceb 	.word	0x8a2b9ceb
 8006998:	3e5ae5e6 	.word	0x3e5ae5e6
 800699c:	57b1fe7d 	.word	0x57b1fe7d
 80069a0:	3ec71de3 	.word	0x3ec71de3
 80069a4:	19c161d5 	.word	0x19c161d5
 80069a8:	3f2a01a0 	.word	0x3f2a01a0
 80069ac:	1110f8a6 	.word	0x1110f8a6
 80069b0:	3f811111 	.word	0x3f811111

080069b4 <fabs>:
 80069b4:	ec51 0b10 	vmov	r0, r1, d0
 80069b8:	ee10 2a10 	vmov	r2, s0
 80069bc:	f021 4300 	bic.w	r3, r1, #2147483648	; 0x80000000
 80069c0:	ec43 2b10 	vmov	d0, r2, r3
 80069c4:	4770      	bx	lr
	...

080069c8 <floor>:
 80069c8:	ec51 0b10 	vmov	r0, r1, d0
 80069cc:	e92d 41f0 	stmdb	sp!, {r4, r5, r6, r7, r8, lr}
 80069d0:	f3c1 570a 	ubfx	r7, r1, #20, #11
 80069d4:	f2a7 36ff 	subw	r6, r7, #1023	; 0x3ff
 80069d8:	2e13      	cmp	r6, #19
 80069da:	ee10 5a10 	vmov	r5, s0
 80069de:	ee10 8a10 	vmov	r8, s0
 80069e2:	460c      	mov	r4, r1
 80069e4:	dc32      	bgt.n	8006a4c <floor+0x84>
 80069e6:	2e00      	cmp	r6, #0
 80069e8:	da14      	bge.n	8006a14 <floor+0x4c>
 80069ea:	a333      	add	r3, pc, #204	; (adr r3, 8006ab8 <floor+0xf0>)
 80069ec:	e9d3 2300 	ldrd	r2, r3, [r3]
 80069f0:	f7f9 fc4c 	bl	800028c <__adddf3>
 80069f4:	2200      	movs	r2, #0
 80069f6:	2300      	movs	r3, #0
 80069f8:	f7fa f88e 	bl	8000b18 <__aeabi_dcmpgt>
 80069fc:	b138      	cbz	r0, 8006a0e <floor+0x46>
 80069fe:	2c00      	cmp	r4, #0
 8006a00:	da57      	bge.n	8006ab2 <floor+0xea>
 8006a02:	f024 4300 	bic.w	r3, r4, #2147483648	; 0x80000000
 8006a06:	431d      	orrs	r5, r3
 8006a08:	d001      	beq.n	8006a0e <floor+0x46>
 8006a0a:	4c2d      	ldr	r4, [pc, #180]	; (8006ac0 <floor+0xf8>)
 8006a0c:	2500      	movs	r5, #0
 8006a0e:	4621      	mov	r1, r4
 8006a10:	4628      	mov	r0, r5
 8006a12:	e025      	b.n	8006a60 <floor+0x98>
 8006a14:	4f2b      	ldr	r7, [pc, #172]	; (8006ac4 <floor+0xfc>)
 8006a16:	4137      	asrs	r7, r6
 8006a18:	ea01 0307 	and.w	r3, r1, r7
 8006a1c:	4303      	orrs	r3, r0
 8006a1e:	d01f      	beq.n	8006a60 <floor+0x98>
 8006a20:	a325      	add	r3, pc, #148	; (adr r3, 8006ab8 <floor+0xf0>)
 8006a22:	e9d3 2300 	ldrd	r2, r3, [r3]
 8006a26:	f7f9 fc31 	bl	800028c <__adddf3>
 8006a2a:	2200      	movs	r2, #0
 8006a2c:	2300      	movs	r3, #0
 8006a2e:	f7fa f873 	bl	8000b18 <__aeabi_dcmpgt>
 8006a32:	2800      	cmp	r0, #0
 8006a34:	d0eb      	beq.n	8006a0e <floor+0x46>
 8006a36:	2c00      	cmp	r4, #0
 8006a38:	bfbe      	ittt	lt
 8006a3a:	f44f 1380 	movlt.w	r3, #1048576	; 0x100000
 8006a3e:	fa43 f606 	asrlt.w	r6, r3, r6
 8006a42:	19a4      	addlt	r4, r4, r6
 8006a44:	ea24 0407 	bic.w	r4, r4, r7
 8006a48:	2500      	movs	r5, #0
 8006a4a:	e7e0      	b.n	8006a0e <floor+0x46>
 8006a4c:	2e33      	cmp	r6, #51	; 0x33
 8006a4e:	dd0b      	ble.n	8006a68 <floor+0xa0>
 8006a50:	f5b6 6f80 	cmp.w	r6, #1024	; 0x400
 8006a54:	d104      	bne.n	8006a60 <floor+0x98>
 8006a56:	ee10 2a10 	vmov	r2, s0
 8006a5a:	460b      	mov	r3, r1
 8006a5c:	f7f9 fc16 	bl	800028c <__adddf3>
 8006a60:	ec41 0b10 	vmov	d0, r0, r1
 8006a64:	e8bd 81f0 	ldmia.w	sp!, {r4, r5, r6, r7, r8, pc}
 8006a68:	f2a7 4713 	subw	r7, r7, #1043	; 0x413
 8006a6c:	f04f 33ff 	mov.w	r3, #4294967295
 8006a70:	fa23 f707 	lsr.w	r7, r3, r7
 8006a74:	4207      	tst	r7, r0
 8006a76:	d0f3      	beq.n	8006a60 <floor+0x98>
 8006a78:	a30f      	add	r3, pc, #60	; (adr r3, 8006ab8 <floor+0xf0>)
 8006a7a:	e9d3 2300 	ldrd	r2, r3, [r3]
 8006a7e:	f7f9 fc05 	bl	800028c <__adddf3>
 8006a82:	2200      	movs	r2, #0
 8006a84:	2300      	movs	r3, #0
 8006a86:	f7fa f847 	bl	8000b18 <__aeabi_dcmpgt>
 8006a8a:	2800      	cmp	r0, #0
 8006a8c:	d0bf      	beq.n	8006a0e <floor+0x46>
 8006a8e:	2c00      	cmp	r4, #0
 8006a90:	da02      	bge.n	8006a98 <floor+0xd0>
 8006a92:	2e14      	cmp	r6, #20
 8006a94:	d103      	bne.n	8006a9e <floor+0xd6>
 8006a96:	3401      	adds	r4, #1
 8006a98:	ea25 0507 	bic.w	r5, r5, r7
 8006a9c:	e7b7      	b.n	8006a0e <floor+0x46>
 8006a9e:	2301      	movs	r3, #1
 8006aa0:	f1c6 0634 	rsb	r6, r6, #52	; 0x34
 8006aa4:	fa03 f606 	lsl.w	r6, r3, r6
 8006aa8:	4435      	add	r5, r6
 8006aaa:	4545      	cmp	r5, r8
 8006aac:	bf38      	it	cc
 8006aae:	18e4      	addcc	r4, r4, r3
 8006ab0:	e7f2      	b.n	8006a98 <floor+0xd0>
 8006ab2:	2500      	movs	r5, #0
 8006ab4:	462c      	mov	r4, r5
 8006ab6:	e7aa      	b.n	8006a0e <floor+0x46>
 8006ab8:	8800759c 	.word	0x8800759c
 8006abc:	7e37e43c 	.word	0x7e37e43c
 8006ac0:	bff00000 	.word	0xbff00000
 8006ac4:	000fffff 	.word	0x000fffff

08006ac8 <scalbn>:
 8006ac8:	b570      	push	{r4, r5, r6, lr}
 8006aca:	ec55 4b10 	vmov	r4, r5, d0
 8006ace:	f3c5 520a 	ubfx	r2, r5, #20, #11
 8006ad2:	4606      	mov	r6, r0
 8006ad4:	462b      	mov	r3, r5
 8006ad6:	b99a      	cbnz	r2, 8006b00 <scalbn+0x38>
 8006ad8:	f025 4300 	bic.w	r3, r5, #2147483648	; 0x80000000
 8006adc:	4323      	orrs	r3, r4
 8006ade:	d036      	beq.n	8006b4e <scalbn+0x86>
 8006ae0:	4b39      	ldr	r3, [pc, #228]	; (8006bc8 <scalbn+0x100>)
 8006ae2:	4629      	mov	r1, r5
 8006ae4:	ee10 0a10 	vmov	r0, s0
 8006ae8:	2200      	movs	r2, #0
 8006aea:	f7f9 fd85 	bl	80005f8 <__aeabi_dmul>
 8006aee:	4b37      	ldr	r3, [pc, #220]	; (8006bcc <scalbn+0x104>)
 8006af0:	429e      	cmp	r6, r3
 8006af2:	4604      	mov	r4, r0
 8006af4:	460d      	mov	r5, r1
 8006af6:	da10      	bge.n	8006b1a <scalbn+0x52>
 8006af8:	a32b      	add	r3, pc, #172	; (adr r3, 8006ba8 <scalbn+0xe0>)
 8006afa:	e9d3 2300 	ldrd	r2, r3, [r3]
 8006afe:	e03a      	b.n	8006b76 <scalbn+0xae>
 8006b00:	f240 71ff 	movw	r1, #2047	; 0x7ff
 8006b04:	428a      	cmp	r2, r1
 8006b06:	d10c      	bne.n	8006b22 <scalbn+0x5a>
 8006b08:	ee10 2a10 	vmov	r2, s0
 8006b0c:	4620      	mov	r0, r4
 8006b0e:	4629      	mov	r1, r5
 8006b10:	f7f9 fbbc 	bl	800028c <__adddf3>
 8006b14:	4604      	mov	r4, r0
 8006b16:	460d      	mov	r5, r1
 8006b18:	e019      	b.n	8006b4e <scalbn+0x86>
 8006b1a:	f3c1 520a 	ubfx	r2, r1, #20, #11
 8006b1e:	460b      	mov	r3, r1
 8006b20:	3a36      	subs	r2, #54	; 0x36
 8006b22:	4432      	add	r2, r6
 8006b24:	f240 71fe 	movw	r1, #2046	; 0x7fe
 8006b28:	428a      	cmp	r2, r1
 8006b2a:	dd08      	ble.n	8006b3e <scalbn+0x76>
 8006b2c:	2d00      	cmp	r5, #0
 8006b2e:	a120      	add	r1, pc, #128	; (adr r1, 8006bb0 <scalbn+0xe8>)
 8006b30:	e9d1 0100 	ldrd	r0, r1, [r1]
 8006b34:	da1c      	bge.n	8006b70 <scalbn+0xa8>
 8006b36:	a120      	add	r1, pc, #128	; (adr r1, 8006bb8 <scalbn+0xf0>)
 8006b38:	e9d1 0100 	ldrd	r0, r1, [r1]
 8006b3c:	e018      	b.n	8006b70 <scalbn+0xa8>
 8006b3e:	2a00      	cmp	r2, #0
 8006b40:	dd08      	ble.n	8006b54 <scalbn+0x8c>
 8006b42:	f023 43ff 	bic.w	r3, r3, #2139095040	; 0x7f800000
 8006b46:	f423 03e0 	bic.w	r3, r3, #7340032	; 0x700000
 8006b4a:	ea43 5502 	orr.w	r5, r3, r2, lsl #20
 8006b4e:	ec45 4b10 	vmov	d0, r4, r5
 8006b52:	bd70      	pop	{r4, r5, r6, pc}
 8006b54:	f112 0f35 	cmn.w	r2, #53	; 0x35
 8006b58:	da19      	bge.n	8006b8e <scalbn+0xc6>
 8006b5a:	f24c 3350 	movw	r3, #50000	; 0xc350
 8006b5e:	429e      	cmp	r6, r3
 8006b60:	f005 4300 	and.w	r3, r5, #2147483648	; 0x80000000
 8006b64:	dd0a      	ble.n	8006b7c <scalbn+0xb4>
 8006b66:	a112      	add	r1, pc, #72	; (adr r1, 8006bb0 <scalbn+0xe8>)
 8006b68:	e9d1 0100 	ldrd	r0, r1, [r1]
 8006b6c:	2b00      	cmp	r3, #0
 8006b6e:	d1e2      	bne.n	8006b36 <scalbn+0x6e>
 8006b70:	a30f      	add	r3, pc, #60	; (adr r3, 8006bb0 <scalbn+0xe8>)
 8006b72:	e9d3 2300 	ldrd	r2, r3, [r3]
 8006b76:	f7f9 fd3f 	bl	80005f8 <__aeabi_dmul>
 8006b7a:	e7cb      	b.n	8006b14 <scalbn+0x4c>
 8006b7c:	a10a      	add	r1, pc, #40	; (adr r1, 8006ba8 <scalbn+0xe0>)
 8006b7e:	e9d1 0100 	ldrd	r0, r1, [r1]
 8006b82:	2b00      	cmp	r3, #0
 8006b84:	d0b8      	beq.n	8006af8 <scalbn+0x30>
 8006b86:	a10e      	add	r1, pc, #56	; (adr r1, 8006bc0 <scalbn+0xf8>)
 8006b88:	e9d1 0100 	ldrd	r0, r1, [r1]
 8006b8c:	e7b4      	b.n	8006af8 <scalbn+0x30>
 8006b8e:	f023 43ff 	bic.w	r3, r3, #2139095040	; 0x7f800000
 8006b92:	3236      	adds	r2, #54	; 0x36
 8006b94:	f423 03e0 	bic.w	r3, r3, #7340032	; 0x700000
 8006b98:	ea43 5102 	orr.w	r1, r3, r2, lsl #20
 8006b9c:	4620      	mov	r0, r4
 8006b9e:	4b0c      	ldr	r3, [pc, #48]	; (8006bd0 <scalbn+0x108>)
 8006ba0:	2200      	movs	r2, #0
 8006ba2:	e7e8      	b.n	8006b76 <scalbn+0xae>
 8006ba4:	f3af 8000 	nop.w
 8006ba8:	c2f8f359 	.word	0xc2f8f359
 8006bac:	01a56e1f 	.word	0x01a56e1f
 8006bb0:	8800759c 	.word	0x8800759c
 8006bb4:	7e37e43c 	.word	0x7e37e43c
 8006bb8:	8800759c 	.word	0x8800759c
 8006bbc:	fe37e43c 	.word	0xfe37e43c
 8006bc0:	c2f8f359 	.word	0xc2f8f359
 8006bc4:	81a56e1f 	.word	0x81a56e1f
 8006bc8:	43500000 	.word	0x43500000
 8006bcc:	ffff3cb0 	.word	0xffff3cb0
 8006bd0:	3c900000 	.word	0x3c900000

08006bd4 <__errno>:
 8006bd4:	4b01      	ldr	r3, [pc, #4]	; (8006bdc <__errno+0x8>)
 8006bd6:	6818      	ldr	r0, [r3, #0]
 8006bd8:	4770      	bx	lr
 8006bda:	bf00      	nop
 8006bdc:	20000010 	.word	0x20000010

08006be0 <__libc_init_array>:
 8006be0:	b570      	push	{r4, r5, r6, lr}
 8006be2:	4d0d      	ldr	r5, [pc, #52]	; (8006c18 <__libc_init_array+0x38>)
 8006be4:	4c0d      	ldr	r4, [pc, #52]	; (8006c1c <__libc_init_array+0x3c>)
 8006be6:	1b64      	subs	r4, r4, r5
 8006be8:	10a4      	asrs	r4, r4, #2
 8006bea:	2600      	movs	r6, #0
 8006bec:	42a6      	cmp	r6, r4
 8006bee:	d109      	bne.n	8006c04 <__libc_init_array+0x24>
 8006bf0:	4d0b      	ldr	r5, [pc, #44]	; (8006c20 <__libc_init_array+0x40>)
 8006bf2:	4c0c      	ldr	r4, [pc, #48]	; (8006c24 <__libc_init_array+0x44>)
 8006bf4:	f004 fd1e 	bl	800b634 <_init>
 8006bf8:	1b64      	subs	r4, r4, r5
 8006bfa:	10a4      	asrs	r4, r4, #2
 8006bfc:	2600      	movs	r6, #0
 8006bfe:	42a6      	cmp	r6, r4
 8006c00:	d105      	bne.n	8006c0e <__libc_init_array+0x2e>
 8006c02:	bd70      	pop	{r4, r5, r6, pc}
 8006c04:	f855 3b04 	ldr.w	r3, [r5], #4
 8006c08:	4798      	blx	r3
 8006c0a:	3601      	adds	r6, #1
 8006c0c:	e7ee      	b.n	8006bec <__libc_init_array+0xc>
 8006c0e:	f855 3b04 	ldr.w	r3, [r5], #4
 8006c12:	4798      	blx	r3
 8006c14:	3601      	adds	r6, #1
 8006c16:	e7f2      	b.n	8006bfe <__libc_init_array+0x1e>
 8006c18:	0800bd3c 	.word	0x0800bd3c
 8006c1c:	0800bd3c 	.word	0x0800bd3c
 8006c20:	0800bd3c 	.word	0x0800bd3c
 8006c24:	0800bd40 	.word	0x0800bd40

08006c28 <memset>:
 8006c28:	4402      	add	r2, r0
 8006c2a:	4603      	mov	r3, r0
 8006c2c:	4293      	cmp	r3, r2
 8006c2e:	d100      	bne.n	8006c32 <memset+0xa>
 8006c30:	4770      	bx	lr
 8006c32:	f803 1b01 	strb.w	r1, [r3], #1
 8006c36:	e7f9      	b.n	8006c2c <memset+0x4>

08006c38 <__cvt>:
 8006c38:	e92d 47ff 	stmdb	sp!, {r0, r1, r2, r3, r4, r5, r6, r7, r8, r9, sl, lr}
 8006c3c:	ec55 4b10 	vmov	r4, r5, d0
 8006c40:	2d00      	cmp	r5, #0
 8006c42:	460e      	mov	r6, r1
 8006c44:	4619      	mov	r1, r3
 8006c46:	462b      	mov	r3, r5
 8006c48:	bfbb      	ittet	lt
 8006c4a:	f105 4300 	addlt.w	r3, r5, #2147483648	; 0x80000000
 8006c4e:	461d      	movlt	r5, r3
 8006c50:	2300      	movge	r3, #0
 8006c52:	232d      	movlt	r3, #45	; 0x2d
 8006c54:	700b      	strb	r3, [r1, #0]
 8006c56:	9b0d      	ldr	r3, [sp, #52]	; 0x34
 8006c58:	f8dd a030 	ldr.w	sl, [sp, #48]	; 0x30
 8006c5c:	4691      	mov	r9, r2
 8006c5e:	f023 0820 	bic.w	r8, r3, #32
 8006c62:	bfbc      	itt	lt
 8006c64:	4622      	movlt	r2, r4
 8006c66:	4614      	movlt	r4, r2
 8006c68:	f1b8 0f46 	cmp.w	r8, #70	; 0x46
 8006c6c:	d005      	beq.n	8006c7a <__cvt+0x42>
 8006c6e:	f1b8 0f45 	cmp.w	r8, #69	; 0x45
 8006c72:	d100      	bne.n	8006c76 <__cvt+0x3e>
 8006c74:	3601      	adds	r6, #1
 8006c76:	2102      	movs	r1, #2
 8006c78:	e000      	b.n	8006c7c <__cvt+0x44>
 8006c7a:	2103      	movs	r1, #3
 8006c7c:	ab03      	add	r3, sp, #12
 8006c7e:	9301      	str	r3, [sp, #4]
 8006c80:	ab02      	add	r3, sp, #8
 8006c82:	9300      	str	r3, [sp, #0]
 8006c84:	ec45 4b10 	vmov	d0, r4, r5
 8006c88:	4653      	mov	r3, sl
 8006c8a:	4632      	mov	r2, r6
 8006c8c:	f001 fefc 	bl	8008a88 <_dtoa_r>
 8006c90:	f1b8 0f47 	cmp.w	r8, #71	; 0x47
 8006c94:	4607      	mov	r7, r0
 8006c96:	d102      	bne.n	8006c9e <__cvt+0x66>
 8006c98:	f019 0f01 	tst.w	r9, #1
 8006c9c:	d022      	beq.n	8006ce4 <__cvt+0xac>
 8006c9e:	f1b8 0f46 	cmp.w	r8, #70	; 0x46
 8006ca2:	eb07 0906 	add.w	r9, r7, r6
 8006ca6:	d110      	bne.n	8006cca <__cvt+0x92>
 8006ca8:	783b      	ldrb	r3, [r7, #0]
 8006caa:	2b30      	cmp	r3, #48	; 0x30
 8006cac:	d10a      	bne.n	8006cc4 <__cvt+0x8c>
 8006cae:	2200      	movs	r2, #0
 8006cb0:	2300      	movs	r3, #0
 8006cb2:	4620      	mov	r0, r4
 8006cb4:	4629      	mov	r1, r5
 8006cb6:	f7f9 ff07 	bl	8000ac8 <__aeabi_dcmpeq>
 8006cba:	b918      	cbnz	r0, 8006cc4 <__cvt+0x8c>
 8006cbc:	f1c6 0601 	rsb	r6, r6, #1
 8006cc0:	f8ca 6000 	str.w	r6, [sl]
 8006cc4:	f8da 3000 	ldr.w	r3, [sl]
 8006cc8:	4499      	add	r9, r3
 8006cca:	2200      	movs	r2, #0
 8006ccc:	2300      	movs	r3, #0
 8006cce:	4620      	mov	r0, r4
 8006cd0:	4629      	mov	r1, r5
 8006cd2:	f7f9 fef9 	bl	8000ac8 <__aeabi_dcmpeq>
 8006cd6:	b108      	cbz	r0, 8006cdc <__cvt+0xa4>
 8006cd8:	f8cd 900c 	str.w	r9, [sp, #12]
 8006cdc:	2230      	movs	r2, #48	; 0x30
 8006cde:	9b03      	ldr	r3, [sp, #12]
 8006ce0:	454b      	cmp	r3, r9
 8006ce2:	d307      	bcc.n	8006cf4 <__cvt+0xbc>
 8006ce4:	9b03      	ldr	r3, [sp, #12]
 8006ce6:	9a0e      	ldr	r2, [sp, #56]	; 0x38
 8006ce8:	1bdb      	subs	r3, r3, r7
 8006cea:	4638      	mov	r0, r7
 8006cec:	6013      	str	r3, [r2, #0]
 8006cee:	b004      	add	sp, #16
 8006cf0:	e8bd 87f0 	ldmia.w	sp!, {r4, r5, r6, r7, r8, r9, sl, pc}
 8006cf4:	1c59      	adds	r1, r3, #1
 8006cf6:	9103      	str	r1, [sp, #12]
 8006cf8:	701a      	strb	r2, [r3, #0]
 8006cfa:	e7f0      	b.n	8006cde <__cvt+0xa6>

08006cfc <__exponent>:
 8006cfc:	b5f7      	push	{r0, r1, r2, r4, r5, r6, r7, lr}
 8006cfe:	4603      	mov	r3, r0
 8006d00:	2900      	cmp	r1, #0
 8006d02:	bfb8      	it	lt
 8006d04:	4249      	neglt	r1, r1
 8006d06:	f803 2b02 	strb.w	r2, [r3], #2
 8006d0a:	bfb4      	ite	lt
 8006d0c:	222d      	movlt	r2, #45	; 0x2d
 8006d0e:	222b      	movge	r2, #43	; 0x2b
 8006d10:	2909      	cmp	r1, #9
 8006d12:	7042      	strb	r2, [r0, #1]
 8006d14:	dd2a      	ble.n	8006d6c <__exponent+0x70>
 8006d16:	f10d 0407 	add.w	r4, sp, #7
 8006d1a:	46a4      	mov	ip, r4
 8006d1c:	270a      	movs	r7, #10
 8006d1e:	46a6      	mov	lr, r4
 8006d20:	460a      	mov	r2, r1
 8006d22:	fb91 f6f7 	sdiv	r6, r1, r7
 8006d26:	fb07 1516 	mls	r5, r7, r6, r1
 8006d2a:	3530      	adds	r5, #48	; 0x30
 8006d2c:	2a63      	cmp	r2, #99	; 0x63
 8006d2e:	f104 34ff 	add.w	r4, r4, #4294967295
 8006d32:	f80e 5c01 	strb.w	r5, [lr, #-1]
 8006d36:	4631      	mov	r1, r6
 8006d38:	dcf1      	bgt.n	8006d1e <__exponent+0x22>
 8006d3a:	3130      	adds	r1, #48	; 0x30
 8006d3c:	f1ae 0502 	sub.w	r5, lr, #2
 8006d40:	f804 1c01 	strb.w	r1, [r4, #-1]
 8006d44:	1c44      	adds	r4, r0, #1
 8006d46:	4629      	mov	r1, r5
 8006d48:	4561      	cmp	r1, ip
 8006d4a:	d30a      	bcc.n	8006d62 <__exponent+0x66>
 8006d4c:	f10d 0209 	add.w	r2, sp, #9
 8006d50:	eba2 020e 	sub.w	r2, r2, lr
 8006d54:	4565      	cmp	r5, ip
 8006d56:	bf88      	it	hi
 8006d58:	2200      	movhi	r2, #0
 8006d5a:	4413      	add	r3, r2
 8006d5c:	1a18      	subs	r0, r3, r0
 8006d5e:	b003      	add	sp, #12
 8006d60:	bdf0      	pop	{r4, r5, r6, r7, pc}
 8006d62:	f811 2b01 	ldrb.w	r2, [r1], #1
 8006d66:	f804 2f01 	strb.w	r2, [r4, #1]!
 8006d6a:	e7ed      	b.n	8006d48 <__exponent+0x4c>
 8006d6c:	2330      	movs	r3, #48	; 0x30
 8006d6e:	3130      	adds	r1, #48	; 0x30
 8006d70:	7083      	strb	r3, [r0, #2]
 8006d72:	70c1      	strb	r1, [r0, #3]
 8006d74:	1d03      	adds	r3, r0, #4
 8006d76:	e7f1      	b.n	8006d5c <__exponent+0x60>

08006d78 <_printf_float>:
 8006d78:	e92d 4ff0 	stmdb	sp!, {r4, r5, r6, r7, r8, r9, sl, fp, lr}
 8006d7c:	ed2d 8b02 	vpush	{d8}
 8006d80:	b08d      	sub	sp, #52	; 0x34
 8006d82:	460c      	mov	r4, r1
 8006d84:	f8dd 8060 	ldr.w	r8, [sp, #96]	; 0x60
 8006d88:	4616      	mov	r6, r2
 8006d8a:	461f      	mov	r7, r3
 8006d8c:	4605      	mov	r5, r0
 8006d8e:	f003 f98f 	bl	800a0b0 <_localeconv_r>
 8006d92:	f8d0 a000 	ldr.w	sl, [r0]
 8006d96:	4650      	mov	r0, sl
 8006d98:	f7f9 fa1a 	bl	80001d0 <strlen>
 8006d9c:	2300      	movs	r3, #0
 8006d9e:	930a      	str	r3, [sp, #40]	; 0x28
 8006da0:	6823      	ldr	r3, [r4, #0]
 8006da2:	9305      	str	r3, [sp, #20]
 8006da4:	f8d8 3000 	ldr.w	r3, [r8]
 8006da8:	f894 b018 	ldrb.w	fp, [r4, #24]
 8006dac:	3307      	adds	r3, #7
 8006dae:	f023 0307 	bic.w	r3, r3, #7
 8006db2:	f103 0208 	add.w	r2, r3, #8
 8006db6:	f8c8 2000 	str.w	r2, [r8]
 8006dba:	e9d3 2300 	ldrd	r2, r3, [r3]
 8006dbe:	e9c4 2312 	strd	r2, r3, [r4, #72]	; 0x48
 8006dc2:	e9d4 8912 	ldrd	r8, r9, [r4, #72]	; 0x48
 8006dc6:	f029 4300 	bic.w	r3, r9, #2147483648	; 0x80000000
 8006dca:	9307      	str	r3, [sp, #28]
 8006dcc:	f8cd 8018 	str.w	r8, [sp, #24]
 8006dd0:	ee08 0a10 	vmov	s16, r0
 8006dd4:	4b9f      	ldr	r3, [pc, #636]	; (8007054 <_printf_float+0x2dc>)
 8006dd6:	e9dd 0106 	ldrd	r0, r1, [sp, #24]
 8006dda:	f04f 32ff 	mov.w	r2, #4294967295
 8006dde:	f7f9 fea5 	bl	8000b2c <__aeabi_dcmpun>
 8006de2:	bb88      	cbnz	r0, 8006e48 <_printf_float+0xd0>
 8006de4:	e9dd 0106 	ldrd	r0, r1, [sp, #24]
 8006de8:	4b9a      	ldr	r3, [pc, #616]	; (8007054 <_printf_float+0x2dc>)
 8006dea:	f04f 32ff 	mov.w	r2, #4294967295
 8006dee:	f7f9 fe7f 	bl	8000af0 <__aeabi_dcmple>
 8006df2:	bb48      	cbnz	r0, 8006e48 <_printf_float+0xd0>
 8006df4:	2200      	movs	r2, #0
 8006df6:	2300      	movs	r3, #0
 8006df8:	4640      	mov	r0, r8
 8006dfa:	4649      	mov	r1, r9
 8006dfc:	f7f9 fe6e 	bl	8000adc <__aeabi_dcmplt>
 8006e00:	b110      	cbz	r0, 8006e08 <_printf_float+0x90>
 8006e02:	232d      	movs	r3, #45	; 0x2d
 8006e04:	f884 3043 	strb.w	r3, [r4, #67]	; 0x43
 8006e08:	4b93      	ldr	r3, [pc, #588]	; (8007058 <_printf_float+0x2e0>)
 8006e0a:	4894      	ldr	r0, [pc, #592]	; (800705c <_printf_float+0x2e4>)
 8006e0c:	f1bb 0f47 	cmp.w	fp, #71	; 0x47
 8006e10:	bf94      	ite	ls
 8006e12:	4698      	movls	r8, r3
 8006e14:	4680      	movhi	r8, r0
 8006e16:	2303      	movs	r3, #3
 8006e18:	6123      	str	r3, [r4, #16]
 8006e1a:	9b05      	ldr	r3, [sp, #20]
 8006e1c:	f023 0204 	bic.w	r2, r3, #4
 8006e20:	6022      	str	r2, [r4, #0]
 8006e22:	f04f 0900 	mov.w	r9, #0
 8006e26:	9700      	str	r7, [sp, #0]
 8006e28:	4633      	mov	r3, r6
 8006e2a:	aa0b      	add	r2, sp, #44	; 0x2c
 8006e2c:	4621      	mov	r1, r4
 8006e2e:	4628      	mov	r0, r5
 8006e30:	f000 f9d8 	bl	80071e4 <_printf_common>
 8006e34:	3001      	adds	r0, #1
 8006e36:	f040 8090 	bne.w	8006f5a <_printf_float+0x1e2>
 8006e3a:	f04f 30ff 	mov.w	r0, #4294967295
 8006e3e:	b00d      	add	sp, #52	; 0x34
 8006e40:	ecbd 8b02 	vpop	{d8}
 8006e44:	e8bd 8ff0 	ldmia.w	sp!, {r4, r5, r6, r7, r8, r9, sl, fp, pc}
 8006e48:	4642      	mov	r2, r8
 8006e4a:	464b      	mov	r3, r9
 8006e4c:	4640      	mov	r0, r8
 8006e4e:	4649      	mov	r1, r9
 8006e50:	f7f9 fe6c 	bl	8000b2c <__aeabi_dcmpun>
 8006e54:	b140      	cbz	r0, 8006e68 <_printf_float+0xf0>
 8006e56:	464b      	mov	r3, r9
 8006e58:	2b00      	cmp	r3, #0
 8006e5a:	bfbc      	itt	lt
 8006e5c:	232d      	movlt	r3, #45	; 0x2d
 8006e5e:	f884 3043 	strblt.w	r3, [r4, #67]	; 0x43
 8006e62:	487f      	ldr	r0, [pc, #508]	; (8007060 <_printf_float+0x2e8>)
 8006e64:	4b7f      	ldr	r3, [pc, #508]	; (8007064 <_printf_float+0x2ec>)
 8006e66:	e7d1      	b.n	8006e0c <_printf_float+0x94>
 8006e68:	6863      	ldr	r3, [r4, #4]
 8006e6a:	f00b 02df 	and.w	r2, fp, #223	; 0xdf
 8006e6e:	9206      	str	r2, [sp, #24]
 8006e70:	1c5a      	adds	r2, r3, #1
 8006e72:	d13f      	bne.n	8006ef4 <_printf_float+0x17c>
 8006e74:	2306      	movs	r3, #6
 8006e76:	6063      	str	r3, [r4, #4]
 8006e78:	9b05      	ldr	r3, [sp, #20]
 8006e7a:	6861      	ldr	r1, [r4, #4]
 8006e7c:	f443 6280 	orr.w	r2, r3, #1024	; 0x400
 8006e80:	2300      	movs	r3, #0
 8006e82:	9303      	str	r3, [sp, #12]
 8006e84:	ab0a      	add	r3, sp, #40	; 0x28
 8006e86:	e9cd b301 	strd	fp, r3, [sp, #4]
 8006e8a:	ab09      	add	r3, sp, #36	; 0x24
 8006e8c:	ec49 8b10 	vmov	d0, r8, r9
 8006e90:	9300      	str	r3, [sp, #0]
 8006e92:	6022      	str	r2, [r4, #0]
 8006e94:	f10d 0323 	add.w	r3, sp, #35	; 0x23
 8006e98:	4628      	mov	r0, r5
 8006e9a:	f7ff fecd 	bl	8006c38 <__cvt>
 8006e9e:	9b06      	ldr	r3, [sp, #24]
 8006ea0:	9909      	ldr	r1, [sp, #36]	; 0x24
 8006ea2:	2b47      	cmp	r3, #71	; 0x47
 8006ea4:	4680      	mov	r8, r0
 8006ea6:	d108      	bne.n	8006eba <_printf_float+0x142>
 8006ea8:	1cc8      	adds	r0, r1, #3
 8006eaa:	db02      	blt.n	8006eb2 <_printf_float+0x13a>
 8006eac:	6863      	ldr	r3, [r4, #4]
 8006eae:	4299      	cmp	r1, r3
 8006eb0:	dd41      	ble.n	8006f36 <_printf_float+0x1be>
 8006eb2:	f1ab 0b02 	sub.w	fp, fp, #2
 8006eb6:	fa5f fb8b 	uxtb.w	fp, fp
 8006eba:	f1bb 0f65 	cmp.w	fp, #101	; 0x65
 8006ebe:	d820      	bhi.n	8006f02 <_printf_float+0x18a>
 8006ec0:	3901      	subs	r1, #1
 8006ec2:	465a      	mov	r2, fp
 8006ec4:	f104 0050 	add.w	r0, r4, #80	; 0x50
 8006ec8:	9109      	str	r1, [sp, #36]	; 0x24
 8006eca:	f7ff ff17 	bl	8006cfc <__exponent>
 8006ece:	9a0a      	ldr	r2, [sp, #40]	; 0x28
 8006ed0:	1813      	adds	r3, r2, r0
 8006ed2:	2a01      	cmp	r2, #1
 8006ed4:	4681      	mov	r9, r0
 8006ed6:	6123      	str	r3, [r4, #16]
 8006ed8:	dc02      	bgt.n	8006ee0 <_printf_float+0x168>
 8006eda:	6822      	ldr	r2, [r4, #0]
 8006edc:	07d2      	lsls	r2, r2, #31
 8006ede:	d501      	bpl.n	8006ee4 <_printf_float+0x16c>
 8006ee0:	3301      	adds	r3, #1
 8006ee2:	6123      	str	r3, [r4, #16]
 8006ee4:	f89d 3023 	ldrb.w	r3, [sp, #35]	; 0x23
 8006ee8:	2b00      	cmp	r3, #0
 8006eea:	d09c      	beq.n	8006e26 <_printf_float+0xae>
 8006eec:	232d      	movs	r3, #45	; 0x2d
 8006eee:	f884 3043 	strb.w	r3, [r4, #67]	; 0x43
 8006ef2:	e798      	b.n	8006e26 <_printf_float+0xae>
 8006ef4:	9a06      	ldr	r2, [sp, #24]
 8006ef6:	2a47      	cmp	r2, #71	; 0x47
 8006ef8:	d1be      	bne.n	8006e78 <_printf_float+0x100>
 8006efa:	2b00      	cmp	r3, #0
 8006efc:	d1bc      	bne.n	8006e78 <_printf_float+0x100>
 8006efe:	2301      	movs	r3, #1
 8006f00:	e7b9      	b.n	8006e76 <_printf_float+0xfe>
 8006f02:	f1bb 0f66 	cmp.w	fp, #102	; 0x66
 8006f06:	d118      	bne.n	8006f3a <_printf_float+0x1c2>
 8006f08:	2900      	cmp	r1, #0
 8006f0a:	6863      	ldr	r3, [r4, #4]
 8006f0c:	dd0b      	ble.n	8006f26 <_printf_float+0x1ae>
 8006f0e:	6121      	str	r1, [r4, #16]
 8006f10:	b913      	cbnz	r3, 8006f18 <_printf_float+0x1a0>
 8006f12:	6822      	ldr	r2, [r4, #0]
 8006f14:	07d0      	lsls	r0, r2, #31
 8006f16:	d502      	bpl.n	8006f1e <_printf_float+0x1a6>
 8006f18:	3301      	adds	r3, #1
 8006f1a:	440b      	add	r3, r1
 8006f1c:	6123      	str	r3, [r4, #16]
 8006f1e:	65a1      	str	r1, [r4, #88]	; 0x58
 8006f20:	f04f 0900 	mov.w	r9, #0
 8006f24:	e7de      	b.n	8006ee4 <_printf_float+0x16c>
 8006f26:	b913      	cbnz	r3, 8006f2e <_printf_float+0x1b6>
 8006f28:	6822      	ldr	r2, [r4, #0]
 8006f2a:	07d2      	lsls	r2, r2, #31
 8006f2c:	d501      	bpl.n	8006f32 <_printf_float+0x1ba>
 8006f2e:	3302      	adds	r3, #2
 8006f30:	e7f4      	b.n	8006f1c <_printf_float+0x1a4>
 8006f32:	2301      	movs	r3, #1
 8006f34:	e7f2      	b.n	8006f1c <_printf_float+0x1a4>
 8006f36:	f04f 0b67 	mov.w	fp, #103	; 0x67
 8006f3a:	9b0a      	ldr	r3, [sp, #40]	; 0x28
 8006f3c:	4299      	cmp	r1, r3
 8006f3e:	db05      	blt.n	8006f4c <_printf_float+0x1d4>
 8006f40:	6823      	ldr	r3, [r4, #0]
 8006f42:	6121      	str	r1, [r4, #16]
 8006f44:	07d8      	lsls	r0, r3, #31
 8006f46:	d5ea      	bpl.n	8006f1e <_printf_float+0x1a6>
 8006f48:	1c4b      	adds	r3, r1, #1
 8006f4a:	e7e7      	b.n	8006f1c <_printf_float+0x1a4>
 8006f4c:	2900      	cmp	r1, #0
 8006f4e:	bfd4      	ite	le
 8006f50:	f1c1 0202 	rsble	r2, r1, #2
 8006f54:	2201      	movgt	r2, #1
 8006f56:	4413      	add	r3, r2
 8006f58:	e7e0      	b.n	8006f1c <_printf_float+0x1a4>
 8006f5a:	6823      	ldr	r3, [r4, #0]
 8006f5c:	055a      	lsls	r2, r3, #21
 8006f5e:	d407      	bmi.n	8006f70 <_printf_float+0x1f8>
 8006f60:	6923      	ldr	r3, [r4, #16]
 8006f62:	4642      	mov	r2, r8
 8006f64:	4631      	mov	r1, r6
 8006f66:	4628      	mov	r0, r5
 8006f68:	47b8      	blx	r7
 8006f6a:	3001      	adds	r0, #1
 8006f6c:	d12c      	bne.n	8006fc8 <_printf_float+0x250>
 8006f6e:	e764      	b.n	8006e3a <_printf_float+0xc2>
 8006f70:	f1bb 0f65 	cmp.w	fp, #101	; 0x65
 8006f74:	f240 80e0 	bls.w	8007138 <_printf_float+0x3c0>
 8006f78:	e9d4 0112 	ldrd	r0, r1, [r4, #72]	; 0x48
 8006f7c:	2200      	movs	r2, #0
 8006f7e:	2300      	movs	r3, #0
 8006f80:	f7f9 fda2 	bl	8000ac8 <__aeabi_dcmpeq>
 8006f84:	2800      	cmp	r0, #0
 8006f86:	d034      	beq.n	8006ff2 <_printf_float+0x27a>
 8006f88:	4a37      	ldr	r2, [pc, #220]	; (8007068 <_printf_float+0x2f0>)
 8006f8a:	2301      	movs	r3, #1
 8006f8c:	4631      	mov	r1, r6
 8006f8e:	4628      	mov	r0, r5
 8006f90:	47b8      	blx	r7
 8006f92:	3001      	adds	r0, #1
 8006f94:	f43f af51 	beq.w	8006e3a <_printf_float+0xc2>
 8006f98:	e9dd 2309 	ldrd	r2, r3, [sp, #36]	; 0x24
 8006f9c:	429a      	cmp	r2, r3
 8006f9e:	db02      	blt.n	8006fa6 <_printf_float+0x22e>
 8006fa0:	6823      	ldr	r3, [r4, #0]
 8006fa2:	07d8      	lsls	r0, r3, #31
 8006fa4:	d510      	bpl.n	8006fc8 <_printf_float+0x250>
 8006fa6:	ee18 3a10 	vmov	r3, s16
 8006faa:	4652      	mov	r2, sl
 8006fac:	4631      	mov	r1, r6
 8006fae:	4628      	mov	r0, r5
 8006fb0:	47b8      	blx	r7
 8006fb2:	3001      	adds	r0, #1
 8006fb4:	f43f af41 	beq.w	8006e3a <_printf_float+0xc2>
 8006fb8:	f04f 0800 	mov.w	r8, #0
 8006fbc:	f104 091a 	add.w	r9, r4, #26
 8006fc0:	9b0a      	ldr	r3, [sp, #40]	; 0x28
 8006fc2:	3b01      	subs	r3, #1
 8006fc4:	4543      	cmp	r3, r8
 8006fc6:	dc09      	bgt.n	8006fdc <_printf_float+0x264>
 8006fc8:	6823      	ldr	r3, [r4, #0]
 8006fca:	079b      	lsls	r3, r3, #30
 8006fcc:	f100 8105 	bmi.w	80071da <_printf_float+0x462>
 8006fd0:	68e0      	ldr	r0, [r4, #12]
 8006fd2:	9b0b      	ldr	r3, [sp, #44]	; 0x2c
 8006fd4:	4298      	cmp	r0, r3
 8006fd6:	bfb8      	it	lt
 8006fd8:	4618      	movlt	r0, r3
 8006fda:	e730      	b.n	8006e3e <_printf_float+0xc6>
 8006fdc:	2301      	movs	r3, #1
 8006fde:	464a      	mov	r2, r9
 8006fe0:	4631      	mov	r1, r6
 8006fe2:	4628      	mov	r0, r5
 8006fe4:	47b8      	blx	r7
 8006fe6:	3001      	adds	r0, #1
 8006fe8:	f43f af27 	beq.w	8006e3a <_printf_float+0xc2>
 8006fec:	f108 0801 	add.w	r8, r8, #1
 8006ff0:	e7e6      	b.n	8006fc0 <_printf_float+0x248>
 8006ff2:	9b09      	ldr	r3, [sp, #36]	; 0x24
 8006ff4:	2b00      	cmp	r3, #0
 8006ff6:	dc39      	bgt.n	800706c <_printf_float+0x2f4>
 8006ff8:	4a1b      	ldr	r2, [pc, #108]	; (8007068 <_printf_float+0x2f0>)
 8006ffa:	2301      	movs	r3, #1
 8006ffc:	4631      	mov	r1, r6
 8006ffe:	4628      	mov	r0, r5
 8007000:	47b8      	blx	r7
 8007002:	3001      	adds	r0, #1
 8007004:	f43f af19 	beq.w	8006e3a <_printf_float+0xc2>
 8007008:	e9dd 2309 	ldrd	r2, r3, [sp, #36]	; 0x24
 800700c:	4313      	orrs	r3, r2
 800700e:	d102      	bne.n	8007016 <_printf_float+0x29e>
 8007010:	6823      	ldr	r3, [r4, #0]
 8007012:	07d9      	lsls	r1, r3, #31
 8007014:	d5d8      	bpl.n	8006fc8 <_printf_float+0x250>
 8007016:	ee18 3a10 	vmov	r3, s16
 800701a:	4652      	mov	r2, sl
 800701c:	4631      	mov	r1, r6
 800701e:	4628      	mov	r0, r5
 8007020:	47b8      	blx	r7
 8007022:	3001      	adds	r0, #1
 8007024:	f43f af09 	beq.w	8006e3a <_printf_float+0xc2>
 8007028:	f04f 0900 	mov.w	r9, #0
 800702c:	f104 0a1a 	add.w	sl, r4, #26
 8007030:	9b09      	ldr	r3, [sp, #36]	; 0x24
 8007032:	425b      	negs	r3, r3
 8007034:	454b      	cmp	r3, r9
 8007036:	dc01      	bgt.n	800703c <_printf_float+0x2c4>
 8007038:	9b0a      	ldr	r3, [sp, #40]	; 0x28
 800703a:	e792      	b.n	8006f62 <_printf_float+0x1ea>
 800703c:	2301      	movs	r3, #1
 800703e:	4652      	mov	r2, sl
 8007040:	4631      	mov	r1, r6
 8007042:	4628      	mov	r0, r5
 8007044:	47b8      	blx	r7
 8007046:	3001      	adds	r0, #1
 8007048:	f43f aef7 	beq.w	8006e3a <_printf_float+0xc2>
 800704c:	f109 0901 	add.w	r9, r9, #1
 8007050:	e7ee      	b.n	8007030 <_printf_float+0x2b8>
 8007052:	bf00      	nop
 8007054:	7fefffff 	.word	0x7fefffff
 8007058:	0800b894 	.word	0x0800b894
 800705c:	0800b898 	.word	0x0800b898
 8007060:	0800b8a0 	.word	0x0800b8a0
 8007064:	0800b89c 	.word	0x0800b89c
 8007068:	0800b8a4 	.word	0x0800b8a4
 800706c:	9a0a      	ldr	r2, [sp, #40]	; 0x28
 800706e:	6da3      	ldr	r3, [r4, #88]	; 0x58
 8007070:	429a      	cmp	r2, r3
 8007072:	bfa8      	it	ge
 8007074:	461a      	movge	r2, r3
 8007076:	2a00      	cmp	r2, #0
 8007078:	4691      	mov	r9, r2
 800707a:	dc37      	bgt.n	80070ec <_printf_float+0x374>
 800707c:	f04f 0b00 	mov.w	fp, #0
 8007080:	ea29 79e9 	bic.w	r9, r9, r9, asr #31
 8007084:	f104 021a 	add.w	r2, r4, #26
 8007088:	6da3      	ldr	r3, [r4, #88]	; 0x58
 800708a:	9305      	str	r3, [sp, #20]
 800708c:	eba3 0309 	sub.w	r3, r3, r9
 8007090:	455b      	cmp	r3, fp
 8007092:	dc33      	bgt.n	80070fc <_printf_float+0x384>
 8007094:	e9dd 2309 	ldrd	r2, r3, [sp, #36]	; 0x24
 8007098:	429a      	cmp	r2, r3
 800709a:	db3b      	blt.n	8007114 <_printf_float+0x39c>
 800709c:	6823      	ldr	r3, [r4, #0]
 800709e:	07da      	lsls	r2, r3, #31
 80070a0:	d438      	bmi.n	8007114 <_printf_float+0x39c>
 80070a2:	9b0a      	ldr	r3, [sp, #40]	; 0x28
 80070a4:	9a05      	ldr	r2, [sp, #20]
 80070a6:	9909      	ldr	r1, [sp, #36]	; 0x24
 80070a8:	1a9a      	subs	r2, r3, r2
 80070aa:	eba3 0901 	sub.w	r9, r3, r1
 80070ae:	4591      	cmp	r9, r2
 80070b0:	bfa8      	it	ge
 80070b2:	4691      	movge	r9, r2
 80070b4:	f1b9 0f00 	cmp.w	r9, #0
 80070b8:	dc35      	bgt.n	8007126 <_printf_float+0x3ae>
 80070ba:	f04f 0800 	mov.w	r8, #0
 80070be:	ea29 79e9 	bic.w	r9, r9, r9, asr #31
 80070c2:	f104 0a1a 	add.w	sl, r4, #26
 80070c6:	e9dd 2309 	ldrd	r2, r3, [sp, #36]	; 0x24
 80070ca:	1a9b      	subs	r3, r3, r2
 80070cc:	eba3 0309 	sub.w	r3, r3, r9
 80070d0:	4543      	cmp	r3, r8
 80070d2:	f77f af79 	ble.w	8006fc8 <_printf_float+0x250>
 80070d6:	2301      	movs	r3, #1
 80070d8:	4652      	mov	r2, sl
 80070da:	4631      	mov	r1, r6
 80070dc:	4628      	mov	r0, r5
 80070de:	47b8      	blx	r7
 80070e0:	3001      	adds	r0, #1
 80070e2:	f43f aeaa 	beq.w	8006e3a <_printf_float+0xc2>
 80070e6:	f108 0801 	add.w	r8, r8, #1
 80070ea:	e7ec      	b.n	80070c6 <_printf_float+0x34e>
 80070ec:	4613      	mov	r3, r2
 80070ee:	4631      	mov	r1, r6
 80070f0:	4642      	mov	r2, r8
 80070f2:	4628      	mov	r0, r5
 80070f4:	47b8      	blx	r7
 80070f6:	3001      	adds	r0, #1
 80070f8:	d1c0      	bne.n	800707c <_printf_float+0x304>
 80070fa:	e69e      	b.n	8006e3a <_printf_float+0xc2>
 80070fc:	2301      	movs	r3, #1
 80070fe:	4631      	mov	r1, r6
 8007100:	4628      	mov	r0, r5
 8007102:	9205      	str	r2, [sp, #20]
 8007104:	47b8      	blx	r7
 8007106:	3001      	adds	r0, #1
 8007108:	f43f ae97 	beq.w	8006e3a <_printf_float+0xc2>
 800710c:	9a05      	ldr	r2, [sp, #20]
 800710e:	f10b 0b01 	add.w	fp, fp, #1
 8007112:	e7b9      	b.n	8007088 <_printf_float+0x310>
 8007114:	ee18 3a10 	vmov	r3, s16
 8007118:	4652      	mov	r2, sl
 800711a:	4631      	mov	r1, r6
 800711c:	4628      	mov	r0, r5
 800711e:	47b8      	blx	r7
 8007120:	3001      	adds	r0, #1
 8007122:	d1be      	bne.n	80070a2 <_printf_float+0x32a>
 8007124:	e689      	b.n	8006e3a <_printf_float+0xc2>
 8007126:	9a05      	ldr	r2, [sp, #20]
 8007128:	464b      	mov	r3, r9
 800712a:	4442      	add	r2, r8
 800712c:	4631      	mov	r1, r6
 800712e:	4628      	mov	r0, r5
 8007130:	47b8      	blx	r7
 8007132:	3001      	adds	r0, #1
 8007134:	d1c1      	bne.n	80070ba <_printf_float+0x342>
 8007136:	e680      	b.n	8006e3a <_printf_float+0xc2>
 8007138:	9a0a      	ldr	r2, [sp, #40]	; 0x28
 800713a:	2a01      	cmp	r2, #1
 800713c:	dc01      	bgt.n	8007142 <_printf_float+0x3ca>
 800713e:	07db      	lsls	r3, r3, #31
 8007140:	d538      	bpl.n	80071b4 <_printf_float+0x43c>
 8007142:	2301      	movs	r3, #1
 8007144:	4642      	mov	r2, r8
 8007146:	4631      	mov	r1, r6
 8007148:	4628      	mov	r0, r5
 800714a:	47b8      	blx	r7
 800714c:	3001      	adds	r0, #1
 800714e:	f43f ae74 	beq.w	8006e3a <_printf_float+0xc2>
 8007152:	ee18 3a10 	vmov	r3, s16
 8007156:	4652      	mov	r2, sl
 8007158:	4631      	mov	r1, r6
 800715a:	4628      	mov	r0, r5
 800715c:	47b8      	blx	r7
 800715e:	3001      	adds	r0, #1
 8007160:	f43f ae6b 	beq.w	8006e3a <_printf_float+0xc2>
 8007164:	e9d4 0112 	ldrd	r0, r1, [r4, #72]	; 0x48
 8007168:	2200      	movs	r2, #0
 800716a:	2300      	movs	r3, #0
 800716c:	f7f9 fcac 	bl	8000ac8 <__aeabi_dcmpeq>
 8007170:	b9d8      	cbnz	r0, 80071aa <_printf_float+0x432>
 8007172:	9b0a      	ldr	r3, [sp, #40]	; 0x28
 8007174:	f108 0201 	add.w	r2, r8, #1
 8007178:	3b01      	subs	r3, #1
 800717a:	4631      	mov	r1, r6
 800717c:	4628      	mov	r0, r5
 800717e:	47b8      	blx	r7
 8007180:	3001      	adds	r0, #1
 8007182:	d10e      	bne.n	80071a2 <_printf_float+0x42a>
 8007184:	e659      	b.n	8006e3a <_printf_float+0xc2>
 8007186:	2301      	movs	r3, #1
 8007188:	4652      	mov	r2, sl
 800718a:	4631      	mov	r1, r6
 800718c:	4628      	mov	r0, r5
 800718e:	47b8      	blx	r7
 8007190:	3001      	adds	r0, #1
 8007192:	f43f ae52 	beq.w	8006e3a <_printf_float+0xc2>
 8007196:	f108 0801 	add.w	r8, r8, #1
 800719a:	9b0a      	ldr	r3, [sp, #40]	; 0x28
 800719c:	3b01      	subs	r3, #1
 800719e:	4543      	cmp	r3, r8
 80071a0:	dcf1      	bgt.n	8007186 <_printf_float+0x40e>
 80071a2:	464b      	mov	r3, r9
 80071a4:	f104 0250 	add.w	r2, r4, #80	; 0x50
 80071a8:	e6dc      	b.n	8006f64 <_printf_float+0x1ec>
 80071aa:	f04f 0800 	mov.w	r8, #0
 80071ae:	f104 0a1a 	add.w	sl, r4, #26
 80071b2:	e7f2      	b.n	800719a <_printf_float+0x422>
 80071b4:	2301      	movs	r3, #1
 80071b6:	4642      	mov	r2, r8
 80071b8:	e7df      	b.n	800717a <_printf_float+0x402>
 80071ba:	2301      	movs	r3, #1
 80071bc:	464a      	mov	r2, r9
 80071be:	4631      	mov	r1, r6
 80071c0:	4628      	mov	r0, r5
 80071c2:	47b8      	blx	r7
 80071c4:	3001      	adds	r0, #1
 80071c6:	f43f ae38 	beq.w	8006e3a <_printf_float+0xc2>
 80071ca:	f108 0801 	add.w	r8, r8, #1
 80071ce:	68e3      	ldr	r3, [r4, #12]
 80071d0:	990b      	ldr	r1, [sp, #44]	; 0x2c
 80071d2:	1a5b      	subs	r3, r3, r1
 80071d4:	4543      	cmp	r3, r8
 80071d6:	dcf0      	bgt.n	80071ba <_printf_float+0x442>
 80071d8:	e6fa      	b.n	8006fd0 <_printf_float+0x258>
 80071da:	f04f 0800 	mov.w	r8, #0
 80071de:	f104 0919 	add.w	r9, r4, #25
 80071e2:	e7f4      	b.n	80071ce <_printf_float+0x456>

080071e4 <_printf_common>:
 80071e4:	e92d 47f0 	stmdb	sp!, {r4, r5, r6, r7, r8, r9, sl, lr}
 80071e8:	4616      	mov	r6, r2
 80071ea:	4699      	mov	r9, r3
 80071ec:	688a      	ldr	r2, [r1, #8]
 80071ee:	690b      	ldr	r3, [r1, #16]
 80071f0:	f8dd 8020 	ldr.w	r8, [sp, #32]
 80071f4:	4293      	cmp	r3, r2
 80071f6:	bfb8      	it	lt
 80071f8:	4613      	movlt	r3, r2
 80071fa:	6033      	str	r3, [r6, #0]
 80071fc:	f891 2043 	ldrb.w	r2, [r1, #67]	; 0x43
 8007200:	4607      	mov	r7, r0
 8007202:	460c      	mov	r4, r1
 8007204:	b10a      	cbz	r2, 800720a <_printf_common+0x26>
 8007206:	3301      	adds	r3, #1
 8007208:	6033      	str	r3, [r6, #0]
 800720a:	6823      	ldr	r3, [r4, #0]
 800720c:	0699      	lsls	r1, r3, #26
 800720e:	bf42      	ittt	mi
 8007210:	6833      	ldrmi	r3, [r6, #0]
 8007212:	3302      	addmi	r3, #2
 8007214:	6033      	strmi	r3, [r6, #0]
 8007216:	6825      	ldr	r5, [r4, #0]
 8007218:	f015 0506 	ands.w	r5, r5, #6
 800721c:	d106      	bne.n	800722c <_printf_common+0x48>
 800721e:	f104 0a19 	add.w	sl, r4, #25
 8007222:	68e3      	ldr	r3, [r4, #12]
 8007224:	6832      	ldr	r2, [r6, #0]
 8007226:	1a9b      	subs	r3, r3, r2
 8007228:	42ab      	cmp	r3, r5
 800722a:	dc26      	bgt.n	800727a <_printf_common+0x96>
 800722c:	f894 2043 	ldrb.w	r2, [r4, #67]	; 0x43
 8007230:	1e13      	subs	r3, r2, #0
 8007232:	6822      	ldr	r2, [r4, #0]
 8007234:	bf18      	it	ne
 8007236:	2301      	movne	r3, #1
 8007238:	0692      	lsls	r2, r2, #26
 800723a:	d42b      	bmi.n	8007294 <_printf_common+0xb0>
 800723c:	f104 0243 	add.w	r2, r4, #67	; 0x43
 8007240:	4649      	mov	r1, r9
 8007242:	4638      	mov	r0, r7
 8007244:	47c0      	blx	r8
 8007246:	3001      	adds	r0, #1
 8007248:	d01e      	beq.n	8007288 <_printf_common+0xa4>
 800724a:	6823      	ldr	r3, [r4, #0]
 800724c:	68e5      	ldr	r5, [r4, #12]
 800724e:	6832      	ldr	r2, [r6, #0]
 8007250:	f003 0306 	and.w	r3, r3, #6
 8007254:	2b04      	cmp	r3, #4
 8007256:	bf08      	it	eq
 8007258:	1aad      	subeq	r5, r5, r2
 800725a:	68a3      	ldr	r3, [r4, #8]
 800725c:	6922      	ldr	r2, [r4, #16]
 800725e:	bf0c      	ite	eq
 8007260:	ea25 75e5 	biceq.w	r5, r5, r5, asr #31
 8007264:	2500      	movne	r5, #0
 8007266:	4293      	cmp	r3, r2
 8007268:	bfc4      	itt	gt
 800726a:	1a9b      	subgt	r3, r3, r2
 800726c:	18ed      	addgt	r5, r5, r3
 800726e:	2600      	movs	r6, #0
 8007270:	341a      	adds	r4, #26
 8007272:	42b5      	cmp	r5, r6
 8007274:	d11a      	bne.n	80072ac <_printf_common+0xc8>
 8007276:	2000      	movs	r0, #0
 8007278:	e008      	b.n	800728c <_printf_common+0xa8>
 800727a:	2301      	movs	r3, #1
 800727c:	4652      	mov	r2, sl
 800727e:	4649      	mov	r1, r9
 8007280:	4638      	mov	r0, r7
 8007282:	47c0      	blx	r8
 8007284:	3001      	adds	r0, #1
 8007286:	d103      	bne.n	8007290 <_printf_common+0xac>
 8007288:	f04f 30ff 	mov.w	r0, #4294967295
 800728c:	e8bd 87f0 	ldmia.w	sp!, {r4, r5, r6, r7, r8, r9, sl, pc}
 8007290:	3501      	adds	r5, #1
 8007292:	e7c6      	b.n	8007222 <_printf_common+0x3e>
 8007294:	18e1      	adds	r1, r4, r3
 8007296:	1c5a      	adds	r2, r3, #1
 8007298:	2030      	movs	r0, #48	; 0x30
 800729a:	f881 0043 	strb.w	r0, [r1, #67]	; 0x43
 800729e:	4422      	add	r2, r4
 80072a0:	f894 1045 	ldrb.w	r1, [r4, #69]	; 0x45
 80072a4:	f882 1043 	strb.w	r1, [r2, #67]	; 0x43
 80072a8:	3302      	adds	r3, #2
 80072aa:	e7c7      	b.n	800723c <_printf_common+0x58>
 80072ac:	2301      	movs	r3, #1
 80072ae:	4622      	mov	r2, r4
 80072b0:	4649      	mov	r1, r9
 80072b2:	4638      	mov	r0, r7
 80072b4:	47c0      	blx	r8
 80072b6:	3001      	adds	r0, #1
 80072b8:	d0e6      	beq.n	8007288 <_printf_common+0xa4>
 80072ba:	3601      	adds	r6, #1
 80072bc:	e7d9      	b.n	8007272 <_printf_common+0x8e>
	...

080072c0 <_printf_i>:
 80072c0:	e92d 47ff 	stmdb	sp!, {r0, r1, r2, r3, r4, r5, r6, r7, r8, r9, sl, lr}
 80072c4:	7e0f      	ldrb	r7, [r1, #24]
 80072c6:	9d0c      	ldr	r5, [sp, #48]	; 0x30
 80072c8:	2f78      	cmp	r7, #120	; 0x78
 80072ca:	4691      	mov	r9, r2
 80072cc:	4680      	mov	r8, r0
 80072ce:	460c      	mov	r4, r1
 80072d0:	469a      	mov	sl, r3
 80072d2:	f101 0243 	add.w	r2, r1, #67	; 0x43
 80072d6:	d807      	bhi.n	80072e8 <_printf_i+0x28>
 80072d8:	2f62      	cmp	r7, #98	; 0x62
 80072da:	d80a      	bhi.n	80072f2 <_printf_i+0x32>
 80072dc:	2f00      	cmp	r7, #0
 80072de:	f000 80d8 	beq.w	8007492 <_printf_i+0x1d2>
 80072e2:	2f58      	cmp	r7, #88	; 0x58
 80072e4:	f000 80a3 	beq.w	800742e <_printf_i+0x16e>
 80072e8:	f104 0542 	add.w	r5, r4, #66	; 0x42
 80072ec:	f884 7042 	strb.w	r7, [r4, #66]	; 0x42
 80072f0:	e03a      	b.n	8007368 <_printf_i+0xa8>
 80072f2:	f1a7 0363 	sub.w	r3, r7, #99	; 0x63
 80072f6:	2b15      	cmp	r3, #21
 80072f8:	d8f6      	bhi.n	80072e8 <_printf_i+0x28>
 80072fa:	a101      	add	r1, pc, #4	; (adr r1, 8007300 <_printf_i+0x40>)
 80072fc:	f851 f023 	ldr.w	pc, [r1, r3, lsl #2]
 8007300:	08007359 	.word	0x08007359
 8007304:	0800736d 	.word	0x0800736d
 8007308:	080072e9 	.word	0x080072e9
 800730c:	080072e9 	.word	0x080072e9
 8007310:	080072e9 	.word	0x080072e9
 8007314:	080072e9 	.word	0x080072e9
 8007318:	0800736d 	.word	0x0800736d
 800731c:	080072e9 	.word	0x080072e9
 8007320:	080072e9 	.word	0x080072e9
 8007324:	080072e9 	.word	0x080072e9
 8007328:	080072e9 	.word	0x080072e9
 800732c:	08007479 	.word	0x08007479
 8007330:	0800739d 	.word	0x0800739d
 8007334:	0800745b 	.word	0x0800745b
 8007338:	080072e9 	.word	0x080072e9
 800733c:	080072e9 	.word	0x080072e9
 8007340:	0800749b 	.word	0x0800749b
 8007344:	080072e9 	.word	0x080072e9
 8007348:	0800739d 	.word	0x0800739d
 800734c:	080072e9 	.word	0x080072e9
 8007350:	080072e9 	.word	0x080072e9
 8007354:	08007463 	.word	0x08007463
 8007358:	682b      	ldr	r3, [r5, #0]
 800735a:	1d1a      	adds	r2, r3, #4
 800735c:	681b      	ldr	r3, [r3, #0]
 800735e:	602a      	str	r2, [r5, #0]
 8007360:	f104 0542 	add.w	r5, r4, #66	; 0x42
 8007364:	f884 3042 	strb.w	r3, [r4, #66]	; 0x42
 8007368:	2301      	movs	r3, #1
 800736a:	e0a3      	b.n	80074b4 <_printf_i+0x1f4>
 800736c:	6820      	ldr	r0, [r4, #0]
 800736e:	6829      	ldr	r1, [r5, #0]
 8007370:	0606      	lsls	r6, r0, #24
 8007372:	f101 0304 	add.w	r3, r1, #4
 8007376:	d50a      	bpl.n	800738e <_printf_i+0xce>
 8007378:	680e      	ldr	r6, [r1, #0]
 800737a:	602b      	str	r3, [r5, #0]
 800737c:	2e00      	cmp	r6, #0
 800737e:	da03      	bge.n	8007388 <_printf_i+0xc8>
 8007380:	232d      	movs	r3, #45	; 0x2d
 8007382:	4276      	negs	r6, r6
 8007384:	f884 3043 	strb.w	r3, [r4, #67]	; 0x43
 8007388:	485e      	ldr	r0, [pc, #376]	; (8007504 <_printf_i+0x244>)
 800738a:	230a      	movs	r3, #10
 800738c:	e019      	b.n	80073c2 <_printf_i+0x102>
 800738e:	680e      	ldr	r6, [r1, #0]
 8007390:	602b      	str	r3, [r5, #0]
 8007392:	f010 0f40 	tst.w	r0, #64	; 0x40
 8007396:	bf18      	it	ne
 8007398:	b236      	sxthne	r6, r6
 800739a:	e7ef      	b.n	800737c <_printf_i+0xbc>
 800739c:	682b      	ldr	r3, [r5, #0]
 800739e:	6820      	ldr	r0, [r4, #0]
 80073a0:	1d19      	adds	r1, r3, #4
 80073a2:	6029      	str	r1, [r5, #0]
 80073a4:	0601      	lsls	r1, r0, #24
 80073a6:	d501      	bpl.n	80073ac <_printf_i+0xec>
 80073a8:	681e      	ldr	r6, [r3, #0]
 80073aa:	e002      	b.n	80073b2 <_printf_i+0xf2>
 80073ac:	0646      	lsls	r6, r0, #25
 80073ae:	d5fb      	bpl.n	80073a8 <_printf_i+0xe8>
 80073b0:	881e      	ldrh	r6, [r3, #0]
 80073b2:	4854      	ldr	r0, [pc, #336]	; (8007504 <_printf_i+0x244>)
 80073b4:	2f6f      	cmp	r7, #111	; 0x6f
 80073b6:	bf0c      	ite	eq
 80073b8:	2308      	moveq	r3, #8
 80073ba:	230a      	movne	r3, #10
 80073bc:	2100      	movs	r1, #0
 80073be:	f884 1043 	strb.w	r1, [r4, #67]	; 0x43
 80073c2:	6865      	ldr	r5, [r4, #4]
 80073c4:	60a5      	str	r5, [r4, #8]
 80073c6:	2d00      	cmp	r5, #0
 80073c8:	bfa2      	ittt	ge
 80073ca:	6821      	ldrge	r1, [r4, #0]
 80073cc:	f021 0104 	bicge.w	r1, r1, #4
 80073d0:	6021      	strge	r1, [r4, #0]
 80073d2:	b90e      	cbnz	r6, 80073d8 <_printf_i+0x118>
 80073d4:	2d00      	cmp	r5, #0
 80073d6:	d04d      	beq.n	8007474 <_printf_i+0x1b4>
 80073d8:	4615      	mov	r5, r2
 80073da:	fbb6 f1f3 	udiv	r1, r6, r3
 80073de:	fb03 6711 	mls	r7, r3, r1, r6
 80073e2:	5dc7      	ldrb	r7, [r0, r7]
 80073e4:	f805 7d01 	strb.w	r7, [r5, #-1]!
 80073e8:	4637      	mov	r7, r6
 80073ea:	42bb      	cmp	r3, r7
 80073ec:	460e      	mov	r6, r1
 80073ee:	d9f4      	bls.n	80073da <_printf_i+0x11a>
 80073f0:	2b08      	cmp	r3, #8
 80073f2:	d10b      	bne.n	800740c <_printf_i+0x14c>
 80073f4:	6823      	ldr	r3, [r4, #0]
 80073f6:	07de      	lsls	r6, r3, #31
 80073f8:	d508      	bpl.n	800740c <_printf_i+0x14c>
 80073fa:	6923      	ldr	r3, [r4, #16]
 80073fc:	6861      	ldr	r1, [r4, #4]
 80073fe:	4299      	cmp	r1, r3
 8007400:	bfde      	ittt	le
 8007402:	2330      	movle	r3, #48	; 0x30
 8007404:	f805 3c01 	strble.w	r3, [r5, #-1]
 8007408:	f105 35ff 	addle.w	r5, r5, #4294967295
 800740c:	1b52      	subs	r2, r2, r5
 800740e:	6122      	str	r2, [r4, #16]
 8007410:	f8cd a000 	str.w	sl, [sp]
 8007414:	464b      	mov	r3, r9
 8007416:	aa03      	add	r2, sp, #12
 8007418:	4621      	mov	r1, r4
 800741a:	4640      	mov	r0, r8
 800741c:	f7ff fee2 	bl	80071e4 <_printf_common>
 8007420:	3001      	adds	r0, #1
 8007422:	d14c      	bne.n	80074be <_printf_i+0x1fe>
 8007424:	f04f 30ff 	mov.w	r0, #4294967295
 8007428:	b004      	add	sp, #16
 800742a:	e8bd 87f0 	ldmia.w	sp!, {r4, r5, r6, r7, r8, r9, sl, pc}
 800742e:	4835      	ldr	r0, [pc, #212]	; (8007504 <_printf_i+0x244>)
 8007430:	f881 7045 	strb.w	r7, [r1, #69]	; 0x45
 8007434:	6829      	ldr	r1, [r5, #0]
 8007436:	6823      	ldr	r3, [r4, #0]
 8007438:	f851 6b04 	ldr.w	r6, [r1], #4
 800743c:	6029      	str	r1, [r5, #0]
 800743e:	061d      	lsls	r5, r3, #24
 8007440:	d514      	bpl.n	800746c <_printf_i+0x1ac>
 8007442:	07df      	lsls	r7, r3, #31
 8007444:	bf44      	itt	mi
 8007446:	f043 0320 	orrmi.w	r3, r3, #32
 800744a:	6023      	strmi	r3, [r4, #0]
 800744c:	b91e      	cbnz	r6, 8007456 <_printf_i+0x196>
 800744e:	6823      	ldr	r3, [r4, #0]
 8007450:	f023 0320 	bic.w	r3, r3, #32
 8007454:	6023      	str	r3, [r4, #0]
 8007456:	2310      	movs	r3, #16
 8007458:	e7b0      	b.n	80073bc <_printf_i+0xfc>
 800745a:	6823      	ldr	r3, [r4, #0]
 800745c:	f043 0320 	orr.w	r3, r3, #32
 8007460:	6023      	str	r3, [r4, #0]
 8007462:	2378      	movs	r3, #120	; 0x78
 8007464:	4828      	ldr	r0, [pc, #160]	; (8007508 <_printf_i+0x248>)
 8007466:	f884 3045 	strb.w	r3, [r4, #69]	; 0x45
 800746a:	e7e3      	b.n	8007434 <_printf_i+0x174>
 800746c:	0659      	lsls	r1, r3, #25
 800746e:	bf48      	it	mi
 8007470:	b2b6      	uxthmi	r6, r6
 8007472:	e7e6      	b.n	8007442 <_printf_i+0x182>
 8007474:	4615      	mov	r5, r2
 8007476:	e7bb      	b.n	80073f0 <_printf_i+0x130>
 8007478:	682b      	ldr	r3, [r5, #0]
 800747a:	6826      	ldr	r6, [r4, #0]
 800747c:	6961      	ldr	r1, [r4, #20]
 800747e:	1d18      	adds	r0, r3, #4
 8007480:	6028      	str	r0, [r5, #0]
 8007482:	0635      	lsls	r5, r6, #24
 8007484:	681b      	ldr	r3, [r3, #0]
 8007486:	d501      	bpl.n	800748c <_printf_i+0x1cc>
 8007488:	6019      	str	r1, [r3, #0]
 800748a:	e002      	b.n	8007492 <_printf_i+0x1d2>
 800748c:	0670      	lsls	r0, r6, #25
 800748e:	d5fb      	bpl.n	8007488 <_printf_i+0x1c8>
 8007490:	8019      	strh	r1, [r3, #0]
 8007492:	2300      	movs	r3, #0
 8007494:	6123      	str	r3, [r4, #16]
 8007496:	4615      	mov	r5, r2
 8007498:	e7ba      	b.n	8007410 <_printf_i+0x150>
 800749a:	682b      	ldr	r3, [r5, #0]
 800749c:	1d1a      	adds	r2, r3, #4
 800749e:	602a      	str	r2, [r5, #0]
 80074a0:	681d      	ldr	r5, [r3, #0]
 80074a2:	6862      	ldr	r2, [r4, #4]
 80074a4:	2100      	movs	r1, #0
 80074a6:	4628      	mov	r0, r5
 80074a8:	f7f8 fe9a 	bl	80001e0 <memchr>
 80074ac:	b108      	cbz	r0, 80074b2 <_printf_i+0x1f2>
 80074ae:	1b40      	subs	r0, r0, r5
 80074b0:	6060      	str	r0, [r4, #4]
 80074b2:	6863      	ldr	r3, [r4, #4]
 80074b4:	6123      	str	r3, [r4, #16]
 80074b6:	2300      	movs	r3, #0
 80074b8:	f884 3043 	strb.w	r3, [r4, #67]	; 0x43
 80074bc:	e7a8      	b.n	8007410 <_printf_i+0x150>
 80074be:	6923      	ldr	r3, [r4, #16]
 80074c0:	462a      	mov	r2, r5
 80074c2:	4649      	mov	r1, r9
 80074c4:	4640      	mov	r0, r8
 80074c6:	47d0      	blx	sl
 80074c8:	3001      	adds	r0, #1
 80074ca:	d0ab      	beq.n	8007424 <_printf_i+0x164>
 80074cc:	6823      	ldr	r3, [r4, #0]
 80074ce:	079b      	lsls	r3, r3, #30
 80074d0:	d413      	bmi.n	80074fa <_printf_i+0x23a>
 80074d2:	68e0      	ldr	r0, [r4, #12]
 80074d4:	9b03      	ldr	r3, [sp, #12]
 80074d6:	4298      	cmp	r0, r3
 80074d8:	bfb8      	it	lt
 80074da:	4618      	movlt	r0, r3
 80074dc:	e7a4      	b.n	8007428 <_printf_i+0x168>
 80074de:	2301      	movs	r3, #1
 80074e0:	4632      	mov	r2, r6
 80074e2:	4649      	mov	r1, r9
 80074e4:	4640      	mov	r0, r8
 80074e6:	47d0      	blx	sl
 80074e8:	3001      	adds	r0, #1
 80074ea:	d09b      	beq.n	8007424 <_printf_i+0x164>
 80074ec:	3501      	adds	r5, #1
 80074ee:	68e3      	ldr	r3, [r4, #12]
 80074f0:	9903      	ldr	r1, [sp, #12]
 80074f2:	1a5b      	subs	r3, r3, r1
 80074f4:	42ab      	cmp	r3, r5
 80074f6:	dcf2      	bgt.n	80074de <_printf_i+0x21e>
 80074f8:	e7eb      	b.n	80074d2 <_printf_i+0x212>
 80074fa:	2500      	movs	r5, #0
 80074fc:	f104 0619 	add.w	r6, r4, #25
 8007500:	e7f5      	b.n	80074ee <_printf_i+0x22e>
 8007502:	bf00      	nop
 8007504:	0800b8a6 	.word	0x0800b8a6
 8007508:	0800b8b7 	.word	0x0800b8b7

0800750c <_scanf_float>:
 800750c:	e92d 4ff0 	stmdb	sp!, {r4, r5, r6, r7, r8, r9, sl, fp, lr}
 8007510:	b087      	sub	sp, #28
 8007512:	4617      	mov	r7, r2
 8007514:	9303      	str	r3, [sp, #12]
 8007516:	688b      	ldr	r3, [r1, #8]
 8007518:	1e5a      	subs	r2, r3, #1
 800751a:	f5b2 7fae 	cmp.w	r2, #348	; 0x15c
 800751e:	bf83      	ittte	hi
 8007520:	f46f 75ae 	mvnhi.w	r5, #348	; 0x15c
 8007524:	195b      	addhi	r3, r3, r5
 8007526:	9302      	strhi	r3, [sp, #8]
 8007528:	2300      	movls	r3, #0
 800752a:	bf86      	itte	hi
 800752c:	f240 135d 	movwhi	r3, #349	; 0x15d
 8007530:	608b      	strhi	r3, [r1, #8]
 8007532:	9302      	strls	r3, [sp, #8]
 8007534:	680b      	ldr	r3, [r1, #0]
 8007536:	468b      	mov	fp, r1
 8007538:	2500      	movs	r5, #0
 800753a:	f443 63f0 	orr.w	r3, r3, #1920	; 0x780
 800753e:	f84b 3b1c 	str.w	r3, [fp], #28
 8007542:	e9cd 5504 	strd	r5, r5, [sp, #16]
 8007546:	4680      	mov	r8, r0
 8007548:	460c      	mov	r4, r1
 800754a:	465e      	mov	r6, fp
 800754c:	46aa      	mov	sl, r5
 800754e:	46a9      	mov	r9, r5
 8007550:	9501      	str	r5, [sp, #4]
 8007552:	68a2      	ldr	r2, [r4, #8]
 8007554:	b152      	cbz	r2, 800756c <_scanf_float+0x60>
 8007556:	683b      	ldr	r3, [r7, #0]
 8007558:	781b      	ldrb	r3, [r3, #0]
 800755a:	2b4e      	cmp	r3, #78	; 0x4e
 800755c:	d864      	bhi.n	8007628 <_scanf_float+0x11c>
 800755e:	2b40      	cmp	r3, #64	; 0x40
 8007560:	d83c      	bhi.n	80075dc <_scanf_float+0xd0>
 8007562:	f1a3 012b 	sub.w	r1, r3, #43	; 0x2b
 8007566:	b2c8      	uxtb	r0, r1
 8007568:	280e      	cmp	r0, #14
 800756a:	d93a      	bls.n	80075e2 <_scanf_float+0xd6>
 800756c:	f1b9 0f00 	cmp.w	r9, #0
 8007570:	d003      	beq.n	800757a <_scanf_float+0x6e>
 8007572:	6823      	ldr	r3, [r4, #0]
 8007574:	f423 7380 	bic.w	r3, r3, #256	; 0x100
 8007578:	6023      	str	r3, [r4, #0]
 800757a:	f10a 3aff 	add.w	sl, sl, #4294967295
 800757e:	f1ba 0f01 	cmp.w	sl, #1
 8007582:	f200 8113 	bhi.w	80077ac <_scanf_float+0x2a0>
 8007586:	455e      	cmp	r6, fp
 8007588:	f200 8105 	bhi.w	8007796 <_scanf_float+0x28a>
 800758c:	2501      	movs	r5, #1
 800758e:	4628      	mov	r0, r5
 8007590:	b007      	add	sp, #28
 8007592:	e8bd 8ff0 	ldmia.w	sp!, {r4, r5, r6, r7, r8, r9, sl, fp, pc}
 8007596:	f1a3 0261 	sub.w	r2, r3, #97	; 0x61
 800759a:	2a0d      	cmp	r2, #13
 800759c:	d8e6      	bhi.n	800756c <_scanf_float+0x60>
 800759e:	a101      	add	r1, pc, #4	; (adr r1, 80075a4 <_scanf_float+0x98>)
 80075a0:	f851 f022 	ldr.w	pc, [r1, r2, lsl #2]
 80075a4:	080076e3 	.word	0x080076e3
 80075a8:	0800756d 	.word	0x0800756d
 80075ac:	0800756d 	.word	0x0800756d
 80075b0:	0800756d 	.word	0x0800756d
 80075b4:	08007743 	.word	0x08007743
 80075b8:	0800771b 	.word	0x0800771b
 80075bc:	0800756d 	.word	0x0800756d
 80075c0:	0800756d 	.word	0x0800756d
 80075c4:	080076f1 	.word	0x080076f1
 80075c8:	0800756d 	.word	0x0800756d
 80075cc:	0800756d 	.word	0x0800756d
 80075d0:	0800756d 	.word	0x0800756d
 80075d4:	0800756d 	.word	0x0800756d
 80075d8:	080076a9 	.word	0x080076a9
 80075dc:	f1a3 0241 	sub.w	r2, r3, #65	; 0x41
 80075e0:	e7db      	b.n	800759a <_scanf_float+0x8e>
 80075e2:	290e      	cmp	r1, #14
 80075e4:	d8c2      	bhi.n	800756c <_scanf_float+0x60>
 80075e6:	a001      	add	r0, pc, #4	; (adr r0, 80075ec <_scanf_float+0xe0>)
 80075e8:	f850 f021 	ldr.w	pc, [r0, r1, lsl #2]
 80075ec:	0800769b 	.word	0x0800769b
 80075f0:	0800756d 	.word	0x0800756d
 80075f4:	0800769b 	.word	0x0800769b
 80075f8:	0800772f 	.word	0x0800772f
 80075fc:	0800756d 	.word	0x0800756d
 8007600:	08007649 	.word	0x08007649
 8007604:	08007685 	.word	0x08007685
 8007608:	08007685 	.word	0x08007685
 800760c:	08007685 	.word	0x08007685
 8007610:	08007685 	.word	0x08007685
 8007614:	08007685 	.word	0x08007685
 8007618:	08007685 	.word	0x08007685
 800761c:	08007685 	.word	0x08007685
 8007620:	08007685 	.word	0x08007685
 8007624:	08007685 	.word	0x08007685
 8007628:	2b6e      	cmp	r3, #110	; 0x6e
 800762a:	d809      	bhi.n	8007640 <_scanf_float+0x134>
 800762c:	2b60      	cmp	r3, #96	; 0x60
 800762e:	d8b2      	bhi.n	8007596 <_scanf_float+0x8a>
 8007630:	2b54      	cmp	r3, #84	; 0x54
 8007632:	d077      	beq.n	8007724 <_scanf_float+0x218>
 8007634:	2b59      	cmp	r3, #89	; 0x59
 8007636:	d199      	bne.n	800756c <_scanf_float+0x60>
 8007638:	2d07      	cmp	r5, #7
 800763a:	d197      	bne.n	800756c <_scanf_float+0x60>
 800763c:	2508      	movs	r5, #8
 800763e:	e029      	b.n	8007694 <_scanf_float+0x188>
 8007640:	2b74      	cmp	r3, #116	; 0x74
 8007642:	d06f      	beq.n	8007724 <_scanf_float+0x218>
 8007644:	2b79      	cmp	r3, #121	; 0x79
 8007646:	e7f6      	b.n	8007636 <_scanf_float+0x12a>
 8007648:	6821      	ldr	r1, [r4, #0]
 800764a:	05c8      	lsls	r0, r1, #23
 800764c:	d51a      	bpl.n	8007684 <_scanf_float+0x178>
 800764e:	9b02      	ldr	r3, [sp, #8]
 8007650:	f021 0180 	bic.w	r1, r1, #128	; 0x80
 8007654:	6021      	str	r1, [r4, #0]
 8007656:	f109 0901 	add.w	r9, r9, #1
 800765a:	b11b      	cbz	r3, 8007664 <_scanf_float+0x158>
 800765c:	3b01      	subs	r3, #1
 800765e:	3201      	adds	r2, #1
 8007660:	9302      	str	r3, [sp, #8]
 8007662:	60a2      	str	r2, [r4, #8]
 8007664:	68a3      	ldr	r3, [r4, #8]
 8007666:	3b01      	subs	r3, #1
 8007668:	60a3      	str	r3, [r4, #8]
 800766a:	6923      	ldr	r3, [r4, #16]
 800766c:	3301      	adds	r3, #1
 800766e:	6123      	str	r3, [r4, #16]
 8007670:	687b      	ldr	r3, [r7, #4]
 8007672:	3b01      	subs	r3, #1
 8007674:	2b00      	cmp	r3, #0
 8007676:	607b      	str	r3, [r7, #4]
 8007678:	f340 8084 	ble.w	8007784 <_scanf_float+0x278>
 800767c:	683b      	ldr	r3, [r7, #0]
 800767e:	3301      	adds	r3, #1
 8007680:	603b      	str	r3, [r7, #0]
 8007682:	e766      	b.n	8007552 <_scanf_float+0x46>
 8007684:	eb1a 0f05 	cmn.w	sl, r5
 8007688:	f47f af70 	bne.w	800756c <_scanf_float+0x60>
 800768c:	6822      	ldr	r2, [r4, #0]
 800768e:	f422 72c0 	bic.w	r2, r2, #384	; 0x180
 8007692:	6022      	str	r2, [r4, #0]
 8007694:	f806 3b01 	strb.w	r3, [r6], #1
 8007698:	e7e4      	b.n	8007664 <_scanf_float+0x158>
 800769a:	6822      	ldr	r2, [r4, #0]
 800769c:	0610      	lsls	r0, r2, #24
 800769e:	f57f af65 	bpl.w	800756c <_scanf_float+0x60>
 80076a2:	f022 0280 	bic.w	r2, r2, #128	; 0x80
 80076a6:	e7f4      	b.n	8007692 <_scanf_float+0x186>
 80076a8:	f1ba 0f00 	cmp.w	sl, #0
 80076ac:	d10e      	bne.n	80076cc <_scanf_float+0x1c0>
 80076ae:	f1b9 0f00 	cmp.w	r9, #0
 80076b2:	d10e      	bne.n	80076d2 <_scanf_float+0x1c6>
 80076b4:	6822      	ldr	r2, [r4, #0]
 80076b6:	f402 61e0 	and.w	r1, r2, #1792	; 0x700
 80076ba:	f5b1 6fe0 	cmp.w	r1, #1792	; 0x700
 80076be:	d108      	bne.n	80076d2 <_scanf_float+0x1c6>
 80076c0:	f422 62f0 	bic.w	r2, r2, #1920	; 0x780
 80076c4:	6022      	str	r2, [r4, #0]
 80076c6:	f04f 0a01 	mov.w	sl, #1
 80076ca:	e7e3      	b.n	8007694 <_scanf_float+0x188>
 80076cc:	f1ba 0f02 	cmp.w	sl, #2
 80076d0:	d055      	beq.n	800777e <_scanf_float+0x272>
 80076d2:	2d01      	cmp	r5, #1
 80076d4:	d002      	beq.n	80076dc <_scanf_float+0x1d0>
 80076d6:	2d04      	cmp	r5, #4
 80076d8:	f47f af48 	bne.w	800756c <_scanf_float+0x60>
 80076dc:	3501      	adds	r5, #1
 80076de:	b2ed      	uxtb	r5, r5
 80076e0:	e7d8      	b.n	8007694 <_scanf_float+0x188>
 80076e2:	f1ba 0f01 	cmp.w	sl, #1
 80076e6:	f47f af41 	bne.w	800756c <_scanf_float+0x60>
 80076ea:	f04f 0a02 	mov.w	sl, #2
 80076ee:	e7d1      	b.n	8007694 <_scanf_float+0x188>
 80076f0:	b97d      	cbnz	r5, 8007712 <_scanf_float+0x206>
 80076f2:	f1b9 0f00 	cmp.w	r9, #0
 80076f6:	f47f af3c 	bne.w	8007572 <_scanf_float+0x66>
 80076fa:	6822      	ldr	r2, [r4, #0]
 80076fc:	f402 61e0 	and.w	r1, r2, #1792	; 0x700
 8007700:	f5b1 6fe0 	cmp.w	r1, #1792	; 0x700
 8007704:	f47f af39 	bne.w	800757a <_scanf_float+0x6e>
 8007708:	f422 62f0 	bic.w	r2, r2, #1920	; 0x780
 800770c:	6022      	str	r2, [r4, #0]
 800770e:	2501      	movs	r5, #1
 8007710:	e7c0      	b.n	8007694 <_scanf_float+0x188>
 8007712:	2d03      	cmp	r5, #3
 8007714:	d0e2      	beq.n	80076dc <_scanf_float+0x1d0>
 8007716:	2d05      	cmp	r5, #5
 8007718:	e7de      	b.n	80076d8 <_scanf_float+0x1cc>
 800771a:	2d02      	cmp	r5, #2
 800771c:	f47f af26 	bne.w	800756c <_scanf_float+0x60>
 8007720:	2503      	movs	r5, #3
 8007722:	e7b7      	b.n	8007694 <_scanf_float+0x188>
 8007724:	2d06      	cmp	r5, #6
 8007726:	f47f af21 	bne.w	800756c <_scanf_float+0x60>
 800772a:	2507      	movs	r5, #7
 800772c:	e7b2      	b.n	8007694 <_scanf_float+0x188>
 800772e:	6822      	ldr	r2, [r4, #0]
 8007730:	0591      	lsls	r1, r2, #22
 8007732:	f57f af1b 	bpl.w	800756c <_scanf_float+0x60>
 8007736:	f422 7220 	bic.w	r2, r2, #640	; 0x280
 800773a:	6022      	str	r2, [r4, #0]
 800773c:	f8cd 9004 	str.w	r9, [sp, #4]
 8007740:	e7a8      	b.n	8007694 <_scanf_float+0x188>
 8007742:	6822      	ldr	r2, [r4, #0]
 8007744:	f402 61a0 	and.w	r1, r2, #1280	; 0x500
 8007748:	f5b1 6f80 	cmp.w	r1, #1024	; 0x400
 800774c:	d006      	beq.n	800775c <_scanf_float+0x250>
 800774e:	0550      	lsls	r0, r2, #21
 8007750:	f57f af0c 	bpl.w	800756c <_scanf_float+0x60>
 8007754:	f1b9 0f00 	cmp.w	r9, #0
 8007758:	f43f af0f 	beq.w	800757a <_scanf_float+0x6e>
 800775c:	0591      	lsls	r1, r2, #22
 800775e:	bf58      	it	pl
 8007760:	9901      	ldrpl	r1, [sp, #4]
 8007762:	f422 62f0 	bic.w	r2, r2, #1920	; 0x780
 8007766:	bf58      	it	pl
 8007768:	eba9 0101 	subpl.w	r1, r9, r1
 800776c:	f442 72c0 	orr.w	r2, r2, #384	; 0x180
 8007770:	bf58      	it	pl
 8007772:	e9cd 1604 	strdpl	r1, r6, [sp, #16]
 8007776:	6022      	str	r2, [r4, #0]
 8007778:	f04f 0900 	mov.w	r9, #0
 800777c:	e78a      	b.n	8007694 <_scanf_float+0x188>
 800777e:	f04f 0a03 	mov.w	sl, #3
 8007782:	e787      	b.n	8007694 <_scanf_float+0x188>
 8007784:	f8d4 3180 	ldr.w	r3, [r4, #384]	; 0x180
 8007788:	4639      	mov	r1, r7
 800778a:	4640      	mov	r0, r8
 800778c:	4798      	blx	r3
 800778e:	2800      	cmp	r0, #0
 8007790:	f43f aedf 	beq.w	8007552 <_scanf_float+0x46>
 8007794:	e6ea      	b.n	800756c <_scanf_float+0x60>
 8007796:	f8d4 317c 	ldr.w	r3, [r4, #380]	; 0x17c
 800779a:	f816 1d01 	ldrb.w	r1, [r6, #-1]!
 800779e:	463a      	mov	r2, r7
 80077a0:	4640      	mov	r0, r8
 80077a2:	4798      	blx	r3
 80077a4:	6923      	ldr	r3, [r4, #16]
 80077a6:	3b01      	subs	r3, #1
 80077a8:	6123      	str	r3, [r4, #16]
 80077aa:	e6ec      	b.n	8007586 <_scanf_float+0x7a>
 80077ac:	1e6b      	subs	r3, r5, #1
 80077ae:	2b06      	cmp	r3, #6
 80077b0:	d825      	bhi.n	80077fe <_scanf_float+0x2f2>
 80077b2:	2d02      	cmp	r5, #2
 80077b4:	d836      	bhi.n	8007824 <_scanf_float+0x318>
 80077b6:	455e      	cmp	r6, fp
 80077b8:	f67f aee8 	bls.w	800758c <_scanf_float+0x80>
 80077bc:	f8d4 317c 	ldr.w	r3, [r4, #380]	; 0x17c
 80077c0:	f816 1d01 	ldrb.w	r1, [r6, #-1]!
 80077c4:	463a      	mov	r2, r7
 80077c6:	4640      	mov	r0, r8
 80077c8:	4798      	blx	r3
 80077ca:	6923      	ldr	r3, [r4, #16]
 80077cc:	3b01      	subs	r3, #1
 80077ce:	6123      	str	r3, [r4, #16]
 80077d0:	e7f1      	b.n	80077b6 <_scanf_float+0x2aa>
 80077d2:	9802      	ldr	r0, [sp, #8]
 80077d4:	f8d4 317c 	ldr.w	r3, [r4, #380]	; 0x17c
 80077d8:	f810 1d01 	ldrb.w	r1, [r0, #-1]!
 80077dc:	9002      	str	r0, [sp, #8]
 80077de:	463a      	mov	r2, r7
 80077e0:	4640      	mov	r0, r8
 80077e2:	4798      	blx	r3
 80077e4:	6923      	ldr	r3, [r4, #16]
 80077e6:	3b01      	subs	r3, #1
 80077e8:	6123      	str	r3, [r4, #16]
 80077ea:	f10a 3aff 	add.w	sl, sl, #4294967295
 80077ee:	fa5f fa8a 	uxtb.w	sl, sl
 80077f2:	f1ba 0f02 	cmp.w	sl, #2
 80077f6:	d1ec      	bne.n	80077d2 <_scanf_float+0x2c6>
 80077f8:	3d03      	subs	r5, #3
 80077fa:	b2ed      	uxtb	r5, r5
 80077fc:	1b76      	subs	r6, r6, r5
 80077fe:	6823      	ldr	r3, [r4, #0]
 8007800:	05da      	lsls	r2, r3, #23
 8007802:	d52f      	bpl.n	8007864 <_scanf_float+0x358>
 8007804:	055b      	lsls	r3, r3, #21
 8007806:	d510      	bpl.n	800782a <_scanf_float+0x31e>
 8007808:	455e      	cmp	r6, fp
 800780a:	f67f aebf 	bls.w	800758c <_scanf_float+0x80>
 800780e:	f8d4 317c 	ldr.w	r3, [r4, #380]	; 0x17c
 8007812:	f816 1d01 	ldrb.w	r1, [r6, #-1]!
 8007816:	463a      	mov	r2, r7
 8007818:	4640      	mov	r0, r8
 800781a:	4798      	blx	r3
 800781c:	6923      	ldr	r3, [r4, #16]
 800781e:	3b01      	subs	r3, #1
 8007820:	6123      	str	r3, [r4, #16]
 8007822:	e7f1      	b.n	8007808 <_scanf_float+0x2fc>
 8007824:	46aa      	mov	sl, r5
 8007826:	9602      	str	r6, [sp, #8]
 8007828:	e7df      	b.n	80077ea <_scanf_float+0x2de>
 800782a:	f816 1c01 	ldrb.w	r1, [r6, #-1]
 800782e:	6923      	ldr	r3, [r4, #16]
 8007830:	2965      	cmp	r1, #101	; 0x65
 8007832:	f103 33ff 	add.w	r3, r3, #4294967295
 8007836:	f106 35ff 	add.w	r5, r6, #4294967295
 800783a:	6123      	str	r3, [r4, #16]
 800783c:	d00c      	beq.n	8007858 <_scanf_float+0x34c>
 800783e:	2945      	cmp	r1, #69	; 0x45
 8007840:	d00a      	beq.n	8007858 <_scanf_float+0x34c>
 8007842:	f8d4 317c 	ldr.w	r3, [r4, #380]	; 0x17c
 8007846:	463a      	mov	r2, r7
 8007848:	4640      	mov	r0, r8
 800784a:	4798      	blx	r3
 800784c:	6923      	ldr	r3, [r4, #16]
 800784e:	f816 1c02 	ldrb.w	r1, [r6, #-2]
 8007852:	3b01      	subs	r3, #1
 8007854:	1eb5      	subs	r5, r6, #2
 8007856:	6123      	str	r3, [r4, #16]
 8007858:	f8d4 317c 	ldr.w	r3, [r4, #380]	; 0x17c
 800785c:	463a      	mov	r2, r7
 800785e:	4640      	mov	r0, r8
 8007860:	4798      	blx	r3
 8007862:	462e      	mov	r6, r5
 8007864:	6825      	ldr	r5, [r4, #0]
 8007866:	f015 0510 	ands.w	r5, r5, #16
 800786a:	d159      	bne.n	8007920 <_scanf_float+0x414>
 800786c:	7035      	strb	r5, [r6, #0]
 800786e:	6823      	ldr	r3, [r4, #0]
 8007870:	f403 63c0 	and.w	r3, r3, #1536	; 0x600
 8007874:	f5b3 6f80 	cmp.w	r3, #1024	; 0x400
 8007878:	d11b      	bne.n	80078b2 <_scanf_float+0x3a6>
 800787a:	9b01      	ldr	r3, [sp, #4]
 800787c:	454b      	cmp	r3, r9
 800787e:	eba3 0209 	sub.w	r2, r3, r9
 8007882:	d123      	bne.n	80078cc <_scanf_float+0x3c0>
 8007884:	2200      	movs	r2, #0
 8007886:	4659      	mov	r1, fp
 8007888:	4640      	mov	r0, r8
 800788a:	f000 ff27 	bl	80086dc <_strtod_r>
 800788e:	6822      	ldr	r2, [r4, #0]
 8007890:	9b03      	ldr	r3, [sp, #12]
 8007892:	f012 0f02 	tst.w	r2, #2
 8007896:	ec57 6b10 	vmov	r6, r7, d0
 800789a:	681b      	ldr	r3, [r3, #0]
 800789c:	d021      	beq.n	80078e2 <_scanf_float+0x3d6>
 800789e:	9903      	ldr	r1, [sp, #12]
 80078a0:	1d1a      	adds	r2, r3, #4
 80078a2:	600a      	str	r2, [r1, #0]
 80078a4:	681b      	ldr	r3, [r3, #0]
 80078a6:	e9c3 6700 	strd	r6, r7, [r3]
 80078aa:	68e3      	ldr	r3, [r4, #12]
 80078ac:	3301      	adds	r3, #1
 80078ae:	60e3      	str	r3, [r4, #12]
 80078b0:	e66d      	b.n	800758e <_scanf_float+0x82>
 80078b2:	9b04      	ldr	r3, [sp, #16]
 80078b4:	2b00      	cmp	r3, #0
 80078b6:	d0e5      	beq.n	8007884 <_scanf_float+0x378>
 80078b8:	9905      	ldr	r1, [sp, #20]
 80078ba:	230a      	movs	r3, #10
 80078bc:	462a      	mov	r2, r5
 80078be:	3101      	adds	r1, #1
 80078c0:	4640      	mov	r0, r8
 80078c2:	f000 ff93 	bl	80087ec <_strtol_r>
 80078c6:	9b04      	ldr	r3, [sp, #16]
 80078c8:	9e05      	ldr	r6, [sp, #20]
 80078ca:	1ac2      	subs	r2, r0, r3
 80078cc:	f204 136f 	addw	r3, r4, #367	; 0x16f
 80078d0:	429e      	cmp	r6, r3
 80078d2:	bf28      	it	cs
 80078d4:	f504 76b7 	addcs.w	r6, r4, #366	; 0x16e
 80078d8:	4912      	ldr	r1, [pc, #72]	; (8007924 <_scanf_float+0x418>)
 80078da:	4630      	mov	r0, r6
 80078dc:	f000 f8ba 	bl	8007a54 <siprintf>
 80078e0:	e7d0      	b.n	8007884 <_scanf_float+0x378>
 80078e2:	9903      	ldr	r1, [sp, #12]
 80078e4:	f012 0f04 	tst.w	r2, #4
 80078e8:	f103 0204 	add.w	r2, r3, #4
 80078ec:	600a      	str	r2, [r1, #0]
 80078ee:	d1d9      	bne.n	80078a4 <_scanf_float+0x398>
 80078f0:	f8d3 8000 	ldr.w	r8, [r3]
 80078f4:	ee10 2a10 	vmov	r2, s0
 80078f8:	ee10 0a10 	vmov	r0, s0
 80078fc:	463b      	mov	r3, r7
 80078fe:	4639      	mov	r1, r7
 8007900:	f7f9 f914 	bl	8000b2c <__aeabi_dcmpun>
 8007904:	b128      	cbz	r0, 8007912 <_scanf_float+0x406>
 8007906:	4808      	ldr	r0, [pc, #32]	; (8007928 <_scanf_float+0x41c>)
 8007908:	f000 f89e 	bl	8007a48 <nanf>
 800790c:	ed88 0a00 	vstr	s0, [r8]
 8007910:	e7cb      	b.n	80078aa <_scanf_float+0x39e>
 8007912:	4630      	mov	r0, r6
 8007914:	4639      	mov	r1, r7
 8007916:	f7f9 f967 	bl	8000be8 <__aeabi_d2f>
 800791a:	f8c8 0000 	str.w	r0, [r8]
 800791e:	e7c4      	b.n	80078aa <_scanf_float+0x39e>
 8007920:	2500      	movs	r5, #0
 8007922:	e634      	b.n	800758e <_scanf_float+0x82>
 8007924:	0800b8c8 	.word	0x0800b8c8
 8007928:	0800bd38 	.word	0x0800bd38

0800792c <iprintf>:
 800792c:	b40f      	push	{r0, r1, r2, r3}
 800792e:	4b0a      	ldr	r3, [pc, #40]	; (8007958 <iprintf+0x2c>)
 8007930:	b513      	push	{r0, r1, r4, lr}
 8007932:	681c      	ldr	r4, [r3, #0]
 8007934:	b124      	cbz	r4, 8007940 <iprintf+0x14>
 8007936:	69a3      	ldr	r3, [r4, #24]
 8007938:	b913      	cbnz	r3, 8007940 <iprintf+0x14>
 800793a:	4620      	mov	r0, r4
 800793c:	f001 ffac 	bl	8009898 <__sinit>
 8007940:	ab05      	add	r3, sp, #20
 8007942:	9a04      	ldr	r2, [sp, #16]
 8007944:	68a1      	ldr	r1, [r4, #8]
 8007946:	9301      	str	r3, [sp, #4]
 8007948:	4620      	mov	r0, r4
 800794a:	f003 fb83 	bl	800b054 <_vfiprintf_r>
 800794e:	b002      	add	sp, #8
 8007950:	e8bd 4010 	ldmia.w	sp!, {r4, lr}
 8007954:	b004      	add	sp, #16
 8007956:	4770      	bx	lr
 8007958:	20000010 	.word	0x20000010

0800795c <_puts_r>:
 800795c:	b570      	push	{r4, r5, r6, lr}
 800795e:	460e      	mov	r6, r1
 8007960:	4605      	mov	r5, r0
 8007962:	b118      	cbz	r0, 800796c <_puts_r+0x10>
 8007964:	6983      	ldr	r3, [r0, #24]
 8007966:	b90b      	cbnz	r3, 800796c <_puts_r+0x10>
 8007968:	f001 ff96 	bl	8009898 <__sinit>
 800796c:	69ab      	ldr	r3, [r5, #24]
 800796e:	68ac      	ldr	r4, [r5, #8]
 8007970:	b913      	cbnz	r3, 8007978 <_puts_r+0x1c>
 8007972:	4628      	mov	r0, r5
 8007974:	f001 ff90 	bl	8009898 <__sinit>
 8007978:	4b2c      	ldr	r3, [pc, #176]	; (8007a2c <_puts_r+0xd0>)
 800797a:	429c      	cmp	r4, r3
 800797c:	d120      	bne.n	80079c0 <_puts_r+0x64>
 800797e:	686c      	ldr	r4, [r5, #4]
 8007980:	6e63      	ldr	r3, [r4, #100]	; 0x64
 8007982:	07db      	lsls	r3, r3, #31
 8007984:	d405      	bmi.n	8007992 <_puts_r+0x36>
 8007986:	89a3      	ldrh	r3, [r4, #12]
 8007988:	0598      	lsls	r0, r3, #22
 800798a:	d402      	bmi.n	8007992 <_puts_r+0x36>
 800798c:	6da0      	ldr	r0, [r4, #88]	; 0x58
 800798e:	f002 fb94 	bl	800a0ba <__retarget_lock_acquire_recursive>
 8007992:	89a3      	ldrh	r3, [r4, #12]
 8007994:	0719      	lsls	r1, r3, #28
 8007996:	d51d      	bpl.n	80079d4 <_puts_r+0x78>
 8007998:	6923      	ldr	r3, [r4, #16]
 800799a:	b1db      	cbz	r3, 80079d4 <_puts_r+0x78>
 800799c:	3e01      	subs	r6, #1
 800799e:	68a3      	ldr	r3, [r4, #8]
 80079a0:	f816 1f01 	ldrb.w	r1, [r6, #1]!
 80079a4:	3b01      	subs	r3, #1
 80079a6:	60a3      	str	r3, [r4, #8]
 80079a8:	bb39      	cbnz	r1, 80079fa <_puts_r+0x9e>
 80079aa:	2b00      	cmp	r3, #0
 80079ac:	da38      	bge.n	8007a20 <_puts_r+0xc4>
 80079ae:	4622      	mov	r2, r4
 80079b0:	210a      	movs	r1, #10
 80079b2:	4628      	mov	r0, r5
 80079b4:	f000 ff1c 	bl	80087f0 <__swbuf_r>
 80079b8:	3001      	adds	r0, #1
 80079ba:	d011      	beq.n	80079e0 <_puts_r+0x84>
 80079bc:	250a      	movs	r5, #10
 80079be:	e011      	b.n	80079e4 <_puts_r+0x88>
 80079c0:	4b1b      	ldr	r3, [pc, #108]	; (8007a30 <_puts_r+0xd4>)
 80079c2:	429c      	cmp	r4, r3
 80079c4:	d101      	bne.n	80079ca <_puts_r+0x6e>
 80079c6:	68ac      	ldr	r4, [r5, #8]
 80079c8:	e7da      	b.n	8007980 <_puts_r+0x24>
 80079ca:	4b1a      	ldr	r3, [pc, #104]	; (8007a34 <_puts_r+0xd8>)
 80079cc:	429c      	cmp	r4, r3
 80079ce:	bf08      	it	eq
 80079d0:	68ec      	ldreq	r4, [r5, #12]
 80079d2:	e7d5      	b.n	8007980 <_puts_r+0x24>
 80079d4:	4621      	mov	r1, r4
 80079d6:	4628      	mov	r0, r5
 80079d8:	f000 ff5c 	bl	8008894 <__swsetup_r>
 80079dc:	2800      	cmp	r0, #0
 80079de:	d0dd      	beq.n	800799c <_puts_r+0x40>
 80079e0:	f04f 35ff 	mov.w	r5, #4294967295
 80079e4:	6e63      	ldr	r3, [r4, #100]	; 0x64
 80079e6:	07da      	lsls	r2, r3, #31
 80079e8:	d405      	bmi.n	80079f6 <_puts_r+0x9a>
 80079ea:	89a3      	ldrh	r3, [r4, #12]
 80079ec:	059b      	lsls	r3, r3, #22
 80079ee:	d402      	bmi.n	80079f6 <_puts_r+0x9a>
 80079f0:	6da0      	ldr	r0, [r4, #88]	; 0x58
 80079f2:	f002 fb63 	bl	800a0bc <__retarget_lock_release_recursive>
 80079f6:	4628      	mov	r0, r5
 80079f8:	bd70      	pop	{r4, r5, r6, pc}
 80079fa:	2b00      	cmp	r3, #0
 80079fc:	da04      	bge.n	8007a08 <_puts_r+0xac>
 80079fe:	69a2      	ldr	r2, [r4, #24]
 8007a00:	429a      	cmp	r2, r3
 8007a02:	dc06      	bgt.n	8007a12 <_puts_r+0xb6>
 8007a04:	290a      	cmp	r1, #10
 8007a06:	d004      	beq.n	8007a12 <_puts_r+0xb6>
 8007a08:	6823      	ldr	r3, [r4, #0]
 8007a0a:	1c5a      	adds	r2, r3, #1
 8007a0c:	6022      	str	r2, [r4, #0]
 8007a0e:	7019      	strb	r1, [r3, #0]
 8007a10:	e7c5      	b.n	800799e <_puts_r+0x42>
 8007a12:	4622      	mov	r2, r4
 8007a14:	4628      	mov	r0, r5
 8007a16:	f000 feeb 	bl	80087f0 <__swbuf_r>
 8007a1a:	3001      	adds	r0, #1
 8007a1c:	d1bf      	bne.n	800799e <_puts_r+0x42>
 8007a1e:	e7df      	b.n	80079e0 <_puts_r+0x84>
 8007a20:	6823      	ldr	r3, [r4, #0]
 8007a22:	250a      	movs	r5, #10
 8007a24:	1c5a      	adds	r2, r3, #1
 8007a26:	6022      	str	r2, [r4, #0]
 8007a28:	701d      	strb	r5, [r3, #0]
 8007a2a:	e7db      	b.n	80079e4 <_puts_r+0x88>
 8007a2c:	0800bad4 	.word	0x0800bad4
 8007a30:	0800baf4 	.word	0x0800baf4
 8007a34:	0800bab4 	.word	0x0800bab4

08007a38 <puts>:
 8007a38:	4b02      	ldr	r3, [pc, #8]	; (8007a44 <puts+0xc>)
 8007a3a:	4601      	mov	r1, r0
 8007a3c:	6818      	ldr	r0, [r3, #0]
 8007a3e:	f7ff bf8d 	b.w	800795c <_puts_r>
 8007a42:	bf00      	nop
 8007a44:	20000010 	.word	0x20000010

08007a48 <nanf>:
 8007a48:	ed9f 0a01 	vldr	s0, [pc, #4]	; 8007a50 <nanf+0x8>
 8007a4c:	4770      	bx	lr
 8007a4e:	bf00      	nop
 8007a50:	7fc00000 	.word	0x7fc00000

08007a54 <siprintf>:
 8007a54:	b40e      	push	{r1, r2, r3}
 8007a56:	b500      	push	{lr}
 8007a58:	b09c      	sub	sp, #112	; 0x70
 8007a5a:	ab1d      	add	r3, sp, #116	; 0x74
 8007a5c:	9002      	str	r0, [sp, #8]
 8007a5e:	9006      	str	r0, [sp, #24]
 8007a60:	f06f 4100 	mvn.w	r1, #2147483648	; 0x80000000
 8007a64:	4809      	ldr	r0, [pc, #36]	; (8007a8c <siprintf+0x38>)
 8007a66:	9107      	str	r1, [sp, #28]
 8007a68:	9104      	str	r1, [sp, #16]
 8007a6a:	4909      	ldr	r1, [pc, #36]	; (8007a90 <siprintf+0x3c>)
 8007a6c:	f853 2b04 	ldr.w	r2, [r3], #4
 8007a70:	9105      	str	r1, [sp, #20]
 8007a72:	6800      	ldr	r0, [r0, #0]
 8007a74:	9301      	str	r3, [sp, #4]
 8007a76:	a902      	add	r1, sp, #8
 8007a78:	f003 f9c2 	bl	800ae00 <_svfiprintf_r>
 8007a7c:	9b02      	ldr	r3, [sp, #8]
 8007a7e:	2200      	movs	r2, #0
 8007a80:	701a      	strb	r2, [r3, #0]
 8007a82:	b01c      	add	sp, #112	; 0x70
 8007a84:	f85d eb04 	ldr.w	lr, [sp], #4
 8007a88:	b003      	add	sp, #12
 8007a8a:	4770      	bx	lr
 8007a8c:	20000010 	.word	0x20000010
 8007a90:	ffff0208 	.word	0xffff0208

08007a94 <sulp>:
 8007a94:	b570      	push	{r4, r5, r6, lr}
 8007a96:	4604      	mov	r4, r0
 8007a98:	460d      	mov	r5, r1
 8007a9a:	ec45 4b10 	vmov	d0, r4, r5
 8007a9e:	4616      	mov	r6, r2
 8007aa0:	f002 ff0c 	bl	800a8bc <__ulp>
 8007aa4:	ec51 0b10 	vmov	r0, r1, d0
 8007aa8:	b17e      	cbz	r6, 8007aca <sulp+0x36>
 8007aaa:	f3c5 530a 	ubfx	r3, r5, #20, #11
 8007aae:	f1c3 036b 	rsb	r3, r3, #107	; 0x6b
 8007ab2:	2b00      	cmp	r3, #0
 8007ab4:	dd09      	ble.n	8007aca <sulp+0x36>
 8007ab6:	051b      	lsls	r3, r3, #20
 8007ab8:	f103 557f 	add.w	r5, r3, #1069547520	; 0x3fc00000
 8007abc:	2400      	movs	r4, #0
 8007abe:	f505 1540 	add.w	r5, r5, #3145728	; 0x300000
 8007ac2:	4622      	mov	r2, r4
 8007ac4:	462b      	mov	r3, r5
 8007ac6:	f7f8 fd97 	bl	80005f8 <__aeabi_dmul>
 8007aca:	bd70      	pop	{r4, r5, r6, pc}
 8007acc:	0000      	movs	r0, r0
	...

08007ad0 <_strtod_l>:
 8007ad0:	e92d 4ff0 	stmdb	sp!, {r4, r5, r6, r7, r8, r9, sl, fp, lr}
 8007ad4:	ed2d 8b02 	vpush	{d8}
 8007ad8:	b09d      	sub	sp, #116	; 0x74
 8007ada:	461f      	mov	r7, r3
 8007adc:	2300      	movs	r3, #0
 8007ade:	9318      	str	r3, [sp, #96]	; 0x60
 8007ae0:	4ba2      	ldr	r3, [pc, #648]	; (8007d6c <_strtod_l+0x29c>)
 8007ae2:	9213      	str	r2, [sp, #76]	; 0x4c
 8007ae4:	681b      	ldr	r3, [r3, #0]
 8007ae6:	9305      	str	r3, [sp, #20]
 8007ae8:	4604      	mov	r4, r0
 8007aea:	4618      	mov	r0, r3
 8007aec:	4688      	mov	r8, r1
 8007aee:	f7f8 fb6f 	bl	80001d0 <strlen>
 8007af2:	f04f 0a00 	mov.w	sl, #0
 8007af6:	4605      	mov	r5, r0
 8007af8:	f04f 0b00 	mov.w	fp, #0
 8007afc:	f8cd 805c 	str.w	r8, [sp, #92]	; 0x5c
 8007b00:	9b17      	ldr	r3, [sp, #92]	; 0x5c
 8007b02:	781a      	ldrb	r2, [r3, #0]
 8007b04:	2a2b      	cmp	r2, #43	; 0x2b
 8007b06:	d04e      	beq.n	8007ba6 <_strtod_l+0xd6>
 8007b08:	d83b      	bhi.n	8007b82 <_strtod_l+0xb2>
 8007b0a:	2a0d      	cmp	r2, #13
 8007b0c:	d834      	bhi.n	8007b78 <_strtod_l+0xa8>
 8007b0e:	2a08      	cmp	r2, #8
 8007b10:	d834      	bhi.n	8007b7c <_strtod_l+0xac>
 8007b12:	2a00      	cmp	r2, #0
 8007b14:	d03e      	beq.n	8007b94 <_strtod_l+0xc4>
 8007b16:	2300      	movs	r3, #0
 8007b18:	930a      	str	r3, [sp, #40]	; 0x28
 8007b1a:	9e17      	ldr	r6, [sp, #92]	; 0x5c
 8007b1c:	7833      	ldrb	r3, [r6, #0]
 8007b1e:	2b30      	cmp	r3, #48	; 0x30
 8007b20:	f040 80b0 	bne.w	8007c84 <_strtod_l+0x1b4>
 8007b24:	7873      	ldrb	r3, [r6, #1]
 8007b26:	f003 03df 	and.w	r3, r3, #223	; 0xdf
 8007b2a:	2b58      	cmp	r3, #88	; 0x58
 8007b2c:	d168      	bne.n	8007c00 <_strtod_l+0x130>
 8007b2e:	9b0a      	ldr	r3, [sp, #40]	; 0x28
 8007b30:	9301      	str	r3, [sp, #4]
 8007b32:	ab18      	add	r3, sp, #96	; 0x60
 8007b34:	9702      	str	r7, [sp, #8]
 8007b36:	9300      	str	r3, [sp, #0]
 8007b38:	4a8d      	ldr	r2, [pc, #564]	; (8007d70 <_strtod_l+0x2a0>)
 8007b3a:	ab19      	add	r3, sp, #100	; 0x64
 8007b3c:	a917      	add	r1, sp, #92	; 0x5c
 8007b3e:	4620      	mov	r0, r4
 8007b40:	f001 ffae 	bl	8009aa0 <__gethex>
 8007b44:	f010 0707 	ands.w	r7, r0, #7
 8007b48:	4605      	mov	r5, r0
 8007b4a:	d005      	beq.n	8007b58 <_strtod_l+0x88>
 8007b4c:	2f06      	cmp	r7, #6
 8007b4e:	d12c      	bne.n	8007baa <_strtod_l+0xda>
 8007b50:	3601      	adds	r6, #1
 8007b52:	2300      	movs	r3, #0
 8007b54:	9617      	str	r6, [sp, #92]	; 0x5c
 8007b56:	930a      	str	r3, [sp, #40]	; 0x28
 8007b58:	9b13      	ldr	r3, [sp, #76]	; 0x4c
 8007b5a:	2b00      	cmp	r3, #0
 8007b5c:	f040 8590 	bne.w	8008680 <_strtod_l+0xbb0>
 8007b60:	9b0a      	ldr	r3, [sp, #40]	; 0x28
 8007b62:	b1eb      	cbz	r3, 8007ba0 <_strtod_l+0xd0>
 8007b64:	4652      	mov	r2, sl
 8007b66:	f10b 4300 	add.w	r3, fp, #2147483648	; 0x80000000
 8007b6a:	ec43 2b10 	vmov	d0, r2, r3
 8007b6e:	b01d      	add	sp, #116	; 0x74
 8007b70:	ecbd 8b02 	vpop	{d8}
 8007b74:	e8bd 8ff0 	ldmia.w	sp!, {r4, r5, r6, r7, r8, r9, sl, fp, pc}
 8007b78:	2a20      	cmp	r2, #32
 8007b7a:	d1cc      	bne.n	8007b16 <_strtod_l+0x46>
 8007b7c:	3301      	adds	r3, #1
 8007b7e:	9317      	str	r3, [sp, #92]	; 0x5c
 8007b80:	e7be      	b.n	8007b00 <_strtod_l+0x30>
 8007b82:	2a2d      	cmp	r2, #45	; 0x2d
 8007b84:	d1c7      	bne.n	8007b16 <_strtod_l+0x46>
 8007b86:	2201      	movs	r2, #1
 8007b88:	920a      	str	r2, [sp, #40]	; 0x28
 8007b8a:	1c5a      	adds	r2, r3, #1
 8007b8c:	9217      	str	r2, [sp, #92]	; 0x5c
 8007b8e:	785b      	ldrb	r3, [r3, #1]
 8007b90:	2b00      	cmp	r3, #0
 8007b92:	d1c2      	bne.n	8007b1a <_strtod_l+0x4a>
 8007b94:	9b13      	ldr	r3, [sp, #76]	; 0x4c
 8007b96:	f8cd 805c 	str.w	r8, [sp, #92]	; 0x5c
 8007b9a:	2b00      	cmp	r3, #0
 8007b9c:	f040 856e 	bne.w	800867c <_strtod_l+0xbac>
 8007ba0:	4652      	mov	r2, sl
 8007ba2:	465b      	mov	r3, fp
 8007ba4:	e7e1      	b.n	8007b6a <_strtod_l+0x9a>
 8007ba6:	2200      	movs	r2, #0
 8007ba8:	e7ee      	b.n	8007b88 <_strtod_l+0xb8>
 8007baa:	9a18      	ldr	r2, [sp, #96]	; 0x60
 8007bac:	b13a      	cbz	r2, 8007bbe <_strtod_l+0xee>
 8007bae:	2135      	movs	r1, #53	; 0x35
 8007bb0:	a81a      	add	r0, sp, #104	; 0x68
 8007bb2:	f002 ff8e 	bl	800aad2 <__copybits>
 8007bb6:	9918      	ldr	r1, [sp, #96]	; 0x60
 8007bb8:	4620      	mov	r0, r4
 8007bba:	f002 fb4d 	bl	800a258 <_Bfree>
 8007bbe:	3f01      	subs	r7, #1
 8007bc0:	2f04      	cmp	r7, #4
 8007bc2:	d806      	bhi.n	8007bd2 <_strtod_l+0x102>
 8007bc4:	e8df f007 	tbb	[pc, r7]
 8007bc8:	1714030a 	.word	0x1714030a
 8007bcc:	0a          	.byte	0x0a
 8007bcd:	00          	.byte	0x00
 8007bce:	e9dd ab1a 	ldrd	sl, fp, [sp, #104]	; 0x68
 8007bd2:	0728      	lsls	r0, r5, #28
 8007bd4:	d5c0      	bpl.n	8007b58 <_strtod_l+0x88>
 8007bd6:	f04b 4b00 	orr.w	fp, fp, #2147483648	; 0x80000000
 8007bda:	e7bd      	b.n	8007b58 <_strtod_l+0x88>
 8007bdc:	e9dd a31a 	ldrd	sl, r3, [sp, #104]	; 0x68
 8007be0:	9a19      	ldr	r2, [sp, #100]	; 0x64
 8007be2:	f423 1380 	bic.w	r3, r3, #1048576	; 0x100000
 8007be6:	f202 4233 	addw	r2, r2, #1075	; 0x433
 8007bea:	ea43 5b02 	orr.w	fp, r3, r2, lsl #20
 8007bee:	e7f0      	b.n	8007bd2 <_strtod_l+0x102>
 8007bf0:	f8df b180 	ldr.w	fp, [pc, #384]	; 8007d74 <_strtod_l+0x2a4>
 8007bf4:	e7ed      	b.n	8007bd2 <_strtod_l+0x102>
 8007bf6:	f06f 4b00 	mvn.w	fp, #2147483648	; 0x80000000
 8007bfa:	f04f 3aff 	mov.w	sl, #4294967295
 8007bfe:	e7e8      	b.n	8007bd2 <_strtod_l+0x102>
 8007c00:	9b17      	ldr	r3, [sp, #92]	; 0x5c
 8007c02:	1c5a      	adds	r2, r3, #1
 8007c04:	9217      	str	r2, [sp, #92]	; 0x5c
 8007c06:	785b      	ldrb	r3, [r3, #1]
 8007c08:	2b30      	cmp	r3, #48	; 0x30
 8007c0a:	d0f9      	beq.n	8007c00 <_strtod_l+0x130>
 8007c0c:	2b00      	cmp	r3, #0
 8007c0e:	d0a3      	beq.n	8007b58 <_strtod_l+0x88>
 8007c10:	2301      	movs	r3, #1
 8007c12:	f04f 0900 	mov.w	r9, #0
 8007c16:	9304      	str	r3, [sp, #16]
 8007c18:	9b17      	ldr	r3, [sp, #92]	; 0x5c
 8007c1a:	9308      	str	r3, [sp, #32]
 8007c1c:	f8cd 901c 	str.w	r9, [sp, #28]
 8007c20:	464f      	mov	r7, r9
 8007c22:	220a      	movs	r2, #10
 8007c24:	9817      	ldr	r0, [sp, #92]	; 0x5c
 8007c26:	7806      	ldrb	r6, [r0, #0]
 8007c28:	f1a6 0330 	sub.w	r3, r6, #48	; 0x30
 8007c2c:	b2d9      	uxtb	r1, r3
 8007c2e:	2909      	cmp	r1, #9
 8007c30:	d92a      	bls.n	8007c88 <_strtod_l+0x1b8>
 8007c32:	9905      	ldr	r1, [sp, #20]
 8007c34:	462a      	mov	r2, r5
 8007c36:	f003 fb9a 	bl	800b36e <strncmp>
 8007c3a:	b398      	cbz	r0, 8007ca4 <_strtod_l+0x1d4>
 8007c3c:	2000      	movs	r0, #0
 8007c3e:	4632      	mov	r2, r6
 8007c40:	463d      	mov	r5, r7
 8007c42:	9005      	str	r0, [sp, #20]
 8007c44:	4603      	mov	r3, r0
 8007c46:	2a65      	cmp	r2, #101	; 0x65
 8007c48:	d001      	beq.n	8007c4e <_strtod_l+0x17e>
 8007c4a:	2a45      	cmp	r2, #69	; 0x45
 8007c4c:	d118      	bne.n	8007c80 <_strtod_l+0x1b0>
 8007c4e:	b91d      	cbnz	r5, 8007c58 <_strtod_l+0x188>
 8007c50:	9a04      	ldr	r2, [sp, #16]
 8007c52:	4302      	orrs	r2, r0
 8007c54:	d09e      	beq.n	8007b94 <_strtod_l+0xc4>
 8007c56:	2500      	movs	r5, #0
 8007c58:	f8dd 805c 	ldr.w	r8, [sp, #92]	; 0x5c
 8007c5c:	f108 0201 	add.w	r2, r8, #1
 8007c60:	9217      	str	r2, [sp, #92]	; 0x5c
 8007c62:	f898 2001 	ldrb.w	r2, [r8, #1]
 8007c66:	2a2b      	cmp	r2, #43	; 0x2b
 8007c68:	d075      	beq.n	8007d56 <_strtod_l+0x286>
 8007c6a:	2a2d      	cmp	r2, #45	; 0x2d
 8007c6c:	d07b      	beq.n	8007d66 <_strtod_l+0x296>
 8007c6e:	f04f 0c00 	mov.w	ip, #0
 8007c72:	f1a2 0130 	sub.w	r1, r2, #48	; 0x30
 8007c76:	2909      	cmp	r1, #9
 8007c78:	f240 8082 	bls.w	8007d80 <_strtod_l+0x2b0>
 8007c7c:	f8cd 805c 	str.w	r8, [sp, #92]	; 0x5c
 8007c80:	2600      	movs	r6, #0
 8007c82:	e09d      	b.n	8007dc0 <_strtod_l+0x2f0>
 8007c84:	2300      	movs	r3, #0
 8007c86:	e7c4      	b.n	8007c12 <_strtod_l+0x142>
 8007c88:	2f08      	cmp	r7, #8
 8007c8a:	bfd8      	it	le
 8007c8c:	9907      	ldrle	r1, [sp, #28]
 8007c8e:	f100 0001 	add.w	r0, r0, #1
 8007c92:	bfda      	itte	le
 8007c94:	fb02 3301 	mlale	r3, r2, r1, r3
 8007c98:	9307      	strle	r3, [sp, #28]
 8007c9a:	fb02 3909 	mlagt	r9, r2, r9, r3
 8007c9e:	3701      	adds	r7, #1
 8007ca0:	9017      	str	r0, [sp, #92]	; 0x5c
 8007ca2:	e7bf      	b.n	8007c24 <_strtod_l+0x154>
 8007ca4:	9b17      	ldr	r3, [sp, #92]	; 0x5c
 8007ca6:	195a      	adds	r2, r3, r5
 8007ca8:	9217      	str	r2, [sp, #92]	; 0x5c
 8007caa:	5d5a      	ldrb	r2, [r3, r5]
 8007cac:	2f00      	cmp	r7, #0
 8007cae:	d037      	beq.n	8007d20 <_strtod_l+0x250>
 8007cb0:	9005      	str	r0, [sp, #20]
 8007cb2:	463d      	mov	r5, r7
 8007cb4:	f1a2 0330 	sub.w	r3, r2, #48	; 0x30
 8007cb8:	2b09      	cmp	r3, #9
 8007cba:	d912      	bls.n	8007ce2 <_strtod_l+0x212>
 8007cbc:	2301      	movs	r3, #1
 8007cbe:	e7c2      	b.n	8007c46 <_strtod_l+0x176>
 8007cc0:	9b17      	ldr	r3, [sp, #92]	; 0x5c
 8007cc2:	1c5a      	adds	r2, r3, #1
 8007cc4:	9217      	str	r2, [sp, #92]	; 0x5c
 8007cc6:	785a      	ldrb	r2, [r3, #1]
 8007cc8:	3001      	adds	r0, #1
 8007cca:	2a30      	cmp	r2, #48	; 0x30
 8007ccc:	d0f8      	beq.n	8007cc0 <_strtod_l+0x1f0>
 8007cce:	f1a2 0331 	sub.w	r3, r2, #49	; 0x31
 8007cd2:	2b08      	cmp	r3, #8
 8007cd4:	f200 84d9 	bhi.w	800868a <_strtod_l+0xbba>
 8007cd8:	9b17      	ldr	r3, [sp, #92]	; 0x5c
 8007cda:	9005      	str	r0, [sp, #20]
 8007cdc:	2000      	movs	r0, #0
 8007cde:	9308      	str	r3, [sp, #32]
 8007ce0:	4605      	mov	r5, r0
 8007ce2:	3a30      	subs	r2, #48	; 0x30
 8007ce4:	f100 0301 	add.w	r3, r0, #1
 8007ce8:	d014      	beq.n	8007d14 <_strtod_l+0x244>
 8007cea:	9905      	ldr	r1, [sp, #20]
 8007cec:	4419      	add	r1, r3
 8007cee:	9105      	str	r1, [sp, #20]
 8007cf0:	462b      	mov	r3, r5
 8007cf2:	eb00 0e05 	add.w	lr, r0, r5
 8007cf6:	210a      	movs	r1, #10
 8007cf8:	4573      	cmp	r3, lr
 8007cfa:	d113      	bne.n	8007d24 <_strtod_l+0x254>
 8007cfc:	182b      	adds	r3, r5, r0
 8007cfe:	2b08      	cmp	r3, #8
 8007d00:	f105 0501 	add.w	r5, r5, #1
 8007d04:	4405      	add	r5, r0
 8007d06:	dc1c      	bgt.n	8007d42 <_strtod_l+0x272>
 8007d08:	9907      	ldr	r1, [sp, #28]
 8007d0a:	230a      	movs	r3, #10
 8007d0c:	fb03 2301 	mla	r3, r3, r1, r2
 8007d10:	9307      	str	r3, [sp, #28]
 8007d12:	2300      	movs	r3, #0
 8007d14:	9a17      	ldr	r2, [sp, #92]	; 0x5c
 8007d16:	1c51      	adds	r1, r2, #1
 8007d18:	9117      	str	r1, [sp, #92]	; 0x5c
 8007d1a:	7852      	ldrb	r2, [r2, #1]
 8007d1c:	4618      	mov	r0, r3
 8007d1e:	e7c9      	b.n	8007cb4 <_strtod_l+0x1e4>
 8007d20:	4638      	mov	r0, r7
 8007d22:	e7d2      	b.n	8007cca <_strtod_l+0x1fa>
 8007d24:	2b08      	cmp	r3, #8
 8007d26:	dc04      	bgt.n	8007d32 <_strtod_l+0x262>
 8007d28:	9e07      	ldr	r6, [sp, #28]
 8007d2a:	434e      	muls	r6, r1
 8007d2c:	9607      	str	r6, [sp, #28]
 8007d2e:	3301      	adds	r3, #1
 8007d30:	e7e2      	b.n	8007cf8 <_strtod_l+0x228>
 8007d32:	f103 0c01 	add.w	ip, r3, #1
 8007d36:	f1bc 0f10 	cmp.w	ip, #16
 8007d3a:	bfd8      	it	le
 8007d3c:	fb01 f909 	mulle.w	r9, r1, r9
 8007d40:	e7f5      	b.n	8007d2e <_strtod_l+0x25e>
 8007d42:	2d10      	cmp	r5, #16
 8007d44:	bfdc      	itt	le
 8007d46:	230a      	movle	r3, #10
 8007d48:	fb03 2909 	mlale	r9, r3, r9, r2
 8007d4c:	e7e1      	b.n	8007d12 <_strtod_l+0x242>
 8007d4e:	2300      	movs	r3, #0
 8007d50:	9305      	str	r3, [sp, #20]
 8007d52:	2301      	movs	r3, #1
 8007d54:	e77c      	b.n	8007c50 <_strtod_l+0x180>
 8007d56:	f04f 0c00 	mov.w	ip, #0
 8007d5a:	f108 0202 	add.w	r2, r8, #2
 8007d5e:	9217      	str	r2, [sp, #92]	; 0x5c
 8007d60:	f898 2002 	ldrb.w	r2, [r8, #2]
 8007d64:	e785      	b.n	8007c72 <_strtod_l+0x1a2>
 8007d66:	f04f 0c01 	mov.w	ip, #1
 8007d6a:	e7f6      	b.n	8007d5a <_strtod_l+0x28a>
 8007d6c:	0800bb7c 	.word	0x0800bb7c
 8007d70:	0800b8d0 	.word	0x0800b8d0
 8007d74:	7ff00000 	.word	0x7ff00000
 8007d78:	9a17      	ldr	r2, [sp, #92]	; 0x5c
 8007d7a:	1c51      	adds	r1, r2, #1
 8007d7c:	9117      	str	r1, [sp, #92]	; 0x5c
 8007d7e:	7852      	ldrb	r2, [r2, #1]
 8007d80:	2a30      	cmp	r2, #48	; 0x30
 8007d82:	d0f9      	beq.n	8007d78 <_strtod_l+0x2a8>
 8007d84:	f1a2 0131 	sub.w	r1, r2, #49	; 0x31
 8007d88:	2908      	cmp	r1, #8
 8007d8a:	f63f af79 	bhi.w	8007c80 <_strtod_l+0x1b0>
 8007d8e:	f1a2 0e30 	sub.w	lr, r2, #48	; 0x30
 8007d92:	9a17      	ldr	r2, [sp, #92]	; 0x5c
 8007d94:	9206      	str	r2, [sp, #24]
 8007d96:	9a17      	ldr	r2, [sp, #92]	; 0x5c
 8007d98:	1c51      	adds	r1, r2, #1
 8007d9a:	9117      	str	r1, [sp, #92]	; 0x5c
 8007d9c:	7852      	ldrb	r2, [r2, #1]
 8007d9e:	f1a2 0630 	sub.w	r6, r2, #48	; 0x30
 8007da2:	2e09      	cmp	r6, #9
 8007da4:	d937      	bls.n	8007e16 <_strtod_l+0x346>
 8007da6:	9e06      	ldr	r6, [sp, #24]
 8007da8:	1b89      	subs	r1, r1, r6
 8007daa:	2908      	cmp	r1, #8
 8007dac:	f644 661f 	movw	r6, #19999	; 0x4e1f
 8007db0:	dc02      	bgt.n	8007db8 <_strtod_l+0x2e8>
 8007db2:	4576      	cmp	r6, lr
 8007db4:	bfa8      	it	ge
 8007db6:	4676      	movge	r6, lr
 8007db8:	f1bc 0f00 	cmp.w	ip, #0
 8007dbc:	d000      	beq.n	8007dc0 <_strtod_l+0x2f0>
 8007dbe:	4276      	negs	r6, r6
 8007dc0:	2d00      	cmp	r5, #0
 8007dc2:	d14d      	bne.n	8007e60 <_strtod_l+0x390>
 8007dc4:	9904      	ldr	r1, [sp, #16]
 8007dc6:	4301      	orrs	r1, r0
 8007dc8:	f47f aec6 	bne.w	8007b58 <_strtod_l+0x88>
 8007dcc:	2b00      	cmp	r3, #0
 8007dce:	f47f aee1 	bne.w	8007b94 <_strtod_l+0xc4>
 8007dd2:	2a69      	cmp	r2, #105	; 0x69
 8007dd4:	d027      	beq.n	8007e26 <_strtod_l+0x356>
 8007dd6:	dc24      	bgt.n	8007e22 <_strtod_l+0x352>
 8007dd8:	2a49      	cmp	r2, #73	; 0x49
 8007dda:	d024      	beq.n	8007e26 <_strtod_l+0x356>
 8007ddc:	2a4e      	cmp	r2, #78	; 0x4e
 8007dde:	f47f aed9 	bne.w	8007b94 <_strtod_l+0xc4>
 8007de2:	499f      	ldr	r1, [pc, #636]	; (8008060 <_strtod_l+0x590>)
 8007de4:	a817      	add	r0, sp, #92	; 0x5c
 8007de6:	f002 f8b3 	bl	8009f50 <__match>
 8007dea:	2800      	cmp	r0, #0
 8007dec:	f43f aed2 	beq.w	8007b94 <_strtod_l+0xc4>
 8007df0:	9b17      	ldr	r3, [sp, #92]	; 0x5c
 8007df2:	781b      	ldrb	r3, [r3, #0]
 8007df4:	2b28      	cmp	r3, #40	; 0x28
 8007df6:	d12d      	bne.n	8007e54 <_strtod_l+0x384>
 8007df8:	499a      	ldr	r1, [pc, #616]	; (8008064 <_strtod_l+0x594>)
 8007dfa:	aa1a      	add	r2, sp, #104	; 0x68
 8007dfc:	a817      	add	r0, sp, #92	; 0x5c
 8007dfe:	f002 f8bb 	bl	8009f78 <__hexnan>
 8007e02:	2805      	cmp	r0, #5
 8007e04:	d126      	bne.n	8007e54 <_strtod_l+0x384>
 8007e06:	9b1b      	ldr	r3, [sp, #108]	; 0x6c
 8007e08:	f8dd a068 	ldr.w	sl, [sp, #104]	; 0x68
 8007e0c:	f043 4bff 	orr.w	fp, r3, #2139095040	; 0x7f800000
 8007e10:	f44b 0be0 	orr.w	fp, fp, #7340032	; 0x700000
 8007e14:	e6a0      	b.n	8007b58 <_strtod_l+0x88>
 8007e16:	210a      	movs	r1, #10
 8007e18:	fb01 2e0e 	mla	lr, r1, lr, r2
 8007e1c:	f1ae 0e30 	sub.w	lr, lr, #48	; 0x30
 8007e20:	e7b9      	b.n	8007d96 <_strtod_l+0x2c6>
 8007e22:	2a6e      	cmp	r2, #110	; 0x6e
 8007e24:	e7db      	b.n	8007dde <_strtod_l+0x30e>
 8007e26:	4990      	ldr	r1, [pc, #576]	; (8008068 <_strtod_l+0x598>)
 8007e28:	a817      	add	r0, sp, #92	; 0x5c
 8007e2a:	f002 f891 	bl	8009f50 <__match>
 8007e2e:	2800      	cmp	r0, #0
 8007e30:	f43f aeb0 	beq.w	8007b94 <_strtod_l+0xc4>
 8007e34:	9b17      	ldr	r3, [sp, #92]	; 0x5c
 8007e36:	498d      	ldr	r1, [pc, #564]	; (800806c <_strtod_l+0x59c>)
 8007e38:	3b01      	subs	r3, #1
 8007e3a:	a817      	add	r0, sp, #92	; 0x5c
 8007e3c:	9317      	str	r3, [sp, #92]	; 0x5c
 8007e3e:	f002 f887 	bl	8009f50 <__match>
 8007e42:	b910      	cbnz	r0, 8007e4a <_strtod_l+0x37a>
 8007e44:	9b17      	ldr	r3, [sp, #92]	; 0x5c
 8007e46:	3301      	adds	r3, #1
 8007e48:	9317      	str	r3, [sp, #92]	; 0x5c
 8007e4a:	f8df b230 	ldr.w	fp, [pc, #560]	; 800807c <_strtod_l+0x5ac>
 8007e4e:	f04f 0a00 	mov.w	sl, #0
 8007e52:	e681      	b.n	8007b58 <_strtod_l+0x88>
 8007e54:	4886      	ldr	r0, [pc, #536]	; (8008070 <_strtod_l+0x5a0>)
 8007e56:	f003 fa2f 	bl	800b2b8 <nan>
 8007e5a:	ec5b ab10 	vmov	sl, fp, d0
 8007e5e:	e67b      	b.n	8007b58 <_strtod_l+0x88>
 8007e60:	9b05      	ldr	r3, [sp, #20]
 8007e62:	9807      	ldr	r0, [sp, #28]
 8007e64:	1af3      	subs	r3, r6, r3
 8007e66:	2f00      	cmp	r7, #0
 8007e68:	bf08      	it	eq
 8007e6a:	462f      	moveq	r7, r5
 8007e6c:	2d10      	cmp	r5, #16
 8007e6e:	9306      	str	r3, [sp, #24]
 8007e70:	46a8      	mov	r8, r5
 8007e72:	bfa8      	it	ge
 8007e74:	f04f 0810 	movge.w	r8, #16
 8007e78:	f7f8 fb44 	bl	8000504 <__aeabi_ui2d>
 8007e7c:	2d09      	cmp	r5, #9
 8007e7e:	4682      	mov	sl, r0
 8007e80:	468b      	mov	fp, r1
 8007e82:	dd13      	ble.n	8007eac <_strtod_l+0x3dc>
 8007e84:	4b7b      	ldr	r3, [pc, #492]	; (8008074 <_strtod_l+0x5a4>)
 8007e86:	eb03 03c8 	add.w	r3, r3, r8, lsl #3
 8007e8a:	e953 2312 	ldrd	r2, r3, [r3, #-72]	; 0x48
 8007e8e:	f7f8 fbb3 	bl	80005f8 <__aeabi_dmul>
 8007e92:	4682      	mov	sl, r0
 8007e94:	4648      	mov	r0, r9
 8007e96:	468b      	mov	fp, r1
 8007e98:	f7f8 fb34 	bl	8000504 <__aeabi_ui2d>
 8007e9c:	4602      	mov	r2, r0
 8007e9e:	460b      	mov	r3, r1
 8007ea0:	4650      	mov	r0, sl
 8007ea2:	4659      	mov	r1, fp
 8007ea4:	f7f8 f9f2 	bl	800028c <__adddf3>
 8007ea8:	4682      	mov	sl, r0
 8007eaa:	468b      	mov	fp, r1
 8007eac:	2d0f      	cmp	r5, #15
 8007eae:	dc38      	bgt.n	8007f22 <_strtod_l+0x452>
 8007eb0:	9b06      	ldr	r3, [sp, #24]
 8007eb2:	2b00      	cmp	r3, #0
 8007eb4:	f43f ae50 	beq.w	8007b58 <_strtod_l+0x88>
 8007eb8:	dd24      	ble.n	8007f04 <_strtod_l+0x434>
 8007eba:	2b16      	cmp	r3, #22
 8007ebc:	dc0b      	bgt.n	8007ed6 <_strtod_l+0x406>
 8007ebe:	496d      	ldr	r1, [pc, #436]	; (8008074 <_strtod_l+0x5a4>)
 8007ec0:	eb01 01c3 	add.w	r1, r1, r3, lsl #3
 8007ec4:	e9d1 0100 	ldrd	r0, r1, [r1]
 8007ec8:	4652      	mov	r2, sl
 8007eca:	465b      	mov	r3, fp
 8007ecc:	f7f8 fb94 	bl	80005f8 <__aeabi_dmul>
 8007ed0:	4682      	mov	sl, r0
 8007ed2:	468b      	mov	fp, r1
 8007ed4:	e640      	b.n	8007b58 <_strtod_l+0x88>
 8007ed6:	9a06      	ldr	r2, [sp, #24]
 8007ed8:	f1c5 0325 	rsb	r3, r5, #37	; 0x25
 8007edc:	4293      	cmp	r3, r2
 8007ede:	db20      	blt.n	8007f22 <_strtod_l+0x452>
 8007ee0:	4c64      	ldr	r4, [pc, #400]	; (8008074 <_strtod_l+0x5a4>)
 8007ee2:	f1c5 050f 	rsb	r5, r5, #15
 8007ee6:	eb04 01c5 	add.w	r1, r4, r5, lsl #3
 8007eea:	4652      	mov	r2, sl
 8007eec:	465b      	mov	r3, fp
 8007eee:	e9d1 0100 	ldrd	r0, r1, [r1]
 8007ef2:	f7f8 fb81 	bl	80005f8 <__aeabi_dmul>
 8007ef6:	9b06      	ldr	r3, [sp, #24]
 8007ef8:	1b5d      	subs	r5, r3, r5
 8007efa:	eb04 04c5 	add.w	r4, r4, r5, lsl #3
 8007efe:	e9d4 2300 	ldrd	r2, r3, [r4]
 8007f02:	e7e3      	b.n	8007ecc <_strtod_l+0x3fc>
 8007f04:	9b06      	ldr	r3, [sp, #24]
 8007f06:	3316      	adds	r3, #22
 8007f08:	db0b      	blt.n	8007f22 <_strtod_l+0x452>
 8007f0a:	9b05      	ldr	r3, [sp, #20]
 8007f0c:	1b9e      	subs	r6, r3, r6
 8007f0e:	4b59      	ldr	r3, [pc, #356]	; (8008074 <_strtod_l+0x5a4>)
 8007f10:	eb03 06c6 	add.w	r6, r3, r6, lsl #3
 8007f14:	e9d6 2300 	ldrd	r2, r3, [r6]
 8007f18:	4650      	mov	r0, sl
 8007f1a:	4659      	mov	r1, fp
 8007f1c:	f7f8 fc96 	bl	800084c <__aeabi_ddiv>
 8007f20:	e7d6      	b.n	8007ed0 <_strtod_l+0x400>
 8007f22:	9b06      	ldr	r3, [sp, #24]
 8007f24:	eba5 0808 	sub.w	r8, r5, r8
 8007f28:	4498      	add	r8, r3
 8007f2a:	f1b8 0f00 	cmp.w	r8, #0
 8007f2e:	dd74      	ble.n	800801a <_strtod_l+0x54a>
 8007f30:	f018 030f 	ands.w	r3, r8, #15
 8007f34:	d00a      	beq.n	8007f4c <_strtod_l+0x47c>
 8007f36:	494f      	ldr	r1, [pc, #316]	; (8008074 <_strtod_l+0x5a4>)
 8007f38:	eb01 01c3 	add.w	r1, r1, r3, lsl #3
 8007f3c:	4652      	mov	r2, sl
 8007f3e:	465b      	mov	r3, fp
 8007f40:	e9d1 0100 	ldrd	r0, r1, [r1]
 8007f44:	f7f8 fb58 	bl	80005f8 <__aeabi_dmul>
 8007f48:	4682      	mov	sl, r0
 8007f4a:	468b      	mov	fp, r1
 8007f4c:	f038 080f 	bics.w	r8, r8, #15
 8007f50:	d04f      	beq.n	8007ff2 <_strtod_l+0x522>
 8007f52:	f5b8 7f9a 	cmp.w	r8, #308	; 0x134
 8007f56:	dd22      	ble.n	8007f9e <_strtod_l+0x4ce>
 8007f58:	2500      	movs	r5, #0
 8007f5a:	462e      	mov	r6, r5
 8007f5c:	9507      	str	r5, [sp, #28]
 8007f5e:	9505      	str	r5, [sp, #20]
 8007f60:	2322      	movs	r3, #34	; 0x22
 8007f62:	f8df b118 	ldr.w	fp, [pc, #280]	; 800807c <_strtod_l+0x5ac>
 8007f66:	6023      	str	r3, [r4, #0]
 8007f68:	f04f 0a00 	mov.w	sl, #0
 8007f6c:	9b07      	ldr	r3, [sp, #28]
 8007f6e:	2b00      	cmp	r3, #0
 8007f70:	f43f adf2 	beq.w	8007b58 <_strtod_l+0x88>
 8007f74:	9918      	ldr	r1, [sp, #96]	; 0x60
 8007f76:	4620      	mov	r0, r4
 8007f78:	f002 f96e 	bl	800a258 <_Bfree>
 8007f7c:	9905      	ldr	r1, [sp, #20]
 8007f7e:	4620      	mov	r0, r4
 8007f80:	f002 f96a 	bl	800a258 <_Bfree>
 8007f84:	4631      	mov	r1, r6
 8007f86:	4620      	mov	r0, r4
 8007f88:	f002 f966 	bl	800a258 <_Bfree>
 8007f8c:	9907      	ldr	r1, [sp, #28]
 8007f8e:	4620      	mov	r0, r4
 8007f90:	f002 f962 	bl	800a258 <_Bfree>
 8007f94:	4629      	mov	r1, r5
 8007f96:	4620      	mov	r0, r4
 8007f98:	f002 f95e 	bl	800a258 <_Bfree>
 8007f9c:	e5dc      	b.n	8007b58 <_strtod_l+0x88>
 8007f9e:	4b36      	ldr	r3, [pc, #216]	; (8008078 <_strtod_l+0x5a8>)
 8007fa0:	9304      	str	r3, [sp, #16]
 8007fa2:	2300      	movs	r3, #0
 8007fa4:	ea4f 1828 	mov.w	r8, r8, asr #4
 8007fa8:	4650      	mov	r0, sl
 8007faa:	4659      	mov	r1, fp
 8007fac:	4699      	mov	r9, r3
 8007fae:	f1b8 0f01 	cmp.w	r8, #1
 8007fb2:	dc21      	bgt.n	8007ff8 <_strtod_l+0x528>
 8007fb4:	b10b      	cbz	r3, 8007fba <_strtod_l+0x4ea>
 8007fb6:	4682      	mov	sl, r0
 8007fb8:	468b      	mov	fp, r1
 8007fba:	4b2f      	ldr	r3, [pc, #188]	; (8008078 <_strtod_l+0x5a8>)
 8007fbc:	f1ab 7b54 	sub.w	fp, fp, #55574528	; 0x3500000
 8007fc0:	eb03 09c9 	add.w	r9, r3, r9, lsl #3
 8007fc4:	4652      	mov	r2, sl
 8007fc6:	465b      	mov	r3, fp
 8007fc8:	e9d9 0100 	ldrd	r0, r1, [r9]
 8007fcc:	f7f8 fb14 	bl	80005f8 <__aeabi_dmul>
 8007fd0:	4b2a      	ldr	r3, [pc, #168]	; (800807c <_strtod_l+0x5ac>)
 8007fd2:	460a      	mov	r2, r1
 8007fd4:	400b      	ands	r3, r1
 8007fd6:	492a      	ldr	r1, [pc, #168]	; (8008080 <_strtod_l+0x5b0>)
 8007fd8:	428b      	cmp	r3, r1
 8007fda:	4682      	mov	sl, r0
 8007fdc:	d8bc      	bhi.n	8007f58 <_strtod_l+0x488>
 8007fde:	f5a1 1180 	sub.w	r1, r1, #1048576	; 0x100000
 8007fe2:	428b      	cmp	r3, r1
 8007fe4:	bf86      	itte	hi
 8007fe6:	f8df b09c 	ldrhi.w	fp, [pc, #156]	; 8008084 <_strtod_l+0x5b4>
 8007fea:	f04f 3aff 	movhi.w	sl, #4294967295
 8007fee:	f102 7b54 	addls.w	fp, r2, #55574528	; 0x3500000
 8007ff2:	2300      	movs	r3, #0
 8007ff4:	9304      	str	r3, [sp, #16]
 8007ff6:	e084      	b.n	8008102 <_strtod_l+0x632>
 8007ff8:	f018 0f01 	tst.w	r8, #1
 8007ffc:	d005      	beq.n	800800a <_strtod_l+0x53a>
 8007ffe:	9b04      	ldr	r3, [sp, #16]
 8008000:	e9d3 2300 	ldrd	r2, r3, [r3]
 8008004:	f7f8 faf8 	bl	80005f8 <__aeabi_dmul>
 8008008:	2301      	movs	r3, #1
 800800a:	9a04      	ldr	r2, [sp, #16]
 800800c:	3208      	adds	r2, #8
 800800e:	f109 0901 	add.w	r9, r9, #1
 8008012:	ea4f 0868 	mov.w	r8, r8, asr #1
 8008016:	9204      	str	r2, [sp, #16]
 8008018:	e7c9      	b.n	8007fae <_strtod_l+0x4de>
 800801a:	d0ea      	beq.n	8007ff2 <_strtod_l+0x522>
 800801c:	f1c8 0800 	rsb	r8, r8, #0
 8008020:	f018 020f 	ands.w	r2, r8, #15
 8008024:	d00a      	beq.n	800803c <_strtod_l+0x56c>
 8008026:	4b13      	ldr	r3, [pc, #76]	; (8008074 <_strtod_l+0x5a4>)
 8008028:	eb03 03c2 	add.w	r3, r3, r2, lsl #3
 800802c:	4650      	mov	r0, sl
 800802e:	4659      	mov	r1, fp
 8008030:	e9d3 2300 	ldrd	r2, r3, [r3]
 8008034:	f7f8 fc0a 	bl	800084c <__aeabi_ddiv>
 8008038:	4682      	mov	sl, r0
 800803a:	468b      	mov	fp, r1
 800803c:	ea5f 1828 	movs.w	r8, r8, asr #4
 8008040:	d0d7      	beq.n	8007ff2 <_strtod_l+0x522>
 8008042:	f1b8 0f1f 	cmp.w	r8, #31
 8008046:	dd1f      	ble.n	8008088 <_strtod_l+0x5b8>
 8008048:	2500      	movs	r5, #0
 800804a:	462e      	mov	r6, r5
 800804c:	9507      	str	r5, [sp, #28]
 800804e:	9505      	str	r5, [sp, #20]
 8008050:	2322      	movs	r3, #34	; 0x22
 8008052:	f04f 0a00 	mov.w	sl, #0
 8008056:	f04f 0b00 	mov.w	fp, #0
 800805a:	6023      	str	r3, [r4, #0]
 800805c:	e786      	b.n	8007f6c <_strtod_l+0x49c>
 800805e:	bf00      	nop
 8008060:	0800b8a1 	.word	0x0800b8a1
 8008064:	0800b8e4 	.word	0x0800b8e4
 8008068:	0800b899 	.word	0x0800b899
 800806c:	0800ba24 	.word	0x0800ba24
 8008070:	0800bd38 	.word	0x0800bd38
 8008074:	0800bc18 	.word	0x0800bc18
 8008078:	0800bbf0 	.word	0x0800bbf0
 800807c:	7ff00000 	.word	0x7ff00000
 8008080:	7ca00000 	.word	0x7ca00000
 8008084:	7fefffff 	.word	0x7fefffff
 8008088:	f018 0310 	ands.w	r3, r8, #16
 800808c:	bf18      	it	ne
 800808e:	236a      	movne	r3, #106	; 0x6a
 8008090:	f8df 93ac 	ldr.w	r9, [pc, #940]	; 8008440 <_strtod_l+0x970>
 8008094:	9304      	str	r3, [sp, #16]
 8008096:	4650      	mov	r0, sl
 8008098:	4659      	mov	r1, fp
 800809a:	2300      	movs	r3, #0
 800809c:	f018 0f01 	tst.w	r8, #1
 80080a0:	d004      	beq.n	80080ac <_strtod_l+0x5dc>
 80080a2:	e9d9 2300 	ldrd	r2, r3, [r9]
 80080a6:	f7f8 faa7 	bl	80005f8 <__aeabi_dmul>
 80080aa:	2301      	movs	r3, #1
 80080ac:	ea5f 0868 	movs.w	r8, r8, asr #1
 80080b0:	f109 0908 	add.w	r9, r9, #8
 80080b4:	d1f2      	bne.n	800809c <_strtod_l+0x5cc>
 80080b6:	b10b      	cbz	r3, 80080bc <_strtod_l+0x5ec>
 80080b8:	4682      	mov	sl, r0
 80080ba:	468b      	mov	fp, r1
 80080bc:	9b04      	ldr	r3, [sp, #16]
 80080be:	b1c3      	cbz	r3, 80080f2 <_strtod_l+0x622>
 80080c0:	f3cb 520a 	ubfx	r2, fp, #20, #11
 80080c4:	f1c2 036b 	rsb	r3, r2, #107	; 0x6b
 80080c8:	2b00      	cmp	r3, #0
 80080ca:	4659      	mov	r1, fp
 80080cc:	dd11      	ble.n	80080f2 <_strtod_l+0x622>
 80080ce:	2b1f      	cmp	r3, #31
 80080d0:	f340 8124 	ble.w	800831c <_strtod_l+0x84c>
 80080d4:	2b34      	cmp	r3, #52	; 0x34
 80080d6:	bfde      	ittt	le
 80080d8:	f1c2 024b 	rsble	r2, r2, #75	; 0x4b
 80080dc:	f04f 33ff 	movle.w	r3, #4294967295
 80080e0:	fa03 f202 	lslle.w	r2, r3, r2
 80080e4:	f04f 0a00 	mov.w	sl, #0
 80080e8:	bfcc      	ite	gt
 80080ea:	f04f 7b5c 	movgt.w	fp, #57671680	; 0x3700000
 80080ee:	ea02 0b01 	andle.w	fp, r2, r1
 80080f2:	2200      	movs	r2, #0
 80080f4:	2300      	movs	r3, #0
 80080f6:	4650      	mov	r0, sl
 80080f8:	4659      	mov	r1, fp
 80080fa:	f7f8 fce5 	bl	8000ac8 <__aeabi_dcmpeq>
 80080fe:	2800      	cmp	r0, #0
 8008100:	d1a2      	bne.n	8008048 <_strtod_l+0x578>
 8008102:	9b07      	ldr	r3, [sp, #28]
 8008104:	9300      	str	r3, [sp, #0]
 8008106:	9908      	ldr	r1, [sp, #32]
 8008108:	462b      	mov	r3, r5
 800810a:	463a      	mov	r2, r7
 800810c:	4620      	mov	r0, r4
 800810e:	f002 f90b 	bl	800a328 <__s2b>
 8008112:	9007      	str	r0, [sp, #28]
 8008114:	2800      	cmp	r0, #0
 8008116:	f43f af1f 	beq.w	8007f58 <_strtod_l+0x488>
 800811a:	9b05      	ldr	r3, [sp, #20]
 800811c:	1b9e      	subs	r6, r3, r6
 800811e:	9b06      	ldr	r3, [sp, #24]
 8008120:	2b00      	cmp	r3, #0
 8008122:	bfb4      	ite	lt
 8008124:	4633      	movlt	r3, r6
 8008126:	2300      	movge	r3, #0
 8008128:	930c      	str	r3, [sp, #48]	; 0x30
 800812a:	9b06      	ldr	r3, [sp, #24]
 800812c:	2500      	movs	r5, #0
 800812e:	ea23 73e3 	bic.w	r3, r3, r3, asr #31
 8008132:	9312      	str	r3, [sp, #72]	; 0x48
 8008134:	462e      	mov	r6, r5
 8008136:	9b07      	ldr	r3, [sp, #28]
 8008138:	4620      	mov	r0, r4
 800813a:	6859      	ldr	r1, [r3, #4]
 800813c:	f002 f84c 	bl	800a1d8 <_Balloc>
 8008140:	9005      	str	r0, [sp, #20]
 8008142:	2800      	cmp	r0, #0
 8008144:	f43f af0c 	beq.w	8007f60 <_strtod_l+0x490>
 8008148:	9b07      	ldr	r3, [sp, #28]
 800814a:	691a      	ldr	r2, [r3, #16]
 800814c:	3202      	adds	r2, #2
 800814e:	f103 010c 	add.w	r1, r3, #12
 8008152:	0092      	lsls	r2, r2, #2
 8008154:	300c      	adds	r0, #12
 8008156:	f002 f831 	bl	800a1bc <memcpy>
 800815a:	ec4b ab10 	vmov	d0, sl, fp
 800815e:	aa1a      	add	r2, sp, #104	; 0x68
 8008160:	a919      	add	r1, sp, #100	; 0x64
 8008162:	4620      	mov	r0, r4
 8008164:	f002 fc26 	bl	800a9b4 <__d2b>
 8008168:	ec4b ab18 	vmov	d8, sl, fp
 800816c:	9018      	str	r0, [sp, #96]	; 0x60
 800816e:	2800      	cmp	r0, #0
 8008170:	f43f aef6 	beq.w	8007f60 <_strtod_l+0x490>
 8008174:	2101      	movs	r1, #1
 8008176:	4620      	mov	r0, r4
 8008178:	f002 f970 	bl	800a45c <__i2b>
 800817c:	4606      	mov	r6, r0
 800817e:	2800      	cmp	r0, #0
 8008180:	f43f aeee 	beq.w	8007f60 <_strtod_l+0x490>
 8008184:	9b19      	ldr	r3, [sp, #100]	; 0x64
 8008186:	9904      	ldr	r1, [sp, #16]
 8008188:	2b00      	cmp	r3, #0
 800818a:	bfab      	itete	ge
 800818c:	9a0c      	ldrge	r2, [sp, #48]	; 0x30
 800818e:	9a12      	ldrlt	r2, [sp, #72]	; 0x48
 8008190:	9f12      	ldrge	r7, [sp, #72]	; 0x48
 8008192:	f8dd 9030 	ldrlt.w	r9, [sp, #48]	; 0x30
 8008196:	bfac      	ite	ge
 8008198:	eb03 0902 	addge.w	r9, r3, r2
 800819c:	1ad7      	sublt	r7, r2, r3
 800819e:	9a1a      	ldr	r2, [sp, #104]	; 0x68
 80081a0:	eba3 0801 	sub.w	r8, r3, r1
 80081a4:	4490      	add	r8, r2
 80081a6:	4ba1      	ldr	r3, [pc, #644]	; (800842c <_strtod_l+0x95c>)
 80081a8:	f108 38ff 	add.w	r8, r8, #4294967295
 80081ac:	4598      	cmp	r8, r3
 80081ae:	f1c2 0236 	rsb	r2, r2, #54	; 0x36
 80081b2:	f280 80c7 	bge.w	8008344 <_strtod_l+0x874>
 80081b6:	eba3 0308 	sub.w	r3, r3, r8
 80081ba:	2b1f      	cmp	r3, #31
 80081bc:	eba2 0203 	sub.w	r2, r2, r3
 80081c0:	f04f 0101 	mov.w	r1, #1
 80081c4:	f300 80b1 	bgt.w	800832a <_strtod_l+0x85a>
 80081c8:	fa01 f303 	lsl.w	r3, r1, r3
 80081cc:	930d      	str	r3, [sp, #52]	; 0x34
 80081ce:	2300      	movs	r3, #0
 80081d0:	9308      	str	r3, [sp, #32]
 80081d2:	eb09 0802 	add.w	r8, r9, r2
 80081d6:	9b04      	ldr	r3, [sp, #16]
 80081d8:	45c1      	cmp	r9, r8
 80081da:	4417      	add	r7, r2
 80081dc:	441f      	add	r7, r3
 80081de:	464b      	mov	r3, r9
 80081e0:	bfa8      	it	ge
 80081e2:	4643      	movge	r3, r8
 80081e4:	42bb      	cmp	r3, r7
 80081e6:	bfa8      	it	ge
 80081e8:	463b      	movge	r3, r7
 80081ea:	2b00      	cmp	r3, #0
 80081ec:	bfc2      	ittt	gt
 80081ee:	eba8 0803 	subgt.w	r8, r8, r3
 80081f2:	1aff      	subgt	r7, r7, r3
 80081f4:	eba9 0903 	subgt.w	r9, r9, r3
 80081f8:	9b0c      	ldr	r3, [sp, #48]	; 0x30
 80081fa:	2b00      	cmp	r3, #0
 80081fc:	dd17      	ble.n	800822e <_strtod_l+0x75e>
 80081fe:	4631      	mov	r1, r6
 8008200:	461a      	mov	r2, r3
 8008202:	4620      	mov	r0, r4
 8008204:	f002 f9ea 	bl	800a5dc <__pow5mult>
 8008208:	4606      	mov	r6, r0
 800820a:	2800      	cmp	r0, #0
 800820c:	f43f aea8 	beq.w	8007f60 <_strtod_l+0x490>
 8008210:	4601      	mov	r1, r0
 8008212:	9a18      	ldr	r2, [sp, #96]	; 0x60
 8008214:	4620      	mov	r0, r4
 8008216:	f002 f937 	bl	800a488 <__multiply>
 800821a:	900b      	str	r0, [sp, #44]	; 0x2c
 800821c:	2800      	cmp	r0, #0
 800821e:	f43f ae9f 	beq.w	8007f60 <_strtod_l+0x490>
 8008222:	9918      	ldr	r1, [sp, #96]	; 0x60
 8008224:	4620      	mov	r0, r4
 8008226:	f002 f817 	bl	800a258 <_Bfree>
 800822a:	9b0b      	ldr	r3, [sp, #44]	; 0x2c
 800822c:	9318      	str	r3, [sp, #96]	; 0x60
 800822e:	f1b8 0f00 	cmp.w	r8, #0
 8008232:	f300 808c 	bgt.w	800834e <_strtod_l+0x87e>
 8008236:	9b06      	ldr	r3, [sp, #24]
 8008238:	2b00      	cmp	r3, #0
 800823a:	dd08      	ble.n	800824e <_strtod_l+0x77e>
 800823c:	9a12      	ldr	r2, [sp, #72]	; 0x48
 800823e:	9905      	ldr	r1, [sp, #20]
 8008240:	4620      	mov	r0, r4
 8008242:	f002 f9cb 	bl	800a5dc <__pow5mult>
 8008246:	9005      	str	r0, [sp, #20]
 8008248:	2800      	cmp	r0, #0
 800824a:	f43f ae89 	beq.w	8007f60 <_strtod_l+0x490>
 800824e:	2f00      	cmp	r7, #0
 8008250:	dd08      	ble.n	8008264 <_strtod_l+0x794>
 8008252:	9905      	ldr	r1, [sp, #20]
 8008254:	463a      	mov	r2, r7
 8008256:	4620      	mov	r0, r4
 8008258:	f002 fa1a 	bl	800a690 <__lshift>
 800825c:	9005      	str	r0, [sp, #20]
 800825e:	2800      	cmp	r0, #0
 8008260:	f43f ae7e 	beq.w	8007f60 <_strtod_l+0x490>
 8008264:	f1b9 0f00 	cmp.w	r9, #0
 8008268:	dd08      	ble.n	800827c <_strtod_l+0x7ac>
 800826a:	4631      	mov	r1, r6
 800826c:	464a      	mov	r2, r9
 800826e:	4620      	mov	r0, r4
 8008270:	f002 fa0e 	bl	800a690 <__lshift>
 8008274:	4606      	mov	r6, r0
 8008276:	2800      	cmp	r0, #0
 8008278:	f43f ae72 	beq.w	8007f60 <_strtod_l+0x490>
 800827c:	9a05      	ldr	r2, [sp, #20]
 800827e:	9918      	ldr	r1, [sp, #96]	; 0x60
 8008280:	4620      	mov	r0, r4
 8008282:	f002 fa91 	bl	800a7a8 <__mdiff>
 8008286:	4605      	mov	r5, r0
 8008288:	2800      	cmp	r0, #0
 800828a:	f43f ae69 	beq.w	8007f60 <_strtod_l+0x490>
 800828e:	68c3      	ldr	r3, [r0, #12]
 8008290:	930b      	str	r3, [sp, #44]	; 0x2c
 8008292:	2300      	movs	r3, #0
 8008294:	60c3      	str	r3, [r0, #12]
 8008296:	4631      	mov	r1, r6
 8008298:	f002 fa6a 	bl	800a770 <__mcmp>
 800829c:	2800      	cmp	r0, #0
 800829e:	da60      	bge.n	8008362 <_strtod_l+0x892>
 80082a0:	9b0b      	ldr	r3, [sp, #44]	; 0x2c
 80082a2:	ea53 030a 	orrs.w	r3, r3, sl
 80082a6:	f040 8082 	bne.w	80083ae <_strtod_l+0x8de>
 80082aa:	f3cb 0313 	ubfx	r3, fp, #0, #20
 80082ae:	2b00      	cmp	r3, #0
 80082b0:	d17d      	bne.n	80083ae <_strtod_l+0x8de>
 80082b2:	f02b 4300 	bic.w	r3, fp, #2147483648	; 0x80000000
 80082b6:	0d1b      	lsrs	r3, r3, #20
 80082b8:	051b      	lsls	r3, r3, #20
 80082ba:	f1b3 6fd6 	cmp.w	r3, #112197632	; 0x6b00000
 80082be:	d976      	bls.n	80083ae <_strtod_l+0x8de>
 80082c0:	696b      	ldr	r3, [r5, #20]
 80082c2:	b913      	cbnz	r3, 80082ca <_strtod_l+0x7fa>
 80082c4:	692b      	ldr	r3, [r5, #16]
 80082c6:	2b01      	cmp	r3, #1
 80082c8:	dd71      	ble.n	80083ae <_strtod_l+0x8de>
 80082ca:	4629      	mov	r1, r5
 80082cc:	2201      	movs	r2, #1
 80082ce:	4620      	mov	r0, r4
 80082d0:	f002 f9de 	bl	800a690 <__lshift>
 80082d4:	4631      	mov	r1, r6
 80082d6:	4605      	mov	r5, r0
 80082d8:	f002 fa4a 	bl	800a770 <__mcmp>
 80082dc:	2800      	cmp	r0, #0
 80082de:	dd66      	ble.n	80083ae <_strtod_l+0x8de>
 80082e0:	9904      	ldr	r1, [sp, #16]
 80082e2:	4a53      	ldr	r2, [pc, #332]	; (8008430 <_strtod_l+0x960>)
 80082e4:	465b      	mov	r3, fp
 80082e6:	2900      	cmp	r1, #0
 80082e8:	f000 8081 	beq.w	80083ee <_strtod_l+0x91e>
 80082ec:	ea02 010b 	and.w	r1, r2, fp
 80082f0:	f1b1 6fd6 	cmp.w	r1, #112197632	; 0x6b00000
 80082f4:	dc7b      	bgt.n	80083ee <_strtod_l+0x91e>
 80082f6:	f1b1 7f5c 	cmp.w	r1, #57671680	; 0x3700000
 80082fa:	f77f aea9 	ble.w	8008050 <_strtod_l+0x580>
 80082fe:	4b4d      	ldr	r3, [pc, #308]	; (8008434 <_strtod_l+0x964>)
 8008300:	4650      	mov	r0, sl
 8008302:	4659      	mov	r1, fp
 8008304:	2200      	movs	r2, #0
 8008306:	f7f8 f977 	bl	80005f8 <__aeabi_dmul>
 800830a:	460b      	mov	r3, r1
 800830c:	4303      	orrs	r3, r0
 800830e:	bf08      	it	eq
 8008310:	2322      	moveq	r3, #34	; 0x22
 8008312:	4682      	mov	sl, r0
 8008314:	468b      	mov	fp, r1
 8008316:	bf08      	it	eq
 8008318:	6023      	streq	r3, [r4, #0]
 800831a:	e62b      	b.n	8007f74 <_strtod_l+0x4a4>
 800831c:	f04f 32ff 	mov.w	r2, #4294967295
 8008320:	fa02 f303 	lsl.w	r3, r2, r3
 8008324:	ea03 0a0a 	and.w	sl, r3, sl
 8008328:	e6e3      	b.n	80080f2 <_strtod_l+0x622>
 800832a:	f1c8 487f 	rsb	r8, r8, #4278190080	; 0xff000000
 800832e:	f508 087f 	add.w	r8, r8, #16711680	; 0xff0000
 8008332:	f508 487b 	add.w	r8, r8, #64256	; 0xfb00
 8008336:	f108 08e2 	add.w	r8, r8, #226	; 0xe2
 800833a:	fa01 f308 	lsl.w	r3, r1, r8
 800833e:	9308      	str	r3, [sp, #32]
 8008340:	910d      	str	r1, [sp, #52]	; 0x34
 8008342:	e746      	b.n	80081d2 <_strtod_l+0x702>
 8008344:	2300      	movs	r3, #0
 8008346:	9308      	str	r3, [sp, #32]
 8008348:	2301      	movs	r3, #1
 800834a:	930d      	str	r3, [sp, #52]	; 0x34
 800834c:	e741      	b.n	80081d2 <_strtod_l+0x702>
 800834e:	9918      	ldr	r1, [sp, #96]	; 0x60
 8008350:	4642      	mov	r2, r8
 8008352:	4620      	mov	r0, r4
 8008354:	f002 f99c 	bl	800a690 <__lshift>
 8008358:	9018      	str	r0, [sp, #96]	; 0x60
 800835a:	2800      	cmp	r0, #0
 800835c:	f47f af6b 	bne.w	8008236 <_strtod_l+0x766>
 8008360:	e5fe      	b.n	8007f60 <_strtod_l+0x490>
 8008362:	465f      	mov	r7, fp
 8008364:	d16e      	bne.n	8008444 <_strtod_l+0x974>
 8008366:	9a0b      	ldr	r2, [sp, #44]	; 0x2c
 8008368:	f3cb 0313 	ubfx	r3, fp, #0, #20
 800836c:	b342      	cbz	r2, 80083c0 <_strtod_l+0x8f0>
 800836e:	4a32      	ldr	r2, [pc, #200]	; (8008438 <_strtod_l+0x968>)
 8008370:	4293      	cmp	r3, r2
 8008372:	d128      	bne.n	80083c6 <_strtod_l+0x8f6>
 8008374:	9b04      	ldr	r3, [sp, #16]
 8008376:	4651      	mov	r1, sl
 8008378:	b1eb      	cbz	r3, 80083b6 <_strtod_l+0x8e6>
 800837a:	4b2d      	ldr	r3, [pc, #180]	; (8008430 <_strtod_l+0x960>)
 800837c:	403b      	ands	r3, r7
 800837e:	f1b3 6fd4 	cmp.w	r3, #111149056	; 0x6a00000
 8008382:	f04f 32ff 	mov.w	r2, #4294967295
 8008386:	d819      	bhi.n	80083bc <_strtod_l+0x8ec>
 8008388:	0d1b      	lsrs	r3, r3, #20
 800838a:	f1c3 036b 	rsb	r3, r3, #107	; 0x6b
 800838e:	fa02 f303 	lsl.w	r3, r2, r3
 8008392:	4299      	cmp	r1, r3
 8008394:	d117      	bne.n	80083c6 <_strtod_l+0x8f6>
 8008396:	4b29      	ldr	r3, [pc, #164]	; (800843c <_strtod_l+0x96c>)
 8008398:	429f      	cmp	r7, r3
 800839a:	d102      	bne.n	80083a2 <_strtod_l+0x8d2>
 800839c:	3101      	adds	r1, #1
 800839e:	f43f addf 	beq.w	8007f60 <_strtod_l+0x490>
 80083a2:	4b23      	ldr	r3, [pc, #140]	; (8008430 <_strtod_l+0x960>)
 80083a4:	403b      	ands	r3, r7
 80083a6:	f503 1b80 	add.w	fp, r3, #1048576	; 0x100000
 80083aa:	f04f 0a00 	mov.w	sl, #0
 80083ae:	9b04      	ldr	r3, [sp, #16]
 80083b0:	2b00      	cmp	r3, #0
 80083b2:	d1a4      	bne.n	80082fe <_strtod_l+0x82e>
 80083b4:	e5de      	b.n	8007f74 <_strtod_l+0x4a4>
 80083b6:	f04f 33ff 	mov.w	r3, #4294967295
 80083ba:	e7ea      	b.n	8008392 <_strtod_l+0x8c2>
 80083bc:	4613      	mov	r3, r2
 80083be:	e7e8      	b.n	8008392 <_strtod_l+0x8c2>
 80083c0:	ea53 030a 	orrs.w	r3, r3, sl
 80083c4:	d08c      	beq.n	80082e0 <_strtod_l+0x810>
 80083c6:	9b08      	ldr	r3, [sp, #32]
 80083c8:	b1db      	cbz	r3, 8008402 <_strtod_l+0x932>
 80083ca:	423b      	tst	r3, r7
 80083cc:	d0ef      	beq.n	80083ae <_strtod_l+0x8de>
 80083ce:	9b0b      	ldr	r3, [sp, #44]	; 0x2c
 80083d0:	9a04      	ldr	r2, [sp, #16]
 80083d2:	4650      	mov	r0, sl
 80083d4:	4659      	mov	r1, fp
 80083d6:	b1c3      	cbz	r3, 800840a <_strtod_l+0x93a>
 80083d8:	f7ff fb5c 	bl	8007a94 <sulp>
 80083dc:	4602      	mov	r2, r0
 80083de:	460b      	mov	r3, r1
 80083e0:	ec51 0b18 	vmov	r0, r1, d8
 80083e4:	f7f7 ff52 	bl	800028c <__adddf3>
 80083e8:	4682      	mov	sl, r0
 80083ea:	468b      	mov	fp, r1
 80083ec:	e7df      	b.n	80083ae <_strtod_l+0x8de>
 80083ee:	4013      	ands	r3, r2
 80083f0:	f5a3 1380 	sub.w	r3, r3, #1048576	; 0x100000
 80083f4:	ea6f 5b13 	mvn.w	fp, r3, lsr #20
 80083f8:	ea6f 5b0b 	mvn.w	fp, fp, lsl #20
 80083fc:	f04f 3aff 	mov.w	sl, #4294967295
 8008400:	e7d5      	b.n	80083ae <_strtod_l+0x8de>
 8008402:	9b0d      	ldr	r3, [sp, #52]	; 0x34
 8008404:	ea13 0f0a 	tst.w	r3, sl
 8008408:	e7e0      	b.n	80083cc <_strtod_l+0x8fc>
 800840a:	f7ff fb43 	bl	8007a94 <sulp>
 800840e:	4602      	mov	r2, r0
 8008410:	460b      	mov	r3, r1
 8008412:	ec51 0b18 	vmov	r0, r1, d8
 8008416:	f7f7 ff37 	bl	8000288 <__aeabi_dsub>
 800841a:	2200      	movs	r2, #0
 800841c:	2300      	movs	r3, #0
 800841e:	4682      	mov	sl, r0
 8008420:	468b      	mov	fp, r1
 8008422:	f7f8 fb51 	bl	8000ac8 <__aeabi_dcmpeq>
 8008426:	2800      	cmp	r0, #0
 8008428:	d0c1      	beq.n	80083ae <_strtod_l+0x8de>
 800842a:	e611      	b.n	8008050 <_strtod_l+0x580>
 800842c:	fffffc02 	.word	0xfffffc02
 8008430:	7ff00000 	.word	0x7ff00000
 8008434:	39500000 	.word	0x39500000
 8008438:	000fffff 	.word	0x000fffff
 800843c:	7fefffff 	.word	0x7fefffff
 8008440:	0800b8f8 	.word	0x0800b8f8
 8008444:	4631      	mov	r1, r6
 8008446:	4628      	mov	r0, r5
 8008448:	f002 fb10 	bl	800aa6c <__ratio>
 800844c:	ec59 8b10 	vmov	r8, r9, d0
 8008450:	ee10 0a10 	vmov	r0, s0
 8008454:	2200      	movs	r2, #0
 8008456:	f04f 4380 	mov.w	r3, #1073741824	; 0x40000000
 800845a:	4649      	mov	r1, r9
 800845c:	f7f8 fb48 	bl	8000af0 <__aeabi_dcmple>
 8008460:	2800      	cmp	r0, #0
 8008462:	d07a      	beq.n	800855a <_strtod_l+0xa8a>
 8008464:	9b0b      	ldr	r3, [sp, #44]	; 0x2c
 8008466:	2b00      	cmp	r3, #0
 8008468:	d04a      	beq.n	8008500 <_strtod_l+0xa30>
 800846a:	4b95      	ldr	r3, [pc, #596]	; (80086c0 <_strtod_l+0xbf0>)
 800846c:	2200      	movs	r2, #0
 800846e:	e9cd 2308 	strd	r2, r3, [sp, #32]
 8008472:	f8df 924c 	ldr.w	r9, [pc, #588]	; 80086c0 <_strtod_l+0xbf0>
 8008476:	f04f 0800 	mov.w	r8, #0
 800847a:	4b92      	ldr	r3, [pc, #584]	; (80086c4 <_strtod_l+0xbf4>)
 800847c:	403b      	ands	r3, r7
 800847e:	930d      	str	r3, [sp, #52]	; 0x34
 8008480:	9a0d      	ldr	r2, [sp, #52]	; 0x34
 8008482:	4b91      	ldr	r3, [pc, #580]	; (80086c8 <_strtod_l+0xbf8>)
 8008484:	429a      	cmp	r2, r3
 8008486:	f040 80b0 	bne.w	80085ea <_strtod_l+0xb1a>
 800848a:	e9dd 0108 	ldrd	r0, r1, [sp, #32]
 800848e:	f1a7 7b54 	sub.w	fp, r7, #55574528	; 0x3500000
 8008492:	ec4b ab10 	vmov	d0, sl, fp
 8008496:	e9cd 0108 	strd	r0, r1, [sp, #32]
 800849a:	f002 fa0f 	bl	800a8bc <__ulp>
 800849e:	e9dd 0108 	ldrd	r0, r1, [sp, #32]
 80084a2:	ec53 2b10 	vmov	r2, r3, d0
 80084a6:	f7f8 f8a7 	bl	80005f8 <__aeabi_dmul>
 80084aa:	4652      	mov	r2, sl
 80084ac:	465b      	mov	r3, fp
 80084ae:	f7f7 feed 	bl	800028c <__adddf3>
 80084b2:	460b      	mov	r3, r1
 80084b4:	4983      	ldr	r1, [pc, #524]	; (80086c4 <_strtod_l+0xbf4>)
 80084b6:	4a85      	ldr	r2, [pc, #532]	; (80086cc <_strtod_l+0xbfc>)
 80084b8:	4019      	ands	r1, r3
 80084ba:	4291      	cmp	r1, r2
 80084bc:	4682      	mov	sl, r0
 80084be:	d960      	bls.n	8008582 <_strtod_l+0xab2>
 80084c0:	ee18 3a90 	vmov	r3, s17
 80084c4:	f102 7254 	add.w	r2, r2, #55574528	; 0x3500000
 80084c8:	4293      	cmp	r3, r2
 80084ca:	d104      	bne.n	80084d6 <_strtod_l+0xa06>
 80084cc:	ee18 3a10 	vmov	r3, s16
 80084d0:	3301      	adds	r3, #1
 80084d2:	f43f ad45 	beq.w	8007f60 <_strtod_l+0x490>
 80084d6:	f8df b200 	ldr.w	fp, [pc, #512]	; 80086d8 <_strtod_l+0xc08>
 80084da:	f04f 3aff 	mov.w	sl, #4294967295
 80084de:	9918      	ldr	r1, [sp, #96]	; 0x60
 80084e0:	4620      	mov	r0, r4
 80084e2:	f001 feb9 	bl	800a258 <_Bfree>
 80084e6:	9905      	ldr	r1, [sp, #20]
 80084e8:	4620      	mov	r0, r4
 80084ea:	f001 feb5 	bl	800a258 <_Bfree>
 80084ee:	4631      	mov	r1, r6
 80084f0:	4620      	mov	r0, r4
 80084f2:	f001 feb1 	bl	800a258 <_Bfree>
 80084f6:	4629      	mov	r1, r5
 80084f8:	4620      	mov	r0, r4
 80084fa:	f001 fead 	bl	800a258 <_Bfree>
 80084fe:	e61a      	b.n	8008136 <_strtod_l+0x666>
 8008500:	f1ba 0f00 	cmp.w	sl, #0
 8008504:	d11b      	bne.n	800853e <_strtod_l+0xa6e>
 8008506:	f3cb 0313 	ubfx	r3, fp, #0, #20
 800850a:	b9f3      	cbnz	r3, 800854a <_strtod_l+0xa7a>
 800850c:	4b6c      	ldr	r3, [pc, #432]	; (80086c0 <_strtod_l+0xbf0>)
 800850e:	2200      	movs	r2, #0
 8008510:	4640      	mov	r0, r8
 8008512:	4649      	mov	r1, r9
 8008514:	f7f8 fae2 	bl	8000adc <__aeabi_dcmplt>
 8008518:	b9d0      	cbnz	r0, 8008550 <_strtod_l+0xa80>
 800851a:	4640      	mov	r0, r8
 800851c:	4649      	mov	r1, r9
 800851e:	4b6c      	ldr	r3, [pc, #432]	; (80086d0 <_strtod_l+0xc00>)
 8008520:	2200      	movs	r2, #0
 8008522:	f7f8 f869 	bl	80005f8 <__aeabi_dmul>
 8008526:	4680      	mov	r8, r0
 8008528:	4689      	mov	r9, r1
 800852a:	f109 4300 	add.w	r3, r9, #2147483648	; 0x80000000
 800852e:	f8cd 8050 	str.w	r8, [sp, #80]	; 0x50
 8008532:	9315      	str	r3, [sp, #84]	; 0x54
 8008534:	e9dd 2314 	ldrd	r2, r3, [sp, #80]	; 0x50
 8008538:	e9cd 2308 	strd	r2, r3, [sp, #32]
 800853c:	e79d      	b.n	800847a <_strtod_l+0x9aa>
 800853e:	f1ba 0f01 	cmp.w	sl, #1
 8008542:	d102      	bne.n	800854a <_strtod_l+0xa7a>
 8008544:	2f00      	cmp	r7, #0
 8008546:	f43f ad83 	beq.w	8008050 <_strtod_l+0x580>
 800854a:	4b62      	ldr	r3, [pc, #392]	; (80086d4 <_strtod_l+0xc04>)
 800854c:	2200      	movs	r2, #0
 800854e:	e78e      	b.n	800846e <_strtod_l+0x99e>
 8008550:	f8df 917c 	ldr.w	r9, [pc, #380]	; 80086d0 <_strtod_l+0xc00>
 8008554:	f04f 0800 	mov.w	r8, #0
 8008558:	e7e7      	b.n	800852a <_strtod_l+0xa5a>
 800855a:	4b5d      	ldr	r3, [pc, #372]	; (80086d0 <_strtod_l+0xc00>)
 800855c:	4640      	mov	r0, r8
 800855e:	4649      	mov	r1, r9
 8008560:	2200      	movs	r2, #0
 8008562:	f7f8 f849 	bl	80005f8 <__aeabi_dmul>
 8008566:	9b0b      	ldr	r3, [sp, #44]	; 0x2c
 8008568:	4680      	mov	r8, r0
 800856a:	4689      	mov	r9, r1
 800856c:	b933      	cbnz	r3, 800857c <_strtod_l+0xaac>
 800856e:	f101 4300 	add.w	r3, r1, #2147483648	; 0x80000000
 8008572:	900e      	str	r0, [sp, #56]	; 0x38
 8008574:	930f      	str	r3, [sp, #60]	; 0x3c
 8008576:	e9dd 230e 	ldrd	r2, r3, [sp, #56]	; 0x38
 800857a:	e7dd      	b.n	8008538 <_strtod_l+0xa68>
 800857c:	e9cd 890e 	strd	r8, r9, [sp, #56]	; 0x38
 8008580:	e7f9      	b.n	8008576 <_strtod_l+0xaa6>
 8008582:	f103 7b54 	add.w	fp, r3, #55574528	; 0x3500000
 8008586:	9b04      	ldr	r3, [sp, #16]
 8008588:	2b00      	cmp	r3, #0
 800858a:	d1a8      	bne.n	80084de <_strtod_l+0xa0e>
 800858c:	f02b 4300 	bic.w	r3, fp, #2147483648	; 0x80000000
 8008590:	9a0d      	ldr	r2, [sp, #52]	; 0x34
 8008592:	0d1b      	lsrs	r3, r3, #20
 8008594:	051b      	lsls	r3, r3, #20
 8008596:	429a      	cmp	r2, r3
 8008598:	d1a1      	bne.n	80084de <_strtod_l+0xa0e>
 800859a:	4640      	mov	r0, r8
 800859c:	4649      	mov	r1, r9
 800859e:	f7f8 fb73 	bl	8000c88 <__aeabi_d2lz>
 80085a2:	f7f7 fffb 	bl	800059c <__aeabi_l2d>
 80085a6:	4602      	mov	r2, r0
 80085a8:	460b      	mov	r3, r1
 80085aa:	4640      	mov	r0, r8
 80085ac:	4649      	mov	r1, r9
 80085ae:	f7f7 fe6b 	bl	8000288 <__aeabi_dsub>
 80085b2:	9a0b      	ldr	r2, [sp, #44]	; 0x2c
 80085b4:	f3cb 0313 	ubfx	r3, fp, #0, #20
 80085b8:	ea43 030a 	orr.w	r3, r3, sl
 80085bc:	4313      	orrs	r3, r2
 80085be:	4680      	mov	r8, r0
 80085c0:	4689      	mov	r9, r1
 80085c2:	d055      	beq.n	8008670 <_strtod_l+0xba0>
 80085c4:	a336      	add	r3, pc, #216	; (adr r3, 80086a0 <_strtod_l+0xbd0>)
 80085c6:	e9d3 2300 	ldrd	r2, r3, [r3]
 80085ca:	f7f8 fa87 	bl	8000adc <__aeabi_dcmplt>
 80085ce:	2800      	cmp	r0, #0
 80085d0:	f47f acd0 	bne.w	8007f74 <_strtod_l+0x4a4>
 80085d4:	a334      	add	r3, pc, #208	; (adr r3, 80086a8 <_strtod_l+0xbd8>)
 80085d6:	e9d3 2300 	ldrd	r2, r3, [r3]
 80085da:	4640      	mov	r0, r8
 80085dc:	4649      	mov	r1, r9
 80085de:	f7f8 fa9b 	bl	8000b18 <__aeabi_dcmpgt>
 80085e2:	2800      	cmp	r0, #0
 80085e4:	f43f af7b 	beq.w	80084de <_strtod_l+0xa0e>
 80085e8:	e4c4      	b.n	8007f74 <_strtod_l+0x4a4>
 80085ea:	9b04      	ldr	r3, [sp, #16]
 80085ec:	b333      	cbz	r3, 800863c <_strtod_l+0xb6c>
 80085ee:	9b0d      	ldr	r3, [sp, #52]	; 0x34
 80085f0:	f1b3 6fd4 	cmp.w	r3, #111149056	; 0x6a00000
 80085f4:	d822      	bhi.n	800863c <_strtod_l+0xb6c>
 80085f6:	a32e      	add	r3, pc, #184	; (adr r3, 80086b0 <_strtod_l+0xbe0>)
 80085f8:	e9d3 2300 	ldrd	r2, r3, [r3]
 80085fc:	4640      	mov	r0, r8
 80085fe:	4649      	mov	r1, r9
 8008600:	f7f8 fa76 	bl	8000af0 <__aeabi_dcmple>
 8008604:	b1a0      	cbz	r0, 8008630 <_strtod_l+0xb60>
 8008606:	4649      	mov	r1, r9
 8008608:	4640      	mov	r0, r8
 800860a:	f7f8 facd 	bl	8000ba8 <__aeabi_d2uiz>
 800860e:	2801      	cmp	r0, #1
 8008610:	bf38      	it	cc
 8008612:	2001      	movcc	r0, #1
 8008614:	f7f7 ff76 	bl	8000504 <__aeabi_ui2d>
 8008618:	9b0b      	ldr	r3, [sp, #44]	; 0x2c
 800861a:	4680      	mov	r8, r0
 800861c:	4689      	mov	r9, r1
 800861e:	bb23      	cbnz	r3, 800866a <_strtod_l+0xb9a>
 8008620:	f101 4300 	add.w	r3, r1, #2147483648	; 0x80000000
 8008624:	9010      	str	r0, [sp, #64]	; 0x40
 8008626:	9311      	str	r3, [sp, #68]	; 0x44
 8008628:	e9dd 2310 	ldrd	r2, r3, [sp, #64]	; 0x40
 800862c:	e9cd 2308 	strd	r2, r3, [sp, #32]
 8008630:	9b09      	ldr	r3, [sp, #36]	; 0x24
 8008632:	9a0d      	ldr	r2, [sp, #52]	; 0x34
 8008634:	f103 63d6 	add.w	r3, r3, #112197632	; 0x6b00000
 8008638:	1a9b      	subs	r3, r3, r2
 800863a:	9309      	str	r3, [sp, #36]	; 0x24
 800863c:	e9dd 0108 	ldrd	r0, r1, [sp, #32]
 8008640:	eeb0 0a48 	vmov.f32	s0, s16
 8008644:	eef0 0a68 	vmov.f32	s1, s17
 8008648:	e9cd 0108 	strd	r0, r1, [sp, #32]
 800864c:	f002 f936 	bl	800a8bc <__ulp>
 8008650:	e9dd 0108 	ldrd	r0, r1, [sp, #32]
 8008654:	ec53 2b10 	vmov	r2, r3, d0
 8008658:	f7f7 ffce 	bl	80005f8 <__aeabi_dmul>
 800865c:	ec53 2b18 	vmov	r2, r3, d8
 8008660:	f7f7 fe14 	bl	800028c <__adddf3>
 8008664:	4682      	mov	sl, r0
 8008666:	468b      	mov	fp, r1
 8008668:	e78d      	b.n	8008586 <_strtod_l+0xab6>
 800866a:	e9cd 8910 	strd	r8, r9, [sp, #64]	; 0x40
 800866e:	e7db      	b.n	8008628 <_strtod_l+0xb58>
 8008670:	a311      	add	r3, pc, #68	; (adr r3, 80086b8 <_strtod_l+0xbe8>)
 8008672:	e9d3 2300 	ldrd	r2, r3, [r3]
 8008676:	f7f8 fa31 	bl	8000adc <__aeabi_dcmplt>
 800867a:	e7b2      	b.n	80085e2 <_strtod_l+0xb12>
 800867c:	2300      	movs	r3, #0
 800867e:	930a      	str	r3, [sp, #40]	; 0x28
 8008680:	9a13      	ldr	r2, [sp, #76]	; 0x4c
 8008682:	9b17      	ldr	r3, [sp, #92]	; 0x5c
 8008684:	6013      	str	r3, [r2, #0]
 8008686:	f7ff ba6b 	b.w	8007b60 <_strtod_l+0x90>
 800868a:	2a65      	cmp	r2, #101	; 0x65
 800868c:	f43f ab5f 	beq.w	8007d4e <_strtod_l+0x27e>
 8008690:	2a45      	cmp	r2, #69	; 0x45
 8008692:	f43f ab5c 	beq.w	8007d4e <_strtod_l+0x27e>
 8008696:	2301      	movs	r3, #1
 8008698:	f7ff bb94 	b.w	8007dc4 <_strtod_l+0x2f4>
 800869c:	f3af 8000 	nop.w
 80086a0:	94a03595 	.word	0x94a03595
 80086a4:	3fdfffff 	.word	0x3fdfffff
 80086a8:	35afe535 	.word	0x35afe535
 80086ac:	3fe00000 	.word	0x3fe00000
 80086b0:	ffc00000 	.word	0xffc00000
 80086b4:	41dfffff 	.word	0x41dfffff
 80086b8:	94a03595 	.word	0x94a03595
 80086bc:	3fcfffff 	.word	0x3fcfffff
 80086c0:	3ff00000 	.word	0x3ff00000
 80086c4:	7ff00000 	.word	0x7ff00000
 80086c8:	7fe00000 	.word	0x7fe00000
 80086cc:	7c9fffff 	.word	0x7c9fffff
 80086d0:	3fe00000 	.word	0x3fe00000
 80086d4:	bff00000 	.word	0xbff00000
 80086d8:	7fefffff 	.word	0x7fefffff

080086dc <_strtod_r>:
 80086dc:	4b01      	ldr	r3, [pc, #4]	; (80086e4 <_strtod_r+0x8>)
 80086de:	f7ff b9f7 	b.w	8007ad0 <_strtod_l>
 80086e2:	bf00      	nop
 80086e4:	20000078 	.word	0x20000078

080086e8 <_strtol_l.constprop.0>:
 80086e8:	2b01      	cmp	r3, #1
 80086ea:	e92d 47f0 	stmdb	sp!, {r4, r5, r6, r7, r8, r9, sl, lr}
 80086ee:	d001      	beq.n	80086f4 <_strtol_l.constprop.0+0xc>
 80086f0:	2b24      	cmp	r3, #36	; 0x24
 80086f2:	d906      	bls.n	8008702 <_strtol_l.constprop.0+0x1a>
 80086f4:	f7fe fa6e 	bl	8006bd4 <__errno>
 80086f8:	2316      	movs	r3, #22
 80086fa:	6003      	str	r3, [r0, #0]
 80086fc:	2000      	movs	r0, #0
 80086fe:	e8bd 87f0 	ldmia.w	sp!, {r4, r5, r6, r7, r8, r9, sl, pc}
 8008702:	f8df c0e4 	ldr.w	ip, [pc, #228]	; 80087e8 <_strtol_l.constprop.0+0x100>
 8008706:	460d      	mov	r5, r1
 8008708:	462e      	mov	r6, r5
 800870a:	f815 4b01 	ldrb.w	r4, [r5], #1
 800870e:	f814 700c 	ldrb.w	r7, [r4, ip]
 8008712:	f017 0708 	ands.w	r7, r7, #8
 8008716:	d1f7      	bne.n	8008708 <_strtol_l.constprop.0+0x20>
 8008718:	2c2d      	cmp	r4, #45	; 0x2d
 800871a:	d132      	bne.n	8008782 <_strtol_l.constprop.0+0x9a>
 800871c:	782c      	ldrb	r4, [r5, #0]
 800871e:	2701      	movs	r7, #1
 8008720:	1cb5      	adds	r5, r6, #2
 8008722:	2b00      	cmp	r3, #0
 8008724:	d05b      	beq.n	80087de <_strtol_l.constprop.0+0xf6>
 8008726:	2b10      	cmp	r3, #16
 8008728:	d109      	bne.n	800873e <_strtol_l.constprop.0+0x56>
 800872a:	2c30      	cmp	r4, #48	; 0x30
 800872c:	d107      	bne.n	800873e <_strtol_l.constprop.0+0x56>
 800872e:	782c      	ldrb	r4, [r5, #0]
 8008730:	f004 04df 	and.w	r4, r4, #223	; 0xdf
 8008734:	2c58      	cmp	r4, #88	; 0x58
 8008736:	d14d      	bne.n	80087d4 <_strtol_l.constprop.0+0xec>
 8008738:	786c      	ldrb	r4, [r5, #1]
 800873a:	2310      	movs	r3, #16
 800873c:	3502      	adds	r5, #2
 800873e:	f107 4800 	add.w	r8, r7, #2147483648	; 0x80000000
 8008742:	f108 38ff 	add.w	r8, r8, #4294967295
 8008746:	f04f 0c00 	mov.w	ip, #0
 800874a:	fbb8 f9f3 	udiv	r9, r8, r3
 800874e:	4666      	mov	r6, ip
 8008750:	fb03 8a19 	mls	sl, r3, r9, r8
 8008754:	f1a4 0e30 	sub.w	lr, r4, #48	; 0x30
 8008758:	f1be 0f09 	cmp.w	lr, #9
 800875c:	d816      	bhi.n	800878c <_strtol_l.constprop.0+0xa4>
 800875e:	4674      	mov	r4, lr
 8008760:	42a3      	cmp	r3, r4
 8008762:	dd24      	ble.n	80087ae <_strtol_l.constprop.0+0xc6>
 8008764:	f1bc 0f00 	cmp.w	ip, #0
 8008768:	db1e      	blt.n	80087a8 <_strtol_l.constprop.0+0xc0>
 800876a:	45b1      	cmp	r9, r6
 800876c:	d31c      	bcc.n	80087a8 <_strtol_l.constprop.0+0xc0>
 800876e:	d101      	bne.n	8008774 <_strtol_l.constprop.0+0x8c>
 8008770:	45a2      	cmp	sl, r4
 8008772:	db19      	blt.n	80087a8 <_strtol_l.constprop.0+0xc0>
 8008774:	fb06 4603 	mla	r6, r6, r3, r4
 8008778:	f04f 0c01 	mov.w	ip, #1
 800877c:	f815 4b01 	ldrb.w	r4, [r5], #1
 8008780:	e7e8      	b.n	8008754 <_strtol_l.constprop.0+0x6c>
 8008782:	2c2b      	cmp	r4, #43	; 0x2b
 8008784:	bf04      	itt	eq
 8008786:	782c      	ldrbeq	r4, [r5, #0]
 8008788:	1cb5      	addeq	r5, r6, #2
 800878a:	e7ca      	b.n	8008722 <_strtol_l.constprop.0+0x3a>
 800878c:	f1a4 0e41 	sub.w	lr, r4, #65	; 0x41
 8008790:	f1be 0f19 	cmp.w	lr, #25
 8008794:	d801      	bhi.n	800879a <_strtol_l.constprop.0+0xb2>
 8008796:	3c37      	subs	r4, #55	; 0x37
 8008798:	e7e2      	b.n	8008760 <_strtol_l.constprop.0+0x78>
 800879a:	f1a4 0e61 	sub.w	lr, r4, #97	; 0x61
 800879e:	f1be 0f19 	cmp.w	lr, #25
 80087a2:	d804      	bhi.n	80087ae <_strtol_l.constprop.0+0xc6>
 80087a4:	3c57      	subs	r4, #87	; 0x57
 80087a6:	e7db      	b.n	8008760 <_strtol_l.constprop.0+0x78>
 80087a8:	f04f 3cff 	mov.w	ip, #4294967295
 80087ac:	e7e6      	b.n	800877c <_strtol_l.constprop.0+0x94>
 80087ae:	f1bc 0f00 	cmp.w	ip, #0
 80087b2:	da05      	bge.n	80087c0 <_strtol_l.constprop.0+0xd8>
 80087b4:	2322      	movs	r3, #34	; 0x22
 80087b6:	6003      	str	r3, [r0, #0]
 80087b8:	4646      	mov	r6, r8
 80087ba:	b942      	cbnz	r2, 80087ce <_strtol_l.constprop.0+0xe6>
 80087bc:	4630      	mov	r0, r6
 80087be:	e79e      	b.n	80086fe <_strtol_l.constprop.0+0x16>
 80087c0:	b107      	cbz	r7, 80087c4 <_strtol_l.constprop.0+0xdc>
 80087c2:	4276      	negs	r6, r6
 80087c4:	2a00      	cmp	r2, #0
 80087c6:	d0f9      	beq.n	80087bc <_strtol_l.constprop.0+0xd4>
 80087c8:	f1bc 0f00 	cmp.w	ip, #0
 80087cc:	d000      	beq.n	80087d0 <_strtol_l.constprop.0+0xe8>
 80087ce:	1e69      	subs	r1, r5, #1
 80087d0:	6011      	str	r1, [r2, #0]
 80087d2:	e7f3      	b.n	80087bc <_strtol_l.constprop.0+0xd4>
 80087d4:	2430      	movs	r4, #48	; 0x30
 80087d6:	2b00      	cmp	r3, #0
 80087d8:	d1b1      	bne.n	800873e <_strtol_l.constprop.0+0x56>
 80087da:	2308      	movs	r3, #8
 80087dc:	e7af      	b.n	800873e <_strtol_l.constprop.0+0x56>
 80087de:	2c30      	cmp	r4, #48	; 0x30
 80087e0:	d0a5      	beq.n	800872e <_strtol_l.constprop.0+0x46>
 80087e2:	230a      	movs	r3, #10
 80087e4:	e7ab      	b.n	800873e <_strtol_l.constprop.0+0x56>
 80087e6:	bf00      	nop
 80087e8:	0800b921 	.word	0x0800b921

080087ec <_strtol_r>:
 80087ec:	f7ff bf7c 	b.w	80086e8 <_strtol_l.constprop.0>

080087f0 <__swbuf_r>:
 80087f0:	b5f8      	push	{r3, r4, r5, r6, r7, lr}
 80087f2:	460e      	mov	r6, r1
 80087f4:	4614      	mov	r4, r2
 80087f6:	4605      	mov	r5, r0
 80087f8:	b118      	cbz	r0, 8008802 <__swbuf_r+0x12>
 80087fa:	6983      	ldr	r3, [r0, #24]
 80087fc:	b90b      	cbnz	r3, 8008802 <__swbuf_r+0x12>
 80087fe:	f001 f84b 	bl	8009898 <__sinit>
 8008802:	4b21      	ldr	r3, [pc, #132]	; (8008888 <__swbuf_r+0x98>)
 8008804:	429c      	cmp	r4, r3
 8008806:	d12b      	bne.n	8008860 <__swbuf_r+0x70>
 8008808:	686c      	ldr	r4, [r5, #4]
 800880a:	69a3      	ldr	r3, [r4, #24]
 800880c:	60a3      	str	r3, [r4, #8]
 800880e:	89a3      	ldrh	r3, [r4, #12]
 8008810:	071a      	lsls	r2, r3, #28
 8008812:	d52f      	bpl.n	8008874 <__swbuf_r+0x84>
 8008814:	6923      	ldr	r3, [r4, #16]
 8008816:	b36b      	cbz	r3, 8008874 <__swbuf_r+0x84>
 8008818:	6923      	ldr	r3, [r4, #16]
 800881a:	6820      	ldr	r0, [r4, #0]
 800881c:	1ac0      	subs	r0, r0, r3
 800881e:	6963      	ldr	r3, [r4, #20]
 8008820:	b2f6      	uxtb	r6, r6
 8008822:	4283      	cmp	r3, r0
 8008824:	4637      	mov	r7, r6
 8008826:	dc04      	bgt.n	8008832 <__swbuf_r+0x42>
 8008828:	4621      	mov	r1, r4
 800882a:	4628      	mov	r0, r5
 800882c:	f000 ffa0 	bl	8009770 <_fflush_r>
 8008830:	bb30      	cbnz	r0, 8008880 <__swbuf_r+0x90>
 8008832:	68a3      	ldr	r3, [r4, #8]
 8008834:	3b01      	subs	r3, #1
 8008836:	60a3      	str	r3, [r4, #8]
 8008838:	6823      	ldr	r3, [r4, #0]
 800883a:	1c5a      	adds	r2, r3, #1
 800883c:	6022      	str	r2, [r4, #0]
 800883e:	701e      	strb	r6, [r3, #0]
 8008840:	6963      	ldr	r3, [r4, #20]
 8008842:	3001      	adds	r0, #1
 8008844:	4283      	cmp	r3, r0
 8008846:	d004      	beq.n	8008852 <__swbuf_r+0x62>
 8008848:	89a3      	ldrh	r3, [r4, #12]
 800884a:	07db      	lsls	r3, r3, #31
 800884c:	d506      	bpl.n	800885c <__swbuf_r+0x6c>
 800884e:	2e0a      	cmp	r6, #10
 8008850:	d104      	bne.n	800885c <__swbuf_r+0x6c>
 8008852:	4621      	mov	r1, r4
 8008854:	4628      	mov	r0, r5
 8008856:	f000 ff8b 	bl	8009770 <_fflush_r>
 800885a:	b988      	cbnz	r0, 8008880 <__swbuf_r+0x90>
 800885c:	4638      	mov	r0, r7
 800885e:	bdf8      	pop	{r3, r4, r5, r6, r7, pc}
 8008860:	4b0a      	ldr	r3, [pc, #40]	; (800888c <__swbuf_r+0x9c>)
 8008862:	429c      	cmp	r4, r3
 8008864:	d101      	bne.n	800886a <__swbuf_r+0x7a>
 8008866:	68ac      	ldr	r4, [r5, #8]
 8008868:	e7cf      	b.n	800880a <__swbuf_r+0x1a>
 800886a:	4b09      	ldr	r3, [pc, #36]	; (8008890 <__swbuf_r+0xa0>)
 800886c:	429c      	cmp	r4, r3
 800886e:	bf08      	it	eq
 8008870:	68ec      	ldreq	r4, [r5, #12]
 8008872:	e7ca      	b.n	800880a <__swbuf_r+0x1a>
 8008874:	4621      	mov	r1, r4
 8008876:	4628      	mov	r0, r5
 8008878:	f000 f80c 	bl	8008894 <__swsetup_r>
 800887c:	2800      	cmp	r0, #0
 800887e:	d0cb      	beq.n	8008818 <__swbuf_r+0x28>
 8008880:	f04f 37ff 	mov.w	r7, #4294967295
 8008884:	e7ea      	b.n	800885c <__swbuf_r+0x6c>
 8008886:	bf00      	nop
 8008888:	0800bad4 	.word	0x0800bad4
 800888c:	0800baf4 	.word	0x0800baf4
 8008890:	0800bab4 	.word	0x0800bab4

08008894 <__swsetup_r>:
 8008894:	4b32      	ldr	r3, [pc, #200]	; (8008960 <__swsetup_r+0xcc>)
 8008896:	b570      	push	{r4, r5, r6, lr}
 8008898:	681d      	ldr	r5, [r3, #0]
 800889a:	4606      	mov	r6, r0
 800889c:	460c      	mov	r4, r1
 800889e:	b125      	cbz	r5, 80088aa <__swsetup_r+0x16>
 80088a0:	69ab      	ldr	r3, [r5, #24]
 80088a2:	b913      	cbnz	r3, 80088aa <__swsetup_r+0x16>
 80088a4:	4628      	mov	r0, r5
 80088a6:	f000 fff7 	bl	8009898 <__sinit>
 80088aa:	4b2e      	ldr	r3, [pc, #184]	; (8008964 <__swsetup_r+0xd0>)
 80088ac:	429c      	cmp	r4, r3
 80088ae:	d10f      	bne.n	80088d0 <__swsetup_r+0x3c>
 80088b0:	686c      	ldr	r4, [r5, #4]
 80088b2:	89a3      	ldrh	r3, [r4, #12]
 80088b4:	f9b4 200c 	ldrsh.w	r2, [r4, #12]
 80088b8:	0719      	lsls	r1, r3, #28
 80088ba:	d42c      	bmi.n	8008916 <__swsetup_r+0x82>
 80088bc:	06dd      	lsls	r5, r3, #27
 80088be:	d411      	bmi.n	80088e4 <__swsetup_r+0x50>
 80088c0:	2309      	movs	r3, #9
 80088c2:	6033      	str	r3, [r6, #0]
 80088c4:	f042 0340 	orr.w	r3, r2, #64	; 0x40
 80088c8:	81a3      	strh	r3, [r4, #12]
 80088ca:	f04f 30ff 	mov.w	r0, #4294967295
 80088ce:	e03e      	b.n	800894e <__swsetup_r+0xba>
 80088d0:	4b25      	ldr	r3, [pc, #148]	; (8008968 <__swsetup_r+0xd4>)
 80088d2:	429c      	cmp	r4, r3
 80088d4:	d101      	bne.n	80088da <__swsetup_r+0x46>
 80088d6:	68ac      	ldr	r4, [r5, #8]
 80088d8:	e7eb      	b.n	80088b2 <__swsetup_r+0x1e>
 80088da:	4b24      	ldr	r3, [pc, #144]	; (800896c <__swsetup_r+0xd8>)
 80088dc:	429c      	cmp	r4, r3
 80088de:	bf08      	it	eq
 80088e0:	68ec      	ldreq	r4, [r5, #12]
 80088e2:	e7e6      	b.n	80088b2 <__swsetup_r+0x1e>
 80088e4:	0758      	lsls	r0, r3, #29
 80088e6:	d512      	bpl.n	800890e <__swsetup_r+0x7a>
 80088e8:	6b61      	ldr	r1, [r4, #52]	; 0x34
 80088ea:	b141      	cbz	r1, 80088fe <__swsetup_r+0x6a>
 80088ec:	f104 0344 	add.w	r3, r4, #68	; 0x44
 80088f0:	4299      	cmp	r1, r3
 80088f2:	d002      	beq.n	80088fa <__swsetup_r+0x66>
 80088f4:	4630      	mov	r0, r6
 80088f6:	f002 f947 	bl	800ab88 <_free_r>
 80088fa:	2300      	movs	r3, #0
 80088fc:	6363      	str	r3, [r4, #52]	; 0x34
 80088fe:	89a3      	ldrh	r3, [r4, #12]
 8008900:	f023 0324 	bic.w	r3, r3, #36	; 0x24
 8008904:	81a3      	strh	r3, [r4, #12]
 8008906:	2300      	movs	r3, #0
 8008908:	6063      	str	r3, [r4, #4]
 800890a:	6923      	ldr	r3, [r4, #16]
 800890c:	6023      	str	r3, [r4, #0]
 800890e:	89a3      	ldrh	r3, [r4, #12]
 8008910:	f043 0308 	orr.w	r3, r3, #8
 8008914:	81a3      	strh	r3, [r4, #12]
 8008916:	6923      	ldr	r3, [r4, #16]
 8008918:	b94b      	cbnz	r3, 800892e <__swsetup_r+0x9a>
 800891a:	89a3      	ldrh	r3, [r4, #12]
 800891c:	f403 7320 	and.w	r3, r3, #640	; 0x280
 8008920:	f5b3 7f00 	cmp.w	r3, #512	; 0x200
 8008924:	d003      	beq.n	800892e <__swsetup_r+0x9a>
 8008926:	4621      	mov	r1, r4
 8008928:	4630      	mov	r0, r6
 800892a:	f001 fbed 	bl	800a108 <__smakebuf_r>
 800892e:	89a0      	ldrh	r0, [r4, #12]
 8008930:	f9b4 200c 	ldrsh.w	r2, [r4, #12]
 8008934:	f010 0301 	ands.w	r3, r0, #1
 8008938:	d00a      	beq.n	8008950 <__swsetup_r+0xbc>
 800893a:	2300      	movs	r3, #0
 800893c:	60a3      	str	r3, [r4, #8]
 800893e:	6963      	ldr	r3, [r4, #20]
 8008940:	425b      	negs	r3, r3
 8008942:	61a3      	str	r3, [r4, #24]
 8008944:	6923      	ldr	r3, [r4, #16]
 8008946:	b943      	cbnz	r3, 800895a <__swsetup_r+0xc6>
 8008948:	f010 0080 	ands.w	r0, r0, #128	; 0x80
 800894c:	d1ba      	bne.n	80088c4 <__swsetup_r+0x30>
 800894e:	bd70      	pop	{r4, r5, r6, pc}
 8008950:	0781      	lsls	r1, r0, #30
 8008952:	bf58      	it	pl
 8008954:	6963      	ldrpl	r3, [r4, #20]
 8008956:	60a3      	str	r3, [r4, #8]
 8008958:	e7f4      	b.n	8008944 <__swsetup_r+0xb0>
 800895a:	2000      	movs	r0, #0
 800895c:	e7f7      	b.n	800894e <__swsetup_r+0xba>
 800895e:	bf00      	nop
 8008960:	20000010 	.word	0x20000010
 8008964:	0800bad4 	.word	0x0800bad4
 8008968:	0800baf4 	.word	0x0800baf4
 800896c:	0800bab4 	.word	0x0800bab4

08008970 <quorem>:
 8008970:	e92d 4ff7 	stmdb	sp!, {r0, r1, r2, r4, r5, r6, r7, r8, r9, sl, fp, lr}
 8008974:	6903      	ldr	r3, [r0, #16]
 8008976:	690c      	ldr	r4, [r1, #16]
 8008978:	42a3      	cmp	r3, r4
 800897a:	4607      	mov	r7, r0
 800897c:	f2c0 8081 	blt.w	8008a82 <quorem+0x112>
 8008980:	3c01      	subs	r4, #1
 8008982:	f101 0814 	add.w	r8, r1, #20
 8008986:	f100 0514 	add.w	r5, r0, #20
 800898a:	eb05 0384 	add.w	r3, r5, r4, lsl #2
 800898e:	9301      	str	r3, [sp, #4]
 8008990:	f858 3024 	ldr.w	r3, [r8, r4, lsl #2]
 8008994:	f855 2024 	ldr.w	r2, [r5, r4, lsl #2]
 8008998:	3301      	adds	r3, #1
 800899a:	429a      	cmp	r2, r3
 800899c:	ea4f 0b84 	mov.w	fp, r4, lsl #2
 80089a0:	eb08 0984 	add.w	r9, r8, r4, lsl #2
 80089a4:	fbb2 f6f3 	udiv	r6, r2, r3
 80089a8:	d331      	bcc.n	8008a0e <quorem+0x9e>
 80089aa:	f04f 0e00 	mov.w	lr, #0
 80089ae:	4640      	mov	r0, r8
 80089b0:	46ac      	mov	ip, r5
 80089b2:	46f2      	mov	sl, lr
 80089b4:	f850 2b04 	ldr.w	r2, [r0], #4
 80089b8:	b293      	uxth	r3, r2
 80089ba:	fb06 e303 	mla	r3, r6, r3, lr
 80089be:	ea4f 4e13 	mov.w	lr, r3, lsr #16
 80089c2:	b29b      	uxth	r3, r3
 80089c4:	ebaa 0303 	sub.w	r3, sl, r3
 80089c8:	f8dc a000 	ldr.w	sl, [ip]
 80089cc:	0c12      	lsrs	r2, r2, #16
 80089ce:	fa13 f38a 	uxtah	r3, r3, sl
 80089d2:	fb06 e202 	mla	r2, r6, r2, lr
 80089d6:	9300      	str	r3, [sp, #0]
 80089d8:	9b00      	ldr	r3, [sp, #0]
 80089da:	ea4f 4e12 	mov.w	lr, r2, lsr #16
 80089de:	b292      	uxth	r2, r2
 80089e0:	ebc2 421a 	rsb	r2, r2, sl, lsr #16
 80089e4:	eb02 4223 	add.w	r2, r2, r3, asr #16
 80089e8:	f8bd 3000 	ldrh.w	r3, [sp]
 80089ec:	4581      	cmp	r9, r0
 80089ee:	ea43 4302 	orr.w	r3, r3, r2, lsl #16
 80089f2:	f84c 3b04 	str.w	r3, [ip], #4
 80089f6:	ea4f 4a22 	mov.w	sl, r2, asr #16
 80089fa:	d2db      	bcs.n	80089b4 <quorem+0x44>
 80089fc:	f855 300b 	ldr.w	r3, [r5, fp]
 8008a00:	b92b      	cbnz	r3, 8008a0e <quorem+0x9e>
 8008a02:	9b01      	ldr	r3, [sp, #4]
 8008a04:	3b04      	subs	r3, #4
 8008a06:	429d      	cmp	r5, r3
 8008a08:	461a      	mov	r2, r3
 8008a0a:	d32e      	bcc.n	8008a6a <quorem+0xfa>
 8008a0c:	613c      	str	r4, [r7, #16]
 8008a0e:	4638      	mov	r0, r7
 8008a10:	f001 feae 	bl	800a770 <__mcmp>
 8008a14:	2800      	cmp	r0, #0
 8008a16:	db24      	blt.n	8008a62 <quorem+0xf2>
 8008a18:	3601      	adds	r6, #1
 8008a1a:	4628      	mov	r0, r5
 8008a1c:	f04f 0c00 	mov.w	ip, #0
 8008a20:	f858 2b04 	ldr.w	r2, [r8], #4
 8008a24:	f8d0 e000 	ldr.w	lr, [r0]
 8008a28:	b293      	uxth	r3, r2
 8008a2a:	ebac 0303 	sub.w	r3, ip, r3
 8008a2e:	0c12      	lsrs	r2, r2, #16
 8008a30:	fa13 f38e 	uxtah	r3, r3, lr
 8008a34:	ebc2 421e 	rsb	r2, r2, lr, lsr #16
 8008a38:	eb02 4223 	add.w	r2, r2, r3, asr #16
 8008a3c:	b29b      	uxth	r3, r3
 8008a3e:	ea43 4302 	orr.w	r3, r3, r2, lsl #16
 8008a42:	45c1      	cmp	r9, r8
 8008a44:	f840 3b04 	str.w	r3, [r0], #4
 8008a48:	ea4f 4c22 	mov.w	ip, r2, asr #16
 8008a4c:	d2e8      	bcs.n	8008a20 <quorem+0xb0>
 8008a4e:	f855 2024 	ldr.w	r2, [r5, r4, lsl #2]
 8008a52:	eb05 0384 	add.w	r3, r5, r4, lsl #2
 8008a56:	b922      	cbnz	r2, 8008a62 <quorem+0xf2>
 8008a58:	3b04      	subs	r3, #4
 8008a5a:	429d      	cmp	r5, r3
 8008a5c:	461a      	mov	r2, r3
 8008a5e:	d30a      	bcc.n	8008a76 <quorem+0x106>
 8008a60:	613c      	str	r4, [r7, #16]
 8008a62:	4630      	mov	r0, r6
 8008a64:	b003      	add	sp, #12
 8008a66:	e8bd 8ff0 	ldmia.w	sp!, {r4, r5, r6, r7, r8, r9, sl, fp, pc}
 8008a6a:	6812      	ldr	r2, [r2, #0]
 8008a6c:	3b04      	subs	r3, #4
 8008a6e:	2a00      	cmp	r2, #0
 8008a70:	d1cc      	bne.n	8008a0c <quorem+0x9c>
 8008a72:	3c01      	subs	r4, #1
 8008a74:	e7c7      	b.n	8008a06 <quorem+0x96>
 8008a76:	6812      	ldr	r2, [r2, #0]
 8008a78:	3b04      	subs	r3, #4
 8008a7a:	2a00      	cmp	r2, #0
 8008a7c:	d1f0      	bne.n	8008a60 <quorem+0xf0>
 8008a7e:	3c01      	subs	r4, #1
 8008a80:	e7eb      	b.n	8008a5a <quorem+0xea>
 8008a82:	2000      	movs	r0, #0
 8008a84:	e7ee      	b.n	8008a64 <quorem+0xf4>
	...

08008a88 <_dtoa_r>:
 8008a88:	e92d 4ff0 	stmdb	sp!, {r4, r5, r6, r7, r8, r9, sl, fp, lr}
 8008a8c:	ed2d 8b04 	vpush	{d8-d9}
 8008a90:	ec57 6b10 	vmov	r6, r7, d0
 8008a94:	b093      	sub	sp, #76	; 0x4c
 8008a96:	6a45      	ldr	r5, [r0, #36]	; 0x24
 8008a98:	f8dd 8080 	ldr.w	r8, [sp, #128]	; 0x80
 8008a9c:	9106      	str	r1, [sp, #24]
 8008a9e:	ee10 aa10 	vmov	sl, s0
 8008aa2:	4604      	mov	r4, r0
 8008aa4:	9209      	str	r2, [sp, #36]	; 0x24
 8008aa6:	930c      	str	r3, [sp, #48]	; 0x30
 8008aa8:	46bb      	mov	fp, r7
 8008aaa:	b975      	cbnz	r5, 8008aca <_dtoa_r+0x42>
 8008aac:	2010      	movs	r0, #16
 8008aae:	f001 fb6b 	bl	800a188 <malloc>
 8008ab2:	4602      	mov	r2, r0
 8008ab4:	6260      	str	r0, [r4, #36]	; 0x24
 8008ab6:	b920      	cbnz	r0, 8008ac2 <_dtoa_r+0x3a>
 8008ab8:	4ba7      	ldr	r3, [pc, #668]	; (8008d58 <_dtoa_r+0x2d0>)
 8008aba:	21ea      	movs	r1, #234	; 0xea
 8008abc:	48a7      	ldr	r0, [pc, #668]	; (8008d5c <_dtoa_r+0x2d4>)
 8008abe:	f002 fc89 	bl	800b3d4 <__assert_func>
 8008ac2:	e9c0 5501 	strd	r5, r5, [r0, #4]
 8008ac6:	6005      	str	r5, [r0, #0]
 8008ac8:	60c5      	str	r5, [r0, #12]
 8008aca:	6a63      	ldr	r3, [r4, #36]	; 0x24
 8008acc:	6819      	ldr	r1, [r3, #0]
 8008ace:	b151      	cbz	r1, 8008ae6 <_dtoa_r+0x5e>
 8008ad0:	685a      	ldr	r2, [r3, #4]
 8008ad2:	604a      	str	r2, [r1, #4]
 8008ad4:	2301      	movs	r3, #1
 8008ad6:	4093      	lsls	r3, r2
 8008ad8:	608b      	str	r3, [r1, #8]
 8008ada:	4620      	mov	r0, r4
 8008adc:	f001 fbbc 	bl	800a258 <_Bfree>
 8008ae0:	6a63      	ldr	r3, [r4, #36]	; 0x24
 8008ae2:	2200      	movs	r2, #0
 8008ae4:	601a      	str	r2, [r3, #0]
 8008ae6:	1e3b      	subs	r3, r7, #0
 8008ae8:	bfaa      	itet	ge
 8008aea:	2300      	movge	r3, #0
 8008aec:	f023 4b00 	biclt.w	fp, r3, #2147483648	; 0x80000000
 8008af0:	f8c8 3000 	strge.w	r3, [r8]
 8008af4:	4b9a      	ldr	r3, [pc, #616]	; (8008d60 <_dtoa_r+0x2d8>)
 8008af6:	bfbc      	itt	lt
 8008af8:	2201      	movlt	r2, #1
 8008afa:	f8c8 2000 	strlt.w	r2, [r8]
 8008afe:	ea33 030b 	bics.w	r3, r3, fp
 8008b02:	d11b      	bne.n	8008b3c <_dtoa_r+0xb4>
 8008b04:	9a0c      	ldr	r2, [sp, #48]	; 0x30
 8008b06:	f242 730f 	movw	r3, #9999	; 0x270f
 8008b0a:	6013      	str	r3, [r2, #0]
 8008b0c:	f3cb 0313 	ubfx	r3, fp, #0, #20
 8008b10:	4333      	orrs	r3, r6
 8008b12:	f000 8592 	beq.w	800963a <_dtoa_r+0xbb2>
 8008b16:	9b21      	ldr	r3, [sp, #132]	; 0x84
 8008b18:	b963      	cbnz	r3, 8008b34 <_dtoa_r+0xac>
 8008b1a:	4b92      	ldr	r3, [pc, #584]	; (8008d64 <_dtoa_r+0x2dc>)
 8008b1c:	e022      	b.n	8008b64 <_dtoa_r+0xdc>
 8008b1e:	4b92      	ldr	r3, [pc, #584]	; (8008d68 <_dtoa_r+0x2e0>)
 8008b20:	9301      	str	r3, [sp, #4]
 8008b22:	3308      	adds	r3, #8
 8008b24:	9a21      	ldr	r2, [sp, #132]	; 0x84
 8008b26:	6013      	str	r3, [r2, #0]
 8008b28:	9801      	ldr	r0, [sp, #4]
 8008b2a:	b013      	add	sp, #76	; 0x4c
 8008b2c:	ecbd 8b04 	vpop	{d8-d9}
 8008b30:	e8bd 8ff0 	ldmia.w	sp!, {r4, r5, r6, r7, r8, r9, sl, fp, pc}
 8008b34:	4b8b      	ldr	r3, [pc, #556]	; (8008d64 <_dtoa_r+0x2dc>)
 8008b36:	9301      	str	r3, [sp, #4]
 8008b38:	3303      	adds	r3, #3
 8008b3a:	e7f3      	b.n	8008b24 <_dtoa_r+0x9c>
 8008b3c:	2200      	movs	r2, #0
 8008b3e:	2300      	movs	r3, #0
 8008b40:	4650      	mov	r0, sl
 8008b42:	4659      	mov	r1, fp
 8008b44:	f7f7 ffc0 	bl	8000ac8 <__aeabi_dcmpeq>
 8008b48:	ec4b ab19 	vmov	d9, sl, fp
 8008b4c:	4680      	mov	r8, r0
 8008b4e:	b158      	cbz	r0, 8008b68 <_dtoa_r+0xe0>
 8008b50:	9a0c      	ldr	r2, [sp, #48]	; 0x30
 8008b52:	2301      	movs	r3, #1
 8008b54:	6013      	str	r3, [r2, #0]
 8008b56:	9b21      	ldr	r3, [sp, #132]	; 0x84
 8008b58:	2b00      	cmp	r3, #0
 8008b5a:	f000 856b 	beq.w	8009634 <_dtoa_r+0xbac>
 8008b5e:	4883      	ldr	r0, [pc, #524]	; (8008d6c <_dtoa_r+0x2e4>)
 8008b60:	6018      	str	r0, [r3, #0]
 8008b62:	1e43      	subs	r3, r0, #1
 8008b64:	9301      	str	r3, [sp, #4]
 8008b66:	e7df      	b.n	8008b28 <_dtoa_r+0xa0>
 8008b68:	ec4b ab10 	vmov	d0, sl, fp
 8008b6c:	aa10      	add	r2, sp, #64	; 0x40
 8008b6e:	a911      	add	r1, sp, #68	; 0x44
 8008b70:	4620      	mov	r0, r4
 8008b72:	f001 ff1f 	bl	800a9b4 <__d2b>
 8008b76:	f3cb 550a 	ubfx	r5, fp, #20, #11
 8008b7a:	ee08 0a10 	vmov	s16, r0
 8008b7e:	2d00      	cmp	r5, #0
 8008b80:	f000 8084 	beq.w	8008c8c <_dtoa_r+0x204>
 8008b84:	ee19 3a90 	vmov	r3, s19
 8008b88:	f3c3 0313 	ubfx	r3, r3, #0, #20
 8008b8c:	f043 577f 	orr.w	r7, r3, #1069547520	; 0x3fc00000
 8008b90:	4656      	mov	r6, sl
 8008b92:	f447 1740 	orr.w	r7, r7, #3145728	; 0x300000
 8008b96:	f2a5 35ff 	subw	r5, r5, #1023	; 0x3ff
 8008b9a:	f8cd 8038 	str.w	r8, [sp, #56]	; 0x38
 8008b9e:	4b74      	ldr	r3, [pc, #464]	; (8008d70 <_dtoa_r+0x2e8>)
 8008ba0:	2200      	movs	r2, #0
 8008ba2:	4630      	mov	r0, r6
 8008ba4:	4639      	mov	r1, r7
 8008ba6:	f7f7 fb6f 	bl	8000288 <__aeabi_dsub>
 8008baa:	a365      	add	r3, pc, #404	; (adr r3, 8008d40 <_dtoa_r+0x2b8>)
 8008bac:	e9d3 2300 	ldrd	r2, r3, [r3]
 8008bb0:	f7f7 fd22 	bl	80005f8 <__aeabi_dmul>
 8008bb4:	a364      	add	r3, pc, #400	; (adr r3, 8008d48 <_dtoa_r+0x2c0>)
 8008bb6:	e9d3 2300 	ldrd	r2, r3, [r3]
 8008bba:	f7f7 fb67 	bl	800028c <__adddf3>
 8008bbe:	4606      	mov	r6, r0
 8008bc0:	4628      	mov	r0, r5
 8008bc2:	460f      	mov	r7, r1
 8008bc4:	f7f7 fcae 	bl	8000524 <__aeabi_i2d>
 8008bc8:	a361      	add	r3, pc, #388	; (adr r3, 8008d50 <_dtoa_r+0x2c8>)
 8008bca:	e9d3 2300 	ldrd	r2, r3, [r3]
 8008bce:	f7f7 fd13 	bl	80005f8 <__aeabi_dmul>
 8008bd2:	4602      	mov	r2, r0
 8008bd4:	460b      	mov	r3, r1
 8008bd6:	4630      	mov	r0, r6
 8008bd8:	4639      	mov	r1, r7
 8008bda:	f7f7 fb57 	bl	800028c <__adddf3>
 8008bde:	4606      	mov	r6, r0
 8008be0:	460f      	mov	r7, r1
 8008be2:	f7f7 ffb9 	bl	8000b58 <__aeabi_d2iz>
 8008be6:	2200      	movs	r2, #0
 8008be8:	9000      	str	r0, [sp, #0]
 8008bea:	2300      	movs	r3, #0
 8008bec:	4630      	mov	r0, r6
 8008bee:	4639      	mov	r1, r7
 8008bf0:	f7f7 ff74 	bl	8000adc <__aeabi_dcmplt>
 8008bf4:	b150      	cbz	r0, 8008c0c <_dtoa_r+0x184>
 8008bf6:	9800      	ldr	r0, [sp, #0]
 8008bf8:	f7f7 fc94 	bl	8000524 <__aeabi_i2d>
 8008bfc:	4632      	mov	r2, r6
 8008bfe:	463b      	mov	r3, r7
 8008c00:	f7f7 ff62 	bl	8000ac8 <__aeabi_dcmpeq>
 8008c04:	b910      	cbnz	r0, 8008c0c <_dtoa_r+0x184>
 8008c06:	9b00      	ldr	r3, [sp, #0]
 8008c08:	3b01      	subs	r3, #1
 8008c0a:	9300      	str	r3, [sp, #0]
 8008c0c:	9b00      	ldr	r3, [sp, #0]
 8008c0e:	2b16      	cmp	r3, #22
 8008c10:	d85a      	bhi.n	8008cc8 <_dtoa_r+0x240>
 8008c12:	9a00      	ldr	r2, [sp, #0]
 8008c14:	4b57      	ldr	r3, [pc, #348]	; (8008d74 <_dtoa_r+0x2ec>)
 8008c16:	eb03 03c2 	add.w	r3, r3, r2, lsl #3
 8008c1a:	e9d3 2300 	ldrd	r2, r3, [r3]
 8008c1e:	ec51 0b19 	vmov	r0, r1, d9
 8008c22:	f7f7 ff5b 	bl	8000adc <__aeabi_dcmplt>
 8008c26:	2800      	cmp	r0, #0
 8008c28:	d050      	beq.n	8008ccc <_dtoa_r+0x244>
 8008c2a:	9b00      	ldr	r3, [sp, #0]
 8008c2c:	3b01      	subs	r3, #1
 8008c2e:	9300      	str	r3, [sp, #0]
 8008c30:	2300      	movs	r3, #0
 8008c32:	930b      	str	r3, [sp, #44]	; 0x2c
 8008c34:	9b10      	ldr	r3, [sp, #64]	; 0x40
 8008c36:	1b5d      	subs	r5, r3, r5
 8008c38:	1e6b      	subs	r3, r5, #1
 8008c3a:	9305      	str	r3, [sp, #20]
 8008c3c:	bf45      	ittet	mi
 8008c3e:	f1c5 0301 	rsbmi	r3, r5, #1
 8008c42:	9304      	strmi	r3, [sp, #16]
 8008c44:	2300      	movpl	r3, #0
 8008c46:	2300      	movmi	r3, #0
 8008c48:	bf4c      	ite	mi
 8008c4a:	9305      	strmi	r3, [sp, #20]
 8008c4c:	9304      	strpl	r3, [sp, #16]
 8008c4e:	9b00      	ldr	r3, [sp, #0]
 8008c50:	2b00      	cmp	r3, #0
 8008c52:	db3d      	blt.n	8008cd0 <_dtoa_r+0x248>
 8008c54:	9b05      	ldr	r3, [sp, #20]
 8008c56:	9a00      	ldr	r2, [sp, #0]
 8008c58:	920a      	str	r2, [sp, #40]	; 0x28
 8008c5a:	4413      	add	r3, r2
 8008c5c:	9305      	str	r3, [sp, #20]
 8008c5e:	2300      	movs	r3, #0
 8008c60:	9307      	str	r3, [sp, #28]
 8008c62:	9b06      	ldr	r3, [sp, #24]
 8008c64:	2b09      	cmp	r3, #9
 8008c66:	f200 8089 	bhi.w	8008d7c <_dtoa_r+0x2f4>
 8008c6a:	2b05      	cmp	r3, #5
 8008c6c:	bfc4      	itt	gt
 8008c6e:	3b04      	subgt	r3, #4
 8008c70:	9306      	strgt	r3, [sp, #24]
 8008c72:	9b06      	ldr	r3, [sp, #24]
 8008c74:	f1a3 0302 	sub.w	r3, r3, #2
 8008c78:	bfcc      	ite	gt
 8008c7a:	2500      	movgt	r5, #0
 8008c7c:	2501      	movle	r5, #1
 8008c7e:	2b03      	cmp	r3, #3
 8008c80:	f200 8087 	bhi.w	8008d92 <_dtoa_r+0x30a>
 8008c84:	e8df f003 	tbb	[pc, r3]
 8008c88:	59383a2d 	.word	0x59383a2d
 8008c8c:	e9dd 5310 	ldrd	r5, r3, [sp, #64]	; 0x40
 8008c90:	441d      	add	r5, r3
 8008c92:	f205 4332 	addw	r3, r5, #1074	; 0x432
 8008c96:	2b20      	cmp	r3, #32
 8008c98:	bfc1      	itttt	gt
 8008c9a:	f1c3 0340 	rsbgt	r3, r3, #64	; 0x40
 8008c9e:	f205 4012 	addwgt	r0, r5, #1042	; 0x412
 8008ca2:	fa0b f303 	lslgt.w	r3, fp, r3
 8008ca6:	fa26 f000 	lsrgt.w	r0, r6, r0
 8008caa:	bfda      	itte	le
 8008cac:	f1c3 0320 	rsble	r3, r3, #32
 8008cb0:	fa06 f003 	lslle.w	r0, r6, r3
 8008cb4:	4318      	orrgt	r0, r3
 8008cb6:	f7f7 fc25 	bl	8000504 <__aeabi_ui2d>
 8008cba:	2301      	movs	r3, #1
 8008cbc:	4606      	mov	r6, r0
 8008cbe:	f1a1 77f8 	sub.w	r7, r1, #32505856	; 0x1f00000
 8008cc2:	3d01      	subs	r5, #1
 8008cc4:	930e      	str	r3, [sp, #56]	; 0x38
 8008cc6:	e76a      	b.n	8008b9e <_dtoa_r+0x116>
 8008cc8:	2301      	movs	r3, #1
 8008cca:	e7b2      	b.n	8008c32 <_dtoa_r+0x1aa>
 8008ccc:	900b      	str	r0, [sp, #44]	; 0x2c
 8008cce:	e7b1      	b.n	8008c34 <_dtoa_r+0x1ac>
 8008cd0:	9b04      	ldr	r3, [sp, #16]
 8008cd2:	9a00      	ldr	r2, [sp, #0]
 8008cd4:	1a9b      	subs	r3, r3, r2
 8008cd6:	9304      	str	r3, [sp, #16]
 8008cd8:	4253      	negs	r3, r2
 8008cda:	9307      	str	r3, [sp, #28]
 8008cdc:	2300      	movs	r3, #0
 8008cde:	930a      	str	r3, [sp, #40]	; 0x28
 8008ce0:	e7bf      	b.n	8008c62 <_dtoa_r+0x1da>
 8008ce2:	2300      	movs	r3, #0
 8008ce4:	9308      	str	r3, [sp, #32]
 8008ce6:	9b09      	ldr	r3, [sp, #36]	; 0x24
 8008ce8:	2b00      	cmp	r3, #0
 8008cea:	dc55      	bgt.n	8008d98 <_dtoa_r+0x310>
 8008cec:	2301      	movs	r3, #1
 8008cee:	e9cd 3302 	strd	r3, r3, [sp, #8]
 8008cf2:	461a      	mov	r2, r3
 8008cf4:	9209      	str	r2, [sp, #36]	; 0x24
 8008cf6:	e00c      	b.n	8008d12 <_dtoa_r+0x28a>
 8008cf8:	2301      	movs	r3, #1
 8008cfa:	e7f3      	b.n	8008ce4 <_dtoa_r+0x25c>
 8008cfc:	2300      	movs	r3, #0
 8008cfe:	9a09      	ldr	r2, [sp, #36]	; 0x24
 8008d00:	9308      	str	r3, [sp, #32]
 8008d02:	9b00      	ldr	r3, [sp, #0]
 8008d04:	4413      	add	r3, r2
 8008d06:	9302      	str	r3, [sp, #8]
 8008d08:	3301      	adds	r3, #1
 8008d0a:	2b01      	cmp	r3, #1
 8008d0c:	9303      	str	r3, [sp, #12]
 8008d0e:	bfb8      	it	lt
 8008d10:	2301      	movlt	r3, #1
 8008d12:	6a60      	ldr	r0, [r4, #36]	; 0x24
 8008d14:	2200      	movs	r2, #0
 8008d16:	6042      	str	r2, [r0, #4]
 8008d18:	2204      	movs	r2, #4
 8008d1a:	f102 0614 	add.w	r6, r2, #20
 8008d1e:	429e      	cmp	r6, r3
 8008d20:	6841      	ldr	r1, [r0, #4]
 8008d22:	d93d      	bls.n	8008da0 <_dtoa_r+0x318>
 8008d24:	4620      	mov	r0, r4
 8008d26:	f001 fa57 	bl	800a1d8 <_Balloc>
 8008d2a:	9001      	str	r0, [sp, #4]
 8008d2c:	2800      	cmp	r0, #0
 8008d2e:	d13b      	bne.n	8008da8 <_dtoa_r+0x320>
 8008d30:	4b11      	ldr	r3, [pc, #68]	; (8008d78 <_dtoa_r+0x2f0>)
 8008d32:	4602      	mov	r2, r0
 8008d34:	f44f 71d5 	mov.w	r1, #426	; 0x1aa
 8008d38:	e6c0      	b.n	8008abc <_dtoa_r+0x34>
 8008d3a:	2301      	movs	r3, #1
 8008d3c:	e7df      	b.n	8008cfe <_dtoa_r+0x276>
 8008d3e:	bf00      	nop
 8008d40:	636f4361 	.word	0x636f4361
 8008d44:	3fd287a7 	.word	0x3fd287a7
 8008d48:	8b60c8b3 	.word	0x8b60c8b3
 8008d4c:	3fc68a28 	.word	0x3fc68a28
 8008d50:	509f79fb 	.word	0x509f79fb
 8008d54:	3fd34413 	.word	0x3fd34413
 8008d58:	0800ba2e 	.word	0x0800ba2e
 8008d5c:	0800ba45 	.word	0x0800ba45
 8008d60:	7ff00000 	.word	0x7ff00000
 8008d64:	0800ba2a 	.word	0x0800ba2a
 8008d68:	0800ba21 	.word	0x0800ba21
 8008d6c:	0800b8a5 	.word	0x0800b8a5
 8008d70:	3ff80000 	.word	0x3ff80000
 8008d74:	0800bc18 	.word	0x0800bc18
 8008d78:	0800baa0 	.word	0x0800baa0
 8008d7c:	2501      	movs	r5, #1
 8008d7e:	2300      	movs	r3, #0
 8008d80:	9306      	str	r3, [sp, #24]
 8008d82:	9508      	str	r5, [sp, #32]
 8008d84:	f04f 33ff 	mov.w	r3, #4294967295
 8008d88:	e9cd 3302 	strd	r3, r3, [sp, #8]
 8008d8c:	2200      	movs	r2, #0
 8008d8e:	2312      	movs	r3, #18
 8008d90:	e7b0      	b.n	8008cf4 <_dtoa_r+0x26c>
 8008d92:	2301      	movs	r3, #1
 8008d94:	9308      	str	r3, [sp, #32]
 8008d96:	e7f5      	b.n	8008d84 <_dtoa_r+0x2fc>
 8008d98:	9b09      	ldr	r3, [sp, #36]	; 0x24
 8008d9a:	e9cd 3302 	strd	r3, r3, [sp, #8]
 8008d9e:	e7b8      	b.n	8008d12 <_dtoa_r+0x28a>
 8008da0:	3101      	adds	r1, #1
 8008da2:	6041      	str	r1, [r0, #4]
 8008da4:	0052      	lsls	r2, r2, #1
 8008da6:	e7b8      	b.n	8008d1a <_dtoa_r+0x292>
 8008da8:	6a63      	ldr	r3, [r4, #36]	; 0x24
 8008daa:	9a01      	ldr	r2, [sp, #4]
 8008dac:	601a      	str	r2, [r3, #0]
 8008dae:	9b03      	ldr	r3, [sp, #12]
 8008db0:	2b0e      	cmp	r3, #14
 8008db2:	f200 809d 	bhi.w	8008ef0 <_dtoa_r+0x468>
 8008db6:	2d00      	cmp	r5, #0
 8008db8:	f000 809a 	beq.w	8008ef0 <_dtoa_r+0x468>
 8008dbc:	9b00      	ldr	r3, [sp, #0]
 8008dbe:	2b00      	cmp	r3, #0
 8008dc0:	dd32      	ble.n	8008e28 <_dtoa_r+0x3a0>
 8008dc2:	4ab7      	ldr	r2, [pc, #732]	; (80090a0 <_dtoa_r+0x618>)
 8008dc4:	f003 030f 	and.w	r3, r3, #15
 8008dc8:	eb02 03c3 	add.w	r3, r2, r3, lsl #3
 8008dcc:	e9d3 8900 	ldrd	r8, r9, [r3]
 8008dd0:	9b00      	ldr	r3, [sp, #0]
 8008dd2:	05d8      	lsls	r0, r3, #23
 8008dd4:	ea4f 1723 	mov.w	r7, r3, asr #4
 8008dd8:	d516      	bpl.n	8008e08 <_dtoa_r+0x380>
 8008dda:	4bb2      	ldr	r3, [pc, #712]	; (80090a4 <_dtoa_r+0x61c>)
 8008ddc:	ec51 0b19 	vmov	r0, r1, d9
 8008de0:	e9d3 2308 	ldrd	r2, r3, [r3, #32]
 8008de4:	f7f7 fd32 	bl	800084c <__aeabi_ddiv>
 8008de8:	f007 070f 	and.w	r7, r7, #15
 8008dec:	4682      	mov	sl, r0
 8008dee:	468b      	mov	fp, r1
 8008df0:	2503      	movs	r5, #3
 8008df2:	4eac      	ldr	r6, [pc, #688]	; (80090a4 <_dtoa_r+0x61c>)
 8008df4:	b957      	cbnz	r7, 8008e0c <_dtoa_r+0x384>
 8008df6:	4642      	mov	r2, r8
 8008df8:	464b      	mov	r3, r9
 8008dfa:	4650      	mov	r0, sl
 8008dfc:	4659      	mov	r1, fp
 8008dfe:	f7f7 fd25 	bl	800084c <__aeabi_ddiv>
 8008e02:	4682      	mov	sl, r0
 8008e04:	468b      	mov	fp, r1
 8008e06:	e028      	b.n	8008e5a <_dtoa_r+0x3d2>
 8008e08:	2502      	movs	r5, #2
 8008e0a:	e7f2      	b.n	8008df2 <_dtoa_r+0x36a>
 8008e0c:	07f9      	lsls	r1, r7, #31
 8008e0e:	d508      	bpl.n	8008e22 <_dtoa_r+0x39a>
 8008e10:	4640      	mov	r0, r8
 8008e12:	4649      	mov	r1, r9
 8008e14:	e9d6 2300 	ldrd	r2, r3, [r6]
 8008e18:	f7f7 fbee 	bl	80005f8 <__aeabi_dmul>
 8008e1c:	3501      	adds	r5, #1
 8008e1e:	4680      	mov	r8, r0
 8008e20:	4689      	mov	r9, r1
 8008e22:	107f      	asrs	r7, r7, #1
 8008e24:	3608      	adds	r6, #8
 8008e26:	e7e5      	b.n	8008df4 <_dtoa_r+0x36c>
 8008e28:	f000 809b 	beq.w	8008f62 <_dtoa_r+0x4da>
 8008e2c:	9b00      	ldr	r3, [sp, #0]
 8008e2e:	4f9d      	ldr	r7, [pc, #628]	; (80090a4 <_dtoa_r+0x61c>)
 8008e30:	425e      	negs	r6, r3
 8008e32:	4b9b      	ldr	r3, [pc, #620]	; (80090a0 <_dtoa_r+0x618>)
 8008e34:	f006 020f 	and.w	r2, r6, #15
 8008e38:	eb03 03c2 	add.w	r3, r3, r2, lsl #3
 8008e3c:	e9d3 2300 	ldrd	r2, r3, [r3]
 8008e40:	ec51 0b19 	vmov	r0, r1, d9
 8008e44:	f7f7 fbd8 	bl	80005f8 <__aeabi_dmul>
 8008e48:	1136      	asrs	r6, r6, #4
 8008e4a:	4682      	mov	sl, r0
 8008e4c:	468b      	mov	fp, r1
 8008e4e:	2300      	movs	r3, #0
 8008e50:	2502      	movs	r5, #2
 8008e52:	2e00      	cmp	r6, #0
 8008e54:	d17a      	bne.n	8008f4c <_dtoa_r+0x4c4>
 8008e56:	2b00      	cmp	r3, #0
 8008e58:	d1d3      	bne.n	8008e02 <_dtoa_r+0x37a>
 8008e5a:	9b0b      	ldr	r3, [sp, #44]	; 0x2c
 8008e5c:	2b00      	cmp	r3, #0
 8008e5e:	f000 8082 	beq.w	8008f66 <_dtoa_r+0x4de>
 8008e62:	4b91      	ldr	r3, [pc, #580]	; (80090a8 <_dtoa_r+0x620>)
 8008e64:	2200      	movs	r2, #0
 8008e66:	4650      	mov	r0, sl
 8008e68:	4659      	mov	r1, fp
 8008e6a:	f7f7 fe37 	bl	8000adc <__aeabi_dcmplt>
 8008e6e:	2800      	cmp	r0, #0
 8008e70:	d079      	beq.n	8008f66 <_dtoa_r+0x4de>
 8008e72:	9b03      	ldr	r3, [sp, #12]
 8008e74:	2b00      	cmp	r3, #0
 8008e76:	d076      	beq.n	8008f66 <_dtoa_r+0x4de>
 8008e78:	9b02      	ldr	r3, [sp, #8]
 8008e7a:	2b00      	cmp	r3, #0
 8008e7c:	dd36      	ble.n	8008eec <_dtoa_r+0x464>
 8008e7e:	9b00      	ldr	r3, [sp, #0]
 8008e80:	4650      	mov	r0, sl
 8008e82:	4659      	mov	r1, fp
 8008e84:	1e5f      	subs	r7, r3, #1
 8008e86:	2200      	movs	r2, #0
 8008e88:	4b88      	ldr	r3, [pc, #544]	; (80090ac <_dtoa_r+0x624>)
 8008e8a:	f7f7 fbb5 	bl	80005f8 <__aeabi_dmul>
 8008e8e:	9e02      	ldr	r6, [sp, #8]
 8008e90:	4682      	mov	sl, r0
 8008e92:	468b      	mov	fp, r1
 8008e94:	3501      	adds	r5, #1
 8008e96:	4628      	mov	r0, r5
 8008e98:	f7f7 fb44 	bl	8000524 <__aeabi_i2d>
 8008e9c:	4652      	mov	r2, sl
 8008e9e:	465b      	mov	r3, fp
 8008ea0:	f7f7 fbaa 	bl	80005f8 <__aeabi_dmul>
 8008ea4:	4b82      	ldr	r3, [pc, #520]	; (80090b0 <_dtoa_r+0x628>)
 8008ea6:	2200      	movs	r2, #0
 8008ea8:	f7f7 f9f0 	bl	800028c <__adddf3>
 8008eac:	46d0      	mov	r8, sl
 8008eae:	46d9      	mov	r9, fp
 8008eb0:	4682      	mov	sl, r0
 8008eb2:	f1a1 7b50 	sub.w	fp, r1, #54525952	; 0x3400000
 8008eb6:	2e00      	cmp	r6, #0
 8008eb8:	d158      	bne.n	8008f6c <_dtoa_r+0x4e4>
 8008eba:	4b7e      	ldr	r3, [pc, #504]	; (80090b4 <_dtoa_r+0x62c>)
 8008ebc:	2200      	movs	r2, #0
 8008ebe:	4640      	mov	r0, r8
 8008ec0:	4649      	mov	r1, r9
 8008ec2:	f7f7 f9e1 	bl	8000288 <__aeabi_dsub>
 8008ec6:	4652      	mov	r2, sl
 8008ec8:	465b      	mov	r3, fp
 8008eca:	4680      	mov	r8, r0
 8008ecc:	4689      	mov	r9, r1
 8008ece:	f7f7 fe23 	bl	8000b18 <__aeabi_dcmpgt>
 8008ed2:	2800      	cmp	r0, #0
 8008ed4:	f040 8295 	bne.w	8009402 <_dtoa_r+0x97a>
 8008ed8:	4652      	mov	r2, sl
 8008eda:	f10b 4300 	add.w	r3, fp, #2147483648	; 0x80000000
 8008ede:	4640      	mov	r0, r8
 8008ee0:	4649      	mov	r1, r9
 8008ee2:	f7f7 fdfb 	bl	8000adc <__aeabi_dcmplt>
 8008ee6:	2800      	cmp	r0, #0
 8008ee8:	f040 8289 	bne.w	80093fe <_dtoa_r+0x976>
 8008eec:	ec5b ab19 	vmov	sl, fp, d9
 8008ef0:	9b11      	ldr	r3, [sp, #68]	; 0x44
 8008ef2:	2b00      	cmp	r3, #0
 8008ef4:	f2c0 8148 	blt.w	8009188 <_dtoa_r+0x700>
 8008ef8:	9a00      	ldr	r2, [sp, #0]
 8008efa:	2a0e      	cmp	r2, #14
 8008efc:	f300 8144 	bgt.w	8009188 <_dtoa_r+0x700>
 8008f00:	4b67      	ldr	r3, [pc, #412]	; (80090a0 <_dtoa_r+0x618>)
 8008f02:	eb03 03c2 	add.w	r3, r3, r2, lsl #3
 8008f06:	e9d3 8900 	ldrd	r8, r9, [r3]
 8008f0a:	9b09      	ldr	r3, [sp, #36]	; 0x24
 8008f0c:	2b00      	cmp	r3, #0
 8008f0e:	f280 80d5 	bge.w	80090bc <_dtoa_r+0x634>
 8008f12:	9b03      	ldr	r3, [sp, #12]
 8008f14:	2b00      	cmp	r3, #0
 8008f16:	f300 80d1 	bgt.w	80090bc <_dtoa_r+0x634>
 8008f1a:	f040 826f 	bne.w	80093fc <_dtoa_r+0x974>
 8008f1e:	4b65      	ldr	r3, [pc, #404]	; (80090b4 <_dtoa_r+0x62c>)
 8008f20:	2200      	movs	r2, #0
 8008f22:	4640      	mov	r0, r8
 8008f24:	4649      	mov	r1, r9
 8008f26:	f7f7 fb67 	bl	80005f8 <__aeabi_dmul>
 8008f2a:	4652      	mov	r2, sl
 8008f2c:	465b      	mov	r3, fp
 8008f2e:	f7f7 fde9 	bl	8000b04 <__aeabi_dcmpge>
 8008f32:	9e03      	ldr	r6, [sp, #12]
 8008f34:	4637      	mov	r7, r6
 8008f36:	2800      	cmp	r0, #0
 8008f38:	f040 8245 	bne.w	80093c6 <_dtoa_r+0x93e>
 8008f3c:	9d01      	ldr	r5, [sp, #4]
 8008f3e:	2331      	movs	r3, #49	; 0x31
 8008f40:	f805 3b01 	strb.w	r3, [r5], #1
 8008f44:	9b00      	ldr	r3, [sp, #0]
 8008f46:	3301      	adds	r3, #1
 8008f48:	9300      	str	r3, [sp, #0]
 8008f4a:	e240      	b.n	80093ce <_dtoa_r+0x946>
 8008f4c:	07f2      	lsls	r2, r6, #31
 8008f4e:	d505      	bpl.n	8008f5c <_dtoa_r+0x4d4>
 8008f50:	e9d7 2300 	ldrd	r2, r3, [r7]
 8008f54:	f7f7 fb50 	bl	80005f8 <__aeabi_dmul>
 8008f58:	3501      	adds	r5, #1
 8008f5a:	2301      	movs	r3, #1
 8008f5c:	1076      	asrs	r6, r6, #1
 8008f5e:	3708      	adds	r7, #8
 8008f60:	e777      	b.n	8008e52 <_dtoa_r+0x3ca>
 8008f62:	2502      	movs	r5, #2
 8008f64:	e779      	b.n	8008e5a <_dtoa_r+0x3d2>
 8008f66:	9f00      	ldr	r7, [sp, #0]
 8008f68:	9e03      	ldr	r6, [sp, #12]
 8008f6a:	e794      	b.n	8008e96 <_dtoa_r+0x40e>
 8008f6c:	9901      	ldr	r1, [sp, #4]
 8008f6e:	4b4c      	ldr	r3, [pc, #304]	; (80090a0 <_dtoa_r+0x618>)
 8008f70:	4431      	add	r1, r6
 8008f72:	910d      	str	r1, [sp, #52]	; 0x34
 8008f74:	9908      	ldr	r1, [sp, #32]
 8008f76:	eb03 03c6 	add.w	r3, r3, r6, lsl #3
 8008f7a:	e953 2302 	ldrd	r2, r3, [r3, #-8]
 8008f7e:	2900      	cmp	r1, #0
 8008f80:	d043      	beq.n	800900a <_dtoa_r+0x582>
 8008f82:	494d      	ldr	r1, [pc, #308]	; (80090b8 <_dtoa_r+0x630>)
 8008f84:	2000      	movs	r0, #0
 8008f86:	f7f7 fc61 	bl	800084c <__aeabi_ddiv>
 8008f8a:	4652      	mov	r2, sl
 8008f8c:	465b      	mov	r3, fp
 8008f8e:	f7f7 f97b 	bl	8000288 <__aeabi_dsub>
 8008f92:	9d01      	ldr	r5, [sp, #4]
 8008f94:	4682      	mov	sl, r0
 8008f96:	468b      	mov	fp, r1
 8008f98:	4649      	mov	r1, r9
 8008f9a:	4640      	mov	r0, r8
 8008f9c:	f7f7 fddc 	bl	8000b58 <__aeabi_d2iz>
 8008fa0:	4606      	mov	r6, r0
 8008fa2:	f7f7 fabf 	bl	8000524 <__aeabi_i2d>
 8008fa6:	4602      	mov	r2, r0
 8008fa8:	460b      	mov	r3, r1
 8008faa:	4640      	mov	r0, r8
 8008fac:	4649      	mov	r1, r9
 8008fae:	f7f7 f96b 	bl	8000288 <__aeabi_dsub>
 8008fb2:	3630      	adds	r6, #48	; 0x30
 8008fb4:	f805 6b01 	strb.w	r6, [r5], #1
 8008fb8:	4652      	mov	r2, sl
 8008fba:	465b      	mov	r3, fp
 8008fbc:	4680      	mov	r8, r0
 8008fbe:	4689      	mov	r9, r1
 8008fc0:	f7f7 fd8c 	bl	8000adc <__aeabi_dcmplt>
 8008fc4:	2800      	cmp	r0, #0
 8008fc6:	d163      	bne.n	8009090 <_dtoa_r+0x608>
 8008fc8:	4642      	mov	r2, r8
 8008fca:	464b      	mov	r3, r9
 8008fcc:	4936      	ldr	r1, [pc, #216]	; (80090a8 <_dtoa_r+0x620>)
 8008fce:	2000      	movs	r0, #0
 8008fd0:	f7f7 f95a 	bl	8000288 <__aeabi_dsub>
 8008fd4:	4652      	mov	r2, sl
 8008fd6:	465b      	mov	r3, fp
 8008fd8:	f7f7 fd80 	bl	8000adc <__aeabi_dcmplt>
 8008fdc:	2800      	cmp	r0, #0
 8008fde:	f040 80b5 	bne.w	800914c <_dtoa_r+0x6c4>
 8008fe2:	9b0d      	ldr	r3, [sp, #52]	; 0x34
 8008fe4:	429d      	cmp	r5, r3
 8008fe6:	d081      	beq.n	8008eec <_dtoa_r+0x464>
 8008fe8:	4b30      	ldr	r3, [pc, #192]	; (80090ac <_dtoa_r+0x624>)
 8008fea:	2200      	movs	r2, #0
 8008fec:	4650      	mov	r0, sl
 8008fee:	4659      	mov	r1, fp
 8008ff0:	f7f7 fb02 	bl	80005f8 <__aeabi_dmul>
 8008ff4:	4b2d      	ldr	r3, [pc, #180]	; (80090ac <_dtoa_r+0x624>)
 8008ff6:	4682      	mov	sl, r0
 8008ff8:	468b      	mov	fp, r1
 8008ffa:	4640      	mov	r0, r8
 8008ffc:	4649      	mov	r1, r9
 8008ffe:	2200      	movs	r2, #0
 8009000:	f7f7 fafa 	bl	80005f8 <__aeabi_dmul>
 8009004:	4680      	mov	r8, r0
 8009006:	4689      	mov	r9, r1
 8009008:	e7c6      	b.n	8008f98 <_dtoa_r+0x510>
 800900a:	4650      	mov	r0, sl
 800900c:	4659      	mov	r1, fp
 800900e:	f7f7 faf3 	bl	80005f8 <__aeabi_dmul>
 8009012:	9b0d      	ldr	r3, [sp, #52]	; 0x34
 8009014:	9d01      	ldr	r5, [sp, #4]
 8009016:	930f      	str	r3, [sp, #60]	; 0x3c
 8009018:	4682      	mov	sl, r0
 800901a:	468b      	mov	fp, r1
 800901c:	4649      	mov	r1, r9
 800901e:	4640      	mov	r0, r8
 8009020:	f7f7 fd9a 	bl	8000b58 <__aeabi_d2iz>
 8009024:	4606      	mov	r6, r0
 8009026:	f7f7 fa7d 	bl	8000524 <__aeabi_i2d>
 800902a:	3630      	adds	r6, #48	; 0x30
 800902c:	4602      	mov	r2, r0
 800902e:	460b      	mov	r3, r1
 8009030:	4640      	mov	r0, r8
 8009032:	4649      	mov	r1, r9
 8009034:	f7f7 f928 	bl	8000288 <__aeabi_dsub>
 8009038:	f805 6b01 	strb.w	r6, [r5], #1
 800903c:	9b0d      	ldr	r3, [sp, #52]	; 0x34
 800903e:	429d      	cmp	r5, r3
 8009040:	4680      	mov	r8, r0
 8009042:	4689      	mov	r9, r1
 8009044:	f04f 0200 	mov.w	r2, #0
 8009048:	d124      	bne.n	8009094 <_dtoa_r+0x60c>
 800904a:	4b1b      	ldr	r3, [pc, #108]	; (80090b8 <_dtoa_r+0x630>)
 800904c:	4650      	mov	r0, sl
 800904e:	4659      	mov	r1, fp
 8009050:	f7f7 f91c 	bl	800028c <__adddf3>
 8009054:	4602      	mov	r2, r0
 8009056:	460b      	mov	r3, r1
 8009058:	4640      	mov	r0, r8
 800905a:	4649      	mov	r1, r9
 800905c:	f7f7 fd5c 	bl	8000b18 <__aeabi_dcmpgt>
 8009060:	2800      	cmp	r0, #0
 8009062:	d173      	bne.n	800914c <_dtoa_r+0x6c4>
 8009064:	4652      	mov	r2, sl
 8009066:	465b      	mov	r3, fp
 8009068:	4913      	ldr	r1, [pc, #76]	; (80090b8 <_dtoa_r+0x630>)
 800906a:	2000      	movs	r0, #0
 800906c:	f7f7 f90c 	bl	8000288 <__aeabi_dsub>
 8009070:	4602      	mov	r2, r0
 8009072:	460b      	mov	r3, r1
 8009074:	4640      	mov	r0, r8
 8009076:	4649      	mov	r1, r9
 8009078:	f7f7 fd30 	bl	8000adc <__aeabi_dcmplt>
 800907c:	2800      	cmp	r0, #0
 800907e:	f43f af35 	beq.w	8008eec <_dtoa_r+0x464>
 8009082:	9d0f      	ldr	r5, [sp, #60]	; 0x3c
 8009084:	1e6b      	subs	r3, r5, #1
 8009086:	930f      	str	r3, [sp, #60]	; 0x3c
 8009088:	f815 3c01 	ldrb.w	r3, [r5, #-1]
 800908c:	2b30      	cmp	r3, #48	; 0x30
 800908e:	d0f8      	beq.n	8009082 <_dtoa_r+0x5fa>
 8009090:	9700      	str	r7, [sp, #0]
 8009092:	e049      	b.n	8009128 <_dtoa_r+0x6a0>
 8009094:	4b05      	ldr	r3, [pc, #20]	; (80090ac <_dtoa_r+0x624>)
 8009096:	f7f7 faaf 	bl	80005f8 <__aeabi_dmul>
 800909a:	4680      	mov	r8, r0
 800909c:	4689      	mov	r9, r1
 800909e:	e7bd      	b.n	800901c <_dtoa_r+0x594>
 80090a0:	0800bc18 	.word	0x0800bc18
 80090a4:	0800bbf0 	.word	0x0800bbf0
 80090a8:	3ff00000 	.word	0x3ff00000
 80090ac:	40240000 	.word	0x40240000
 80090b0:	401c0000 	.word	0x401c0000
 80090b4:	40140000 	.word	0x40140000
 80090b8:	3fe00000 	.word	0x3fe00000
 80090bc:	9d01      	ldr	r5, [sp, #4]
 80090be:	4656      	mov	r6, sl
 80090c0:	465f      	mov	r7, fp
 80090c2:	4642      	mov	r2, r8
 80090c4:	464b      	mov	r3, r9
 80090c6:	4630      	mov	r0, r6
 80090c8:	4639      	mov	r1, r7
 80090ca:	f7f7 fbbf 	bl	800084c <__aeabi_ddiv>
 80090ce:	f7f7 fd43 	bl	8000b58 <__aeabi_d2iz>
 80090d2:	4682      	mov	sl, r0
 80090d4:	f7f7 fa26 	bl	8000524 <__aeabi_i2d>
 80090d8:	4642      	mov	r2, r8
 80090da:	464b      	mov	r3, r9
 80090dc:	f7f7 fa8c 	bl	80005f8 <__aeabi_dmul>
 80090e0:	4602      	mov	r2, r0
 80090e2:	460b      	mov	r3, r1
 80090e4:	4630      	mov	r0, r6
 80090e6:	4639      	mov	r1, r7
 80090e8:	f10a 0630 	add.w	r6, sl, #48	; 0x30
 80090ec:	f7f7 f8cc 	bl	8000288 <__aeabi_dsub>
 80090f0:	f805 6b01 	strb.w	r6, [r5], #1
 80090f4:	9e01      	ldr	r6, [sp, #4]
 80090f6:	9f03      	ldr	r7, [sp, #12]
 80090f8:	1bae      	subs	r6, r5, r6
 80090fa:	42b7      	cmp	r7, r6
 80090fc:	4602      	mov	r2, r0
 80090fe:	460b      	mov	r3, r1
 8009100:	d135      	bne.n	800916e <_dtoa_r+0x6e6>
 8009102:	f7f7 f8c3 	bl	800028c <__adddf3>
 8009106:	4642      	mov	r2, r8
 8009108:	464b      	mov	r3, r9
 800910a:	4606      	mov	r6, r0
 800910c:	460f      	mov	r7, r1
 800910e:	f7f7 fd03 	bl	8000b18 <__aeabi_dcmpgt>
 8009112:	b9d0      	cbnz	r0, 800914a <_dtoa_r+0x6c2>
 8009114:	4642      	mov	r2, r8
 8009116:	464b      	mov	r3, r9
 8009118:	4630      	mov	r0, r6
 800911a:	4639      	mov	r1, r7
 800911c:	f7f7 fcd4 	bl	8000ac8 <__aeabi_dcmpeq>
 8009120:	b110      	cbz	r0, 8009128 <_dtoa_r+0x6a0>
 8009122:	f01a 0f01 	tst.w	sl, #1
 8009126:	d110      	bne.n	800914a <_dtoa_r+0x6c2>
 8009128:	4620      	mov	r0, r4
 800912a:	ee18 1a10 	vmov	r1, s16
 800912e:	f001 f893 	bl	800a258 <_Bfree>
 8009132:	2300      	movs	r3, #0
 8009134:	9800      	ldr	r0, [sp, #0]
 8009136:	702b      	strb	r3, [r5, #0]
 8009138:	9b0c      	ldr	r3, [sp, #48]	; 0x30
 800913a:	3001      	adds	r0, #1
 800913c:	6018      	str	r0, [r3, #0]
 800913e:	9b21      	ldr	r3, [sp, #132]	; 0x84
 8009140:	2b00      	cmp	r3, #0
 8009142:	f43f acf1 	beq.w	8008b28 <_dtoa_r+0xa0>
 8009146:	601d      	str	r5, [r3, #0]
 8009148:	e4ee      	b.n	8008b28 <_dtoa_r+0xa0>
 800914a:	9f00      	ldr	r7, [sp, #0]
 800914c:	462b      	mov	r3, r5
 800914e:	461d      	mov	r5, r3
 8009150:	f813 2d01 	ldrb.w	r2, [r3, #-1]!
 8009154:	2a39      	cmp	r2, #57	; 0x39
 8009156:	d106      	bne.n	8009166 <_dtoa_r+0x6de>
 8009158:	9a01      	ldr	r2, [sp, #4]
 800915a:	429a      	cmp	r2, r3
 800915c:	d1f7      	bne.n	800914e <_dtoa_r+0x6c6>
 800915e:	9901      	ldr	r1, [sp, #4]
 8009160:	2230      	movs	r2, #48	; 0x30
 8009162:	3701      	adds	r7, #1
 8009164:	700a      	strb	r2, [r1, #0]
 8009166:	781a      	ldrb	r2, [r3, #0]
 8009168:	3201      	adds	r2, #1
 800916a:	701a      	strb	r2, [r3, #0]
 800916c:	e790      	b.n	8009090 <_dtoa_r+0x608>
 800916e:	4ba6      	ldr	r3, [pc, #664]	; (8009408 <_dtoa_r+0x980>)
 8009170:	2200      	movs	r2, #0
 8009172:	f7f7 fa41 	bl	80005f8 <__aeabi_dmul>
 8009176:	2200      	movs	r2, #0
 8009178:	2300      	movs	r3, #0
 800917a:	4606      	mov	r6, r0
 800917c:	460f      	mov	r7, r1
 800917e:	f7f7 fca3 	bl	8000ac8 <__aeabi_dcmpeq>
 8009182:	2800      	cmp	r0, #0
 8009184:	d09d      	beq.n	80090c2 <_dtoa_r+0x63a>
 8009186:	e7cf      	b.n	8009128 <_dtoa_r+0x6a0>
 8009188:	9a08      	ldr	r2, [sp, #32]
 800918a:	2a00      	cmp	r2, #0
 800918c:	f000 80d7 	beq.w	800933e <_dtoa_r+0x8b6>
 8009190:	9a06      	ldr	r2, [sp, #24]
 8009192:	2a01      	cmp	r2, #1
 8009194:	f300 80ba 	bgt.w	800930c <_dtoa_r+0x884>
 8009198:	9a0e      	ldr	r2, [sp, #56]	; 0x38
 800919a:	2a00      	cmp	r2, #0
 800919c:	f000 80b2 	beq.w	8009304 <_dtoa_r+0x87c>
 80091a0:	f203 4333 	addw	r3, r3, #1075	; 0x433
 80091a4:	9e07      	ldr	r6, [sp, #28]
 80091a6:	9d04      	ldr	r5, [sp, #16]
 80091a8:	9a04      	ldr	r2, [sp, #16]
 80091aa:	441a      	add	r2, r3
 80091ac:	9204      	str	r2, [sp, #16]
 80091ae:	9a05      	ldr	r2, [sp, #20]
 80091b0:	2101      	movs	r1, #1
 80091b2:	441a      	add	r2, r3
 80091b4:	4620      	mov	r0, r4
 80091b6:	9205      	str	r2, [sp, #20]
 80091b8:	f001 f950 	bl	800a45c <__i2b>
 80091bc:	4607      	mov	r7, r0
 80091be:	2d00      	cmp	r5, #0
 80091c0:	dd0c      	ble.n	80091dc <_dtoa_r+0x754>
 80091c2:	9b05      	ldr	r3, [sp, #20]
 80091c4:	2b00      	cmp	r3, #0
 80091c6:	dd09      	ble.n	80091dc <_dtoa_r+0x754>
 80091c8:	42ab      	cmp	r3, r5
 80091ca:	9a04      	ldr	r2, [sp, #16]
 80091cc:	bfa8      	it	ge
 80091ce:	462b      	movge	r3, r5
 80091d0:	1ad2      	subs	r2, r2, r3
 80091d2:	9204      	str	r2, [sp, #16]
 80091d4:	9a05      	ldr	r2, [sp, #20]
 80091d6:	1aed      	subs	r5, r5, r3
 80091d8:	1ad3      	subs	r3, r2, r3
 80091da:	9305      	str	r3, [sp, #20]
 80091dc:	9b07      	ldr	r3, [sp, #28]
 80091de:	b31b      	cbz	r3, 8009228 <_dtoa_r+0x7a0>
 80091e0:	9b08      	ldr	r3, [sp, #32]
 80091e2:	2b00      	cmp	r3, #0
 80091e4:	f000 80af 	beq.w	8009346 <_dtoa_r+0x8be>
 80091e8:	2e00      	cmp	r6, #0
 80091ea:	dd13      	ble.n	8009214 <_dtoa_r+0x78c>
 80091ec:	4639      	mov	r1, r7
 80091ee:	4632      	mov	r2, r6
 80091f0:	4620      	mov	r0, r4
 80091f2:	f001 f9f3 	bl	800a5dc <__pow5mult>
 80091f6:	ee18 2a10 	vmov	r2, s16
 80091fa:	4601      	mov	r1, r0
 80091fc:	4607      	mov	r7, r0
 80091fe:	4620      	mov	r0, r4
 8009200:	f001 f942 	bl	800a488 <__multiply>
 8009204:	ee18 1a10 	vmov	r1, s16
 8009208:	4680      	mov	r8, r0
 800920a:	4620      	mov	r0, r4
 800920c:	f001 f824 	bl	800a258 <_Bfree>
 8009210:	ee08 8a10 	vmov	s16, r8
 8009214:	9b07      	ldr	r3, [sp, #28]
 8009216:	1b9a      	subs	r2, r3, r6
 8009218:	d006      	beq.n	8009228 <_dtoa_r+0x7a0>
 800921a:	ee18 1a10 	vmov	r1, s16
 800921e:	4620      	mov	r0, r4
 8009220:	f001 f9dc 	bl	800a5dc <__pow5mult>
 8009224:	ee08 0a10 	vmov	s16, r0
 8009228:	2101      	movs	r1, #1
 800922a:	4620      	mov	r0, r4
 800922c:	f001 f916 	bl	800a45c <__i2b>
 8009230:	9b0a      	ldr	r3, [sp, #40]	; 0x28
 8009232:	2b00      	cmp	r3, #0
 8009234:	4606      	mov	r6, r0
 8009236:	f340 8088 	ble.w	800934a <_dtoa_r+0x8c2>
 800923a:	461a      	mov	r2, r3
 800923c:	4601      	mov	r1, r0
 800923e:	4620      	mov	r0, r4
 8009240:	f001 f9cc 	bl	800a5dc <__pow5mult>
 8009244:	9b06      	ldr	r3, [sp, #24]
 8009246:	2b01      	cmp	r3, #1
 8009248:	4606      	mov	r6, r0
 800924a:	f340 8081 	ble.w	8009350 <_dtoa_r+0x8c8>
 800924e:	f04f 0800 	mov.w	r8, #0
 8009252:	6933      	ldr	r3, [r6, #16]
 8009254:	eb06 0383 	add.w	r3, r6, r3, lsl #2
 8009258:	6918      	ldr	r0, [r3, #16]
 800925a:	f001 f8af 	bl	800a3bc <__hi0bits>
 800925e:	f1c0 0020 	rsb	r0, r0, #32
 8009262:	9b05      	ldr	r3, [sp, #20]
 8009264:	4418      	add	r0, r3
 8009266:	f010 001f 	ands.w	r0, r0, #31
 800926a:	f000 8092 	beq.w	8009392 <_dtoa_r+0x90a>
 800926e:	f1c0 0320 	rsb	r3, r0, #32
 8009272:	2b04      	cmp	r3, #4
 8009274:	f340 808a 	ble.w	800938c <_dtoa_r+0x904>
 8009278:	f1c0 001c 	rsb	r0, r0, #28
 800927c:	9b04      	ldr	r3, [sp, #16]
 800927e:	4403      	add	r3, r0
 8009280:	9304      	str	r3, [sp, #16]
 8009282:	9b05      	ldr	r3, [sp, #20]
 8009284:	4403      	add	r3, r0
 8009286:	4405      	add	r5, r0
 8009288:	9305      	str	r3, [sp, #20]
 800928a:	9b04      	ldr	r3, [sp, #16]
 800928c:	2b00      	cmp	r3, #0
 800928e:	dd07      	ble.n	80092a0 <_dtoa_r+0x818>
 8009290:	ee18 1a10 	vmov	r1, s16
 8009294:	461a      	mov	r2, r3
 8009296:	4620      	mov	r0, r4
 8009298:	f001 f9fa 	bl	800a690 <__lshift>
 800929c:	ee08 0a10 	vmov	s16, r0
 80092a0:	9b05      	ldr	r3, [sp, #20]
 80092a2:	2b00      	cmp	r3, #0
 80092a4:	dd05      	ble.n	80092b2 <_dtoa_r+0x82a>
 80092a6:	4631      	mov	r1, r6
 80092a8:	461a      	mov	r2, r3
 80092aa:	4620      	mov	r0, r4
 80092ac:	f001 f9f0 	bl	800a690 <__lshift>
 80092b0:	4606      	mov	r6, r0
 80092b2:	9b0b      	ldr	r3, [sp, #44]	; 0x2c
 80092b4:	2b00      	cmp	r3, #0
 80092b6:	d06e      	beq.n	8009396 <_dtoa_r+0x90e>
 80092b8:	ee18 0a10 	vmov	r0, s16
 80092bc:	4631      	mov	r1, r6
 80092be:	f001 fa57 	bl	800a770 <__mcmp>
 80092c2:	2800      	cmp	r0, #0
 80092c4:	da67      	bge.n	8009396 <_dtoa_r+0x90e>
 80092c6:	9b00      	ldr	r3, [sp, #0]
 80092c8:	3b01      	subs	r3, #1
 80092ca:	ee18 1a10 	vmov	r1, s16
 80092ce:	9300      	str	r3, [sp, #0]
 80092d0:	220a      	movs	r2, #10
 80092d2:	2300      	movs	r3, #0
 80092d4:	4620      	mov	r0, r4
 80092d6:	f000 ffe1 	bl	800a29c <__multadd>
 80092da:	9b08      	ldr	r3, [sp, #32]
 80092dc:	ee08 0a10 	vmov	s16, r0
 80092e0:	2b00      	cmp	r3, #0
 80092e2:	f000 81b1 	beq.w	8009648 <_dtoa_r+0xbc0>
 80092e6:	2300      	movs	r3, #0
 80092e8:	4639      	mov	r1, r7
 80092ea:	220a      	movs	r2, #10
 80092ec:	4620      	mov	r0, r4
 80092ee:	f000 ffd5 	bl	800a29c <__multadd>
 80092f2:	9b02      	ldr	r3, [sp, #8]
 80092f4:	2b00      	cmp	r3, #0
 80092f6:	4607      	mov	r7, r0
 80092f8:	f300 808e 	bgt.w	8009418 <_dtoa_r+0x990>
 80092fc:	9b06      	ldr	r3, [sp, #24]
 80092fe:	2b02      	cmp	r3, #2
 8009300:	dc51      	bgt.n	80093a6 <_dtoa_r+0x91e>
 8009302:	e089      	b.n	8009418 <_dtoa_r+0x990>
 8009304:	9b10      	ldr	r3, [sp, #64]	; 0x40
 8009306:	f1c3 0336 	rsb	r3, r3, #54	; 0x36
 800930a:	e74b      	b.n	80091a4 <_dtoa_r+0x71c>
 800930c:	9b03      	ldr	r3, [sp, #12]
 800930e:	1e5e      	subs	r6, r3, #1
 8009310:	9b07      	ldr	r3, [sp, #28]
 8009312:	42b3      	cmp	r3, r6
 8009314:	bfbf      	itttt	lt
 8009316:	9b07      	ldrlt	r3, [sp, #28]
 8009318:	9607      	strlt	r6, [sp, #28]
 800931a:	1af2      	sublt	r2, r6, r3
 800931c:	9b0a      	ldrlt	r3, [sp, #40]	; 0x28
 800931e:	bfb6      	itet	lt
 8009320:	189b      	addlt	r3, r3, r2
 8009322:	1b9e      	subge	r6, r3, r6
 8009324:	930a      	strlt	r3, [sp, #40]	; 0x28
 8009326:	9b03      	ldr	r3, [sp, #12]
 8009328:	bfb8      	it	lt
 800932a:	2600      	movlt	r6, #0
 800932c:	2b00      	cmp	r3, #0
 800932e:	bfb7      	itett	lt
 8009330:	e9dd 2303 	ldrdlt	r2, r3, [sp, #12]
 8009334:	e9dd 3503 	ldrdge	r3, r5, [sp, #12]
 8009338:	1a9d      	sublt	r5, r3, r2
 800933a:	2300      	movlt	r3, #0
 800933c:	e734      	b.n	80091a8 <_dtoa_r+0x720>
 800933e:	9e07      	ldr	r6, [sp, #28]
 8009340:	9d04      	ldr	r5, [sp, #16]
 8009342:	9f08      	ldr	r7, [sp, #32]
 8009344:	e73b      	b.n	80091be <_dtoa_r+0x736>
 8009346:	9a07      	ldr	r2, [sp, #28]
 8009348:	e767      	b.n	800921a <_dtoa_r+0x792>
 800934a:	9b06      	ldr	r3, [sp, #24]
 800934c:	2b01      	cmp	r3, #1
 800934e:	dc18      	bgt.n	8009382 <_dtoa_r+0x8fa>
 8009350:	f1ba 0f00 	cmp.w	sl, #0
 8009354:	d115      	bne.n	8009382 <_dtoa_r+0x8fa>
 8009356:	f3cb 0313 	ubfx	r3, fp, #0, #20
 800935a:	b993      	cbnz	r3, 8009382 <_dtoa_r+0x8fa>
 800935c:	f02b 4300 	bic.w	r3, fp, #2147483648	; 0x80000000
 8009360:	0d1b      	lsrs	r3, r3, #20
 8009362:	051b      	lsls	r3, r3, #20
 8009364:	b183      	cbz	r3, 8009388 <_dtoa_r+0x900>
 8009366:	9b04      	ldr	r3, [sp, #16]
 8009368:	3301      	adds	r3, #1
 800936a:	9304      	str	r3, [sp, #16]
 800936c:	9b05      	ldr	r3, [sp, #20]
 800936e:	3301      	adds	r3, #1
 8009370:	9305      	str	r3, [sp, #20]
 8009372:	f04f 0801 	mov.w	r8, #1
 8009376:	9b0a      	ldr	r3, [sp, #40]	; 0x28
 8009378:	2b00      	cmp	r3, #0
 800937a:	f47f af6a 	bne.w	8009252 <_dtoa_r+0x7ca>
 800937e:	2001      	movs	r0, #1
 8009380:	e76f      	b.n	8009262 <_dtoa_r+0x7da>
 8009382:	f04f 0800 	mov.w	r8, #0
 8009386:	e7f6      	b.n	8009376 <_dtoa_r+0x8ee>
 8009388:	4698      	mov	r8, r3
 800938a:	e7f4      	b.n	8009376 <_dtoa_r+0x8ee>
 800938c:	f43f af7d 	beq.w	800928a <_dtoa_r+0x802>
 8009390:	4618      	mov	r0, r3
 8009392:	301c      	adds	r0, #28
 8009394:	e772      	b.n	800927c <_dtoa_r+0x7f4>
 8009396:	9b03      	ldr	r3, [sp, #12]
 8009398:	2b00      	cmp	r3, #0
 800939a:	dc37      	bgt.n	800940c <_dtoa_r+0x984>
 800939c:	9b06      	ldr	r3, [sp, #24]
 800939e:	2b02      	cmp	r3, #2
 80093a0:	dd34      	ble.n	800940c <_dtoa_r+0x984>
 80093a2:	9b03      	ldr	r3, [sp, #12]
 80093a4:	9302      	str	r3, [sp, #8]
 80093a6:	9b02      	ldr	r3, [sp, #8]
 80093a8:	b96b      	cbnz	r3, 80093c6 <_dtoa_r+0x93e>
 80093aa:	4631      	mov	r1, r6
 80093ac:	2205      	movs	r2, #5
 80093ae:	4620      	mov	r0, r4
 80093b0:	f000 ff74 	bl	800a29c <__multadd>
 80093b4:	4601      	mov	r1, r0
 80093b6:	4606      	mov	r6, r0
 80093b8:	ee18 0a10 	vmov	r0, s16
 80093bc:	f001 f9d8 	bl	800a770 <__mcmp>
 80093c0:	2800      	cmp	r0, #0
 80093c2:	f73f adbb 	bgt.w	8008f3c <_dtoa_r+0x4b4>
 80093c6:	9b09      	ldr	r3, [sp, #36]	; 0x24
 80093c8:	9d01      	ldr	r5, [sp, #4]
 80093ca:	43db      	mvns	r3, r3
 80093cc:	9300      	str	r3, [sp, #0]
 80093ce:	f04f 0800 	mov.w	r8, #0
 80093d2:	4631      	mov	r1, r6
 80093d4:	4620      	mov	r0, r4
 80093d6:	f000 ff3f 	bl	800a258 <_Bfree>
 80093da:	2f00      	cmp	r7, #0
 80093dc:	f43f aea4 	beq.w	8009128 <_dtoa_r+0x6a0>
 80093e0:	f1b8 0f00 	cmp.w	r8, #0
 80093e4:	d005      	beq.n	80093f2 <_dtoa_r+0x96a>
 80093e6:	45b8      	cmp	r8, r7
 80093e8:	d003      	beq.n	80093f2 <_dtoa_r+0x96a>
 80093ea:	4641      	mov	r1, r8
 80093ec:	4620      	mov	r0, r4
 80093ee:	f000 ff33 	bl	800a258 <_Bfree>
 80093f2:	4639      	mov	r1, r7
 80093f4:	4620      	mov	r0, r4
 80093f6:	f000 ff2f 	bl	800a258 <_Bfree>
 80093fa:	e695      	b.n	8009128 <_dtoa_r+0x6a0>
 80093fc:	2600      	movs	r6, #0
 80093fe:	4637      	mov	r7, r6
 8009400:	e7e1      	b.n	80093c6 <_dtoa_r+0x93e>
 8009402:	9700      	str	r7, [sp, #0]
 8009404:	4637      	mov	r7, r6
 8009406:	e599      	b.n	8008f3c <_dtoa_r+0x4b4>
 8009408:	40240000 	.word	0x40240000
 800940c:	9b08      	ldr	r3, [sp, #32]
 800940e:	2b00      	cmp	r3, #0
 8009410:	f000 80ca 	beq.w	80095a8 <_dtoa_r+0xb20>
 8009414:	9b03      	ldr	r3, [sp, #12]
 8009416:	9302      	str	r3, [sp, #8]
 8009418:	2d00      	cmp	r5, #0
 800941a:	dd05      	ble.n	8009428 <_dtoa_r+0x9a0>
 800941c:	4639      	mov	r1, r7
 800941e:	462a      	mov	r2, r5
 8009420:	4620      	mov	r0, r4
 8009422:	f001 f935 	bl	800a690 <__lshift>
 8009426:	4607      	mov	r7, r0
 8009428:	f1b8 0f00 	cmp.w	r8, #0
 800942c:	d05b      	beq.n	80094e6 <_dtoa_r+0xa5e>
 800942e:	6879      	ldr	r1, [r7, #4]
 8009430:	4620      	mov	r0, r4
 8009432:	f000 fed1 	bl	800a1d8 <_Balloc>
 8009436:	4605      	mov	r5, r0
 8009438:	b928      	cbnz	r0, 8009446 <_dtoa_r+0x9be>
 800943a:	4b87      	ldr	r3, [pc, #540]	; (8009658 <_dtoa_r+0xbd0>)
 800943c:	4602      	mov	r2, r0
 800943e:	f240 21ea 	movw	r1, #746	; 0x2ea
 8009442:	f7ff bb3b 	b.w	8008abc <_dtoa_r+0x34>
 8009446:	693a      	ldr	r2, [r7, #16]
 8009448:	3202      	adds	r2, #2
 800944a:	0092      	lsls	r2, r2, #2
 800944c:	f107 010c 	add.w	r1, r7, #12
 8009450:	300c      	adds	r0, #12
 8009452:	f000 feb3 	bl	800a1bc <memcpy>
 8009456:	2201      	movs	r2, #1
 8009458:	4629      	mov	r1, r5
 800945a:	4620      	mov	r0, r4
 800945c:	f001 f918 	bl	800a690 <__lshift>
 8009460:	9b01      	ldr	r3, [sp, #4]
 8009462:	f103 0901 	add.w	r9, r3, #1
 8009466:	e9dd 2301 	ldrd	r2, r3, [sp, #4]
 800946a:	4413      	add	r3, r2
 800946c:	9305      	str	r3, [sp, #20]
 800946e:	f00a 0301 	and.w	r3, sl, #1
 8009472:	46b8      	mov	r8, r7
 8009474:	9304      	str	r3, [sp, #16]
 8009476:	4607      	mov	r7, r0
 8009478:	4631      	mov	r1, r6
 800947a:	ee18 0a10 	vmov	r0, s16
 800947e:	f7ff fa77 	bl	8008970 <quorem>
 8009482:	4641      	mov	r1, r8
 8009484:	9002      	str	r0, [sp, #8]
 8009486:	f100 0a30 	add.w	sl, r0, #48	; 0x30
 800948a:	ee18 0a10 	vmov	r0, s16
 800948e:	f001 f96f 	bl	800a770 <__mcmp>
 8009492:	463a      	mov	r2, r7
 8009494:	9003      	str	r0, [sp, #12]
 8009496:	4631      	mov	r1, r6
 8009498:	4620      	mov	r0, r4
 800949a:	f001 f985 	bl	800a7a8 <__mdiff>
 800949e:	68c2      	ldr	r2, [r0, #12]
 80094a0:	f109 3bff 	add.w	fp, r9, #4294967295
 80094a4:	4605      	mov	r5, r0
 80094a6:	bb02      	cbnz	r2, 80094ea <_dtoa_r+0xa62>
 80094a8:	4601      	mov	r1, r0
 80094aa:	ee18 0a10 	vmov	r0, s16
 80094ae:	f001 f95f 	bl	800a770 <__mcmp>
 80094b2:	4602      	mov	r2, r0
 80094b4:	4629      	mov	r1, r5
 80094b6:	4620      	mov	r0, r4
 80094b8:	9207      	str	r2, [sp, #28]
 80094ba:	f000 fecd 	bl	800a258 <_Bfree>
 80094be:	e9dd 3206 	ldrd	r3, r2, [sp, #24]
 80094c2:	ea43 0102 	orr.w	r1, r3, r2
 80094c6:	9b04      	ldr	r3, [sp, #16]
 80094c8:	430b      	orrs	r3, r1
 80094ca:	464d      	mov	r5, r9
 80094cc:	d10f      	bne.n	80094ee <_dtoa_r+0xa66>
 80094ce:	f1ba 0f39 	cmp.w	sl, #57	; 0x39
 80094d2:	d02a      	beq.n	800952a <_dtoa_r+0xaa2>
 80094d4:	9b03      	ldr	r3, [sp, #12]
 80094d6:	2b00      	cmp	r3, #0
 80094d8:	dd02      	ble.n	80094e0 <_dtoa_r+0xa58>
 80094da:	9b02      	ldr	r3, [sp, #8]
 80094dc:	f103 0a31 	add.w	sl, r3, #49	; 0x31
 80094e0:	f88b a000 	strb.w	sl, [fp]
 80094e4:	e775      	b.n	80093d2 <_dtoa_r+0x94a>
 80094e6:	4638      	mov	r0, r7
 80094e8:	e7ba      	b.n	8009460 <_dtoa_r+0x9d8>
 80094ea:	2201      	movs	r2, #1
 80094ec:	e7e2      	b.n	80094b4 <_dtoa_r+0xa2c>
 80094ee:	9b03      	ldr	r3, [sp, #12]
 80094f0:	2b00      	cmp	r3, #0
 80094f2:	db04      	blt.n	80094fe <_dtoa_r+0xa76>
 80094f4:	9906      	ldr	r1, [sp, #24]
 80094f6:	430b      	orrs	r3, r1
 80094f8:	9904      	ldr	r1, [sp, #16]
 80094fa:	430b      	orrs	r3, r1
 80094fc:	d122      	bne.n	8009544 <_dtoa_r+0xabc>
 80094fe:	2a00      	cmp	r2, #0
 8009500:	ddee      	ble.n	80094e0 <_dtoa_r+0xa58>
 8009502:	ee18 1a10 	vmov	r1, s16
 8009506:	2201      	movs	r2, #1
 8009508:	4620      	mov	r0, r4
 800950a:	f001 f8c1 	bl	800a690 <__lshift>
 800950e:	4631      	mov	r1, r6
 8009510:	ee08 0a10 	vmov	s16, r0
 8009514:	f001 f92c 	bl	800a770 <__mcmp>
 8009518:	2800      	cmp	r0, #0
 800951a:	dc03      	bgt.n	8009524 <_dtoa_r+0xa9c>
 800951c:	d1e0      	bne.n	80094e0 <_dtoa_r+0xa58>
 800951e:	f01a 0f01 	tst.w	sl, #1
 8009522:	d0dd      	beq.n	80094e0 <_dtoa_r+0xa58>
 8009524:	f1ba 0f39 	cmp.w	sl, #57	; 0x39
 8009528:	d1d7      	bne.n	80094da <_dtoa_r+0xa52>
 800952a:	2339      	movs	r3, #57	; 0x39
 800952c:	f88b 3000 	strb.w	r3, [fp]
 8009530:	462b      	mov	r3, r5
 8009532:	461d      	mov	r5, r3
 8009534:	3b01      	subs	r3, #1
 8009536:	f815 2c01 	ldrb.w	r2, [r5, #-1]
 800953a:	2a39      	cmp	r2, #57	; 0x39
 800953c:	d071      	beq.n	8009622 <_dtoa_r+0xb9a>
 800953e:	3201      	adds	r2, #1
 8009540:	701a      	strb	r2, [r3, #0]
 8009542:	e746      	b.n	80093d2 <_dtoa_r+0x94a>
 8009544:	2a00      	cmp	r2, #0
 8009546:	dd07      	ble.n	8009558 <_dtoa_r+0xad0>
 8009548:	f1ba 0f39 	cmp.w	sl, #57	; 0x39
 800954c:	d0ed      	beq.n	800952a <_dtoa_r+0xaa2>
 800954e:	f10a 0301 	add.w	r3, sl, #1
 8009552:	f88b 3000 	strb.w	r3, [fp]
 8009556:	e73c      	b.n	80093d2 <_dtoa_r+0x94a>
 8009558:	9b05      	ldr	r3, [sp, #20]
 800955a:	f809 ac01 	strb.w	sl, [r9, #-1]
 800955e:	4599      	cmp	r9, r3
 8009560:	d047      	beq.n	80095f2 <_dtoa_r+0xb6a>
 8009562:	ee18 1a10 	vmov	r1, s16
 8009566:	2300      	movs	r3, #0
 8009568:	220a      	movs	r2, #10
 800956a:	4620      	mov	r0, r4
 800956c:	f000 fe96 	bl	800a29c <__multadd>
 8009570:	45b8      	cmp	r8, r7
 8009572:	ee08 0a10 	vmov	s16, r0
 8009576:	f04f 0300 	mov.w	r3, #0
 800957a:	f04f 020a 	mov.w	r2, #10
 800957e:	4641      	mov	r1, r8
 8009580:	4620      	mov	r0, r4
 8009582:	d106      	bne.n	8009592 <_dtoa_r+0xb0a>
 8009584:	f000 fe8a 	bl	800a29c <__multadd>
 8009588:	4680      	mov	r8, r0
 800958a:	4607      	mov	r7, r0
 800958c:	f109 0901 	add.w	r9, r9, #1
 8009590:	e772      	b.n	8009478 <_dtoa_r+0x9f0>
 8009592:	f000 fe83 	bl	800a29c <__multadd>
 8009596:	4639      	mov	r1, r7
 8009598:	4680      	mov	r8, r0
 800959a:	2300      	movs	r3, #0
 800959c:	220a      	movs	r2, #10
 800959e:	4620      	mov	r0, r4
 80095a0:	f000 fe7c 	bl	800a29c <__multadd>
 80095a4:	4607      	mov	r7, r0
 80095a6:	e7f1      	b.n	800958c <_dtoa_r+0xb04>
 80095a8:	9b03      	ldr	r3, [sp, #12]
 80095aa:	9302      	str	r3, [sp, #8]
 80095ac:	9d01      	ldr	r5, [sp, #4]
 80095ae:	ee18 0a10 	vmov	r0, s16
 80095b2:	4631      	mov	r1, r6
 80095b4:	f7ff f9dc 	bl	8008970 <quorem>
 80095b8:	f100 0a30 	add.w	sl, r0, #48	; 0x30
 80095bc:	9b01      	ldr	r3, [sp, #4]
 80095be:	f805 ab01 	strb.w	sl, [r5], #1
 80095c2:	1aea      	subs	r2, r5, r3
 80095c4:	9b02      	ldr	r3, [sp, #8]
 80095c6:	4293      	cmp	r3, r2
 80095c8:	dd09      	ble.n	80095de <_dtoa_r+0xb56>
 80095ca:	ee18 1a10 	vmov	r1, s16
 80095ce:	2300      	movs	r3, #0
 80095d0:	220a      	movs	r2, #10
 80095d2:	4620      	mov	r0, r4
 80095d4:	f000 fe62 	bl	800a29c <__multadd>
 80095d8:	ee08 0a10 	vmov	s16, r0
 80095dc:	e7e7      	b.n	80095ae <_dtoa_r+0xb26>
 80095de:	9b02      	ldr	r3, [sp, #8]
 80095e0:	2b00      	cmp	r3, #0
 80095e2:	bfc8      	it	gt
 80095e4:	461d      	movgt	r5, r3
 80095e6:	9b01      	ldr	r3, [sp, #4]
 80095e8:	bfd8      	it	le
 80095ea:	2501      	movle	r5, #1
 80095ec:	441d      	add	r5, r3
 80095ee:	f04f 0800 	mov.w	r8, #0
 80095f2:	ee18 1a10 	vmov	r1, s16
 80095f6:	2201      	movs	r2, #1
 80095f8:	4620      	mov	r0, r4
 80095fa:	f001 f849 	bl	800a690 <__lshift>
 80095fe:	4631      	mov	r1, r6
 8009600:	ee08 0a10 	vmov	s16, r0
 8009604:	f001 f8b4 	bl	800a770 <__mcmp>
 8009608:	2800      	cmp	r0, #0
 800960a:	dc91      	bgt.n	8009530 <_dtoa_r+0xaa8>
 800960c:	d102      	bne.n	8009614 <_dtoa_r+0xb8c>
 800960e:	f01a 0f01 	tst.w	sl, #1
 8009612:	d18d      	bne.n	8009530 <_dtoa_r+0xaa8>
 8009614:	462b      	mov	r3, r5
 8009616:	461d      	mov	r5, r3
 8009618:	f813 2d01 	ldrb.w	r2, [r3, #-1]!
 800961c:	2a30      	cmp	r2, #48	; 0x30
 800961e:	d0fa      	beq.n	8009616 <_dtoa_r+0xb8e>
 8009620:	e6d7      	b.n	80093d2 <_dtoa_r+0x94a>
 8009622:	9a01      	ldr	r2, [sp, #4]
 8009624:	429a      	cmp	r2, r3
 8009626:	d184      	bne.n	8009532 <_dtoa_r+0xaaa>
 8009628:	9b00      	ldr	r3, [sp, #0]
 800962a:	3301      	adds	r3, #1
 800962c:	9300      	str	r3, [sp, #0]
 800962e:	2331      	movs	r3, #49	; 0x31
 8009630:	7013      	strb	r3, [r2, #0]
 8009632:	e6ce      	b.n	80093d2 <_dtoa_r+0x94a>
 8009634:	4b09      	ldr	r3, [pc, #36]	; (800965c <_dtoa_r+0xbd4>)
 8009636:	f7ff ba95 	b.w	8008b64 <_dtoa_r+0xdc>
 800963a:	9b21      	ldr	r3, [sp, #132]	; 0x84
 800963c:	2b00      	cmp	r3, #0
 800963e:	f47f aa6e 	bne.w	8008b1e <_dtoa_r+0x96>
 8009642:	4b07      	ldr	r3, [pc, #28]	; (8009660 <_dtoa_r+0xbd8>)
 8009644:	f7ff ba8e 	b.w	8008b64 <_dtoa_r+0xdc>
 8009648:	9b02      	ldr	r3, [sp, #8]
 800964a:	2b00      	cmp	r3, #0
 800964c:	dcae      	bgt.n	80095ac <_dtoa_r+0xb24>
 800964e:	9b06      	ldr	r3, [sp, #24]
 8009650:	2b02      	cmp	r3, #2
 8009652:	f73f aea8 	bgt.w	80093a6 <_dtoa_r+0x91e>
 8009656:	e7a9      	b.n	80095ac <_dtoa_r+0xb24>
 8009658:	0800baa0 	.word	0x0800baa0
 800965c:	0800b8a4 	.word	0x0800b8a4
 8009660:	0800ba21 	.word	0x0800ba21

08009664 <__sflush_r>:
 8009664:	898a      	ldrh	r2, [r1, #12]
 8009666:	e92d 41f0 	stmdb	sp!, {r4, r5, r6, r7, r8, lr}
 800966a:	4605      	mov	r5, r0
 800966c:	0710      	lsls	r0, r2, #28
 800966e:	460c      	mov	r4, r1
 8009670:	d458      	bmi.n	8009724 <__sflush_r+0xc0>
 8009672:	684b      	ldr	r3, [r1, #4]
 8009674:	2b00      	cmp	r3, #0
 8009676:	dc05      	bgt.n	8009684 <__sflush_r+0x20>
 8009678:	6c0b      	ldr	r3, [r1, #64]	; 0x40
 800967a:	2b00      	cmp	r3, #0
 800967c:	dc02      	bgt.n	8009684 <__sflush_r+0x20>
 800967e:	2000      	movs	r0, #0
 8009680:	e8bd 81f0 	ldmia.w	sp!, {r4, r5, r6, r7, r8, pc}
 8009684:	6ae6      	ldr	r6, [r4, #44]	; 0x2c
 8009686:	2e00      	cmp	r6, #0
 8009688:	d0f9      	beq.n	800967e <__sflush_r+0x1a>
 800968a:	2300      	movs	r3, #0
 800968c:	f412 5280 	ands.w	r2, r2, #4096	; 0x1000
 8009690:	682f      	ldr	r7, [r5, #0]
 8009692:	602b      	str	r3, [r5, #0]
 8009694:	d032      	beq.n	80096fc <__sflush_r+0x98>
 8009696:	6d60      	ldr	r0, [r4, #84]	; 0x54
 8009698:	89a3      	ldrh	r3, [r4, #12]
 800969a:	075a      	lsls	r2, r3, #29
 800969c:	d505      	bpl.n	80096aa <__sflush_r+0x46>
 800969e:	6863      	ldr	r3, [r4, #4]
 80096a0:	1ac0      	subs	r0, r0, r3
 80096a2:	6b63      	ldr	r3, [r4, #52]	; 0x34
 80096a4:	b10b      	cbz	r3, 80096aa <__sflush_r+0x46>
 80096a6:	6c23      	ldr	r3, [r4, #64]	; 0x40
 80096a8:	1ac0      	subs	r0, r0, r3
 80096aa:	2300      	movs	r3, #0
 80096ac:	4602      	mov	r2, r0
 80096ae:	6ae6      	ldr	r6, [r4, #44]	; 0x2c
 80096b0:	6a21      	ldr	r1, [r4, #32]
 80096b2:	4628      	mov	r0, r5
 80096b4:	47b0      	blx	r6
 80096b6:	1c43      	adds	r3, r0, #1
 80096b8:	89a3      	ldrh	r3, [r4, #12]
 80096ba:	d106      	bne.n	80096ca <__sflush_r+0x66>
 80096bc:	6829      	ldr	r1, [r5, #0]
 80096be:	291d      	cmp	r1, #29
 80096c0:	d82c      	bhi.n	800971c <__sflush_r+0xb8>
 80096c2:	4a2a      	ldr	r2, [pc, #168]	; (800976c <__sflush_r+0x108>)
 80096c4:	40ca      	lsrs	r2, r1
 80096c6:	07d6      	lsls	r6, r2, #31
 80096c8:	d528      	bpl.n	800971c <__sflush_r+0xb8>
 80096ca:	2200      	movs	r2, #0
 80096cc:	6062      	str	r2, [r4, #4]
 80096ce:	04d9      	lsls	r1, r3, #19
 80096d0:	6922      	ldr	r2, [r4, #16]
 80096d2:	6022      	str	r2, [r4, #0]
 80096d4:	d504      	bpl.n	80096e0 <__sflush_r+0x7c>
 80096d6:	1c42      	adds	r2, r0, #1
 80096d8:	d101      	bne.n	80096de <__sflush_r+0x7a>
 80096da:	682b      	ldr	r3, [r5, #0]
 80096dc:	b903      	cbnz	r3, 80096e0 <__sflush_r+0x7c>
 80096de:	6560      	str	r0, [r4, #84]	; 0x54
 80096e0:	6b61      	ldr	r1, [r4, #52]	; 0x34
 80096e2:	602f      	str	r7, [r5, #0]
 80096e4:	2900      	cmp	r1, #0
 80096e6:	d0ca      	beq.n	800967e <__sflush_r+0x1a>
 80096e8:	f104 0344 	add.w	r3, r4, #68	; 0x44
 80096ec:	4299      	cmp	r1, r3
 80096ee:	d002      	beq.n	80096f6 <__sflush_r+0x92>
 80096f0:	4628      	mov	r0, r5
 80096f2:	f001 fa49 	bl	800ab88 <_free_r>
 80096f6:	2000      	movs	r0, #0
 80096f8:	6360      	str	r0, [r4, #52]	; 0x34
 80096fa:	e7c1      	b.n	8009680 <__sflush_r+0x1c>
 80096fc:	6a21      	ldr	r1, [r4, #32]
 80096fe:	2301      	movs	r3, #1
 8009700:	4628      	mov	r0, r5
 8009702:	47b0      	blx	r6
 8009704:	1c41      	adds	r1, r0, #1
 8009706:	d1c7      	bne.n	8009698 <__sflush_r+0x34>
 8009708:	682b      	ldr	r3, [r5, #0]
 800970a:	2b00      	cmp	r3, #0
 800970c:	d0c4      	beq.n	8009698 <__sflush_r+0x34>
 800970e:	2b1d      	cmp	r3, #29
 8009710:	d001      	beq.n	8009716 <__sflush_r+0xb2>
 8009712:	2b16      	cmp	r3, #22
 8009714:	d101      	bne.n	800971a <__sflush_r+0xb6>
 8009716:	602f      	str	r7, [r5, #0]
 8009718:	e7b1      	b.n	800967e <__sflush_r+0x1a>
 800971a:	89a3      	ldrh	r3, [r4, #12]
 800971c:	f043 0340 	orr.w	r3, r3, #64	; 0x40
 8009720:	81a3      	strh	r3, [r4, #12]
 8009722:	e7ad      	b.n	8009680 <__sflush_r+0x1c>
 8009724:	690f      	ldr	r7, [r1, #16]
 8009726:	2f00      	cmp	r7, #0
 8009728:	d0a9      	beq.n	800967e <__sflush_r+0x1a>
 800972a:	0793      	lsls	r3, r2, #30
 800972c:	680e      	ldr	r6, [r1, #0]
 800972e:	bf08      	it	eq
 8009730:	694b      	ldreq	r3, [r1, #20]
 8009732:	600f      	str	r7, [r1, #0]
 8009734:	bf18      	it	ne
 8009736:	2300      	movne	r3, #0
 8009738:	eba6 0807 	sub.w	r8, r6, r7
 800973c:	608b      	str	r3, [r1, #8]
 800973e:	f1b8 0f00 	cmp.w	r8, #0
 8009742:	dd9c      	ble.n	800967e <__sflush_r+0x1a>
 8009744:	6a21      	ldr	r1, [r4, #32]
 8009746:	6aa6      	ldr	r6, [r4, #40]	; 0x28
 8009748:	4643      	mov	r3, r8
 800974a:	463a      	mov	r2, r7
 800974c:	4628      	mov	r0, r5
 800974e:	47b0      	blx	r6
 8009750:	2800      	cmp	r0, #0
 8009752:	dc06      	bgt.n	8009762 <__sflush_r+0xfe>
 8009754:	89a3      	ldrh	r3, [r4, #12]
 8009756:	f043 0340 	orr.w	r3, r3, #64	; 0x40
 800975a:	81a3      	strh	r3, [r4, #12]
 800975c:	f04f 30ff 	mov.w	r0, #4294967295
 8009760:	e78e      	b.n	8009680 <__sflush_r+0x1c>
 8009762:	4407      	add	r7, r0
 8009764:	eba8 0800 	sub.w	r8, r8, r0
 8009768:	e7e9      	b.n	800973e <__sflush_r+0xda>
 800976a:	bf00      	nop
 800976c:	20400001 	.word	0x20400001

08009770 <_fflush_r>:
 8009770:	b538      	push	{r3, r4, r5, lr}
 8009772:	690b      	ldr	r3, [r1, #16]
 8009774:	4605      	mov	r5, r0
 8009776:	460c      	mov	r4, r1
 8009778:	b913      	cbnz	r3, 8009780 <_fflush_r+0x10>
 800977a:	2500      	movs	r5, #0
 800977c:	4628      	mov	r0, r5
 800977e:	bd38      	pop	{r3, r4, r5, pc}
 8009780:	b118      	cbz	r0, 800978a <_fflush_r+0x1a>
 8009782:	6983      	ldr	r3, [r0, #24]
 8009784:	b90b      	cbnz	r3, 800978a <_fflush_r+0x1a>
 8009786:	f000 f887 	bl	8009898 <__sinit>
 800978a:	4b14      	ldr	r3, [pc, #80]	; (80097dc <_fflush_r+0x6c>)
 800978c:	429c      	cmp	r4, r3
 800978e:	d11b      	bne.n	80097c8 <_fflush_r+0x58>
 8009790:	686c      	ldr	r4, [r5, #4]
 8009792:	f9b4 300c 	ldrsh.w	r3, [r4, #12]
 8009796:	2b00      	cmp	r3, #0
 8009798:	d0ef      	beq.n	800977a <_fflush_r+0xa>
 800979a:	6e62      	ldr	r2, [r4, #100]	; 0x64
 800979c:	07d0      	lsls	r0, r2, #31
 800979e:	d404      	bmi.n	80097aa <_fflush_r+0x3a>
 80097a0:	0599      	lsls	r1, r3, #22
 80097a2:	d402      	bmi.n	80097aa <_fflush_r+0x3a>
 80097a4:	6da0      	ldr	r0, [r4, #88]	; 0x58
 80097a6:	f000 fc88 	bl	800a0ba <__retarget_lock_acquire_recursive>
 80097aa:	4628      	mov	r0, r5
 80097ac:	4621      	mov	r1, r4
 80097ae:	f7ff ff59 	bl	8009664 <__sflush_r>
 80097b2:	6e63      	ldr	r3, [r4, #100]	; 0x64
 80097b4:	07da      	lsls	r2, r3, #31
 80097b6:	4605      	mov	r5, r0
 80097b8:	d4e0      	bmi.n	800977c <_fflush_r+0xc>
 80097ba:	89a3      	ldrh	r3, [r4, #12]
 80097bc:	059b      	lsls	r3, r3, #22
 80097be:	d4dd      	bmi.n	800977c <_fflush_r+0xc>
 80097c0:	6da0      	ldr	r0, [r4, #88]	; 0x58
 80097c2:	f000 fc7b 	bl	800a0bc <__retarget_lock_release_recursive>
 80097c6:	e7d9      	b.n	800977c <_fflush_r+0xc>
 80097c8:	4b05      	ldr	r3, [pc, #20]	; (80097e0 <_fflush_r+0x70>)
 80097ca:	429c      	cmp	r4, r3
 80097cc:	d101      	bne.n	80097d2 <_fflush_r+0x62>
 80097ce:	68ac      	ldr	r4, [r5, #8]
 80097d0:	e7df      	b.n	8009792 <_fflush_r+0x22>
 80097d2:	4b04      	ldr	r3, [pc, #16]	; (80097e4 <_fflush_r+0x74>)
 80097d4:	429c      	cmp	r4, r3
 80097d6:	bf08      	it	eq
 80097d8:	68ec      	ldreq	r4, [r5, #12]
 80097da:	e7da      	b.n	8009792 <_fflush_r+0x22>
 80097dc:	0800bad4 	.word	0x0800bad4
 80097e0:	0800baf4 	.word	0x0800baf4
 80097e4:	0800bab4 	.word	0x0800bab4

080097e8 <std>:
 80097e8:	2300      	movs	r3, #0
 80097ea:	b510      	push	{r4, lr}
 80097ec:	4604      	mov	r4, r0
 80097ee:	e9c0 3300 	strd	r3, r3, [r0]
 80097f2:	e9c0 3304 	strd	r3, r3, [r0, #16]
 80097f6:	6083      	str	r3, [r0, #8]
 80097f8:	8181      	strh	r1, [r0, #12]
 80097fa:	6643      	str	r3, [r0, #100]	; 0x64
 80097fc:	81c2      	strh	r2, [r0, #14]
 80097fe:	6183      	str	r3, [r0, #24]
 8009800:	4619      	mov	r1, r3
 8009802:	2208      	movs	r2, #8
 8009804:	305c      	adds	r0, #92	; 0x5c
 8009806:	f7fd fa0f 	bl	8006c28 <memset>
 800980a:	4b05      	ldr	r3, [pc, #20]	; (8009820 <std+0x38>)
 800980c:	6263      	str	r3, [r4, #36]	; 0x24
 800980e:	4b05      	ldr	r3, [pc, #20]	; (8009824 <std+0x3c>)
 8009810:	62a3      	str	r3, [r4, #40]	; 0x28
 8009812:	4b05      	ldr	r3, [pc, #20]	; (8009828 <std+0x40>)
 8009814:	62e3      	str	r3, [r4, #44]	; 0x2c
 8009816:	4b05      	ldr	r3, [pc, #20]	; (800982c <std+0x44>)
 8009818:	6224      	str	r4, [r4, #32]
 800981a:	6323      	str	r3, [r4, #48]	; 0x30
 800981c:	bd10      	pop	{r4, pc}
 800981e:	bf00      	nop
 8009820:	0800b2e9 	.word	0x0800b2e9
 8009824:	0800b30b 	.word	0x0800b30b
 8009828:	0800b343 	.word	0x0800b343
 800982c:	0800b367 	.word	0x0800b367

08009830 <_cleanup_r>:
 8009830:	4901      	ldr	r1, [pc, #4]	; (8009838 <_cleanup_r+0x8>)
 8009832:	f000 b8af 	b.w	8009994 <_fwalk_reent>
 8009836:	bf00      	nop
 8009838:	08009771 	.word	0x08009771

0800983c <__sfmoreglue>:
 800983c:	b570      	push	{r4, r5, r6, lr}
 800983e:	2268      	movs	r2, #104	; 0x68
 8009840:	1e4d      	subs	r5, r1, #1
 8009842:	4355      	muls	r5, r2
 8009844:	460e      	mov	r6, r1
 8009846:	f105 0174 	add.w	r1, r5, #116	; 0x74
 800984a:	f001 fa09 	bl	800ac60 <_malloc_r>
 800984e:	4604      	mov	r4, r0
 8009850:	b140      	cbz	r0, 8009864 <__sfmoreglue+0x28>
 8009852:	2100      	movs	r1, #0
 8009854:	e9c0 1600 	strd	r1, r6, [r0]
 8009858:	300c      	adds	r0, #12
 800985a:	60a0      	str	r0, [r4, #8]
 800985c:	f105 0268 	add.w	r2, r5, #104	; 0x68
 8009860:	f7fd f9e2 	bl	8006c28 <memset>
 8009864:	4620      	mov	r0, r4
 8009866:	bd70      	pop	{r4, r5, r6, pc}

08009868 <__sfp_lock_acquire>:
 8009868:	4801      	ldr	r0, [pc, #4]	; (8009870 <__sfp_lock_acquire+0x8>)
 800986a:	f000 bc26 	b.w	800a0ba <__retarget_lock_acquire_recursive>
 800986e:	bf00      	nop
 8009870:	200015c1 	.word	0x200015c1

08009874 <__sfp_lock_release>:
 8009874:	4801      	ldr	r0, [pc, #4]	; (800987c <__sfp_lock_release+0x8>)
 8009876:	f000 bc21 	b.w	800a0bc <__retarget_lock_release_recursive>
 800987a:	bf00      	nop
 800987c:	200015c1 	.word	0x200015c1

08009880 <__sinit_lock_acquire>:
 8009880:	4801      	ldr	r0, [pc, #4]	; (8009888 <__sinit_lock_acquire+0x8>)
 8009882:	f000 bc1a 	b.w	800a0ba <__retarget_lock_acquire_recursive>
 8009886:	bf00      	nop
 8009888:	200015c2 	.word	0x200015c2

0800988c <__sinit_lock_release>:
 800988c:	4801      	ldr	r0, [pc, #4]	; (8009894 <__sinit_lock_release+0x8>)
 800988e:	f000 bc15 	b.w	800a0bc <__retarget_lock_release_recursive>
 8009892:	bf00      	nop
 8009894:	200015c2 	.word	0x200015c2

08009898 <__sinit>:
 8009898:	b510      	push	{r4, lr}
 800989a:	4604      	mov	r4, r0
 800989c:	f7ff fff0 	bl	8009880 <__sinit_lock_acquire>
 80098a0:	69a3      	ldr	r3, [r4, #24]
 80098a2:	b11b      	cbz	r3, 80098ac <__sinit+0x14>
 80098a4:	e8bd 4010 	ldmia.w	sp!, {r4, lr}
 80098a8:	f7ff bff0 	b.w	800988c <__sinit_lock_release>
 80098ac:	e9c4 3312 	strd	r3, r3, [r4, #72]	; 0x48
 80098b0:	6523      	str	r3, [r4, #80]	; 0x50
 80098b2:	4b13      	ldr	r3, [pc, #76]	; (8009900 <__sinit+0x68>)
 80098b4:	4a13      	ldr	r2, [pc, #76]	; (8009904 <__sinit+0x6c>)
 80098b6:	681b      	ldr	r3, [r3, #0]
 80098b8:	62a2      	str	r2, [r4, #40]	; 0x28
 80098ba:	42a3      	cmp	r3, r4
 80098bc:	bf04      	itt	eq
 80098be:	2301      	moveq	r3, #1
 80098c0:	61a3      	streq	r3, [r4, #24]
 80098c2:	4620      	mov	r0, r4
 80098c4:	f000 f820 	bl	8009908 <__sfp>
 80098c8:	6060      	str	r0, [r4, #4]
 80098ca:	4620      	mov	r0, r4
 80098cc:	f000 f81c 	bl	8009908 <__sfp>
 80098d0:	60a0      	str	r0, [r4, #8]
 80098d2:	4620      	mov	r0, r4
 80098d4:	f000 f818 	bl	8009908 <__sfp>
 80098d8:	2200      	movs	r2, #0
 80098da:	60e0      	str	r0, [r4, #12]
 80098dc:	2104      	movs	r1, #4
 80098de:	6860      	ldr	r0, [r4, #4]
 80098e0:	f7ff ff82 	bl	80097e8 <std>
 80098e4:	68a0      	ldr	r0, [r4, #8]
 80098e6:	2201      	movs	r2, #1
 80098e8:	2109      	movs	r1, #9
 80098ea:	f7ff ff7d 	bl	80097e8 <std>
 80098ee:	68e0      	ldr	r0, [r4, #12]
 80098f0:	2202      	movs	r2, #2
 80098f2:	2112      	movs	r1, #18
 80098f4:	f7ff ff78 	bl	80097e8 <std>
 80098f8:	2301      	movs	r3, #1
 80098fa:	61a3      	str	r3, [r4, #24]
 80098fc:	e7d2      	b.n	80098a4 <__sinit+0xc>
 80098fe:	bf00      	nop
 8009900:	0800b890 	.word	0x0800b890
 8009904:	08009831 	.word	0x08009831

08009908 <__sfp>:
 8009908:	b5f8      	push	{r3, r4, r5, r6, r7, lr}
 800990a:	4607      	mov	r7, r0
 800990c:	f7ff ffac 	bl	8009868 <__sfp_lock_acquire>
 8009910:	4b1e      	ldr	r3, [pc, #120]	; (800998c <__sfp+0x84>)
 8009912:	681e      	ldr	r6, [r3, #0]
 8009914:	69b3      	ldr	r3, [r6, #24]
 8009916:	b913      	cbnz	r3, 800991e <__sfp+0x16>
 8009918:	4630      	mov	r0, r6
 800991a:	f7ff ffbd 	bl	8009898 <__sinit>
 800991e:	3648      	adds	r6, #72	; 0x48
 8009920:	e9d6 3401 	ldrd	r3, r4, [r6, #4]
 8009924:	3b01      	subs	r3, #1
 8009926:	d503      	bpl.n	8009930 <__sfp+0x28>
 8009928:	6833      	ldr	r3, [r6, #0]
 800992a:	b30b      	cbz	r3, 8009970 <__sfp+0x68>
 800992c:	6836      	ldr	r6, [r6, #0]
 800992e:	e7f7      	b.n	8009920 <__sfp+0x18>
 8009930:	f9b4 500c 	ldrsh.w	r5, [r4, #12]
 8009934:	b9d5      	cbnz	r5, 800996c <__sfp+0x64>
 8009936:	4b16      	ldr	r3, [pc, #88]	; (8009990 <__sfp+0x88>)
 8009938:	60e3      	str	r3, [r4, #12]
 800993a:	f104 0058 	add.w	r0, r4, #88	; 0x58
 800993e:	6665      	str	r5, [r4, #100]	; 0x64
 8009940:	f000 fbba 	bl	800a0b8 <__retarget_lock_init_recursive>
 8009944:	f7ff ff96 	bl	8009874 <__sfp_lock_release>
 8009948:	e9c4 5501 	strd	r5, r5, [r4, #4]
 800994c:	e9c4 5504 	strd	r5, r5, [r4, #16]
 8009950:	6025      	str	r5, [r4, #0]
 8009952:	61a5      	str	r5, [r4, #24]
 8009954:	2208      	movs	r2, #8
 8009956:	4629      	mov	r1, r5
 8009958:	f104 005c 	add.w	r0, r4, #92	; 0x5c
 800995c:	f7fd f964 	bl	8006c28 <memset>
 8009960:	e9c4 550d 	strd	r5, r5, [r4, #52]	; 0x34
 8009964:	e9c4 5512 	strd	r5, r5, [r4, #72]	; 0x48
 8009968:	4620      	mov	r0, r4
 800996a:	bdf8      	pop	{r3, r4, r5, r6, r7, pc}
 800996c:	3468      	adds	r4, #104	; 0x68
 800996e:	e7d9      	b.n	8009924 <__sfp+0x1c>
 8009970:	2104      	movs	r1, #4
 8009972:	4638      	mov	r0, r7
 8009974:	f7ff ff62 	bl	800983c <__sfmoreglue>
 8009978:	4604      	mov	r4, r0
 800997a:	6030      	str	r0, [r6, #0]
 800997c:	2800      	cmp	r0, #0
 800997e:	d1d5      	bne.n	800992c <__sfp+0x24>
 8009980:	f7ff ff78 	bl	8009874 <__sfp_lock_release>
 8009984:	230c      	movs	r3, #12
 8009986:	603b      	str	r3, [r7, #0]
 8009988:	e7ee      	b.n	8009968 <__sfp+0x60>
 800998a:	bf00      	nop
 800998c:	0800b890 	.word	0x0800b890
 8009990:	ffff0001 	.word	0xffff0001

08009994 <_fwalk_reent>:
 8009994:	e92d 43f8 	stmdb	sp!, {r3, r4, r5, r6, r7, r8, r9, lr}
 8009998:	4606      	mov	r6, r0
 800999a:	4688      	mov	r8, r1
 800999c:	f100 0448 	add.w	r4, r0, #72	; 0x48
 80099a0:	2700      	movs	r7, #0
 80099a2:	e9d4 9501 	ldrd	r9, r5, [r4, #4]
 80099a6:	f1b9 0901 	subs.w	r9, r9, #1
 80099aa:	d505      	bpl.n	80099b8 <_fwalk_reent+0x24>
 80099ac:	6824      	ldr	r4, [r4, #0]
 80099ae:	2c00      	cmp	r4, #0
 80099b0:	d1f7      	bne.n	80099a2 <_fwalk_reent+0xe>
 80099b2:	4638      	mov	r0, r7
 80099b4:	e8bd 83f8 	ldmia.w	sp!, {r3, r4, r5, r6, r7, r8, r9, pc}
 80099b8:	89ab      	ldrh	r3, [r5, #12]
 80099ba:	2b01      	cmp	r3, #1
 80099bc:	d907      	bls.n	80099ce <_fwalk_reent+0x3a>
 80099be:	f9b5 300e 	ldrsh.w	r3, [r5, #14]
 80099c2:	3301      	adds	r3, #1
 80099c4:	d003      	beq.n	80099ce <_fwalk_reent+0x3a>
 80099c6:	4629      	mov	r1, r5
 80099c8:	4630      	mov	r0, r6
 80099ca:	47c0      	blx	r8
 80099cc:	4307      	orrs	r7, r0
 80099ce:	3568      	adds	r5, #104	; 0x68
 80099d0:	e7e9      	b.n	80099a6 <_fwalk_reent+0x12>

080099d2 <rshift>:
 80099d2:	6903      	ldr	r3, [r0, #16]
 80099d4:	ebb3 1f61 	cmp.w	r3, r1, asr #5
 80099d8:	e92d 43f0 	stmdb	sp!, {r4, r5, r6, r7, r8, r9, lr}
 80099dc:	ea4f 1261 	mov.w	r2, r1, asr #5
 80099e0:	f100 0414 	add.w	r4, r0, #20
 80099e4:	dd45      	ble.n	8009a72 <rshift+0xa0>
 80099e6:	f011 011f 	ands.w	r1, r1, #31
 80099ea:	eb04 0683 	add.w	r6, r4, r3, lsl #2
 80099ee:	eb04 0582 	add.w	r5, r4, r2, lsl #2
 80099f2:	d10c      	bne.n	8009a0e <rshift+0x3c>
 80099f4:	f100 0710 	add.w	r7, r0, #16
 80099f8:	4629      	mov	r1, r5
 80099fa:	42b1      	cmp	r1, r6
 80099fc:	d334      	bcc.n	8009a68 <rshift+0x96>
 80099fe:	1a9b      	subs	r3, r3, r2
 8009a00:	009b      	lsls	r3, r3, #2
 8009a02:	1eea      	subs	r2, r5, #3
 8009a04:	4296      	cmp	r6, r2
 8009a06:	bf38      	it	cc
 8009a08:	2300      	movcc	r3, #0
 8009a0a:	4423      	add	r3, r4
 8009a0c:	e015      	b.n	8009a3a <rshift+0x68>
 8009a0e:	f854 7022 	ldr.w	r7, [r4, r2, lsl #2]
 8009a12:	f1c1 0820 	rsb	r8, r1, #32
 8009a16:	40cf      	lsrs	r7, r1
 8009a18:	f105 0e04 	add.w	lr, r5, #4
 8009a1c:	46a1      	mov	r9, r4
 8009a1e:	4576      	cmp	r6, lr
 8009a20:	46f4      	mov	ip, lr
 8009a22:	d815      	bhi.n	8009a50 <rshift+0x7e>
 8009a24:	1a9a      	subs	r2, r3, r2
 8009a26:	0092      	lsls	r2, r2, #2
 8009a28:	3a04      	subs	r2, #4
 8009a2a:	3501      	adds	r5, #1
 8009a2c:	42ae      	cmp	r6, r5
 8009a2e:	bf38      	it	cc
 8009a30:	2200      	movcc	r2, #0
 8009a32:	18a3      	adds	r3, r4, r2
 8009a34:	50a7      	str	r7, [r4, r2]
 8009a36:	b107      	cbz	r7, 8009a3a <rshift+0x68>
 8009a38:	3304      	adds	r3, #4
 8009a3a:	1b1a      	subs	r2, r3, r4
 8009a3c:	42a3      	cmp	r3, r4
 8009a3e:	ea4f 02a2 	mov.w	r2, r2, asr #2
 8009a42:	bf08      	it	eq
 8009a44:	2300      	moveq	r3, #0
 8009a46:	6102      	str	r2, [r0, #16]
 8009a48:	bf08      	it	eq
 8009a4a:	6143      	streq	r3, [r0, #20]
 8009a4c:	e8bd 83f0 	ldmia.w	sp!, {r4, r5, r6, r7, r8, r9, pc}
 8009a50:	f8dc c000 	ldr.w	ip, [ip]
 8009a54:	fa0c fc08 	lsl.w	ip, ip, r8
 8009a58:	ea4c 0707 	orr.w	r7, ip, r7
 8009a5c:	f849 7b04 	str.w	r7, [r9], #4
 8009a60:	f85e 7b04 	ldr.w	r7, [lr], #4
 8009a64:	40cf      	lsrs	r7, r1
 8009a66:	e7da      	b.n	8009a1e <rshift+0x4c>
 8009a68:	f851 cb04 	ldr.w	ip, [r1], #4
 8009a6c:	f847 cf04 	str.w	ip, [r7, #4]!
 8009a70:	e7c3      	b.n	80099fa <rshift+0x28>
 8009a72:	4623      	mov	r3, r4
 8009a74:	e7e1      	b.n	8009a3a <rshift+0x68>

08009a76 <__hexdig_fun>:
 8009a76:	f1a0 0330 	sub.w	r3, r0, #48	; 0x30
 8009a7a:	2b09      	cmp	r3, #9
 8009a7c:	d802      	bhi.n	8009a84 <__hexdig_fun+0xe>
 8009a7e:	3820      	subs	r0, #32
 8009a80:	b2c0      	uxtb	r0, r0
 8009a82:	4770      	bx	lr
 8009a84:	f1a0 0361 	sub.w	r3, r0, #97	; 0x61
 8009a88:	2b05      	cmp	r3, #5
 8009a8a:	d801      	bhi.n	8009a90 <__hexdig_fun+0x1a>
 8009a8c:	3847      	subs	r0, #71	; 0x47
 8009a8e:	e7f7      	b.n	8009a80 <__hexdig_fun+0xa>
 8009a90:	f1a0 0341 	sub.w	r3, r0, #65	; 0x41
 8009a94:	2b05      	cmp	r3, #5
 8009a96:	d801      	bhi.n	8009a9c <__hexdig_fun+0x26>
 8009a98:	3827      	subs	r0, #39	; 0x27
 8009a9a:	e7f1      	b.n	8009a80 <__hexdig_fun+0xa>
 8009a9c:	2000      	movs	r0, #0
 8009a9e:	4770      	bx	lr

08009aa0 <__gethex>:
 8009aa0:	e92d 4ff0 	stmdb	sp!, {r4, r5, r6, r7, r8, r9, sl, fp, lr}
 8009aa4:	ed2d 8b02 	vpush	{d8}
 8009aa8:	b089      	sub	sp, #36	; 0x24
 8009aaa:	ee08 0a10 	vmov	s16, r0
 8009aae:	9304      	str	r3, [sp, #16]
 8009ab0:	4bb4      	ldr	r3, [pc, #720]	; (8009d84 <__gethex+0x2e4>)
 8009ab2:	681b      	ldr	r3, [r3, #0]
 8009ab4:	9301      	str	r3, [sp, #4]
 8009ab6:	4618      	mov	r0, r3
 8009ab8:	468b      	mov	fp, r1
 8009aba:	4690      	mov	r8, r2
 8009abc:	f7f6 fb88 	bl	80001d0 <strlen>
 8009ac0:	9b01      	ldr	r3, [sp, #4]
 8009ac2:	f8db 2000 	ldr.w	r2, [fp]
 8009ac6:	4403      	add	r3, r0
 8009ac8:	4682      	mov	sl, r0
 8009aca:	f813 3c01 	ldrb.w	r3, [r3, #-1]
 8009ace:	9305      	str	r3, [sp, #20]
 8009ad0:	1c93      	adds	r3, r2, #2
 8009ad2:	f1c2 22ff 	rsb	r2, r2, #4278255360	; 0xff00ff00
 8009ad6:	f502 027f 	add.w	r2, r2, #16711680	; 0xff0000
 8009ada:	32fe      	adds	r2, #254	; 0xfe
 8009adc:	18d1      	adds	r1, r2, r3
 8009ade:	461f      	mov	r7, r3
 8009ae0:	f813 0b01 	ldrb.w	r0, [r3], #1
 8009ae4:	9100      	str	r1, [sp, #0]
 8009ae6:	2830      	cmp	r0, #48	; 0x30
 8009ae8:	d0f8      	beq.n	8009adc <__gethex+0x3c>
 8009aea:	f7ff ffc4 	bl	8009a76 <__hexdig_fun>
 8009aee:	4604      	mov	r4, r0
 8009af0:	2800      	cmp	r0, #0
 8009af2:	d13a      	bne.n	8009b6a <__gethex+0xca>
 8009af4:	9901      	ldr	r1, [sp, #4]
 8009af6:	4652      	mov	r2, sl
 8009af8:	4638      	mov	r0, r7
 8009afa:	f001 fc38 	bl	800b36e <strncmp>
 8009afe:	4605      	mov	r5, r0
 8009b00:	2800      	cmp	r0, #0
 8009b02:	d168      	bne.n	8009bd6 <__gethex+0x136>
 8009b04:	f817 000a 	ldrb.w	r0, [r7, sl]
 8009b08:	eb07 060a 	add.w	r6, r7, sl
 8009b0c:	f7ff ffb3 	bl	8009a76 <__hexdig_fun>
 8009b10:	2800      	cmp	r0, #0
 8009b12:	d062      	beq.n	8009bda <__gethex+0x13a>
 8009b14:	4633      	mov	r3, r6
 8009b16:	7818      	ldrb	r0, [r3, #0]
 8009b18:	2830      	cmp	r0, #48	; 0x30
 8009b1a:	461f      	mov	r7, r3
 8009b1c:	f103 0301 	add.w	r3, r3, #1
 8009b20:	d0f9      	beq.n	8009b16 <__gethex+0x76>
 8009b22:	f7ff ffa8 	bl	8009a76 <__hexdig_fun>
 8009b26:	2301      	movs	r3, #1
 8009b28:	fab0 f480 	clz	r4, r0
 8009b2c:	0964      	lsrs	r4, r4, #5
 8009b2e:	4635      	mov	r5, r6
 8009b30:	9300      	str	r3, [sp, #0]
 8009b32:	463a      	mov	r2, r7
 8009b34:	4616      	mov	r6, r2
 8009b36:	3201      	adds	r2, #1
 8009b38:	7830      	ldrb	r0, [r6, #0]
 8009b3a:	f7ff ff9c 	bl	8009a76 <__hexdig_fun>
 8009b3e:	2800      	cmp	r0, #0
 8009b40:	d1f8      	bne.n	8009b34 <__gethex+0x94>
 8009b42:	9901      	ldr	r1, [sp, #4]
 8009b44:	4652      	mov	r2, sl
 8009b46:	4630      	mov	r0, r6
 8009b48:	f001 fc11 	bl	800b36e <strncmp>
 8009b4c:	b980      	cbnz	r0, 8009b70 <__gethex+0xd0>
 8009b4e:	b94d      	cbnz	r5, 8009b64 <__gethex+0xc4>
 8009b50:	eb06 050a 	add.w	r5, r6, sl
 8009b54:	462a      	mov	r2, r5
 8009b56:	4616      	mov	r6, r2
 8009b58:	3201      	adds	r2, #1
 8009b5a:	7830      	ldrb	r0, [r6, #0]
 8009b5c:	f7ff ff8b 	bl	8009a76 <__hexdig_fun>
 8009b60:	2800      	cmp	r0, #0
 8009b62:	d1f8      	bne.n	8009b56 <__gethex+0xb6>
 8009b64:	1bad      	subs	r5, r5, r6
 8009b66:	00ad      	lsls	r5, r5, #2
 8009b68:	e004      	b.n	8009b74 <__gethex+0xd4>
 8009b6a:	2400      	movs	r4, #0
 8009b6c:	4625      	mov	r5, r4
 8009b6e:	e7e0      	b.n	8009b32 <__gethex+0x92>
 8009b70:	2d00      	cmp	r5, #0
 8009b72:	d1f7      	bne.n	8009b64 <__gethex+0xc4>
 8009b74:	7833      	ldrb	r3, [r6, #0]
 8009b76:	f003 03df 	and.w	r3, r3, #223	; 0xdf
 8009b7a:	2b50      	cmp	r3, #80	; 0x50
 8009b7c:	d13b      	bne.n	8009bf6 <__gethex+0x156>
 8009b7e:	7873      	ldrb	r3, [r6, #1]
 8009b80:	2b2b      	cmp	r3, #43	; 0x2b
 8009b82:	d02c      	beq.n	8009bde <__gethex+0x13e>
 8009b84:	2b2d      	cmp	r3, #45	; 0x2d
 8009b86:	d02e      	beq.n	8009be6 <__gethex+0x146>
 8009b88:	1c71      	adds	r1, r6, #1
 8009b8a:	f04f 0900 	mov.w	r9, #0
 8009b8e:	7808      	ldrb	r0, [r1, #0]
 8009b90:	f7ff ff71 	bl	8009a76 <__hexdig_fun>
 8009b94:	1e43      	subs	r3, r0, #1
 8009b96:	b2db      	uxtb	r3, r3
 8009b98:	2b18      	cmp	r3, #24
 8009b9a:	d82c      	bhi.n	8009bf6 <__gethex+0x156>
 8009b9c:	f1a0 0210 	sub.w	r2, r0, #16
 8009ba0:	f811 0f01 	ldrb.w	r0, [r1, #1]!
 8009ba4:	f7ff ff67 	bl	8009a76 <__hexdig_fun>
 8009ba8:	1e43      	subs	r3, r0, #1
 8009baa:	b2db      	uxtb	r3, r3
 8009bac:	2b18      	cmp	r3, #24
 8009bae:	d91d      	bls.n	8009bec <__gethex+0x14c>
 8009bb0:	f1b9 0f00 	cmp.w	r9, #0
 8009bb4:	d000      	beq.n	8009bb8 <__gethex+0x118>
 8009bb6:	4252      	negs	r2, r2
 8009bb8:	4415      	add	r5, r2
 8009bba:	f8cb 1000 	str.w	r1, [fp]
 8009bbe:	b1e4      	cbz	r4, 8009bfa <__gethex+0x15a>
 8009bc0:	9b00      	ldr	r3, [sp, #0]
 8009bc2:	2b00      	cmp	r3, #0
 8009bc4:	bf14      	ite	ne
 8009bc6:	2700      	movne	r7, #0
 8009bc8:	2706      	moveq	r7, #6
 8009bca:	4638      	mov	r0, r7
 8009bcc:	b009      	add	sp, #36	; 0x24
 8009bce:	ecbd 8b02 	vpop	{d8}
 8009bd2:	e8bd 8ff0 	ldmia.w	sp!, {r4, r5, r6, r7, r8, r9, sl, fp, pc}
 8009bd6:	463e      	mov	r6, r7
 8009bd8:	4625      	mov	r5, r4
 8009bda:	2401      	movs	r4, #1
 8009bdc:	e7ca      	b.n	8009b74 <__gethex+0xd4>
 8009bde:	f04f 0900 	mov.w	r9, #0
 8009be2:	1cb1      	adds	r1, r6, #2
 8009be4:	e7d3      	b.n	8009b8e <__gethex+0xee>
 8009be6:	f04f 0901 	mov.w	r9, #1
 8009bea:	e7fa      	b.n	8009be2 <__gethex+0x142>
 8009bec:	230a      	movs	r3, #10
 8009bee:	fb03 0202 	mla	r2, r3, r2, r0
 8009bf2:	3a10      	subs	r2, #16
 8009bf4:	e7d4      	b.n	8009ba0 <__gethex+0x100>
 8009bf6:	4631      	mov	r1, r6
 8009bf8:	e7df      	b.n	8009bba <__gethex+0x11a>
 8009bfa:	1bf3      	subs	r3, r6, r7
 8009bfc:	3b01      	subs	r3, #1
 8009bfe:	4621      	mov	r1, r4
 8009c00:	2b07      	cmp	r3, #7
 8009c02:	dc0b      	bgt.n	8009c1c <__gethex+0x17c>
 8009c04:	ee18 0a10 	vmov	r0, s16
 8009c08:	f000 fae6 	bl	800a1d8 <_Balloc>
 8009c0c:	4604      	mov	r4, r0
 8009c0e:	b940      	cbnz	r0, 8009c22 <__gethex+0x182>
 8009c10:	4b5d      	ldr	r3, [pc, #372]	; (8009d88 <__gethex+0x2e8>)
 8009c12:	4602      	mov	r2, r0
 8009c14:	21de      	movs	r1, #222	; 0xde
 8009c16:	485d      	ldr	r0, [pc, #372]	; (8009d8c <__gethex+0x2ec>)
 8009c18:	f001 fbdc 	bl	800b3d4 <__assert_func>
 8009c1c:	3101      	adds	r1, #1
 8009c1e:	105b      	asrs	r3, r3, #1
 8009c20:	e7ee      	b.n	8009c00 <__gethex+0x160>
 8009c22:	f100 0914 	add.w	r9, r0, #20
 8009c26:	f04f 0b00 	mov.w	fp, #0
 8009c2a:	f1ca 0301 	rsb	r3, sl, #1
 8009c2e:	f8cd 9008 	str.w	r9, [sp, #8]
 8009c32:	f8cd b000 	str.w	fp, [sp]
 8009c36:	9306      	str	r3, [sp, #24]
 8009c38:	42b7      	cmp	r7, r6
 8009c3a:	d340      	bcc.n	8009cbe <__gethex+0x21e>
 8009c3c:	9802      	ldr	r0, [sp, #8]
 8009c3e:	9b00      	ldr	r3, [sp, #0]
 8009c40:	f840 3b04 	str.w	r3, [r0], #4
 8009c44:	eba0 0009 	sub.w	r0, r0, r9
 8009c48:	1080      	asrs	r0, r0, #2
 8009c4a:	0146      	lsls	r6, r0, #5
 8009c4c:	6120      	str	r0, [r4, #16]
 8009c4e:	4618      	mov	r0, r3
 8009c50:	f000 fbb4 	bl	800a3bc <__hi0bits>
 8009c54:	1a30      	subs	r0, r6, r0
 8009c56:	f8d8 6000 	ldr.w	r6, [r8]
 8009c5a:	42b0      	cmp	r0, r6
 8009c5c:	dd63      	ble.n	8009d26 <__gethex+0x286>
 8009c5e:	1b87      	subs	r7, r0, r6
 8009c60:	4639      	mov	r1, r7
 8009c62:	4620      	mov	r0, r4
 8009c64:	f000 ff58 	bl	800ab18 <__any_on>
 8009c68:	4682      	mov	sl, r0
 8009c6a:	b1a8      	cbz	r0, 8009c98 <__gethex+0x1f8>
 8009c6c:	1e7b      	subs	r3, r7, #1
 8009c6e:	1159      	asrs	r1, r3, #5
 8009c70:	f003 021f 	and.w	r2, r3, #31
 8009c74:	f859 1021 	ldr.w	r1, [r9, r1, lsl #2]
 8009c78:	f04f 0a01 	mov.w	sl, #1
 8009c7c:	fa0a f202 	lsl.w	r2, sl, r2
 8009c80:	420a      	tst	r2, r1
 8009c82:	d009      	beq.n	8009c98 <__gethex+0x1f8>
 8009c84:	4553      	cmp	r3, sl
 8009c86:	dd05      	ble.n	8009c94 <__gethex+0x1f4>
 8009c88:	1eb9      	subs	r1, r7, #2
 8009c8a:	4620      	mov	r0, r4
 8009c8c:	f000 ff44 	bl	800ab18 <__any_on>
 8009c90:	2800      	cmp	r0, #0
 8009c92:	d145      	bne.n	8009d20 <__gethex+0x280>
 8009c94:	f04f 0a02 	mov.w	sl, #2
 8009c98:	4639      	mov	r1, r7
 8009c9a:	4620      	mov	r0, r4
 8009c9c:	f7ff fe99 	bl	80099d2 <rshift>
 8009ca0:	443d      	add	r5, r7
 8009ca2:	f8d8 3008 	ldr.w	r3, [r8, #8]
 8009ca6:	42ab      	cmp	r3, r5
 8009ca8:	da4c      	bge.n	8009d44 <__gethex+0x2a4>
 8009caa:	ee18 0a10 	vmov	r0, s16
 8009cae:	4621      	mov	r1, r4
 8009cb0:	f000 fad2 	bl	800a258 <_Bfree>
 8009cb4:	9a14      	ldr	r2, [sp, #80]	; 0x50
 8009cb6:	2300      	movs	r3, #0
 8009cb8:	6013      	str	r3, [r2, #0]
 8009cba:	27a3      	movs	r7, #163	; 0xa3
 8009cbc:	e785      	b.n	8009bca <__gethex+0x12a>
 8009cbe:	1e73      	subs	r3, r6, #1
 8009cc0:	9a05      	ldr	r2, [sp, #20]
 8009cc2:	9303      	str	r3, [sp, #12]
 8009cc4:	f816 3c01 	ldrb.w	r3, [r6, #-1]
 8009cc8:	4293      	cmp	r3, r2
 8009cca:	d019      	beq.n	8009d00 <__gethex+0x260>
 8009ccc:	f1bb 0f20 	cmp.w	fp, #32
 8009cd0:	d107      	bne.n	8009ce2 <__gethex+0x242>
 8009cd2:	9b02      	ldr	r3, [sp, #8]
 8009cd4:	9a00      	ldr	r2, [sp, #0]
 8009cd6:	f843 2b04 	str.w	r2, [r3], #4
 8009cda:	9302      	str	r3, [sp, #8]
 8009cdc:	2300      	movs	r3, #0
 8009cde:	9300      	str	r3, [sp, #0]
 8009ce0:	469b      	mov	fp, r3
 8009ce2:	f816 0c01 	ldrb.w	r0, [r6, #-1]
 8009ce6:	f7ff fec6 	bl	8009a76 <__hexdig_fun>
 8009cea:	9b00      	ldr	r3, [sp, #0]
 8009cec:	f000 000f 	and.w	r0, r0, #15
 8009cf0:	fa00 f00b 	lsl.w	r0, r0, fp
 8009cf4:	4303      	orrs	r3, r0
 8009cf6:	9300      	str	r3, [sp, #0]
 8009cf8:	f10b 0b04 	add.w	fp, fp, #4
 8009cfc:	9b03      	ldr	r3, [sp, #12]
 8009cfe:	e00d      	b.n	8009d1c <__gethex+0x27c>
 8009d00:	9b03      	ldr	r3, [sp, #12]
 8009d02:	9a06      	ldr	r2, [sp, #24]
 8009d04:	4413      	add	r3, r2
 8009d06:	42bb      	cmp	r3, r7
 8009d08:	d3e0      	bcc.n	8009ccc <__gethex+0x22c>
 8009d0a:	4618      	mov	r0, r3
 8009d0c:	9901      	ldr	r1, [sp, #4]
 8009d0e:	9307      	str	r3, [sp, #28]
 8009d10:	4652      	mov	r2, sl
 8009d12:	f001 fb2c 	bl	800b36e <strncmp>
 8009d16:	9b07      	ldr	r3, [sp, #28]
 8009d18:	2800      	cmp	r0, #0
 8009d1a:	d1d7      	bne.n	8009ccc <__gethex+0x22c>
 8009d1c:	461e      	mov	r6, r3
 8009d1e:	e78b      	b.n	8009c38 <__gethex+0x198>
 8009d20:	f04f 0a03 	mov.w	sl, #3
 8009d24:	e7b8      	b.n	8009c98 <__gethex+0x1f8>
 8009d26:	da0a      	bge.n	8009d3e <__gethex+0x29e>
 8009d28:	1a37      	subs	r7, r6, r0
 8009d2a:	4621      	mov	r1, r4
 8009d2c:	ee18 0a10 	vmov	r0, s16
 8009d30:	463a      	mov	r2, r7
 8009d32:	f000 fcad 	bl	800a690 <__lshift>
 8009d36:	1bed      	subs	r5, r5, r7
 8009d38:	4604      	mov	r4, r0
 8009d3a:	f100 0914 	add.w	r9, r0, #20
 8009d3e:	f04f 0a00 	mov.w	sl, #0
 8009d42:	e7ae      	b.n	8009ca2 <__gethex+0x202>
 8009d44:	f8d8 0004 	ldr.w	r0, [r8, #4]
 8009d48:	42a8      	cmp	r0, r5
 8009d4a:	dd72      	ble.n	8009e32 <__gethex+0x392>
 8009d4c:	1b45      	subs	r5, r0, r5
 8009d4e:	42ae      	cmp	r6, r5
 8009d50:	dc36      	bgt.n	8009dc0 <__gethex+0x320>
 8009d52:	f8d8 300c 	ldr.w	r3, [r8, #12]
 8009d56:	2b02      	cmp	r3, #2
 8009d58:	d02a      	beq.n	8009db0 <__gethex+0x310>
 8009d5a:	2b03      	cmp	r3, #3
 8009d5c:	d02c      	beq.n	8009db8 <__gethex+0x318>
 8009d5e:	2b01      	cmp	r3, #1
 8009d60:	d11c      	bne.n	8009d9c <__gethex+0x2fc>
 8009d62:	42ae      	cmp	r6, r5
 8009d64:	d11a      	bne.n	8009d9c <__gethex+0x2fc>
 8009d66:	2e01      	cmp	r6, #1
 8009d68:	d112      	bne.n	8009d90 <__gethex+0x2f0>
 8009d6a:	9a04      	ldr	r2, [sp, #16]
 8009d6c:	f8d8 3004 	ldr.w	r3, [r8, #4]
 8009d70:	6013      	str	r3, [r2, #0]
 8009d72:	2301      	movs	r3, #1
 8009d74:	6123      	str	r3, [r4, #16]
 8009d76:	f8c9 3000 	str.w	r3, [r9]
 8009d7a:	9b14      	ldr	r3, [sp, #80]	; 0x50
 8009d7c:	2762      	movs	r7, #98	; 0x62
 8009d7e:	601c      	str	r4, [r3, #0]
 8009d80:	e723      	b.n	8009bca <__gethex+0x12a>
 8009d82:	bf00      	nop
 8009d84:	0800bb7c 	.word	0x0800bb7c
 8009d88:	0800baa0 	.word	0x0800baa0
 8009d8c:	0800bb14 	.word	0x0800bb14
 8009d90:	1e71      	subs	r1, r6, #1
 8009d92:	4620      	mov	r0, r4
 8009d94:	f000 fec0 	bl	800ab18 <__any_on>
 8009d98:	2800      	cmp	r0, #0
 8009d9a:	d1e6      	bne.n	8009d6a <__gethex+0x2ca>
 8009d9c:	ee18 0a10 	vmov	r0, s16
 8009da0:	4621      	mov	r1, r4
 8009da2:	f000 fa59 	bl	800a258 <_Bfree>
 8009da6:	9a14      	ldr	r2, [sp, #80]	; 0x50
 8009da8:	2300      	movs	r3, #0
 8009daa:	6013      	str	r3, [r2, #0]
 8009dac:	2750      	movs	r7, #80	; 0x50
 8009dae:	e70c      	b.n	8009bca <__gethex+0x12a>
 8009db0:	9b15      	ldr	r3, [sp, #84]	; 0x54
 8009db2:	2b00      	cmp	r3, #0
 8009db4:	d1f2      	bne.n	8009d9c <__gethex+0x2fc>
 8009db6:	e7d8      	b.n	8009d6a <__gethex+0x2ca>
 8009db8:	9b15      	ldr	r3, [sp, #84]	; 0x54
 8009dba:	2b00      	cmp	r3, #0
 8009dbc:	d1d5      	bne.n	8009d6a <__gethex+0x2ca>
 8009dbe:	e7ed      	b.n	8009d9c <__gethex+0x2fc>
 8009dc0:	1e6f      	subs	r7, r5, #1
 8009dc2:	f1ba 0f00 	cmp.w	sl, #0
 8009dc6:	d131      	bne.n	8009e2c <__gethex+0x38c>
 8009dc8:	b127      	cbz	r7, 8009dd4 <__gethex+0x334>
 8009dca:	4639      	mov	r1, r7
 8009dcc:	4620      	mov	r0, r4
 8009dce:	f000 fea3 	bl	800ab18 <__any_on>
 8009dd2:	4682      	mov	sl, r0
 8009dd4:	117b      	asrs	r3, r7, #5
 8009dd6:	2101      	movs	r1, #1
 8009dd8:	f859 3023 	ldr.w	r3, [r9, r3, lsl #2]
 8009ddc:	f007 071f 	and.w	r7, r7, #31
 8009de0:	fa01 f707 	lsl.w	r7, r1, r7
 8009de4:	421f      	tst	r7, r3
 8009de6:	4629      	mov	r1, r5
 8009de8:	4620      	mov	r0, r4
 8009dea:	bf18      	it	ne
 8009dec:	f04a 0a02 	orrne.w	sl, sl, #2
 8009df0:	1b76      	subs	r6, r6, r5
 8009df2:	f7ff fdee 	bl	80099d2 <rshift>
 8009df6:	f8d8 5004 	ldr.w	r5, [r8, #4]
 8009dfa:	2702      	movs	r7, #2
 8009dfc:	f1ba 0f00 	cmp.w	sl, #0
 8009e00:	d048      	beq.n	8009e94 <__gethex+0x3f4>
 8009e02:	f8d8 300c 	ldr.w	r3, [r8, #12]
 8009e06:	2b02      	cmp	r3, #2
 8009e08:	d015      	beq.n	8009e36 <__gethex+0x396>
 8009e0a:	2b03      	cmp	r3, #3
 8009e0c:	d017      	beq.n	8009e3e <__gethex+0x39e>
 8009e0e:	2b01      	cmp	r3, #1
 8009e10:	d109      	bne.n	8009e26 <__gethex+0x386>
 8009e12:	f01a 0f02 	tst.w	sl, #2
 8009e16:	d006      	beq.n	8009e26 <__gethex+0x386>
 8009e18:	f8d9 0000 	ldr.w	r0, [r9]
 8009e1c:	ea4a 0a00 	orr.w	sl, sl, r0
 8009e20:	f01a 0f01 	tst.w	sl, #1
 8009e24:	d10e      	bne.n	8009e44 <__gethex+0x3a4>
 8009e26:	f047 0710 	orr.w	r7, r7, #16
 8009e2a:	e033      	b.n	8009e94 <__gethex+0x3f4>
 8009e2c:	f04f 0a01 	mov.w	sl, #1
 8009e30:	e7d0      	b.n	8009dd4 <__gethex+0x334>
 8009e32:	2701      	movs	r7, #1
 8009e34:	e7e2      	b.n	8009dfc <__gethex+0x35c>
 8009e36:	9b15      	ldr	r3, [sp, #84]	; 0x54
 8009e38:	f1c3 0301 	rsb	r3, r3, #1
 8009e3c:	9315      	str	r3, [sp, #84]	; 0x54
 8009e3e:	9b15      	ldr	r3, [sp, #84]	; 0x54
 8009e40:	2b00      	cmp	r3, #0
 8009e42:	d0f0      	beq.n	8009e26 <__gethex+0x386>
 8009e44:	f8d4 b010 	ldr.w	fp, [r4, #16]
 8009e48:	f104 0314 	add.w	r3, r4, #20
 8009e4c:	ea4f 0a8b 	mov.w	sl, fp, lsl #2
 8009e50:	eb03 018b 	add.w	r1, r3, fp, lsl #2
 8009e54:	f04f 0c00 	mov.w	ip, #0
 8009e58:	4618      	mov	r0, r3
 8009e5a:	f853 2b04 	ldr.w	r2, [r3], #4
 8009e5e:	f1b2 3fff 	cmp.w	r2, #4294967295
 8009e62:	d01c      	beq.n	8009e9e <__gethex+0x3fe>
 8009e64:	3201      	adds	r2, #1
 8009e66:	6002      	str	r2, [r0, #0]
 8009e68:	2f02      	cmp	r7, #2
 8009e6a:	f104 0314 	add.w	r3, r4, #20
 8009e6e:	d13f      	bne.n	8009ef0 <__gethex+0x450>
 8009e70:	f8d8 2000 	ldr.w	r2, [r8]
 8009e74:	3a01      	subs	r2, #1
 8009e76:	42b2      	cmp	r2, r6
 8009e78:	d10a      	bne.n	8009e90 <__gethex+0x3f0>
 8009e7a:	1171      	asrs	r1, r6, #5
 8009e7c:	2201      	movs	r2, #1
 8009e7e:	f853 3021 	ldr.w	r3, [r3, r1, lsl #2]
 8009e82:	f006 061f 	and.w	r6, r6, #31
 8009e86:	fa02 f606 	lsl.w	r6, r2, r6
 8009e8a:	421e      	tst	r6, r3
 8009e8c:	bf18      	it	ne
 8009e8e:	4617      	movne	r7, r2
 8009e90:	f047 0720 	orr.w	r7, r7, #32
 8009e94:	9b14      	ldr	r3, [sp, #80]	; 0x50
 8009e96:	601c      	str	r4, [r3, #0]
 8009e98:	9b04      	ldr	r3, [sp, #16]
 8009e9a:	601d      	str	r5, [r3, #0]
 8009e9c:	e695      	b.n	8009bca <__gethex+0x12a>
 8009e9e:	4299      	cmp	r1, r3
 8009ea0:	f843 cc04 	str.w	ip, [r3, #-4]
 8009ea4:	d8d8      	bhi.n	8009e58 <__gethex+0x3b8>
 8009ea6:	68a3      	ldr	r3, [r4, #8]
 8009ea8:	459b      	cmp	fp, r3
 8009eaa:	db19      	blt.n	8009ee0 <__gethex+0x440>
 8009eac:	6861      	ldr	r1, [r4, #4]
 8009eae:	ee18 0a10 	vmov	r0, s16
 8009eb2:	3101      	adds	r1, #1
 8009eb4:	f000 f990 	bl	800a1d8 <_Balloc>
 8009eb8:	4681      	mov	r9, r0
 8009eba:	b918      	cbnz	r0, 8009ec4 <__gethex+0x424>
 8009ebc:	4b1a      	ldr	r3, [pc, #104]	; (8009f28 <__gethex+0x488>)
 8009ebe:	4602      	mov	r2, r0
 8009ec0:	2184      	movs	r1, #132	; 0x84
 8009ec2:	e6a8      	b.n	8009c16 <__gethex+0x176>
 8009ec4:	6922      	ldr	r2, [r4, #16]
 8009ec6:	3202      	adds	r2, #2
 8009ec8:	f104 010c 	add.w	r1, r4, #12
 8009ecc:	0092      	lsls	r2, r2, #2
 8009ece:	300c      	adds	r0, #12
 8009ed0:	f000 f974 	bl	800a1bc <memcpy>
 8009ed4:	4621      	mov	r1, r4
 8009ed6:	ee18 0a10 	vmov	r0, s16
 8009eda:	f000 f9bd 	bl	800a258 <_Bfree>
 8009ede:	464c      	mov	r4, r9
 8009ee0:	6923      	ldr	r3, [r4, #16]
 8009ee2:	1c5a      	adds	r2, r3, #1
 8009ee4:	eb04 0383 	add.w	r3, r4, r3, lsl #2
 8009ee8:	6122      	str	r2, [r4, #16]
 8009eea:	2201      	movs	r2, #1
 8009eec:	615a      	str	r2, [r3, #20]
 8009eee:	e7bb      	b.n	8009e68 <__gethex+0x3c8>
 8009ef0:	6922      	ldr	r2, [r4, #16]
 8009ef2:	455a      	cmp	r2, fp
 8009ef4:	dd0b      	ble.n	8009f0e <__gethex+0x46e>
 8009ef6:	2101      	movs	r1, #1
 8009ef8:	4620      	mov	r0, r4
 8009efa:	f7ff fd6a 	bl	80099d2 <rshift>
 8009efe:	f8d8 3008 	ldr.w	r3, [r8, #8]
 8009f02:	3501      	adds	r5, #1
 8009f04:	42ab      	cmp	r3, r5
 8009f06:	f6ff aed0 	blt.w	8009caa <__gethex+0x20a>
 8009f0a:	2701      	movs	r7, #1
 8009f0c:	e7c0      	b.n	8009e90 <__gethex+0x3f0>
 8009f0e:	f016 061f 	ands.w	r6, r6, #31
 8009f12:	d0fa      	beq.n	8009f0a <__gethex+0x46a>
 8009f14:	4453      	add	r3, sl
 8009f16:	f1c6 0620 	rsb	r6, r6, #32
 8009f1a:	f853 0c04 	ldr.w	r0, [r3, #-4]
 8009f1e:	f000 fa4d 	bl	800a3bc <__hi0bits>
 8009f22:	42b0      	cmp	r0, r6
 8009f24:	dbe7      	blt.n	8009ef6 <__gethex+0x456>
 8009f26:	e7f0      	b.n	8009f0a <__gethex+0x46a>
 8009f28:	0800baa0 	.word	0x0800baa0

08009f2c <L_shift>:
 8009f2c:	f1c2 0208 	rsb	r2, r2, #8
 8009f30:	0092      	lsls	r2, r2, #2
 8009f32:	b570      	push	{r4, r5, r6, lr}
 8009f34:	f1c2 0620 	rsb	r6, r2, #32
 8009f38:	6843      	ldr	r3, [r0, #4]
 8009f3a:	6804      	ldr	r4, [r0, #0]
 8009f3c:	fa03 f506 	lsl.w	r5, r3, r6
 8009f40:	432c      	orrs	r4, r5
 8009f42:	40d3      	lsrs	r3, r2
 8009f44:	6004      	str	r4, [r0, #0]
 8009f46:	f840 3f04 	str.w	r3, [r0, #4]!
 8009f4a:	4288      	cmp	r0, r1
 8009f4c:	d3f4      	bcc.n	8009f38 <L_shift+0xc>
 8009f4e:	bd70      	pop	{r4, r5, r6, pc}

08009f50 <__match>:
 8009f50:	b530      	push	{r4, r5, lr}
 8009f52:	6803      	ldr	r3, [r0, #0]
 8009f54:	3301      	adds	r3, #1
 8009f56:	f811 4b01 	ldrb.w	r4, [r1], #1
 8009f5a:	b914      	cbnz	r4, 8009f62 <__match+0x12>
 8009f5c:	6003      	str	r3, [r0, #0]
 8009f5e:	2001      	movs	r0, #1
 8009f60:	bd30      	pop	{r4, r5, pc}
 8009f62:	f813 2b01 	ldrb.w	r2, [r3], #1
 8009f66:	f1a2 0541 	sub.w	r5, r2, #65	; 0x41
 8009f6a:	2d19      	cmp	r5, #25
 8009f6c:	bf98      	it	ls
 8009f6e:	3220      	addls	r2, #32
 8009f70:	42a2      	cmp	r2, r4
 8009f72:	d0f0      	beq.n	8009f56 <__match+0x6>
 8009f74:	2000      	movs	r0, #0
 8009f76:	e7f3      	b.n	8009f60 <__match+0x10>

08009f78 <__hexnan>:
 8009f78:	e92d 4ff0 	stmdb	sp!, {r4, r5, r6, r7, r8, r9, sl, fp, lr}
 8009f7c:	680b      	ldr	r3, [r1, #0]
 8009f7e:	115e      	asrs	r6, r3, #5
 8009f80:	eb02 0686 	add.w	r6, r2, r6, lsl #2
 8009f84:	f013 031f 	ands.w	r3, r3, #31
 8009f88:	b087      	sub	sp, #28
 8009f8a:	bf18      	it	ne
 8009f8c:	3604      	addne	r6, #4
 8009f8e:	2500      	movs	r5, #0
 8009f90:	1f37      	subs	r7, r6, #4
 8009f92:	4690      	mov	r8, r2
 8009f94:	6802      	ldr	r2, [r0, #0]
 8009f96:	9301      	str	r3, [sp, #4]
 8009f98:	4682      	mov	sl, r0
 8009f9a:	f846 5c04 	str.w	r5, [r6, #-4]
 8009f9e:	46b9      	mov	r9, r7
 8009fa0:	463c      	mov	r4, r7
 8009fa2:	9502      	str	r5, [sp, #8]
 8009fa4:	46ab      	mov	fp, r5
 8009fa6:	7851      	ldrb	r1, [r2, #1]
 8009fa8:	1c53      	adds	r3, r2, #1
 8009faa:	9303      	str	r3, [sp, #12]
 8009fac:	b341      	cbz	r1, 800a000 <__hexnan+0x88>
 8009fae:	4608      	mov	r0, r1
 8009fb0:	9205      	str	r2, [sp, #20]
 8009fb2:	9104      	str	r1, [sp, #16]
 8009fb4:	f7ff fd5f 	bl	8009a76 <__hexdig_fun>
 8009fb8:	2800      	cmp	r0, #0
 8009fba:	d14f      	bne.n	800a05c <__hexnan+0xe4>
 8009fbc:	9904      	ldr	r1, [sp, #16]
 8009fbe:	9a05      	ldr	r2, [sp, #20]
 8009fc0:	2920      	cmp	r1, #32
 8009fc2:	d818      	bhi.n	8009ff6 <__hexnan+0x7e>
 8009fc4:	9b02      	ldr	r3, [sp, #8]
 8009fc6:	459b      	cmp	fp, r3
 8009fc8:	dd13      	ble.n	8009ff2 <__hexnan+0x7a>
 8009fca:	454c      	cmp	r4, r9
 8009fcc:	d206      	bcs.n	8009fdc <__hexnan+0x64>
 8009fce:	2d07      	cmp	r5, #7
 8009fd0:	dc04      	bgt.n	8009fdc <__hexnan+0x64>
 8009fd2:	462a      	mov	r2, r5
 8009fd4:	4649      	mov	r1, r9
 8009fd6:	4620      	mov	r0, r4
 8009fd8:	f7ff ffa8 	bl	8009f2c <L_shift>
 8009fdc:	4544      	cmp	r4, r8
 8009fde:	d950      	bls.n	800a082 <__hexnan+0x10a>
 8009fe0:	2300      	movs	r3, #0
 8009fe2:	f1a4 0904 	sub.w	r9, r4, #4
 8009fe6:	f844 3c04 	str.w	r3, [r4, #-4]
 8009fea:	f8cd b008 	str.w	fp, [sp, #8]
 8009fee:	464c      	mov	r4, r9
 8009ff0:	461d      	mov	r5, r3
 8009ff2:	9a03      	ldr	r2, [sp, #12]
 8009ff4:	e7d7      	b.n	8009fa6 <__hexnan+0x2e>
 8009ff6:	2929      	cmp	r1, #41	; 0x29
 8009ff8:	d156      	bne.n	800a0a8 <__hexnan+0x130>
 8009ffa:	3202      	adds	r2, #2
 8009ffc:	f8ca 2000 	str.w	r2, [sl]
 800a000:	f1bb 0f00 	cmp.w	fp, #0
 800a004:	d050      	beq.n	800a0a8 <__hexnan+0x130>
 800a006:	454c      	cmp	r4, r9
 800a008:	d206      	bcs.n	800a018 <__hexnan+0xa0>
 800a00a:	2d07      	cmp	r5, #7
 800a00c:	dc04      	bgt.n	800a018 <__hexnan+0xa0>
 800a00e:	462a      	mov	r2, r5
 800a010:	4649      	mov	r1, r9
 800a012:	4620      	mov	r0, r4
 800a014:	f7ff ff8a 	bl	8009f2c <L_shift>
 800a018:	4544      	cmp	r4, r8
 800a01a:	d934      	bls.n	800a086 <__hexnan+0x10e>
 800a01c:	f1a8 0204 	sub.w	r2, r8, #4
 800a020:	4623      	mov	r3, r4
 800a022:	f853 1b04 	ldr.w	r1, [r3], #4
 800a026:	f842 1f04 	str.w	r1, [r2, #4]!
 800a02a:	429f      	cmp	r7, r3
 800a02c:	d2f9      	bcs.n	800a022 <__hexnan+0xaa>
 800a02e:	1b3b      	subs	r3, r7, r4
 800a030:	f023 0303 	bic.w	r3, r3, #3
 800a034:	3304      	adds	r3, #4
 800a036:	3401      	adds	r4, #1
 800a038:	3e03      	subs	r6, #3
 800a03a:	42b4      	cmp	r4, r6
 800a03c:	bf88      	it	hi
 800a03e:	2304      	movhi	r3, #4
 800a040:	4443      	add	r3, r8
 800a042:	2200      	movs	r2, #0
 800a044:	f843 2b04 	str.w	r2, [r3], #4
 800a048:	429f      	cmp	r7, r3
 800a04a:	d2fb      	bcs.n	800a044 <__hexnan+0xcc>
 800a04c:	683b      	ldr	r3, [r7, #0]
 800a04e:	b91b      	cbnz	r3, 800a058 <__hexnan+0xe0>
 800a050:	4547      	cmp	r7, r8
 800a052:	d127      	bne.n	800a0a4 <__hexnan+0x12c>
 800a054:	2301      	movs	r3, #1
 800a056:	603b      	str	r3, [r7, #0]
 800a058:	2005      	movs	r0, #5
 800a05a:	e026      	b.n	800a0aa <__hexnan+0x132>
 800a05c:	3501      	adds	r5, #1
 800a05e:	2d08      	cmp	r5, #8
 800a060:	f10b 0b01 	add.w	fp, fp, #1
 800a064:	dd06      	ble.n	800a074 <__hexnan+0xfc>
 800a066:	4544      	cmp	r4, r8
 800a068:	d9c3      	bls.n	8009ff2 <__hexnan+0x7a>
 800a06a:	2300      	movs	r3, #0
 800a06c:	f844 3c04 	str.w	r3, [r4, #-4]
 800a070:	2501      	movs	r5, #1
 800a072:	3c04      	subs	r4, #4
 800a074:	6822      	ldr	r2, [r4, #0]
 800a076:	f000 000f 	and.w	r0, r0, #15
 800a07a:	ea40 1202 	orr.w	r2, r0, r2, lsl #4
 800a07e:	6022      	str	r2, [r4, #0]
 800a080:	e7b7      	b.n	8009ff2 <__hexnan+0x7a>
 800a082:	2508      	movs	r5, #8
 800a084:	e7b5      	b.n	8009ff2 <__hexnan+0x7a>
 800a086:	9b01      	ldr	r3, [sp, #4]
 800a088:	2b00      	cmp	r3, #0
 800a08a:	d0df      	beq.n	800a04c <__hexnan+0xd4>
 800a08c:	f04f 32ff 	mov.w	r2, #4294967295
 800a090:	f1c3 0320 	rsb	r3, r3, #32
 800a094:	fa22 f303 	lsr.w	r3, r2, r3
 800a098:	f856 2c04 	ldr.w	r2, [r6, #-4]
 800a09c:	401a      	ands	r2, r3
 800a09e:	f846 2c04 	str.w	r2, [r6, #-4]
 800a0a2:	e7d3      	b.n	800a04c <__hexnan+0xd4>
 800a0a4:	3f04      	subs	r7, #4
 800a0a6:	e7d1      	b.n	800a04c <__hexnan+0xd4>
 800a0a8:	2004      	movs	r0, #4
 800a0aa:	b007      	add	sp, #28
 800a0ac:	e8bd 8ff0 	ldmia.w	sp!, {r4, r5, r6, r7, r8, r9, sl, fp, pc}

0800a0b0 <_localeconv_r>:
 800a0b0:	4800      	ldr	r0, [pc, #0]	; (800a0b4 <_localeconv_r+0x4>)
 800a0b2:	4770      	bx	lr
 800a0b4:	20000168 	.word	0x20000168

0800a0b8 <__retarget_lock_init_recursive>:
 800a0b8:	4770      	bx	lr

0800a0ba <__retarget_lock_acquire_recursive>:
 800a0ba:	4770      	bx	lr

0800a0bc <__retarget_lock_release_recursive>:
 800a0bc:	4770      	bx	lr

0800a0be <__swhatbuf_r>:
 800a0be:	b570      	push	{r4, r5, r6, lr}
 800a0c0:	460e      	mov	r6, r1
 800a0c2:	f9b1 100e 	ldrsh.w	r1, [r1, #14]
 800a0c6:	2900      	cmp	r1, #0
 800a0c8:	b096      	sub	sp, #88	; 0x58
 800a0ca:	4614      	mov	r4, r2
 800a0cc:	461d      	mov	r5, r3
 800a0ce:	da08      	bge.n	800a0e2 <__swhatbuf_r+0x24>
 800a0d0:	f9b6 300c 	ldrsh.w	r3, [r6, #12]
 800a0d4:	2200      	movs	r2, #0
 800a0d6:	602a      	str	r2, [r5, #0]
 800a0d8:	061a      	lsls	r2, r3, #24
 800a0da:	d410      	bmi.n	800a0fe <__swhatbuf_r+0x40>
 800a0dc:	f44f 6380 	mov.w	r3, #1024	; 0x400
 800a0e0:	e00e      	b.n	800a100 <__swhatbuf_r+0x42>
 800a0e2:	466a      	mov	r2, sp
 800a0e4:	f001 f9b6 	bl	800b454 <_fstat_r>
 800a0e8:	2800      	cmp	r0, #0
 800a0ea:	dbf1      	blt.n	800a0d0 <__swhatbuf_r+0x12>
 800a0ec:	9a01      	ldr	r2, [sp, #4]
 800a0ee:	f402 4270 	and.w	r2, r2, #61440	; 0xf000
 800a0f2:	f5a2 5300 	sub.w	r3, r2, #8192	; 0x2000
 800a0f6:	425a      	negs	r2, r3
 800a0f8:	415a      	adcs	r2, r3
 800a0fa:	602a      	str	r2, [r5, #0]
 800a0fc:	e7ee      	b.n	800a0dc <__swhatbuf_r+0x1e>
 800a0fe:	2340      	movs	r3, #64	; 0x40
 800a100:	2000      	movs	r0, #0
 800a102:	6023      	str	r3, [r4, #0]
 800a104:	b016      	add	sp, #88	; 0x58
 800a106:	bd70      	pop	{r4, r5, r6, pc}

0800a108 <__smakebuf_r>:
 800a108:	898b      	ldrh	r3, [r1, #12]
 800a10a:	b573      	push	{r0, r1, r4, r5, r6, lr}
 800a10c:	079d      	lsls	r5, r3, #30
 800a10e:	4606      	mov	r6, r0
 800a110:	460c      	mov	r4, r1
 800a112:	d507      	bpl.n	800a124 <__smakebuf_r+0x1c>
 800a114:	f104 0347 	add.w	r3, r4, #71	; 0x47
 800a118:	6023      	str	r3, [r4, #0]
 800a11a:	6123      	str	r3, [r4, #16]
 800a11c:	2301      	movs	r3, #1
 800a11e:	6163      	str	r3, [r4, #20]
 800a120:	b002      	add	sp, #8
 800a122:	bd70      	pop	{r4, r5, r6, pc}
 800a124:	ab01      	add	r3, sp, #4
 800a126:	466a      	mov	r2, sp
 800a128:	f7ff ffc9 	bl	800a0be <__swhatbuf_r>
 800a12c:	9900      	ldr	r1, [sp, #0]
 800a12e:	4605      	mov	r5, r0
 800a130:	4630      	mov	r0, r6
 800a132:	f000 fd95 	bl	800ac60 <_malloc_r>
 800a136:	b948      	cbnz	r0, 800a14c <__smakebuf_r+0x44>
 800a138:	f9b4 300c 	ldrsh.w	r3, [r4, #12]
 800a13c:	059a      	lsls	r2, r3, #22
 800a13e:	d4ef      	bmi.n	800a120 <__smakebuf_r+0x18>
 800a140:	f023 0303 	bic.w	r3, r3, #3
 800a144:	f043 0302 	orr.w	r3, r3, #2
 800a148:	81a3      	strh	r3, [r4, #12]
 800a14a:	e7e3      	b.n	800a114 <__smakebuf_r+0xc>
 800a14c:	4b0d      	ldr	r3, [pc, #52]	; (800a184 <__smakebuf_r+0x7c>)
 800a14e:	62b3      	str	r3, [r6, #40]	; 0x28
 800a150:	89a3      	ldrh	r3, [r4, #12]
 800a152:	6020      	str	r0, [r4, #0]
 800a154:	f043 0380 	orr.w	r3, r3, #128	; 0x80
 800a158:	81a3      	strh	r3, [r4, #12]
 800a15a:	9b00      	ldr	r3, [sp, #0]
 800a15c:	6163      	str	r3, [r4, #20]
 800a15e:	9b01      	ldr	r3, [sp, #4]
 800a160:	6120      	str	r0, [r4, #16]
 800a162:	b15b      	cbz	r3, 800a17c <__smakebuf_r+0x74>
 800a164:	f9b4 100e 	ldrsh.w	r1, [r4, #14]
 800a168:	4630      	mov	r0, r6
 800a16a:	f001 f985 	bl	800b478 <_isatty_r>
 800a16e:	b128      	cbz	r0, 800a17c <__smakebuf_r+0x74>
 800a170:	89a3      	ldrh	r3, [r4, #12]
 800a172:	f023 0303 	bic.w	r3, r3, #3
 800a176:	f043 0301 	orr.w	r3, r3, #1
 800a17a:	81a3      	strh	r3, [r4, #12]
 800a17c:	89a0      	ldrh	r0, [r4, #12]
 800a17e:	4305      	orrs	r5, r0
 800a180:	81a5      	strh	r5, [r4, #12]
 800a182:	e7cd      	b.n	800a120 <__smakebuf_r+0x18>
 800a184:	08009831 	.word	0x08009831

0800a188 <malloc>:
 800a188:	4b02      	ldr	r3, [pc, #8]	; (800a194 <malloc+0xc>)
 800a18a:	4601      	mov	r1, r0
 800a18c:	6818      	ldr	r0, [r3, #0]
 800a18e:	f000 bd67 	b.w	800ac60 <_malloc_r>
 800a192:	bf00      	nop
 800a194:	20000010 	.word	0x20000010

0800a198 <__ascii_mbtowc>:
 800a198:	b082      	sub	sp, #8
 800a19a:	b901      	cbnz	r1, 800a19e <__ascii_mbtowc+0x6>
 800a19c:	a901      	add	r1, sp, #4
 800a19e:	b142      	cbz	r2, 800a1b2 <__ascii_mbtowc+0x1a>
 800a1a0:	b14b      	cbz	r3, 800a1b6 <__ascii_mbtowc+0x1e>
 800a1a2:	7813      	ldrb	r3, [r2, #0]
 800a1a4:	600b      	str	r3, [r1, #0]
 800a1a6:	7812      	ldrb	r2, [r2, #0]
 800a1a8:	1e10      	subs	r0, r2, #0
 800a1aa:	bf18      	it	ne
 800a1ac:	2001      	movne	r0, #1
 800a1ae:	b002      	add	sp, #8
 800a1b0:	4770      	bx	lr
 800a1b2:	4610      	mov	r0, r2
 800a1b4:	e7fb      	b.n	800a1ae <__ascii_mbtowc+0x16>
 800a1b6:	f06f 0001 	mvn.w	r0, #1
 800a1ba:	e7f8      	b.n	800a1ae <__ascii_mbtowc+0x16>

0800a1bc <memcpy>:
 800a1bc:	440a      	add	r2, r1
 800a1be:	4291      	cmp	r1, r2
 800a1c0:	f100 33ff 	add.w	r3, r0, #4294967295
 800a1c4:	d100      	bne.n	800a1c8 <memcpy+0xc>
 800a1c6:	4770      	bx	lr
 800a1c8:	b510      	push	{r4, lr}
 800a1ca:	f811 4b01 	ldrb.w	r4, [r1], #1
 800a1ce:	f803 4f01 	strb.w	r4, [r3, #1]!
 800a1d2:	4291      	cmp	r1, r2
 800a1d4:	d1f9      	bne.n	800a1ca <memcpy+0xe>
 800a1d6:	bd10      	pop	{r4, pc}

0800a1d8 <_Balloc>:
 800a1d8:	b570      	push	{r4, r5, r6, lr}
 800a1da:	6a46      	ldr	r6, [r0, #36]	; 0x24
 800a1dc:	4604      	mov	r4, r0
 800a1de:	460d      	mov	r5, r1
 800a1e0:	b976      	cbnz	r6, 800a200 <_Balloc+0x28>
 800a1e2:	2010      	movs	r0, #16
 800a1e4:	f7ff ffd0 	bl	800a188 <malloc>
 800a1e8:	4602      	mov	r2, r0
 800a1ea:	6260      	str	r0, [r4, #36]	; 0x24
 800a1ec:	b920      	cbnz	r0, 800a1f8 <_Balloc+0x20>
 800a1ee:	4b18      	ldr	r3, [pc, #96]	; (800a250 <_Balloc+0x78>)
 800a1f0:	4818      	ldr	r0, [pc, #96]	; (800a254 <_Balloc+0x7c>)
 800a1f2:	2166      	movs	r1, #102	; 0x66
 800a1f4:	f001 f8ee 	bl	800b3d4 <__assert_func>
 800a1f8:	e9c0 6601 	strd	r6, r6, [r0, #4]
 800a1fc:	6006      	str	r6, [r0, #0]
 800a1fe:	60c6      	str	r6, [r0, #12]
 800a200:	6a66      	ldr	r6, [r4, #36]	; 0x24
 800a202:	68f3      	ldr	r3, [r6, #12]
 800a204:	b183      	cbz	r3, 800a228 <_Balloc+0x50>
 800a206:	6a63      	ldr	r3, [r4, #36]	; 0x24
 800a208:	68db      	ldr	r3, [r3, #12]
 800a20a:	f853 0025 	ldr.w	r0, [r3, r5, lsl #2]
 800a20e:	b9b8      	cbnz	r0, 800a240 <_Balloc+0x68>
 800a210:	2101      	movs	r1, #1
 800a212:	fa01 f605 	lsl.w	r6, r1, r5
 800a216:	1d72      	adds	r2, r6, #5
 800a218:	0092      	lsls	r2, r2, #2
 800a21a:	4620      	mov	r0, r4
 800a21c:	f000 fc9d 	bl	800ab5a <_calloc_r>
 800a220:	b160      	cbz	r0, 800a23c <_Balloc+0x64>
 800a222:	e9c0 5601 	strd	r5, r6, [r0, #4]
 800a226:	e00e      	b.n	800a246 <_Balloc+0x6e>
 800a228:	2221      	movs	r2, #33	; 0x21
 800a22a:	2104      	movs	r1, #4
 800a22c:	4620      	mov	r0, r4
 800a22e:	f000 fc94 	bl	800ab5a <_calloc_r>
 800a232:	6a63      	ldr	r3, [r4, #36]	; 0x24
 800a234:	60f0      	str	r0, [r6, #12]
 800a236:	68db      	ldr	r3, [r3, #12]
 800a238:	2b00      	cmp	r3, #0
 800a23a:	d1e4      	bne.n	800a206 <_Balloc+0x2e>
 800a23c:	2000      	movs	r0, #0
 800a23e:	bd70      	pop	{r4, r5, r6, pc}
 800a240:	6802      	ldr	r2, [r0, #0]
 800a242:	f843 2025 	str.w	r2, [r3, r5, lsl #2]
 800a246:	2300      	movs	r3, #0
 800a248:	e9c0 3303 	strd	r3, r3, [r0, #12]
 800a24c:	e7f7      	b.n	800a23e <_Balloc+0x66>
 800a24e:	bf00      	nop
 800a250:	0800ba2e 	.word	0x0800ba2e
 800a254:	0800bb90 	.word	0x0800bb90

0800a258 <_Bfree>:
 800a258:	b570      	push	{r4, r5, r6, lr}
 800a25a:	6a46      	ldr	r6, [r0, #36]	; 0x24
 800a25c:	4605      	mov	r5, r0
 800a25e:	460c      	mov	r4, r1
 800a260:	b976      	cbnz	r6, 800a280 <_Bfree+0x28>
 800a262:	2010      	movs	r0, #16
 800a264:	f7ff ff90 	bl	800a188 <malloc>
 800a268:	4602      	mov	r2, r0
 800a26a:	6268      	str	r0, [r5, #36]	; 0x24
 800a26c:	b920      	cbnz	r0, 800a278 <_Bfree+0x20>
 800a26e:	4b09      	ldr	r3, [pc, #36]	; (800a294 <_Bfree+0x3c>)
 800a270:	4809      	ldr	r0, [pc, #36]	; (800a298 <_Bfree+0x40>)
 800a272:	218a      	movs	r1, #138	; 0x8a
 800a274:	f001 f8ae 	bl	800b3d4 <__assert_func>
 800a278:	e9c0 6601 	strd	r6, r6, [r0, #4]
 800a27c:	6006      	str	r6, [r0, #0]
 800a27e:	60c6      	str	r6, [r0, #12]
 800a280:	b13c      	cbz	r4, 800a292 <_Bfree+0x3a>
 800a282:	6a6b      	ldr	r3, [r5, #36]	; 0x24
 800a284:	6862      	ldr	r2, [r4, #4]
 800a286:	68db      	ldr	r3, [r3, #12]
 800a288:	f853 1022 	ldr.w	r1, [r3, r2, lsl #2]
 800a28c:	6021      	str	r1, [r4, #0]
 800a28e:	f843 4022 	str.w	r4, [r3, r2, lsl #2]
 800a292:	bd70      	pop	{r4, r5, r6, pc}
 800a294:	0800ba2e 	.word	0x0800ba2e
 800a298:	0800bb90 	.word	0x0800bb90

0800a29c <__multadd>:
 800a29c:	e92d 41f0 	stmdb	sp!, {r4, r5, r6, r7, r8, lr}
 800a2a0:	690d      	ldr	r5, [r1, #16]
 800a2a2:	4607      	mov	r7, r0
 800a2a4:	460c      	mov	r4, r1
 800a2a6:	461e      	mov	r6, r3
 800a2a8:	f101 0c14 	add.w	ip, r1, #20
 800a2ac:	2000      	movs	r0, #0
 800a2ae:	f8dc 3000 	ldr.w	r3, [ip]
 800a2b2:	b299      	uxth	r1, r3
 800a2b4:	fb02 6101 	mla	r1, r2, r1, r6
 800a2b8:	0c1e      	lsrs	r6, r3, #16
 800a2ba:	0c0b      	lsrs	r3, r1, #16
 800a2bc:	fb02 3306 	mla	r3, r2, r6, r3
 800a2c0:	b289      	uxth	r1, r1
 800a2c2:	3001      	adds	r0, #1
 800a2c4:	eb01 4103 	add.w	r1, r1, r3, lsl #16
 800a2c8:	4285      	cmp	r5, r0
 800a2ca:	f84c 1b04 	str.w	r1, [ip], #4
 800a2ce:	ea4f 4613 	mov.w	r6, r3, lsr #16
 800a2d2:	dcec      	bgt.n	800a2ae <__multadd+0x12>
 800a2d4:	b30e      	cbz	r6, 800a31a <__multadd+0x7e>
 800a2d6:	68a3      	ldr	r3, [r4, #8]
 800a2d8:	42ab      	cmp	r3, r5
 800a2da:	dc19      	bgt.n	800a310 <__multadd+0x74>
 800a2dc:	6861      	ldr	r1, [r4, #4]
 800a2de:	4638      	mov	r0, r7
 800a2e0:	3101      	adds	r1, #1
 800a2e2:	f7ff ff79 	bl	800a1d8 <_Balloc>
 800a2e6:	4680      	mov	r8, r0
 800a2e8:	b928      	cbnz	r0, 800a2f6 <__multadd+0x5a>
 800a2ea:	4602      	mov	r2, r0
 800a2ec:	4b0c      	ldr	r3, [pc, #48]	; (800a320 <__multadd+0x84>)
 800a2ee:	480d      	ldr	r0, [pc, #52]	; (800a324 <__multadd+0x88>)
 800a2f0:	21b5      	movs	r1, #181	; 0xb5
 800a2f2:	f001 f86f 	bl	800b3d4 <__assert_func>
 800a2f6:	6922      	ldr	r2, [r4, #16]
 800a2f8:	3202      	adds	r2, #2
 800a2fa:	f104 010c 	add.w	r1, r4, #12
 800a2fe:	0092      	lsls	r2, r2, #2
 800a300:	300c      	adds	r0, #12
 800a302:	f7ff ff5b 	bl	800a1bc <memcpy>
 800a306:	4621      	mov	r1, r4
 800a308:	4638      	mov	r0, r7
 800a30a:	f7ff ffa5 	bl	800a258 <_Bfree>
 800a30e:	4644      	mov	r4, r8
 800a310:	eb04 0385 	add.w	r3, r4, r5, lsl #2
 800a314:	3501      	adds	r5, #1
 800a316:	615e      	str	r6, [r3, #20]
 800a318:	6125      	str	r5, [r4, #16]
 800a31a:	4620      	mov	r0, r4
 800a31c:	e8bd 81f0 	ldmia.w	sp!, {r4, r5, r6, r7, r8, pc}
 800a320:	0800baa0 	.word	0x0800baa0
 800a324:	0800bb90 	.word	0x0800bb90

0800a328 <__s2b>:
 800a328:	e92d 43f8 	stmdb	sp!, {r3, r4, r5, r6, r7, r8, r9, lr}
 800a32c:	460c      	mov	r4, r1
 800a32e:	4615      	mov	r5, r2
 800a330:	461f      	mov	r7, r3
 800a332:	2209      	movs	r2, #9
 800a334:	3308      	adds	r3, #8
 800a336:	4606      	mov	r6, r0
 800a338:	fb93 f3f2 	sdiv	r3, r3, r2
 800a33c:	2100      	movs	r1, #0
 800a33e:	2201      	movs	r2, #1
 800a340:	429a      	cmp	r2, r3
 800a342:	db09      	blt.n	800a358 <__s2b+0x30>
 800a344:	4630      	mov	r0, r6
 800a346:	f7ff ff47 	bl	800a1d8 <_Balloc>
 800a34a:	b940      	cbnz	r0, 800a35e <__s2b+0x36>
 800a34c:	4602      	mov	r2, r0
 800a34e:	4b19      	ldr	r3, [pc, #100]	; (800a3b4 <__s2b+0x8c>)
 800a350:	4819      	ldr	r0, [pc, #100]	; (800a3b8 <__s2b+0x90>)
 800a352:	21ce      	movs	r1, #206	; 0xce
 800a354:	f001 f83e 	bl	800b3d4 <__assert_func>
 800a358:	0052      	lsls	r2, r2, #1
 800a35a:	3101      	adds	r1, #1
 800a35c:	e7f0      	b.n	800a340 <__s2b+0x18>
 800a35e:	9b08      	ldr	r3, [sp, #32]
 800a360:	6143      	str	r3, [r0, #20]
 800a362:	2d09      	cmp	r5, #9
 800a364:	f04f 0301 	mov.w	r3, #1
 800a368:	6103      	str	r3, [r0, #16]
 800a36a:	dd16      	ble.n	800a39a <__s2b+0x72>
 800a36c:	f104 0909 	add.w	r9, r4, #9
 800a370:	46c8      	mov	r8, r9
 800a372:	442c      	add	r4, r5
 800a374:	f818 3b01 	ldrb.w	r3, [r8], #1
 800a378:	4601      	mov	r1, r0
 800a37a:	3b30      	subs	r3, #48	; 0x30
 800a37c:	220a      	movs	r2, #10
 800a37e:	4630      	mov	r0, r6
 800a380:	f7ff ff8c 	bl	800a29c <__multadd>
 800a384:	45a0      	cmp	r8, r4
 800a386:	d1f5      	bne.n	800a374 <__s2b+0x4c>
 800a388:	f1a5 0408 	sub.w	r4, r5, #8
 800a38c:	444c      	add	r4, r9
 800a38e:	1b2d      	subs	r5, r5, r4
 800a390:	1963      	adds	r3, r4, r5
 800a392:	42bb      	cmp	r3, r7
 800a394:	db04      	blt.n	800a3a0 <__s2b+0x78>
 800a396:	e8bd 83f8 	ldmia.w	sp!, {r3, r4, r5, r6, r7, r8, r9, pc}
 800a39a:	340a      	adds	r4, #10
 800a39c:	2509      	movs	r5, #9
 800a39e:	e7f6      	b.n	800a38e <__s2b+0x66>
 800a3a0:	f814 3b01 	ldrb.w	r3, [r4], #1
 800a3a4:	4601      	mov	r1, r0
 800a3a6:	3b30      	subs	r3, #48	; 0x30
 800a3a8:	220a      	movs	r2, #10
 800a3aa:	4630      	mov	r0, r6
 800a3ac:	f7ff ff76 	bl	800a29c <__multadd>
 800a3b0:	e7ee      	b.n	800a390 <__s2b+0x68>
 800a3b2:	bf00      	nop
 800a3b4:	0800baa0 	.word	0x0800baa0
 800a3b8:	0800bb90 	.word	0x0800bb90

0800a3bc <__hi0bits>:
 800a3bc:	0c03      	lsrs	r3, r0, #16
 800a3be:	041b      	lsls	r3, r3, #16
 800a3c0:	b9d3      	cbnz	r3, 800a3f8 <__hi0bits+0x3c>
 800a3c2:	0400      	lsls	r0, r0, #16
 800a3c4:	2310      	movs	r3, #16
 800a3c6:	f010 4f7f 	tst.w	r0, #4278190080	; 0xff000000
 800a3ca:	bf04      	itt	eq
 800a3cc:	0200      	lsleq	r0, r0, #8
 800a3ce:	3308      	addeq	r3, #8
 800a3d0:	f010 4f70 	tst.w	r0, #4026531840	; 0xf0000000
 800a3d4:	bf04      	itt	eq
 800a3d6:	0100      	lsleq	r0, r0, #4
 800a3d8:	3304      	addeq	r3, #4
 800a3da:	f010 4f40 	tst.w	r0, #3221225472	; 0xc0000000
 800a3de:	bf04      	itt	eq
 800a3e0:	0080      	lsleq	r0, r0, #2
 800a3e2:	3302      	addeq	r3, #2
 800a3e4:	2800      	cmp	r0, #0
 800a3e6:	db05      	blt.n	800a3f4 <__hi0bits+0x38>
 800a3e8:	f010 4f80 	tst.w	r0, #1073741824	; 0x40000000
 800a3ec:	f103 0301 	add.w	r3, r3, #1
 800a3f0:	bf08      	it	eq
 800a3f2:	2320      	moveq	r3, #32
 800a3f4:	4618      	mov	r0, r3
 800a3f6:	4770      	bx	lr
 800a3f8:	2300      	movs	r3, #0
 800a3fa:	e7e4      	b.n	800a3c6 <__hi0bits+0xa>

0800a3fc <__lo0bits>:
 800a3fc:	6803      	ldr	r3, [r0, #0]
 800a3fe:	f013 0207 	ands.w	r2, r3, #7
 800a402:	4601      	mov	r1, r0
 800a404:	d00b      	beq.n	800a41e <__lo0bits+0x22>
 800a406:	07da      	lsls	r2, r3, #31
 800a408:	d423      	bmi.n	800a452 <__lo0bits+0x56>
 800a40a:	0798      	lsls	r0, r3, #30
 800a40c:	bf49      	itett	mi
 800a40e:	085b      	lsrmi	r3, r3, #1
 800a410:	089b      	lsrpl	r3, r3, #2
 800a412:	2001      	movmi	r0, #1
 800a414:	600b      	strmi	r3, [r1, #0]
 800a416:	bf5c      	itt	pl
 800a418:	600b      	strpl	r3, [r1, #0]
 800a41a:	2002      	movpl	r0, #2
 800a41c:	4770      	bx	lr
 800a41e:	b298      	uxth	r0, r3
 800a420:	b9a8      	cbnz	r0, 800a44e <__lo0bits+0x52>
 800a422:	0c1b      	lsrs	r3, r3, #16
 800a424:	2010      	movs	r0, #16
 800a426:	b2da      	uxtb	r2, r3
 800a428:	b90a      	cbnz	r2, 800a42e <__lo0bits+0x32>
 800a42a:	3008      	adds	r0, #8
 800a42c:	0a1b      	lsrs	r3, r3, #8
 800a42e:	071a      	lsls	r2, r3, #28
 800a430:	bf04      	itt	eq
 800a432:	091b      	lsreq	r3, r3, #4
 800a434:	3004      	addeq	r0, #4
 800a436:	079a      	lsls	r2, r3, #30
 800a438:	bf04      	itt	eq
 800a43a:	089b      	lsreq	r3, r3, #2
 800a43c:	3002      	addeq	r0, #2
 800a43e:	07da      	lsls	r2, r3, #31
 800a440:	d403      	bmi.n	800a44a <__lo0bits+0x4e>
 800a442:	085b      	lsrs	r3, r3, #1
 800a444:	f100 0001 	add.w	r0, r0, #1
 800a448:	d005      	beq.n	800a456 <__lo0bits+0x5a>
 800a44a:	600b      	str	r3, [r1, #0]
 800a44c:	4770      	bx	lr
 800a44e:	4610      	mov	r0, r2
 800a450:	e7e9      	b.n	800a426 <__lo0bits+0x2a>
 800a452:	2000      	movs	r0, #0
 800a454:	4770      	bx	lr
 800a456:	2020      	movs	r0, #32
 800a458:	4770      	bx	lr
	...

0800a45c <__i2b>:
 800a45c:	b510      	push	{r4, lr}
 800a45e:	460c      	mov	r4, r1
 800a460:	2101      	movs	r1, #1
 800a462:	f7ff feb9 	bl	800a1d8 <_Balloc>
 800a466:	4602      	mov	r2, r0
 800a468:	b928      	cbnz	r0, 800a476 <__i2b+0x1a>
 800a46a:	4b05      	ldr	r3, [pc, #20]	; (800a480 <__i2b+0x24>)
 800a46c:	4805      	ldr	r0, [pc, #20]	; (800a484 <__i2b+0x28>)
 800a46e:	f44f 71a0 	mov.w	r1, #320	; 0x140
 800a472:	f000 ffaf 	bl	800b3d4 <__assert_func>
 800a476:	2301      	movs	r3, #1
 800a478:	6144      	str	r4, [r0, #20]
 800a47a:	6103      	str	r3, [r0, #16]
 800a47c:	bd10      	pop	{r4, pc}
 800a47e:	bf00      	nop
 800a480:	0800baa0 	.word	0x0800baa0
 800a484:	0800bb90 	.word	0x0800bb90

0800a488 <__multiply>:
 800a488:	e92d 4ff0 	stmdb	sp!, {r4, r5, r6, r7, r8, r9, sl, fp, lr}
 800a48c:	4691      	mov	r9, r2
 800a48e:	690a      	ldr	r2, [r1, #16]
 800a490:	f8d9 3010 	ldr.w	r3, [r9, #16]
 800a494:	429a      	cmp	r2, r3
 800a496:	bfb8      	it	lt
 800a498:	460b      	movlt	r3, r1
 800a49a:	460c      	mov	r4, r1
 800a49c:	bfbc      	itt	lt
 800a49e:	464c      	movlt	r4, r9
 800a4a0:	4699      	movlt	r9, r3
 800a4a2:	6927      	ldr	r7, [r4, #16]
 800a4a4:	f8d9 a010 	ldr.w	sl, [r9, #16]
 800a4a8:	68a3      	ldr	r3, [r4, #8]
 800a4aa:	6861      	ldr	r1, [r4, #4]
 800a4ac:	eb07 060a 	add.w	r6, r7, sl
 800a4b0:	42b3      	cmp	r3, r6
 800a4b2:	b085      	sub	sp, #20
 800a4b4:	bfb8      	it	lt
 800a4b6:	3101      	addlt	r1, #1
 800a4b8:	f7ff fe8e 	bl	800a1d8 <_Balloc>
 800a4bc:	b930      	cbnz	r0, 800a4cc <__multiply+0x44>
 800a4be:	4602      	mov	r2, r0
 800a4c0:	4b44      	ldr	r3, [pc, #272]	; (800a5d4 <__multiply+0x14c>)
 800a4c2:	4845      	ldr	r0, [pc, #276]	; (800a5d8 <__multiply+0x150>)
 800a4c4:	f240 115d 	movw	r1, #349	; 0x15d
 800a4c8:	f000 ff84 	bl	800b3d4 <__assert_func>
 800a4cc:	f100 0514 	add.w	r5, r0, #20
 800a4d0:	eb05 0886 	add.w	r8, r5, r6, lsl #2
 800a4d4:	462b      	mov	r3, r5
 800a4d6:	2200      	movs	r2, #0
 800a4d8:	4543      	cmp	r3, r8
 800a4da:	d321      	bcc.n	800a520 <__multiply+0x98>
 800a4dc:	f104 0314 	add.w	r3, r4, #20
 800a4e0:	eb03 0787 	add.w	r7, r3, r7, lsl #2
 800a4e4:	f109 0314 	add.w	r3, r9, #20
 800a4e8:	eb03 028a 	add.w	r2, r3, sl, lsl #2
 800a4ec:	9202      	str	r2, [sp, #8]
 800a4ee:	1b3a      	subs	r2, r7, r4
 800a4f0:	3a15      	subs	r2, #21
 800a4f2:	f022 0203 	bic.w	r2, r2, #3
 800a4f6:	3204      	adds	r2, #4
 800a4f8:	f104 0115 	add.w	r1, r4, #21
 800a4fc:	428f      	cmp	r7, r1
 800a4fe:	bf38      	it	cc
 800a500:	2204      	movcc	r2, #4
 800a502:	9201      	str	r2, [sp, #4]
 800a504:	9a02      	ldr	r2, [sp, #8]
 800a506:	9303      	str	r3, [sp, #12]
 800a508:	429a      	cmp	r2, r3
 800a50a:	d80c      	bhi.n	800a526 <__multiply+0x9e>
 800a50c:	2e00      	cmp	r6, #0
 800a50e:	dd03      	ble.n	800a518 <__multiply+0x90>
 800a510:	f858 3d04 	ldr.w	r3, [r8, #-4]!
 800a514:	2b00      	cmp	r3, #0
 800a516:	d05a      	beq.n	800a5ce <__multiply+0x146>
 800a518:	6106      	str	r6, [r0, #16]
 800a51a:	b005      	add	sp, #20
 800a51c:	e8bd 8ff0 	ldmia.w	sp!, {r4, r5, r6, r7, r8, r9, sl, fp, pc}
 800a520:	f843 2b04 	str.w	r2, [r3], #4
 800a524:	e7d8      	b.n	800a4d8 <__multiply+0x50>
 800a526:	f8b3 a000 	ldrh.w	sl, [r3]
 800a52a:	f1ba 0f00 	cmp.w	sl, #0
 800a52e:	d024      	beq.n	800a57a <__multiply+0xf2>
 800a530:	f104 0e14 	add.w	lr, r4, #20
 800a534:	46a9      	mov	r9, r5
 800a536:	f04f 0c00 	mov.w	ip, #0
 800a53a:	f85e 2b04 	ldr.w	r2, [lr], #4
 800a53e:	f8d9 1000 	ldr.w	r1, [r9]
 800a542:	fa1f fb82 	uxth.w	fp, r2
 800a546:	b289      	uxth	r1, r1
 800a548:	fb0a 110b 	mla	r1, sl, fp, r1
 800a54c:	ea4f 4b12 	mov.w	fp, r2, lsr #16
 800a550:	f8d9 2000 	ldr.w	r2, [r9]
 800a554:	4461      	add	r1, ip
 800a556:	ea4f 4c12 	mov.w	ip, r2, lsr #16
 800a55a:	fb0a c20b 	mla	r2, sl, fp, ip
 800a55e:	eb02 4211 	add.w	r2, r2, r1, lsr #16
 800a562:	b289      	uxth	r1, r1
 800a564:	ea41 4102 	orr.w	r1, r1, r2, lsl #16
 800a568:	4577      	cmp	r7, lr
 800a56a:	f849 1b04 	str.w	r1, [r9], #4
 800a56e:	ea4f 4c12 	mov.w	ip, r2, lsr #16
 800a572:	d8e2      	bhi.n	800a53a <__multiply+0xb2>
 800a574:	9a01      	ldr	r2, [sp, #4]
 800a576:	f845 c002 	str.w	ip, [r5, r2]
 800a57a:	9a03      	ldr	r2, [sp, #12]
 800a57c:	f8b2 9002 	ldrh.w	r9, [r2, #2]
 800a580:	3304      	adds	r3, #4
 800a582:	f1b9 0f00 	cmp.w	r9, #0
 800a586:	d020      	beq.n	800a5ca <__multiply+0x142>
 800a588:	6829      	ldr	r1, [r5, #0]
 800a58a:	f104 0c14 	add.w	ip, r4, #20
 800a58e:	46ae      	mov	lr, r5
 800a590:	f04f 0a00 	mov.w	sl, #0
 800a594:	f8bc b000 	ldrh.w	fp, [ip]
 800a598:	f8be 2002 	ldrh.w	r2, [lr, #2]
 800a59c:	fb09 220b 	mla	r2, r9, fp, r2
 800a5a0:	4492      	add	sl, r2
 800a5a2:	b289      	uxth	r1, r1
 800a5a4:	ea41 410a 	orr.w	r1, r1, sl, lsl #16
 800a5a8:	f84e 1b04 	str.w	r1, [lr], #4
 800a5ac:	f85c 2b04 	ldr.w	r2, [ip], #4
 800a5b0:	f8be 1000 	ldrh.w	r1, [lr]
 800a5b4:	0c12      	lsrs	r2, r2, #16
 800a5b6:	fb09 1102 	mla	r1, r9, r2, r1
 800a5ba:	eb01 411a 	add.w	r1, r1, sl, lsr #16
 800a5be:	4567      	cmp	r7, ip
 800a5c0:	ea4f 4a11 	mov.w	sl, r1, lsr #16
 800a5c4:	d8e6      	bhi.n	800a594 <__multiply+0x10c>
 800a5c6:	9a01      	ldr	r2, [sp, #4]
 800a5c8:	50a9      	str	r1, [r5, r2]
 800a5ca:	3504      	adds	r5, #4
 800a5cc:	e79a      	b.n	800a504 <__multiply+0x7c>
 800a5ce:	3e01      	subs	r6, #1
 800a5d0:	e79c      	b.n	800a50c <__multiply+0x84>
 800a5d2:	bf00      	nop
 800a5d4:	0800baa0 	.word	0x0800baa0
 800a5d8:	0800bb90 	.word	0x0800bb90

0800a5dc <__pow5mult>:
 800a5dc:	e92d 43f8 	stmdb	sp!, {r3, r4, r5, r6, r7, r8, r9, lr}
 800a5e0:	4615      	mov	r5, r2
 800a5e2:	f012 0203 	ands.w	r2, r2, #3
 800a5e6:	4606      	mov	r6, r0
 800a5e8:	460f      	mov	r7, r1
 800a5ea:	d007      	beq.n	800a5fc <__pow5mult+0x20>
 800a5ec:	4c25      	ldr	r4, [pc, #148]	; (800a684 <__pow5mult+0xa8>)
 800a5ee:	3a01      	subs	r2, #1
 800a5f0:	2300      	movs	r3, #0
 800a5f2:	f854 2022 	ldr.w	r2, [r4, r2, lsl #2]
 800a5f6:	f7ff fe51 	bl	800a29c <__multadd>
 800a5fa:	4607      	mov	r7, r0
 800a5fc:	10ad      	asrs	r5, r5, #2
 800a5fe:	d03d      	beq.n	800a67c <__pow5mult+0xa0>
 800a600:	6a74      	ldr	r4, [r6, #36]	; 0x24
 800a602:	b97c      	cbnz	r4, 800a624 <__pow5mult+0x48>
 800a604:	2010      	movs	r0, #16
 800a606:	f7ff fdbf 	bl	800a188 <malloc>
 800a60a:	4602      	mov	r2, r0
 800a60c:	6270      	str	r0, [r6, #36]	; 0x24
 800a60e:	b928      	cbnz	r0, 800a61c <__pow5mult+0x40>
 800a610:	4b1d      	ldr	r3, [pc, #116]	; (800a688 <__pow5mult+0xac>)
 800a612:	481e      	ldr	r0, [pc, #120]	; (800a68c <__pow5mult+0xb0>)
 800a614:	f44f 71d7 	mov.w	r1, #430	; 0x1ae
 800a618:	f000 fedc 	bl	800b3d4 <__assert_func>
 800a61c:	e9c0 4401 	strd	r4, r4, [r0, #4]
 800a620:	6004      	str	r4, [r0, #0]
 800a622:	60c4      	str	r4, [r0, #12]
 800a624:	f8d6 8024 	ldr.w	r8, [r6, #36]	; 0x24
 800a628:	f8d8 4008 	ldr.w	r4, [r8, #8]
 800a62c:	b94c      	cbnz	r4, 800a642 <__pow5mult+0x66>
 800a62e:	f240 2171 	movw	r1, #625	; 0x271
 800a632:	4630      	mov	r0, r6
 800a634:	f7ff ff12 	bl	800a45c <__i2b>
 800a638:	2300      	movs	r3, #0
 800a63a:	f8c8 0008 	str.w	r0, [r8, #8]
 800a63e:	4604      	mov	r4, r0
 800a640:	6003      	str	r3, [r0, #0]
 800a642:	f04f 0900 	mov.w	r9, #0
 800a646:	07eb      	lsls	r3, r5, #31
 800a648:	d50a      	bpl.n	800a660 <__pow5mult+0x84>
 800a64a:	4639      	mov	r1, r7
 800a64c:	4622      	mov	r2, r4
 800a64e:	4630      	mov	r0, r6
 800a650:	f7ff ff1a 	bl	800a488 <__multiply>
 800a654:	4639      	mov	r1, r7
 800a656:	4680      	mov	r8, r0
 800a658:	4630      	mov	r0, r6
 800a65a:	f7ff fdfd 	bl	800a258 <_Bfree>
 800a65e:	4647      	mov	r7, r8
 800a660:	106d      	asrs	r5, r5, #1
 800a662:	d00b      	beq.n	800a67c <__pow5mult+0xa0>
 800a664:	6820      	ldr	r0, [r4, #0]
 800a666:	b938      	cbnz	r0, 800a678 <__pow5mult+0x9c>
 800a668:	4622      	mov	r2, r4
 800a66a:	4621      	mov	r1, r4
 800a66c:	4630      	mov	r0, r6
 800a66e:	f7ff ff0b 	bl	800a488 <__multiply>
 800a672:	6020      	str	r0, [r4, #0]
 800a674:	f8c0 9000 	str.w	r9, [r0]
 800a678:	4604      	mov	r4, r0
 800a67a:	e7e4      	b.n	800a646 <__pow5mult+0x6a>
 800a67c:	4638      	mov	r0, r7
 800a67e:	e8bd 83f8 	ldmia.w	sp!, {r3, r4, r5, r6, r7, r8, r9, pc}
 800a682:	bf00      	nop
 800a684:	0800bce0 	.word	0x0800bce0
 800a688:	0800ba2e 	.word	0x0800ba2e
 800a68c:	0800bb90 	.word	0x0800bb90

0800a690 <__lshift>:
 800a690:	e92d 47f0 	stmdb	sp!, {r4, r5, r6, r7, r8, r9, sl, lr}
 800a694:	460c      	mov	r4, r1
 800a696:	6849      	ldr	r1, [r1, #4]
 800a698:	6923      	ldr	r3, [r4, #16]
 800a69a:	eb03 1862 	add.w	r8, r3, r2, asr #5
 800a69e:	68a3      	ldr	r3, [r4, #8]
 800a6a0:	4607      	mov	r7, r0
 800a6a2:	4691      	mov	r9, r2
 800a6a4:	ea4f 1a62 	mov.w	sl, r2, asr #5
 800a6a8:	f108 0601 	add.w	r6, r8, #1
 800a6ac:	42b3      	cmp	r3, r6
 800a6ae:	db0b      	blt.n	800a6c8 <__lshift+0x38>
 800a6b0:	4638      	mov	r0, r7
 800a6b2:	f7ff fd91 	bl	800a1d8 <_Balloc>
 800a6b6:	4605      	mov	r5, r0
 800a6b8:	b948      	cbnz	r0, 800a6ce <__lshift+0x3e>
 800a6ba:	4602      	mov	r2, r0
 800a6bc:	4b2a      	ldr	r3, [pc, #168]	; (800a768 <__lshift+0xd8>)
 800a6be:	482b      	ldr	r0, [pc, #172]	; (800a76c <__lshift+0xdc>)
 800a6c0:	f240 11d9 	movw	r1, #473	; 0x1d9
 800a6c4:	f000 fe86 	bl	800b3d4 <__assert_func>
 800a6c8:	3101      	adds	r1, #1
 800a6ca:	005b      	lsls	r3, r3, #1
 800a6cc:	e7ee      	b.n	800a6ac <__lshift+0x1c>
 800a6ce:	2300      	movs	r3, #0
 800a6d0:	f100 0114 	add.w	r1, r0, #20
 800a6d4:	f100 0210 	add.w	r2, r0, #16
 800a6d8:	4618      	mov	r0, r3
 800a6da:	4553      	cmp	r3, sl
 800a6dc:	db37      	blt.n	800a74e <__lshift+0xbe>
 800a6de:	6920      	ldr	r0, [r4, #16]
 800a6e0:	ea2a 7aea 	bic.w	sl, sl, sl, asr #31
 800a6e4:	f104 0314 	add.w	r3, r4, #20
 800a6e8:	f019 091f 	ands.w	r9, r9, #31
 800a6ec:	eb01 018a 	add.w	r1, r1, sl, lsl #2
 800a6f0:	eb03 0080 	add.w	r0, r3, r0, lsl #2
 800a6f4:	d02f      	beq.n	800a756 <__lshift+0xc6>
 800a6f6:	f1c9 0e20 	rsb	lr, r9, #32
 800a6fa:	468a      	mov	sl, r1
 800a6fc:	f04f 0c00 	mov.w	ip, #0
 800a700:	681a      	ldr	r2, [r3, #0]
 800a702:	fa02 f209 	lsl.w	r2, r2, r9
 800a706:	ea42 020c 	orr.w	r2, r2, ip
 800a70a:	f84a 2b04 	str.w	r2, [sl], #4
 800a70e:	f853 2b04 	ldr.w	r2, [r3], #4
 800a712:	4298      	cmp	r0, r3
 800a714:	fa22 fc0e 	lsr.w	ip, r2, lr
 800a718:	d8f2      	bhi.n	800a700 <__lshift+0x70>
 800a71a:	1b03      	subs	r3, r0, r4
 800a71c:	3b15      	subs	r3, #21
 800a71e:	f023 0303 	bic.w	r3, r3, #3
 800a722:	3304      	adds	r3, #4
 800a724:	f104 0215 	add.w	r2, r4, #21
 800a728:	4290      	cmp	r0, r2
 800a72a:	bf38      	it	cc
 800a72c:	2304      	movcc	r3, #4
 800a72e:	f841 c003 	str.w	ip, [r1, r3]
 800a732:	f1bc 0f00 	cmp.w	ip, #0
 800a736:	d001      	beq.n	800a73c <__lshift+0xac>
 800a738:	f108 0602 	add.w	r6, r8, #2
 800a73c:	3e01      	subs	r6, #1
 800a73e:	4638      	mov	r0, r7
 800a740:	612e      	str	r6, [r5, #16]
 800a742:	4621      	mov	r1, r4
 800a744:	f7ff fd88 	bl	800a258 <_Bfree>
 800a748:	4628      	mov	r0, r5
 800a74a:	e8bd 87f0 	ldmia.w	sp!, {r4, r5, r6, r7, r8, r9, sl, pc}
 800a74e:	f842 0f04 	str.w	r0, [r2, #4]!
 800a752:	3301      	adds	r3, #1
 800a754:	e7c1      	b.n	800a6da <__lshift+0x4a>
 800a756:	3904      	subs	r1, #4
 800a758:	f853 2b04 	ldr.w	r2, [r3], #4
 800a75c:	f841 2f04 	str.w	r2, [r1, #4]!
 800a760:	4298      	cmp	r0, r3
 800a762:	d8f9      	bhi.n	800a758 <__lshift+0xc8>
 800a764:	e7ea      	b.n	800a73c <__lshift+0xac>
 800a766:	bf00      	nop
 800a768:	0800baa0 	.word	0x0800baa0
 800a76c:	0800bb90 	.word	0x0800bb90

0800a770 <__mcmp>:
 800a770:	b530      	push	{r4, r5, lr}
 800a772:	6902      	ldr	r2, [r0, #16]
 800a774:	690c      	ldr	r4, [r1, #16]
 800a776:	1b12      	subs	r2, r2, r4
 800a778:	d10e      	bne.n	800a798 <__mcmp+0x28>
 800a77a:	f100 0314 	add.w	r3, r0, #20
 800a77e:	3114      	adds	r1, #20
 800a780:	eb03 0084 	add.w	r0, r3, r4, lsl #2
 800a784:	eb01 0184 	add.w	r1, r1, r4, lsl #2
 800a788:	f850 5d04 	ldr.w	r5, [r0, #-4]!
 800a78c:	f851 4d04 	ldr.w	r4, [r1, #-4]!
 800a790:	42a5      	cmp	r5, r4
 800a792:	d003      	beq.n	800a79c <__mcmp+0x2c>
 800a794:	d305      	bcc.n	800a7a2 <__mcmp+0x32>
 800a796:	2201      	movs	r2, #1
 800a798:	4610      	mov	r0, r2
 800a79a:	bd30      	pop	{r4, r5, pc}
 800a79c:	4283      	cmp	r3, r0
 800a79e:	d3f3      	bcc.n	800a788 <__mcmp+0x18>
 800a7a0:	e7fa      	b.n	800a798 <__mcmp+0x28>
 800a7a2:	f04f 32ff 	mov.w	r2, #4294967295
 800a7a6:	e7f7      	b.n	800a798 <__mcmp+0x28>

0800a7a8 <__mdiff>:
 800a7a8:	e92d 4ff8 	stmdb	sp!, {r3, r4, r5, r6, r7, r8, r9, sl, fp, lr}
 800a7ac:	460c      	mov	r4, r1
 800a7ae:	4606      	mov	r6, r0
 800a7b0:	4611      	mov	r1, r2
 800a7b2:	4620      	mov	r0, r4
 800a7b4:	4690      	mov	r8, r2
 800a7b6:	f7ff ffdb 	bl	800a770 <__mcmp>
 800a7ba:	1e05      	subs	r5, r0, #0
 800a7bc:	d110      	bne.n	800a7e0 <__mdiff+0x38>
 800a7be:	4629      	mov	r1, r5
 800a7c0:	4630      	mov	r0, r6
 800a7c2:	f7ff fd09 	bl	800a1d8 <_Balloc>
 800a7c6:	b930      	cbnz	r0, 800a7d6 <__mdiff+0x2e>
 800a7c8:	4b3a      	ldr	r3, [pc, #232]	; (800a8b4 <__mdiff+0x10c>)
 800a7ca:	4602      	mov	r2, r0
 800a7cc:	f240 2132 	movw	r1, #562	; 0x232
 800a7d0:	4839      	ldr	r0, [pc, #228]	; (800a8b8 <__mdiff+0x110>)
 800a7d2:	f000 fdff 	bl	800b3d4 <__assert_func>
 800a7d6:	2301      	movs	r3, #1
 800a7d8:	e9c0 3504 	strd	r3, r5, [r0, #16]
 800a7dc:	e8bd 8ff8 	ldmia.w	sp!, {r3, r4, r5, r6, r7, r8, r9, sl, fp, pc}
 800a7e0:	bfa4      	itt	ge
 800a7e2:	4643      	movge	r3, r8
 800a7e4:	46a0      	movge	r8, r4
 800a7e6:	4630      	mov	r0, r6
 800a7e8:	f8d8 1004 	ldr.w	r1, [r8, #4]
 800a7ec:	bfa6      	itte	ge
 800a7ee:	461c      	movge	r4, r3
 800a7f0:	2500      	movge	r5, #0
 800a7f2:	2501      	movlt	r5, #1
 800a7f4:	f7ff fcf0 	bl	800a1d8 <_Balloc>
 800a7f8:	b920      	cbnz	r0, 800a804 <__mdiff+0x5c>
 800a7fa:	4b2e      	ldr	r3, [pc, #184]	; (800a8b4 <__mdiff+0x10c>)
 800a7fc:	4602      	mov	r2, r0
 800a7fe:	f44f 7110 	mov.w	r1, #576	; 0x240
 800a802:	e7e5      	b.n	800a7d0 <__mdiff+0x28>
 800a804:	f8d8 7010 	ldr.w	r7, [r8, #16]
 800a808:	6926      	ldr	r6, [r4, #16]
 800a80a:	60c5      	str	r5, [r0, #12]
 800a80c:	f104 0914 	add.w	r9, r4, #20
 800a810:	f108 0514 	add.w	r5, r8, #20
 800a814:	f100 0e14 	add.w	lr, r0, #20
 800a818:	eb05 0c87 	add.w	ip, r5, r7, lsl #2
 800a81c:	eb09 0686 	add.w	r6, r9, r6, lsl #2
 800a820:	f108 0210 	add.w	r2, r8, #16
 800a824:	46f2      	mov	sl, lr
 800a826:	2100      	movs	r1, #0
 800a828:	f859 3b04 	ldr.w	r3, [r9], #4
 800a82c:	f852 bf04 	ldr.w	fp, [r2, #4]!
 800a830:	fa1f f883 	uxth.w	r8, r3
 800a834:	fa11 f18b 	uxtah	r1, r1, fp
 800a838:	0c1b      	lsrs	r3, r3, #16
 800a83a:	eba1 0808 	sub.w	r8, r1, r8
 800a83e:	ebc3 431b 	rsb	r3, r3, fp, lsr #16
 800a842:	eb03 4328 	add.w	r3, r3, r8, asr #16
 800a846:	fa1f f888 	uxth.w	r8, r8
 800a84a:	1419      	asrs	r1, r3, #16
 800a84c:	454e      	cmp	r6, r9
 800a84e:	ea48 4303 	orr.w	r3, r8, r3, lsl #16
 800a852:	f84a 3b04 	str.w	r3, [sl], #4
 800a856:	d8e7      	bhi.n	800a828 <__mdiff+0x80>
 800a858:	1b33      	subs	r3, r6, r4
 800a85a:	3b15      	subs	r3, #21
 800a85c:	f023 0303 	bic.w	r3, r3, #3
 800a860:	3304      	adds	r3, #4
 800a862:	3415      	adds	r4, #21
 800a864:	42a6      	cmp	r6, r4
 800a866:	bf38      	it	cc
 800a868:	2304      	movcc	r3, #4
 800a86a:	441d      	add	r5, r3
 800a86c:	4473      	add	r3, lr
 800a86e:	469e      	mov	lr, r3
 800a870:	462e      	mov	r6, r5
 800a872:	4566      	cmp	r6, ip
 800a874:	d30e      	bcc.n	800a894 <__mdiff+0xec>
 800a876:	f10c 0203 	add.w	r2, ip, #3
 800a87a:	1b52      	subs	r2, r2, r5
 800a87c:	f022 0203 	bic.w	r2, r2, #3
 800a880:	3d03      	subs	r5, #3
 800a882:	45ac      	cmp	ip, r5
 800a884:	bf38      	it	cc
 800a886:	2200      	movcc	r2, #0
 800a888:	441a      	add	r2, r3
 800a88a:	f852 3d04 	ldr.w	r3, [r2, #-4]!
 800a88e:	b17b      	cbz	r3, 800a8b0 <__mdiff+0x108>
 800a890:	6107      	str	r7, [r0, #16]
 800a892:	e7a3      	b.n	800a7dc <__mdiff+0x34>
 800a894:	f856 8b04 	ldr.w	r8, [r6], #4
 800a898:	fa11 f288 	uxtah	r2, r1, r8
 800a89c:	1414      	asrs	r4, r2, #16
 800a89e:	eb04 4418 	add.w	r4, r4, r8, lsr #16
 800a8a2:	b292      	uxth	r2, r2
 800a8a4:	ea42 4204 	orr.w	r2, r2, r4, lsl #16
 800a8a8:	f84e 2b04 	str.w	r2, [lr], #4
 800a8ac:	1421      	asrs	r1, r4, #16
 800a8ae:	e7e0      	b.n	800a872 <__mdiff+0xca>
 800a8b0:	3f01      	subs	r7, #1
 800a8b2:	e7ea      	b.n	800a88a <__mdiff+0xe2>
 800a8b4:	0800baa0 	.word	0x0800baa0
 800a8b8:	0800bb90 	.word	0x0800bb90

0800a8bc <__ulp>:
 800a8bc:	b082      	sub	sp, #8
 800a8be:	ed8d 0b00 	vstr	d0, [sp]
 800a8c2:	9b01      	ldr	r3, [sp, #4]
 800a8c4:	4912      	ldr	r1, [pc, #72]	; (800a910 <__ulp+0x54>)
 800a8c6:	4019      	ands	r1, r3
 800a8c8:	f1a1 7150 	sub.w	r1, r1, #54525952	; 0x3400000
 800a8cc:	2900      	cmp	r1, #0
 800a8ce:	dd05      	ble.n	800a8dc <__ulp+0x20>
 800a8d0:	2200      	movs	r2, #0
 800a8d2:	460b      	mov	r3, r1
 800a8d4:	ec43 2b10 	vmov	d0, r2, r3
 800a8d8:	b002      	add	sp, #8
 800a8da:	4770      	bx	lr
 800a8dc:	4249      	negs	r1, r1
 800a8de:	f1b1 7fa0 	cmp.w	r1, #20971520	; 0x1400000
 800a8e2:	ea4f 5021 	mov.w	r0, r1, asr #20
 800a8e6:	f04f 0200 	mov.w	r2, #0
 800a8ea:	f04f 0300 	mov.w	r3, #0
 800a8ee:	da04      	bge.n	800a8fa <__ulp+0x3e>
 800a8f0:	f44f 2100 	mov.w	r1, #524288	; 0x80000
 800a8f4:	fa41 f300 	asr.w	r3, r1, r0
 800a8f8:	e7ec      	b.n	800a8d4 <__ulp+0x18>
 800a8fa:	f1a0 0114 	sub.w	r1, r0, #20
 800a8fe:	291e      	cmp	r1, #30
 800a900:	bfda      	itte	le
 800a902:	f04f 4000 	movle.w	r0, #2147483648	; 0x80000000
 800a906:	fa20 f101 	lsrle.w	r1, r0, r1
 800a90a:	2101      	movgt	r1, #1
 800a90c:	460a      	mov	r2, r1
 800a90e:	e7e1      	b.n	800a8d4 <__ulp+0x18>
 800a910:	7ff00000 	.word	0x7ff00000

0800a914 <__b2d>:
 800a914:	b5f8      	push	{r3, r4, r5, r6, r7, lr}
 800a916:	6905      	ldr	r5, [r0, #16]
 800a918:	f100 0714 	add.w	r7, r0, #20
 800a91c:	eb07 0585 	add.w	r5, r7, r5, lsl #2
 800a920:	1f2e      	subs	r6, r5, #4
 800a922:	f855 4c04 	ldr.w	r4, [r5, #-4]
 800a926:	4620      	mov	r0, r4
 800a928:	f7ff fd48 	bl	800a3bc <__hi0bits>
 800a92c:	f1c0 0320 	rsb	r3, r0, #32
 800a930:	280a      	cmp	r0, #10
 800a932:	f8df c07c 	ldr.w	ip, [pc, #124]	; 800a9b0 <__b2d+0x9c>
 800a936:	600b      	str	r3, [r1, #0]
 800a938:	dc14      	bgt.n	800a964 <__b2d+0x50>
 800a93a:	f1c0 0e0b 	rsb	lr, r0, #11
 800a93e:	fa24 f10e 	lsr.w	r1, r4, lr
 800a942:	42b7      	cmp	r7, r6
 800a944:	ea41 030c 	orr.w	r3, r1, ip
 800a948:	bf34      	ite	cc
 800a94a:	f855 1c08 	ldrcc.w	r1, [r5, #-8]
 800a94e:	2100      	movcs	r1, #0
 800a950:	3015      	adds	r0, #21
 800a952:	fa04 f000 	lsl.w	r0, r4, r0
 800a956:	fa21 f10e 	lsr.w	r1, r1, lr
 800a95a:	ea40 0201 	orr.w	r2, r0, r1
 800a95e:	ec43 2b10 	vmov	d0, r2, r3
 800a962:	bdf8      	pop	{r3, r4, r5, r6, r7, pc}
 800a964:	42b7      	cmp	r7, r6
 800a966:	bf3a      	itte	cc
 800a968:	f855 1c08 	ldrcc.w	r1, [r5, #-8]
 800a96c:	f1a5 0608 	subcc.w	r6, r5, #8
 800a970:	2100      	movcs	r1, #0
 800a972:	380b      	subs	r0, #11
 800a974:	d017      	beq.n	800a9a6 <__b2d+0x92>
 800a976:	f1c0 0c20 	rsb	ip, r0, #32
 800a97a:	fa04 f500 	lsl.w	r5, r4, r0
 800a97e:	42be      	cmp	r6, r7
 800a980:	fa21 f40c 	lsr.w	r4, r1, ip
 800a984:	ea45 0504 	orr.w	r5, r5, r4
 800a988:	bf8c      	ite	hi
 800a98a:	f856 4c04 	ldrhi.w	r4, [r6, #-4]
 800a98e:	2400      	movls	r4, #0
 800a990:	f045 537f 	orr.w	r3, r5, #1069547520	; 0x3fc00000
 800a994:	fa01 f000 	lsl.w	r0, r1, r0
 800a998:	fa24 f40c 	lsr.w	r4, r4, ip
 800a99c:	f443 1340 	orr.w	r3, r3, #3145728	; 0x300000
 800a9a0:	ea40 0204 	orr.w	r2, r0, r4
 800a9a4:	e7db      	b.n	800a95e <__b2d+0x4a>
 800a9a6:	ea44 030c 	orr.w	r3, r4, ip
 800a9aa:	460a      	mov	r2, r1
 800a9ac:	e7d7      	b.n	800a95e <__b2d+0x4a>
 800a9ae:	bf00      	nop
 800a9b0:	3ff00000 	.word	0x3ff00000

0800a9b4 <__d2b>:
 800a9b4:	e92d 43f7 	stmdb	sp!, {r0, r1, r2, r4, r5, r6, r7, r8, r9, lr}
 800a9b8:	4689      	mov	r9, r1
 800a9ba:	2101      	movs	r1, #1
 800a9bc:	ec57 6b10 	vmov	r6, r7, d0
 800a9c0:	4690      	mov	r8, r2
 800a9c2:	f7ff fc09 	bl	800a1d8 <_Balloc>
 800a9c6:	4604      	mov	r4, r0
 800a9c8:	b930      	cbnz	r0, 800a9d8 <__d2b+0x24>
 800a9ca:	4602      	mov	r2, r0
 800a9cc:	4b25      	ldr	r3, [pc, #148]	; (800aa64 <__d2b+0xb0>)
 800a9ce:	4826      	ldr	r0, [pc, #152]	; (800aa68 <__d2b+0xb4>)
 800a9d0:	f240 310a 	movw	r1, #778	; 0x30a
 800a9d4:	f000 fcfe 	bl	800b3d4 <__assert_func>
 800a9d8:	f3c7 550a 	ubfx	r5, r7, #20, #11
 800a9dc:	f3c7 0313 	ubfx	r3, r7, #0, #20
 800a9e0:	bb35      	cbnz	r5, 800aa30 <__d2b+0x7c>
 800a9e2:	2e00      	cmp	r6, #0
 800a9e4:	9301      	str	r3, [sp, #4]
 800a9e6:	d028      	beq.n	800aa3a <__d2b+0x86>
 800a9e8:	4668      	mov	r0, sp
 800a9ea:	9600      	str	r6, [sp, #0]
 800a9ec:	f7ff fd06 	bl	800a3fc <__lo0bits>
 800a9f0:	9900      	ldr	r1, [sp, #0]
 800a9f2:	b300      	cbz	r0, 800aa36 <__d2b+0x82>
 800a9f4:	9a01      	ldr	r2, [sp, #4]
 800a9f6:	f1c0 0320 	rsb	r3, r0, #32
 800a9fa:	fa02 f303 	lsl.w	r3, r2, r3
 800a9fe:	430b      	orrs	r3, r1
 800aa00:	40c2      	lsrs	r2, r0
 800aa02:	6163      	str	r3, [r4, #20]
 800aa04:	9201      	str	r2, [sp, #4]
 800aa06:	9b01      	ldr	r3, [sp, #4]
 800aa08:	61a3      	str	r3, [r4, #24]
 800aa0a:	2b00      	cmp	r3, #0
 800aa0c:	bf14      	ite	ne
 800aa0e:	2202      	movne	r2, #2
 800aa10:	2201      	moveq	r2, #1
 800aa12:	6122      	str	r2, [r4, #16]
 800aa14:	b1d5      	cbz	r5, 800aa4c <__d2b+0x98>
 800aa16:	f2a5 4533 	subw	r5, r5, #1075	; 0x433
 800aa1a:	4405      	add	r5, r0
 800aa1c:	f8c9 5000 	str.w	r5, [r9]
 800aa20:	f1c0 0035 	rsb	r0, r0, #53	; 0x35
 800aa24:	f8c8 0000 	str.w	r0, [r8]
 800aa28:	4620      	mov	r0, r4
 800aa2a:	b003      	add	sp, #12
 800aa2c:	e8bd 83f0 	ldmia.w	sp!, {r4, r5, r6, r7, r8, r9, pc}
 800aa30:	f443 1380 	orr.w	r3, r3, #1048576	; 0x100000
 800aa34:	e7d5      	b.n	800a9e2 <__d2b+0x2e>
 800aa36:	6161      	str	r1, [r4, #20]
 800aa38:	e7e5      	b.n	800aa06 <__d2b+0x52>
 800aa3a:	a801      	add	r0, sp, #4
 800aa3c:	f7ff fcde 	bl	800a3fc <__lo0bits>
 800aa40:	9b01      	ldr	r3, [sp, #4]
 800aa42:	6163      	str	r3, [r4, #20]
 800aa44:	2201      	movs	r2, #1
 800aa46:	6122      	str	r2, [r4, #16]
 800aa48:	3020      	adds	r0, #32
 800aa4a:	e7e3      	b.n	800aa14 <__d2b+0x60>
 800aa4c:	eb04 0382 	add.w	r3, r4, r2, lsl #2
 800aa50:	f2a0 4032 	subw	r0, r0, #1074	; 0x432
 800aa54:	f8c9 0000 	str.w	r0, [r9]
 800aa58:	6918      	ldr	r0, [r3, #16]
 800aa5a:	f7ff fcaf 	bl	800a3bc <__hi0bits>
 800aa5e:	ebc0 1042 	rsb	r0, r0, r2, lsl #5
 800aa62:	e7df      	b.n	800aa24 <__d2b+0x70>
 800aa64:	0800baa0 	.word	0x0800baa0
 800aa68:	0800bb90 	.word	0x0800bb90

0800aa6c <__ratio>:
 800aa6c:	e92d 4ff7 	stmdb	sp!, {r0, r1, r2, r4, r5, r6, r7, r8, r9, sl, fp, lr}
 800aa70:	4688      	mov	r8, r1
 800aa72:	4669      	mov	r1, sp
 800aa74:	4681      	mov	r9, r0
 800aa76:	f7ff ff4d 	bl	800a914 <__b2d>
 800aa7a:	a901      	add	r1, sp, #4
 800aa7c:	4640      	mov	r0, r8
 800aa7e:	ec55 4b10 	vmov	r4, r5, d0
 800aa82:	f7ff ff47 	bl	800a914 <__b2d>
 800aa86:	f8d9 3010 	ldr.w	r3, [r9, #16]
 800aa8a:	f8d8 2010 	ldr.w	r2, [r8, #16]
 800aa8e:	eba3 0c02 	sub.w	ip, r3, r2
 800aa92:	e9dd 3200 	ldrd	r3, r2, [sp]
 800aa96:	1a9b      	subs	r3, r3, r2
 800aa98:	eb03 134c 	add.w	r3, r3, ip, lsl #5
 800aa9c:	ec51 0b10 	vmov	r0, r1, d0
 800aaa0:	2b00      	cmp	r3, #0
 800aaa2:	bfd6      	itet	le
 800aaa4:	460a      	movle	r2, r1
 800aaa6:	462a      	movgt	r2, r5
 800aaa8:	ebc3 3303 	rsble	r3, r3, r3, lsl #12
 800aaac:	468b      	mov	fp, r1
 800aaae:	462f      	mov	r7, r5
 800aab0:	bfd4      	ite	le
 800aab2:	eb02 5b03 	addle.w	fp, r2, r3, lsl #20
 800aab6:	eb02 5703 	addgt.w	r7, r2, r3, lsl #20
 800aaba:	4620      	mov	r0, r4
 800aabc:	ee10 2a10 	vmov	r2, s0
 800aac0:	465b      	mov	r3, fp
 800aac2:	4639      	mov	r1, r7
 800aac4:	f7f5 fec2 	bl	800084c <__aeabi_ddiv>
 800aac8:	ec41 0b10 	vmov	d0, r0, r1
 800aacc:	b003      	add	sp, #12
 800aace:	e8bd 8ff0 	ldmia.w	sp!, {r4, r5, r6, r7, r8, r9, sl, fp, pc}

0800aad2 <__copybits>:
 800aad2:	3901      	subs	r1, #1
 800aad4:	b570      	push	{r4, r5, r6, lr}
 800aad6:	1149      	asrs	r1, r1, #5
 800aad8:	6914      	ldr	r4, [r2, #16]
 800aada:	3101      	adds	r1, #1
 800aadc:	f102 0314 	add.w	r3, r2, #20
 800aae0:	eb00 0181 	add.w	r1, r0, r1, lsl #2
 800aae4:	eb03 0484 	add.w	r4, r3, r4, lsl #2
 800aae8:	1f05      	subs	r5, r0, #4
 800aaea:	42a3      	cmp	r3, r4
 800aaec:	d30c      	bcc.n	800ab08 <__copybits+0x36>
 800aaee:	1aa3      	subs	r3, r4, r2
 800aaf0:	3b11      	subs	r3, #17
 800aaf2:	f023 0303 	bic.w	r3, r3, #3
 800aaf6:	3211      	adds	r2, #17
 800aaf8:	42a2      	cmp	r2, r4
 800aafa:	bf88      	it	hi
 800aafc:	2300      	movhi	r3, #0
 800aafe:	4418      	add	r0, r3
 800ab00:	2300      	movs	r3, #0
 800ab02:	4288      	cmp	r0, r1
 800ab04:	d305      	bcc.n	800ab12 <__copybits+0x40>
 800ab06:	bd70      	pop	{r4, r5, r6, pc}
 800ab08:	f853 6b04 	ldr.w	r6, [r3], #4
 800ab0c:	f845 6f04 	str.w	r6, [r5, #4]!
 800ab10:	e7eb      	b.n	800aaea <__copybits+0x18>
 800ab12:	f840 3b04 	str.w	r3, [r0], #4
 800ab16:	e7f4      	b.n	800ab02 <__copybits+0x30>

0800ab18 <__any_on>:
 800ab18:	f100 0214 	add.w	r2, r0, #20
 800ab1c:	6900      	ldr	r0, [r0, #16]
 800ab1e:	114b      	asrs	r3, r1, #5
 800ab20:	4298      	cmp	r0, r3
 800ab22:	b510      	push	{r4, lr}
 800ab24:	db11      	blt.n	800ab4a <__any_on+0x32>
 800ab26:	dd0a      	ble.n	800ab3e <__any_on+0x26>
 800ab28:	f011 011f 	ands.w	r1, r1, #31
 800ab2c:	d007      	beq.n	800ab3e <__any_on+0x26>
 800ab2e:	f852 4023 	ldr.w	r4, [r2, r3, lsl #2]
 800ab32:	fa24 f001 	lsr.w	r0, r4, r1
 800ab36:	fa00 f101 	lsl.w	r1, r0, r1
 800ab3a:	428c      	cmp	r4, r1
 800ab3c:	d10b      	bne.n	800ab56 <__any_on+0x3e>
 800ab3e:	eb02 0383 	add.w	r3, r2, r3, lsl #2
 800ab42:	4293      	cmp	r3, r2
 800ab44:	d803      	bhi.n	800ab4e <__any_on+0x36>
 800ab46:	2000      	movs	r0, #0
 800ab48:	bd10      	pop	{r4, pc}
 800ab4a:	4603      	mov	r3, r0
 800ab4c:	e7f7      	b.n	800ab3e <__any_on+0x26>
 800ab4e:	f853 1d04 	ldr.w	r1, [r3, #-4]!
 800ab52:	2900      	cmp	r1, #0
 800ab54:	d0f5      	beq.n	800ab42 <__any_on+0x2a>
 800ab56:	2001      	movs	r0, #1
 800ab58:	e7f6      	b.n	800ab48 <__any_on+0x30>

0800ab5a <_calloc_r>:
 800ab5a:	b537      	push	{r0, r1, r2, r4, r5, lr}
 800ab5c:	fba1 2402 	umull	r2, r4, r1, r2
 800ab60:	b94c      	cbnz	r4, 800ab76 <_calloc_r+0x1c>
 800ab62:	4611      	mov	r1, r2
 800ab64:	9201      	str	r2, [sp, #4]
 800ab66:	f000 f87b 	bl	800ac60 <_malloc_r>
 800ab6a:	9a01      	ldr	r2, [sp, #4]
 800ab6c:	4605      	mov	r5, r0
 800ab6e:	b930      	cbnz	r0, 800ab7e <_calloc_r+0x24>
 800ab70:	4628      	mov	r0, r5
 800ab72:	b003      	add	sp, #12
 800ab74:	bd30      	pop	{r4, r5, pc}
 800ab76:	220c      	movs	r2, #12
 800ab78:	6002      	str	r2, [r0, #0]
 800ab7a:	2500      	movs	r5, #0
 800ab7c:	e7f8      	b.n	800ab70 <_calloc_r+0x16>
 800ab7e:	4621      	mov	r1, r4
 800ab80:	f7fc f852 	bl	8006c28 <memset>
 800ab84:	e7f4      	b.n	800ab70 <_calloc_r+0x16>
	...

0800ab88 <_free_r>:
 800ab88:	b537      	push	{r0, r1, r2, r4, r5, lr}
 800ab8a:	2900      	cmp	r1, #0
 800ab8c:	d044      	beq.n	800ac18 <_free_r+0x90>
 800ab8e:	f851 3c04 	ldr.w	r3, [r1, #-4]
 800ab92:	9001      	str	r0, [sp, #4]
 800ab94:	2b00      	cmp	r3, #0
 800ab96:	f1a1 0404 	sub.w	r4, r1, #4
 800ab9a:	bfb8      	it	lt
 800ab9c:	18e4      	addlt	r4, r4, r3
 800ab9e:	f000 fca7 	bl	800b4f0 <__malloc_lock>
 800aba2:	4a1e      	ldr	r2, [pc, #120]	; (800ac1c <_free_r+0x94>)
 800aba4:	9801      	ldr	r0, [sp, #4]
 800aba6:	6813      	ldr	r3, [r2, #0]
 800aba8:	b933      	cbnz	r3, 800abb8 <_free_r+0x30>
 800abaa:	6063      	str	r3, [r4, #4]
 800abac:	6014      	str	r4, [r2, #0]
 800abae:	b003      	add	sp, #12
 800abb0:	e8bd 4030 	ldmia.w	sp!, {r4, r5, lr}
 800abb4:	f000 bca2 	b.w	800b4fc <__malloc_unlock>
 800abb8:	42a3      	cmp	r3, r4
 800abba:	d908      	bls.n	800abce <_free_r+0x46>
 800abbc:	6825      	ldr	r5, [r4, #0]
 800abbe:	1961      	adds	r1, r4, r5
 800abc0:	428b      	cmp	r3, r1
 800abc2:	bf01      	itttt	eq
 800abc4:	6819      	ldreq	r1, [r3, #0]
 800abc6:	685b      	ldreq	r3, [r3, #4]
 800abc8:	1949      	addeq	r1, r1, r5
 800abca:	6021      	streq	r1, [r4, #0]
 800abcc:	e7ed      	b.n	800abaa <_free_r+0x22>
 800abce:	461a      	mov	r2, r3
 800abd0:	685b      	ldr	r3, [r3, #4]
 800abd2:	b10b      	cbz	r3, 800abd8 <_free_r+0x50>
 800abd4:	42a3      	cmp	r3, r4
 800abd6:	d9fa      	bls.n	800abce <_free_r+0x46>
 800abd8:	6811      	ldr	r1, [r2, #0]
 800abda:	1855      	adds	r5, r2, r1
 800abdc:	42a5      	cmp	r5, r4
 800abde:	d10b      	bne.n	800abf8 <_free_r+0x70>
 800abe0:	6824      	ldr	r4, [r4, #0]
 800abe2:	4421      	add	r1, r4
 800abe4:	1854      	adds	r4, r2, r1
 800abe6:	42a3      	cmp	r3, r4
 800abe8:	6011      	str	r1, [r2, #0]
 800abea:	d1e0      	bne.n	800abae <_free_r+0x26>
 800abec:	681c      	ldr	r4, [r3, #0]
 800abee:	685b      	ldr	r3, [r3, #4]
 800abf0:	6053      	str	r3, [r2, #4]
 800abf2:	4421      	add	r1, r4
 800abf4:	6011      	str	r1, [r2, #0]
 800abf6:	e7da      	b.n	800abae <_free_r+0x26>
 800abf8:	d902      	bls.n	800ac00 <_free_r+0x78>
 800abfa:	230c      	movs	r3, #12
 800abfc:	6003      	str	r3, [r0, #0]
 800abfe:	e7d6      	b.n	800abae <_free_r+0x26>
 800ac00:	6825      	ldr	r5, [r4, #0]
 800ac02:	1961      	adds	r1, r4, r5
 800ac04:	428b      	cmp	r3, r1
 800ac06:	bf04      	itt	eq
 800ac08:	6819      	ldreq	r1, [r3, #0]
 800ac0a:	685b      	ldreq	r3, [r3, #4]
 800ac0c:	6063      	str	r3, [r4, #4]
 800ac0e:	bf04      	itt	eq
 800ac10:	1949      	addeq	r1, r1, r5
 800ac12:	6021      	streq	r1, [r4, #0]
 800ac14:	6054      	str	r4, [r2, #4]
 800ac16:	e7ca      	b.n	800abae <_free_r+0x26>
 800ac18:	b003      	add	sp, #12
 800ac1a:	bd30      	pop	{r4, r5, pc}
 800ac1c:	200015c4 	.word	0x200015c4

0800ac20 <sbrk_aligned>:
 800ac20:	b570      	push	{r4, r5, r6, lr}
 800ac22:	4e0e      	ldr	r6, [pc, #56]	; (800ac5c <sbrk_aligned+0x3c>)
 800ac24:	460c      	mov	r4, r1
 800ac26:	6831      	ldr	r1, [r6, #0]
 800ac28:	4605      	mov	r5, r0
 800ac2a:	b911      	cbnz	r1, 800ac32 <sbrk_aligned+0x12>
 800ac2c:	f000 fb4c 	bl	800b2c8 <_sbrk_r>
 800ac30:	6030      	str	r0, [r6, #0]
 800ac32:	4621      	mov	r1, r4
 800ac34:	4628      	mov	r0, r5
 800ac36:	f000 fb47 	bl	800b2c8 <_sbrk_r>
 800ac3a:	1c43      	adds	r3, r0, #1
 800ac3c:	d00a      	beq.n	800ac54 <sbrk_aligned+0x34>
 800ac3e:	1cc4      	adds	r4, r0, #3
 800ac40:	f024 0403 	bic.w	r4, r4, #3
 800ac44:	42a0      	cmp	r0, r4
 800ac46:	d007      	beq.n	800ac58 <sbrk_aligned+0x38>
 800ac48:	1a21      	subs	r1, r4, r0
 800ac4a:	4628      	mov	r0, r5
 800ac4c:	f000 fb3c 	bl	800b2c8 <_sbrk_r>
 800ac50:	3001      	adds	r0, #1
 800ac52:	d101      	bne.n	800ac58 <sbrk_aligned+0x38>
 800ac54:	f04f 34ff 	mov.w	r4, #4294967295
 800ac58:	4620      	mov	r0, r4
 800ac5a:	bd70      	pop	{r4, r5, r6, pc}
 800ac5c:	200015c8 	.word	0x200015c8

0800ac60 <_malloc_r>:
 800ac60:	e92d 41f0 	stmdb	sp!, {r4, r5, r6, r7, r8, lr}
 800ac64:	1ccd      	adds	r5, r1, #3
 800ac66:	f025 0503 	bic.w	r5, r5, #3
 800ac6a:	3508      	adds	r5, #8
 800ac6c:	2d0c      	cmp	r5, #12
 800ac6e:	bf38      	it	cc
 800ac70:	250c      	movcc	r5, #12
 800ac72:	2d00      	cmp	r5, #0
 800ac74:	4607      	mov	r7, r0
 800ac76:	db01      	blt.n	800ac7c <_malloc_r+0x1c>
 800ac78:	42a9      	cmp	r1, r5
 800ac7a:	d905      	bls.n	800ac88 <_malloc_r+0x28>
 800ac7c:	230c      	movs	r3, #12
 800ac7e:	603b      	str	r3, [r7, #0]
 800ac80:	2600      	movs	r6, #0
 800ac82:	4630      	mov	r0, r6
 800ac84:	e8bd 81f0 	ldmia.w	sp!, {r4, r5, r6, r7, r8, pc}
 800ac88:	4e2e      	ldr	r6, [pc, #184]	; (800ad44 <_malloc_r+0xe4>)
 800ac8a:	f000 fc31 	bl	800b4f0 <__malloc_lock>
 800ac8e:	6833      	ldr	r3, [r6, #0]
 800ac90:	461c      	mov	r4, r3
 800ac92:	bb34      	cbnz	r4, 800ace2 <_malloc_r+0x82>
 800ac94:	4629      	mov	r1, r5
 800ac96:	4638      	mov	r0, r7
 800ac98:	f7ff ffc2 	bl	800ac20 <sbrk_aligned>
 800ac9c:	1c43      	adds	r3, r0, #1
 800ac9e:	4604      	mov	r4, r0
 800aca0:	d14d      	bne.n	800ad3e <_malloc_r+0xde>
 800aca2:	6834      	ldr	r4, [r6, #0]
 800aca4:	4626      	mov	r6, r4
 800aca6:	2e00      	cmp	r6, #0
 800aca8:	d140      	bne.n	800ad2c <_malloc_r+0xcc>
 800acaa:	6823      	ldr	r3, [r4, #0]
 800acac:	4631      	mov	r1, r6
 800acae:	4638      	mov	r0, r7
 800acb0:	eb04 0803 	add.w	r8, r4, r3
 800acb4:	f000 fb08 	bl	800b2c8 <_sbrk_r>
 800acb8:	4580      	cmp	r8, r0
 800acba:	d13a      	bne.n	800ad32 <_malloc_r+0xd2>
 800acbc:	6821      	ldr	r1, [r4, #0]
 800acbe:	3503      	adds	r5, #3
 800acc0:	1a6d      	subs	r5, r5, r1
 800acc2:	f025 0503 	bic.w	r5, r5, #3
 800acc6:	3508      	adds	r5, #8
 800acc8:	2d0c      	cmp	r5, #12
 800acca:	bf38      	it	cc
 800accc:	250c      	movcc	r5, #12
 800acce:	4629      	mov	r1, r5
 800acd0:	4638      	mov	r0, r7
 800acd2:	f7ff ffa5 	bl	800ac20 <sbrk_aligned>
 800acd6:	3001      	adds	r0, #1
 800acd8:	d02b      	beq.n	800ad32 <_malloc_r+0xd2>
 800acda:	6823      	ldr	r3, [r4, #0]
 800acdc:	442b      	add	r3, r5
 800acde:	6023      	str	r3, [r4, #0]
 800ace0:	e00e      	b.n	800ad00 <_malloc_r+0xa0>
 800ace2:	6822      	ldr	r2, [r4, #0]
 800ace4:	1b52      	subs	r2, r2, r5
 800ace6:	d41e      	bmi.n	800ad26 <_malloc_r+0xc6>
 800ace8:	2a0b      	cmp	r2, #11
 800acea:	d916      	bls.n	800ad1a <_malloc_r+0xba>
 800acec:	1961      	adds	r1, r4, r5
 800acee:	42a3      	cmp	r3, r4
 800acf0:	6025      	str	r5, [r4, #0]
 800acf2:	bf18      	it	ne
 800acf4:	6059      	strne	r1, [r3, #4]
 800acf6:	6863      	ldr	r3, [r4, #4]
 800acf8:	bf08      	it	eq
 800acfa:	6031      	streq	r1, [r6, #0]
 800acfc:	5162      	str	r2, [r4, r5]
 800acfe:	604b      	str	r3, [r1, #4]
 800ad00:	4638      	mov	r0, r7
 800ad02:	f104 060b 	add.w	r6, r4, #11
 800ad06:	f000 fbf9 	bl	800b4fc <__malloc_unlock>
 800ad0a:	f026 0607 	bic.w	r6, r6, #7
 800ad0e:	1d23      	adds	r3, r4, #4
 800ad10:	1af2      	subs	r2, r6, r3
 800ad12:	d0b6      	beq.n	800ac82 <_malloc_r+0x22>
 800ad14:	1b9b      	subs	r3, r3, r6
 800ad16:	50a3      	str	r3, [r4, r2]
 800ad18:	e7b3      	b.n	800ac82 <_malloc_r+0x22>
 800ad1a:	6862      	ldr	r2, [r4, #4]
 800ad1c:	42a3      	cmp	r3, r4
 800ad1e:	bf0c      	ite	eq
 800ad20:	6032      	streq	r2, [r6, #0]
 800ad22:	605a      	strne	r2, [r3, #4]
 800ad24:	e7ec      	b.n	800ad00 <_malloc_r+0xa0>
 800ad26:	4623      	mov	r3, r4
 800ad28:	6864      	ldr	r4, [r4, #4]
 800ad2a:	e7b2      	b.n	800ac92 <_malloc_r+0x32>
 800ad2c:	4634      	mov	r4, r6
 800ad2e:	6876      	ldr	r6, [r6, #4]
 800ad30:	e7b9      	b.n	800aca6 <_malloc_r+0x46>
 800ad32:	230c      	movs	r3, #12
 800ad34:	603b      	str	r3, [r7, #0]
 800ad36:	4638      	mov	r0, r7
 800ad38:	f000 fbe0 	bl	800b4fc <__malloc_unlock>
 800ad3c:	e7a1      	b.n	800ac82 <_malloc_r+0x22>
 800ad3e:	6025      	str	r5, [r4, #0]
 800ad40:	e7de      	b.n	800ad00 <_malloc_r+0xa0>
 800ad42:	bf00      	nop
 800ad44:	200015c4 	.word	0x200015c4

0800ad48 <__ssputs_r>:
 800ad48:	e92d 47f0 	stmdb	sp!, {r4, r5, r6, r7, r8, r9, sl, lr}
 800ad4c:	688e      	ldr	r6, [r1, #8]
 800ad4e:	429e      	cmp	r6, r3
 800ad50:	4682      	mov	sl, r0
 800ad52:	460c      	mov	r4, r1
 800ad54:	4690      	mov	r8, r2
 800ad56:	461f      	mov	r7, r3
 800ad58:	d838      	bhi.n	800adcc <__ssputs_r+0x84>
 800ad5a:	898a      	ldrh	r2, [r1, #12]
 800ad5c:	f412 6f90 	tst.w	r2, #1152	; 0x480
 800ad60:	d032      	beq.n	800adc8 <__ssputs_r+0x80>
 800ad62:	6825      	ldr	r5, [r4, #0]
 800ad64:	6909      	ldr	r1, [r1, #16]
 800ad66:	eba5 0901 	sub.w	r9, r5, r1
 800ad6a:	6965      	ldr	r5, [r4, #20]
 800ad6c:	eb05 0545 	add.w	r5, r5, r5, lsl #1
 800ad70:	eb05 75d5 	add.w	r5, r5, r5, lsr #31
 800ad74:	3301      	adds	r3, #1
 800ad76:	444b      	add	r3, r9
 800ad78:	106d      	asrs	r5, r5, #1
 800ad7a:	429d      	cmp	r5, r3
 800ad7c:	bf38      	it	cc
 800ad7e:	461d      	movcc	r5, r3
 800ad80:	0553      	lsls	r3, r2, #21
 800ad82:	d531      	bpl.n	800ade8 <__ssputs_r+0xa0>
 800ad84:	4629      	mov	r1, r5
 800ad86:	f7ff ff6b 	bl	800ac60 <_malloc_r>
 800ad8a:	4606      	mov	r6, r0
 800ad8c:	b950      	cbnz	r0, 800ada4 <__ssputs_r+0x5c>
 800ad8e:	230c      	movs	r3, #12
 800ad90:	f8ca 3000 	str.w	r3, [sl]
 800ad94:	89a3      	ldrh	r3, [r4, #12]
 800ad96:	f043 0340 	orr.w	r3, r3, #64	; 0x40
 800ad9a:	81a3      	strh	r3, [r4, #12]
 800ad9c:	f04f 30ff 	mov.w	r0, #4294967295
 800ada0:	e8bd 87f0 	ldmia.w	sp!, {r4, r5, r6, r7, r8, r9, sl, pc}
 800ada4:	6921      	ldr	r1, [r4, #16]
 800ada6:	464a      	mov	r2, r9
 800ada8:	f7ff fa08 	bl	800a1bc <memcpy>
 800adac:	89a3      	ldrh	r3, [r4, #12]
 800adae:	f423 6390 	bic.w	r3, r3, #1152	; 0x480
 800adb2:	f043 0380 	orr.w	r3, r3, #128	; 0x80
 800adb6:	81a3      	strh	r3, [r4, #12]
 800adb8:	6126      	str	r6, [r4, #16]
 800adba:	6165      	str	r5, [r4, #20]
 800adbc:	444e      	add	r6, r9
 800adbe:	eba5 0509 	sub.w	r5, r5, r9
 800adc2:	6026      	str	r6, [r4, #0]
 800adc4:	60a5      	str	r5, [r4, #8]
 800adc6:	463e      	mov	r6, r7
 800adc8:	42be      	cmp	r6, r7
 800adca:	d900      	bls.n	800adce <__ssputs_r+0x86>
 800adcc:	463e      	mov	r6, r7
 800adce:	6820      	ldr	r0, [r4, #0]
 800add0:	4632      	mov	r2, r6
 800add2:	4641      	mov	r1, r8
 800add4:	f000 fb72 	bl	800b4bc <memmove>
 800add8:	68a3      	ldr	r3, [r4, #8]
 800adda:	1b9b      	subs	r3, r3, r6
 800addc:	60a3      	str	r3, [r4, #8]
 800adde:	6823      	ldr	r3, [r4, #0]
 800ade0:	4433      	add	r3, r6
 800ade2:	6023      	str	r3, [r4, #0]
 800ade4:	2000      	movs	r0, #0
 800ade6:	e7db      	b.n	800ada0 <__ssputs_r+0x58>
 800ade8:	462a      	mov	r2, r5
 800adea:	f000 fb8d 	bl	800b508 <_realloc_r>
 800adee:	4606      	mov	r6, r0
 800adf0:	2800      	cmp	r0, #0
 800adf2:	d1e1      	bne.n	800adb8 <__ssputs_r+0x70>
 800adf4:	6921      	ldr	r1, [r4, #16]
 800adf6:	4650      	mov	r0, sl
 800adf8:	f7ff fec6 	bl	800ab88 <_free_r>
 800adfc:	e7c7      	b.n	800ad8e <__ssputs_r+0x46>
	...

0800ae00 <_svfiprintf_r>:
 800ae00:	e92d 4ff0 	stmdb	sp!, {r4, r5, r6, r7, r8, r9, sl, fp, lr}
 800ae04:	4698      	mov	r8, r3
 800ae06:	898b      	ldrh	r3, [r1, #12]
 800ae08:	061b      	lsls	r3, r3, #24
 800ae0a:	b09d      	sub	sp, #116	; 0x74
 800ae0c:	4607      	mov	r7, r0
 800ae0e:	460d      	mov	r5, r1
 800ae10:	4614      	mov	r4, r2
 800ae12:	d50e      	bpl.n	800ae32 <_svfiprintf_r+0x32>
 800ae14:	690b      	ldr	r3, [r1, #16]
 800ae16:	b963      	cbnz	r3, 800ae32 <_svfiprintf_r+0x32>
 800ae18:	2140      	movs	r1, #64	; 0x40
 800ae1a:	f7ff ff21 	bl	800ac60 <_malloc_r>
 800ae1e:	6028      	str	r0, [r5, #0]
 800ae20:	6128      	str	r0, [r5, #16]
 800ae22:	b920      	cbnz	r0, 800ae2e <_svfiprintf_r+0x2e>
 800ae24:	230c      	movs	r3, #12
 800ae26:	603b      	str	r3, [r7, #0]
 800ae28:	f04f 30ff 	mov.w	r0, #4294967295
 800ae2c:	e0d1      	b.n	800afd2 <_svfiprintf_r+0x1d2>
 800ae2e:	2340      	movs	r3, #64	; 0x40
 800ae30:	616b      	str	r3, [r5, #20]
 800ae32:	2300      	movs	r3, #0
 800ae34:	9309      	str	r3, [sp, #36]	; 0x24
 800ae36:	2320      	movs	r3, #32
 800ae38:	f88d 3029 	strb.w	r3, [sp, #41]	; 0x29
 800ae3c:	f8cd 800c 	str.w	r8, [sp, #12]
 800ae40:	2330      	movs	r3, #48	; 0x30
 800ae42:	f8df 81a8 	ldr.w	r8, [pc, #424]	; 800afec <_svfiprintf_r+0x1ec>
 800ae46:	f88d 302a 	strb.w	r3, [sp, #42]	; 0x2a
 800ae4a:	f04f 0901 	mov.w	r9, #1
 800ae4e:	4623      	mov	r3, r4
 800ae50:	469a      	mov	sl, r3
 800ae52:	f813 2b01 	ldrb.w	r2, [r3], #1
 800ae56:	b10a      	cbz	r2, 800ae5c <_svfiprintf_r+0x5c>
 800ae58:	2a25      	cmp	r2, #37	; 0x25
 800ae5a:	d1f9      	bne.n	800ae50 <_svfiprintf_r+0x50>
 800ae5c:	ebba 0b04 	subs.w	fp, sl, r4
 800ae60:	d00b      	beq.n	800ae7a <_svfiprintf_r+0x7a>
 800ae62:	465b      	mov	r3, fp
 800ae64:	4622      	mov	r2, r4
 800ae66:	4629      	mov	r1, r5
 800ae68:	4638      	mov	r0, r7
 800ae6a:	f7ff ff6d 	bl	800ad48 <__ssputs_r>
 800ae6e:	3001      	adds	r0, #1
 800ae70:	f000 80aa 	beq.w	800afc8 <_svfiprintf_r+0x1c8>
 800ae74:	9a09      	ldr	r2, [sp, #36]	; 0x24
 800ae76:	445a      	add	r2, fp
 800ae78:	9209      	str	r2, [sp, #36]	; 0x24
 800ae7a:	f89a 3000 	ldrb.w	r3, [sl]
 800ae7e:	2b00      	cmp	r3, #0
 800ae80:	f000 80a2 	beq.w	800afc8 <_svfiprintf_r+0x1c8>
 800ae84:	2300      	movs	r3, #0
 800ae86:	f04f 32ff 	mov.w	r2, #4294967295
 800ae8a:	e9cd 2305 	strd	r2, r3, [sp, #20]
 800ae8e:	f10a 0a01 	add.w	sl, sl, #1
 800ae92:	9304      	str	r3, [sp, #16]
 800ae94:	9307      	str	r3, [sp, #28]
 800ae96:	f88d 3053 	strb.w	r3, [sp, #83]	; 0x53
 800ae9a:	931a      	str	r3, [sp, #104]	; 0x68
 800ae9c:	4654      	mov	r4, sl
 800ae9e:	2205      	movs	r2, #5
 800aea0:	f814 1b01 	ldrb.w	r1, [r4], #1
 800aea4:	4851      	ldr	r0, [pc, #324]	; (800afec <_svfiprintf_r+0x1ec>)
 800aea6:	f7f5 f99b 	bl	80001e0 <memchr>
 800aeaa:	9a04      	ldr	r2, [sp, #16]
 800aeac:	b9d8      	cbnz	r0, 800aee6 <_svfiprintf_r+0xe6>
 800aeae:	06d0      	lsls	r0, r2, #27
 800aeb0:	bf44      	itt	mi
 800aeb2:	2320      	movmi	r3, #32
 800aeb4:	f88d 3053 	strbmi.w	r3, [sp, #83]	; 0x53
 800aeb8:	0711      	lsls	r1, r2, #28
 800aeba:	bf44      	itt	mi
 800aebc:	232b      	movmi	r3, #43	; 0x2b
 800aebe:	f88d 3053 	strbmi.w	r3, [sp, #83]	; 0x53
 800aec2:	f89a 3000 	ldrb.w	r3, [sl]
 800aec6:	2b2a      	cmp	r3, #42	; 0x2a
 800aec8:	d015      	beq.n	800aef6 <_svfiprintf_r+0xf6>
 800aeca:	9a07      	ldr	r2, [sp, #28]
 800aecc:	4654      	mov	r4, sl
 800aece:	2000      	movs	r0, #0
 800aed0:	f04f 0c0a 	mov.w	ip, #10
 800aed4:	4621      	mov	r1, r4
 800aed6:	f811 3b01 	ldrb.w	r3, [r1], #1
 800aeda:	3b30      	subs	r3, #48	; 0x30
 800aedc:	2b09      	cmp	r3, #9
 800aede:	d94e      	bls.n	800af7e <_svfiprintf_r+0x17e>
 800aee0:	b1b0      	cbz	r0, 800af10 <_svfiprintf_r+0x110>
 800aee2:	9207      	str	r2, [sp, #28]
 800aee4:	e014      	b.n	800af10 <_svfiprintf_r+0x110>
 800aee6:	eba0 0308 	sub.w	r3, r0, r8
 800aeea:	fa09 f303 	lsl.w	r3, r9, r3
 800aeee:	4313      	orrs	r3, r2
 800aef0:	9304      	str	r3, [sp, #16]
 800aef2:	46a2      	mov	sl, r4
 800aef4:	e7d2      	b.n	800ae9c <_svfiprintf_r+0x9c>
 800aef6:	9b03      	ldr	r3, [sp, #12]
 800aef8:	1d19      	adds	r1, r3, #4
 800aefa:	681b      	ldr	r3, [r3, #0]
 800aefc:	9103      	str	r1, [sp, #12]
 800aefe:	2b00      	cmp	r3, #0
 800af00:	bfbb      	ittet	lt
 800af02:	425b      	neglt	r3, r3
 800af04:	f042 0202 	orrlt.w	r2, r2, #2
 800af08:	9307      	strge	r3, [sp, #28]
 800af0a:	9307      	strlt	r3, [sp, #28]
 800af0c:	bfb8      	it	lt
 800af0e:	9204      	strlt	r2, [sp, #16]
 800af10:	7823      	ldrb	r3, [r4, #0]
 800af12:	2b2e      	cmp	r3, #46	; 0x2e
 800af14:	d10c      	bne.n	800af30 <_svfiprintf_r+0x130>
 800af16:	7863      	ldrb	r3, [r4, #1]
 800af18:	2b2a      	cmp	r3, #42	; 0x2a
 800af1a:	d135      	bne.n	800af88 <_svfiprintf_r+0x188>
 800af1c:	9b03      	ldr	r3, [sp, #12]
 800af1e:	1d1a      	adds	r2, r3, #4
 800af20:	681b      	ldr	r3, [r3, #0]
 800af22:	9203      	str	r2, [sp, #12]
 800af24:	2b00      	cmp	r3, #0
 800af26:	bfb8      	it	lt
 800af28:	f04f 33ff 	movlt.w	r3, #4294967295
 800af2c:	3402      	adds	r4, #2
 800af2e:	9305      	str	r3, [sp, #20]
 800af30:	f8df a0c8 	ldr.w	sl, [pc, #200]	; 800affc <_svfiprintf_r+0x1fc>
 800af34:	7821      	ldrb	r1, [r4, #0]
 800af36:	2203      	movs	r2, #3
 800af38:	4650      	mov	r0, sl
 800af3a:	f7f5 f951 	bl	80001e0 <memchr>
 800af3e:	b140      	cbz	r0, 800af52 <_svfiprintf_r+0x152>
 800af40:	2340      	movs	r3, #64	; 0x40
 800af42:	eba0 000a 	sub.w	r0, r0, sl
 800af46:	fa03 f000 	lsl.w	r0, r3, r0
 800af4a:	9b04      	ldr	r3, [sp, #16]
 800af4c:	4303      	orrs	r3, r0
 800af4e:	3401      	adds	r4, #1
 800af50:	9304      	str	r3, [sp, #16]
 800af52:	f814 1b01 	ldrb.w	r1, [r4], #1
 800af56:	4826      	ldr	r0, [pc, #152]	; (800aff0 <_svfiprintf_r+0x1f0>)
 800af58:	f88d 1028 	strb.w	r1, [sp, #40]	; 0x28
 800af5c:	2206      	movs	r2, #6
 800af5e:	f7f5 f93f 	bl	80001e0 <memchr>
 800af62:	2800      	cmp	r0, #0
 800af64:	d038      	beq.n	800afd8 <_svfiprintf_r+0x1d8>
 800af66:	4b23      	ldr	r3, [pc, #140]	; (800aff4 <_svfiprintf_r+0x1f4>)
 800af68:	bb1b      	cbnz	r3, 800afb2 <_svfiprintf_r+0x1b2>
 800af6a:	9b03      	ldr	r3, [sp, #12]
 800af6c:	3307      	adds	r3, #7
 800af6e:	f023 0307 	bic.w	r3, r3, #7
 800af72:	3308      	adds	r3, #8
 800af74:	9303      	str	r3, [sp, #12]
 800af76:	9b09      	ldr	r3, [sp, #36]	; 0x24
 800af78:	4433      	add	r3, r6
 800af7a:	9309      	str	r3, [sp, #36]	; 0x24
 800af7c:	e767      	b.n	800ae4e <_svfiprintf_r+0x4e>
 800af7e:	fb0c 3202 	mla	r2, ip, r2, r3
 800af82:	460c      	mov	r4, r1
 800af84:	2001      	movs	r0, #1
 800af86:	e7a5      	b.n	800aed4 <_svfiprintf_r+0xd4>
 800af88:	2300      	movs	r3, #0
 800af8a:	3401      	adds	r4, #1
 800af8c:	9305      	str	r3, [sp, #20]
 800af8e:	4619      	mov	r1, r3
 800af90:	f04f 0c0a 	mov.w	ip, #10
 800af94:	4620      	mov	r0, r4
 800af96:	f810 2b01 	ldrb.w	r2, [r0], #1
 800af9a:	3a30      	subs	r2, #48	; 0x30
 800af9c:	2a09      	cmp	r2, #9
 800af9e:	d903      	bls.n	800afa8 <_svfiprintf_r+0x1a8>
 800afa0:	2b00      	cmp	r3, #0
 800afa2:	d0c5      	beq.n	800af30 <_svfiprintf_r+0x130>
 800afa4:	9105      	str	r1, [sp, #20]
 800afa6:	e7c3      	b.n	800af30 <_svfiprintf_r+0x130>
 800afa8:	fb0c 2101 	mla	r1, ip, r1, r2
 800afac:	4604      	mov	r4, r0
 800afae:	2301      	movs	r3, #1
 800afb0:	e7f0      	b.n	800af94 <_svfiprintf_r+0x194>
 800afb2:	ab03      	add	r3, sp, #12
 800afb4:	9300      	str	r3, [sp, #0]
 800afb6:	462a      	mov	r2, r5
 800afb8:	4b0f      	ldr	r3, [pc, #60]	; (800aff8 <_svfiprintf_r+0x1f8>)
 800afba:	a904      	add	r1, sp, #16
 800afbc:	4638      	mov	r0, r7
 800afbe:	f7fb fedb 	bl	8006d78 <_printf_float>
 800afc2:	1c42      	adds	r2, r0, #1
 800afc4:	4606      	mov	r6, r0
 800afc6:	d1d6      	bne.n	800af76 <_svfiprintf_r+0x176>
 800afc8:	89ab      	ldrh	r3, [r5, #12]
 800afca:	065b      	lsls	r3, r3, #25
 800afcc:	f53f af2c 	bmi.w	800ae28 <_svfiprintf_r+0x28>
 800afd0:	9809      	ldr	r0, [sp, #36]	; 0x24
 800afd2:	b01d      	add	sp, #116	; 0x74
 800afd4:	e8bd 8ff0 	ldmia.w	sp!, {r4, r5, r6, r7, r8, r9, sl, fp, pc}
 800afd8:	ab03      	add	r3, sp, #12
 800afda:	9300      	str	r3, [sp, #0]
 800afdc:	462a      	mov	r2, r5
 800afde:	4b06      	ldr	r3, [pc, #24]	; (800aff8 <_svfiprintf_r+0x1f8>)
 800afe0:	a904      	add	r1, sp, #16
 800afe2:	4638      	mov	r0, r7
 800afe4:	f7fc f96c 	bl	80072c0 <_printf_i>
 800afe8:	e7eb      	b.n	800afc2 <_svfiprintf_r+0x1c2>
 800afea:	bf00      	nop
 800afec:	0800bcec 	.word	0x0800bcec
 800aff0:	0800bcf6 	.word	0x0800bcf6
 800aff4:	08006d79 	.word	0x08006d79
 800aff8:	0800ad49 	.word	0x0800ad49
 800affc:	0800bcf2 	.word	0x0800bcf2

0800b000 <__sfputc_r>:
 800b000:	6893      	ldr	r3, [r2, #8]
 800b002:	3b01      	subs	r3, #1
 800b004:	2b00      	cmp	r3, #0
 800b006:	b410      	push	{r4}
 800b008:	6093      	str	r3, [r2, #8]
 800b00a:	da08      	bge.n	800b01e <__sfputc_r+0x1e>
 800b00c:	6994      	ldr	r4, [r2, #24]
 800b00e:	42a3      	cmp	r3, r4
 800b010:	db01      	blt.n	800b016 <__sfputc_r+0x16>
 800b012:	290a      	cmp	r1, #10
 800b014:	d103      	bne.n	800b01e <__sfputc_r+0x1e>
 800b016:	f85d 4b04 	ldr.w	r4, [sp], #4
 800b01a:	f7fd bbe9 	b.w	80087f0 <__swbuf_r>
 800b01e:	6813      	ldr	r3, [r2, #0]
 800b020:	1c58      	adds	r0, r3, #1
 800b022:	6010      	str	r0, [r2, #0]
 800b024:	7019      	strb	r1, [r3, #0]
 800b026:	4608      	mov	r0, r1
 800b028:	f85d 4b04 	ldr.w	r4, [sp], #4
 800b02c:	4770      	bx	lr

0800b02e <__sfputs_r>:
 800b02e:	b5f8      	push	{r3, r4, r5, r6, r7, lr}
 800b030:	4606      	mov	r6, r0
 800b032:	460f      	mov	r7, r1
 800b034:	4614      	mov	r4, r2
 800b036:	18d5      	adds	r5, r2, r3
 800b038:	42ac      	cmp	r4, r5
 800b03a:	d101      	bne.n	800b040 <__sfputs_r+0x12>
 800b03c:	2000      	movs	r0, #0
 800b03e:	e007      	b.n	800b050 <__sfputs_r+0x22>
 800b040:	f814 1b01 	ldrb.w	r1, [r4], #1
 800b044:	463a      	mov	r2, r7
 800b046:	4630      	mov	r0, r6
 800b048:	f7ff ffda 	bl	800b000 <__sfputc_r>
 800b04c:	1c43      	adds	r3, r0, #1
 800b04e:	d1f3      	bne.n	800b038 <__sfputs_r+0xa>
 800b050:	bdf8      	pop	{r3, r4, r5, r6, r7, pc}
	...

0800b054 <_vfiprintf_r>:
 800b054:	e92d 4ff0 	stmdb	sp!, {r4, r5, r6, r7, r8, r9, sl, fp, lr}
 800b058:	460d      	mov	r5, r1
 800b05a:	b09d      	sub	sp, #116	; 0x74
 800b05c:	4614      	mov	r4, r2
 800b05e:	4698      	mov	r8, r3
 800b060:	4606      	mov	r6, r0
 800b062:	b118      	cbz	r0, 800b06c <_vfiprintf_r+0x18>
 800b064:	6983      	ldr	r3, [r0, #24]
 800b066:	b90b      	cbnz	r3, 800b06c <_vfiprintf_r+0x18>
 800b068:	f7fe fc16 	bl	8009898 <__sinit>
 800b06c:	4b89      	ldr	r3, [pc, #548]	; (800b294 <_vfiprintf_r+0x240>)
 800b06e:	429d      	cmp	r5, r3
 800b070:	d11b      	bne.n	800b0aa <_vfiprintf_r+0x56>
 800b072:	6875      	ldr	r5, [r6, #4]
 800b074:	6e6b      	ldr	r3, [r5, #100]	; 0x64
 800b076:	07d9      	lsls	r1, r3, #31
 800b078:	d405      	bmi.n	800b086 <_vfiprintf_r+0x32>
 800b07a:	89ab      	ldrh	r3, [r5, #12]
 800b07c:	059a      	lsls	r2, r3, #22
 800b07e:	d402      	bmi.n	800b086 <_vfiprintf_r+0x32>
 800b080:	6da8      	ldr	r0, [r5, #88]	; 0x58
 800b082:	f7ff f81a 	bl	800a0ba <__retarget_lock_acquire_recursive>
 800b086:	89ab      	ldrh	r3, [r5, #12]
 800b088:	071b      	lsls	r3, r3, #28
 800b08a:	d501      	bpl.n	800b090 <_vfiprintf_r+0x3c>
 800b08c:	692b      	ldr	r3, [r5, #16]
 800b08e:	b9eb      	cbnz	r3, 800b0cc <_vfiprintf_r+0x78>
 800b090:	4629      	mov	r1, r5
 800b092:	4630      	mov	r0, r6
 800b094:	f7fd fbfe 	bl	8008894 <__swsetup_r>
 800b098:	b1c0      	cbz	r0, 800b0cc <_vfiprintf_r+0x78>
 800b09a:	6e6b      	ldr	r3, [r5, #100]	; 0x64
 800b09c:	07dc      	lsls	r4, r3, #31
 800b09e:	d50e      	bpl.n	800b0be <_vfiprintf_r+0x6a>
 800b0a0:	f04f 30ff 	mov.w	r0, #4294967295
 800b0a4:	b01d      	add	sp, #116	; 0x74
 800b0a6:	e8bd 8ff0 	ldmia.w	sp!, {r4, r5, r6, r7, r8, r9, sl, fp, pc}
 800b0aa:	4b7b      	ldr	r3, [pc, #492]	; (800b298 <_vfiprintf_r+0x244>)
 800b0ac:	429d      	cmp	r5, r3
 800b0ae:	d101      	bne.n	800b0b4 <_vfiprintf_r+0x60>
 800b0b0:	68b5      	ldr	r5, [r6, #8]
 800b0b2:	e7df      	b.n	800b074 <_vfiprintf_r+0x20>
 800b0b4:	4b79      	ldr	r3, [pc, #484]	; (800b29c <_vfiprintf_r+0x248>)
 800b0b6:	429d      	cmp	r5, r3
 800b0b8:	bf08      	it	eq
 800b0ba:	68f5      	ldreq	r5, [r6, #12]
 800b0bc:	e7da      	b.n	800b074 <_vfiprintf_r+0x20>
 800b0be:	89ab      	ldrh	r3, [r5, #12]
 800b0c0:	0598      	lsls	r0, r3, #22
 800b0c2:	d4ed      	bmi.n	800b0a0 <_vfiprintf_r+0x4c>
 800b0c4:	6da8      	ldr	r0, [r5, #88]	; 0x58
 800b0c6:	f7fe fff9 	bl	800a0bc <__retarget_lock_release_recursive>
 800b0ca:	e7e9      	b.n	800b0a0 <_vfiprintf_r+0x4c>
 800b0cc:	2300      	movs	r3, #0
 800b0ce:	9309      	str	r3, [sp, #36]	; 0x24
 800b0d0:	2320      	movs	r3, #32
 800b0d2:	f88d 3029 	strb.w	r3, [sp, #41]	; 0x29
 800b0d6:	f8cd 800c 	str.w	r8, [sp, #12]
 800b0da:	2330      	movs	r3, #48	; 0x30
 800b0dc:	f8df 81c0 	ldr.w	r8, [pc, #448]	; 800b2a0 <_vfiprintf_r+0x24c>
 800b0e0:	f88d 302a 	strb.w	r3, [sp, #42]	; 0x2a
 800b0e4:	f04f 0901 	mov.w	r9, #1
 800b0e8:	4623      	mov	r3, r4
 800b0ea:	469a      	mov	sl, r3
 800b0ec:	f813 2b01 	ldrb.w	r2, [r3], #1
 800b0f0:	b10a      	cbz	r2, 800b0f6 <_vfiprintf_r+0xa2>
 800b0f2:	2a25      	cmp	r2, #37	; 0x25
 800b0f4:	d1f9      	bne.n	800b0ea <_vfiprintf_r+0x96>
 800b0f6:	ebba 0b04 	subs.w	fp, sl, r4
 800b0fa:	d00b      	beq.n	800b114 <_vfiprintf_r+0xc0>
 800b0fc:	465b      	mov	r3, fp
 800b0fe:	4622      	mov	r2, r4
 800b100:	4629      	mov	r1, r5
 800b102:	4630      	mov	r0, r6
 800b104:	f7ff ff93 	bl	800b02e <__sfputs_r>
 800b108:	3001      	adds	r0, #1
 800b10a:	f000 80aa 	beq.w	800b262 <_vfiprintf_r+0x20e>
 800b10e:	9a09      	ldr	r2, [sp, #36]	; 0x24
 800b110:	445a      	add	r2, fp
 800b112:	9209      	str	r2, [sp, #36]	; 0x24
 800b114:	f89a 3000 	ldrb.w	r3, [sl]
 800b118:	2b00      	cmp	r3, #0
 800b11a:	f000 80a2 	beq.w	800b262 <_vfiprintf_r+0x20e>
 800b11e:	2300      	movs	r3, #0
 800b120:	f04f 32ff 	mov.w	r2, #4294967295
 800b124:	e9cd 2305 	strd	r2, r3, [sp, #20]
 800b128:	f10a 0a01 	add.w	sl, sl, #1
 800b12c:	9304      	str	r3, [sp, #16]
 800b12e:	9307      	str	r3, [sp, #28]
 800b130:	f88d 3053 	strb.w	r3, [sp, #83]	; 0x53
 800b134:	931a      	str	r3, [sp, #104]	; 0x68
 800b136:	4654      	mov	r4, sl
 800b138:	2205      	movs	r2, #5
 800b13a:	f814 1b01 	ldrb.w	r1, [r4], #1
 800b13e:	4858      	ldr	r0, [pc, #352]	; (800b2a0 <_vfiprintf_r+0x24c>)
 800b140:	f7f5 f84e 	bl	80001e0 <memchr>
 800b144:	9a04      	ldr	r2, [sp, #16]
 800b146:	b9d8      	cbnz	r0, 800b180 <_vfiprintf_r+0x12c>
 800b148:	06d1      	lsls	r1, r2, #27
 800b14a:	bf44      	itt	mi
 800b14c:	2320      	movmi	r3, #32
 800b14e:	f88d 3053 	strbmi.w	r3, [sp, #83]	; 0x53
 800b152:	0713      	lsls	r3, r2, #28
 800b154:	bf44      	itt	mi
 800b156:	232b      	movmi	r3, #43	; 0x2b
 800b158:	f88d 3053 	strbmi.w	r3, [sp, #83]	; 0x53
 800b15c:	f89a 3000 	ldrb.w	r3, [sl]
 800b160:	2b2a      	cmp	r3, #42	; 0x2a
 800b162:	d015      	beq.n	800b190 <_vfiprintf_r+0x13c>
 800b164:	9a07      	ldr	r2, [sp, #28]
 800b166:	4654      	mov	r4, sl
 800b168:	2000      	movs	r0, #0
 800b16a:	f04f 0c0a 	mov.w	ip, #10
 800b16e:	4621      	mov	r1, r4
 800b170:	f811 3b01 	ldrb.w	r3, [r1], #1
 800b174:	3b30      	subs	r3, #48	; 0x30
 800b176:	2b09      	cmp	r3, #9
 800b178:	d94e      	bls.n	800b218 <_vfiprintf_r+0x1c4>
 800b17a:	b1b0      	cbz	r0, 800b1aa <_vfiprintf_r+0x156>
 800b17c:	9207      	str	r2, [sp, #28]
 800b17e:	e014      	b.n	800b1aa <_vfiprintf_r+0x156>
 800b180:	eba0 0308 	sub.w	r3, r0, r8
 800b184:	fa09 f303 	lsl.w	r3, r9, r3
 800b188:	4313      	orrs	r3, r2
 800b18a:	9304      	str	r3, [sp, #16]
 800b18c:	46a2      	mov	sl, r4
 800b18e:	e7d2      	b.n	800b136 <_vfiprintf_r+0xe2>
 800b190:	9b03      	ldr	r3, [sp, #12]
 800b192:	1d19      	adds	r1, r3, #4
 800b194:	681b      	ldr	r3, [r3, #0]
 800b196:	9103      	str	r1, [sp, #12]
 800b198:	2b00      	cmp	r3, #0
 800b19a:	bfbb      	ittet	lt
 800b19c:	425b      	neglt	r3, r3
 800b19e:	f042 0202 	orrlt.w	r2, r2, #2
 800b1a2:	9307      	strge	r3, [sp, #28]
 800b1a4:	9307      	strlt	r3, [sp, #28]
 800b1a6:	bfb8      	it	lt
 800b1a8:	9204      	strlt	r2, [sp, #16]
 800b1aa:	7823      	ldrb	r3, [r4, #0]
 800b1ac:	2b2e      	cmp	r3, #46	; 0x2e
 800b1ae:	d10c      	bne.n	800b1ca <_vfiprintf_r+0x176>
 800b1b0:	7863      	ldrb	r3, [r4, #1]
 800b1b2:	2b2a      	cmp	r3, #42	; 0x2a
 800b1b4:	d135      	bne.n	800b222 <_vfiprintf_r+0x1ce>
 800b1b6:	9b03      	ldr	r3, [sp, #12]
 800b1b8:	1d1a      	adds	r2, r3, #4
 800b1ba:	681b      	ldr	r3, [r3, #0]
 800b1bc:	9203      	str	r2, [sp, #12]
 800b1be:	2b00      	cmp	r3, #0
 800b1c0:	bfb8      	it	lt
 800b1c2:	f04f 33ff 	movlt.w	r3, #4294967295
 800b1c6:	3402      	adds	r4, #2
 800b1c8:	9305      	str	r3, [sp, #20]
 800b1ca:	f8df a0e4 	ldr.w	sl, [pc, #228]	; 800b2b0 <_vfiprintf_r+0x25c>
 800b1ce:	7821      	ldrb	r1, [r4, #0]
 800b1d0:	2203      	movs	r2, #3
 800b1d2:	4650      	mov	r0, sl
 800b1d4:	f7f5 f804 	bl	80001e0 <memchr>
 800b1d8:	b140      	cbz	r0, 800b1ec <_vfiprintf_r+0x198>
 800b1da:	2340      	movs	r3, #64	; 0x40
 800b1dc:	eba0 000a 	sub.w	r0, r0, sl
 800b1e0:	fa03 f000 	lsl.w	r0, r3, r0
 800b1e4:	9b04      	ldr	r3, [sp, #16]
 800b1e6:	4303      	orrs	r3, r0
 800b1e8:	3401      	adds	r4, #1
 800b1ea:	9304      	str	r3, [sp, #16]
 800b1ec:	f814 1b01 	ldrb.w	r1, [r4], #1
 800b1f0:	482c      	ldr	r0, [pc, #176]	; (800b2a4 <_vfiprintf_r+0x250>)
 800b1f2:	f88d 1028 	strb.w	r1, [sp, #40]	; 0x28
 800b1f6:	2206      	movs	r2, #6
 800b1f8:	f7f4 fff2 	bl	80001e0 <memchr>
 800b1fc:	2800      	cmp	r0, #0
 800b1fe:	d03f      	beq.n	800b280 <_vfiprintf_r+0x22c>
 800b200:	4b29      	ldr	r3, [pc, #164]	; (800b2a8 <_vfiprintf_r+0x254>)
 800b202:	bb1b      	cbnz	r3, 800b24c <_vfiprintf_r+0x1f8>
 800b204:	9b03      	ldr	r3, [sp, #12]
 800b206:	3307      	adds	r3, #7
 800b208:	f023 0307 	bic.w	r3, r3, #7
 800b20c:	3308      	adds	r3, #8
 800b20e:	9303      	str	r3, [sp, #12]
 800b210:	9b09      	ldr	r3, [sp, #36]	; 0x24
 800b212:	443b      	add	r3, r7
 800b214:	9309      	str	r3, [sp, #36]	; 0x24
 800b216:	e767      	b.n	800b0e8 <_vfiprintf_r+0x94>
 800b218:	fb0c 3202 	mla	r2, ip, r2, r3
 800b21c:	460c      	mov	r4, r1
 800b21e:	2001      	movs	r0, #1
 800b220:	e7a5      	b.n	800b16e <_vfiprintf_r+0x11a>
 800b222:	2300      	movs	r3, #0
 800b224:	3401      	adds	r4, #1
 800b226:	9305      	str	r3, [sp, #20]
 800b228:	4619      	mov	r1, r3
 800b22a:	f04f 0c0a 	mov.w	ip, #10
 800b22e:	4620      	mov	r0, r4
 800b230:	f810 2b01 	ldrb.w	r2, [r0], #1
 800b234:	3a30      	subs	r2, #48	; 0x30
 800b236:	2a09      	cmp	r2, #9
 800b238:	d903      	bls.n	800b242 <_vfiprintf_r+0x1ee>
 800b23a:	2b00      	cmp	r3, #0
 800b23c:	d0c5      	beq.n	800b1ca <_vfiprintf_r+0x176>
 800b23e:	9105      	str	r1, [sp, #20]
 800b240:	e7c3      	b.n	800b1ca <_vfiprintf_r+0x176>
 800b242:	fb0c 2101 	mla	r1, ip, r1, r2
 800b246:	4604      	mov	r4, r0
 800b248:	2301      	movs	r3, #1
 800b24a:	e7f0      	b.n	800b22e <_vfiprintf_r+0x1da>
 800b24c:	ab03      	add	r3, sp, #12
 800b24e:	9300      	str	r3, [sp, #0]
 800b250:	462a      	mov	r2, r5
 800b252:	4b16      	ldr	r3, [pc, #88]	; (800b2ac <_vfiprintf_r+0x258>)
 800b254:	a904      	add	r1, sp, #16
 800b256:	4630      	mov	r0, r6
 800b258:	f7fb fd8e 	bl	8006d78 <_printf_float>
 800b25c:	4607      	mov	r7, r0
 800b25e:	1c78      	adds	r0, r7, #1
 800b260:	d1d6      	bne.n	800b210 <_vfiprintf_r+0x1bc>
 800b262:	6e6b      	ldr	r3, [r5, #100]	; 0x64
 800b264:	07d9      	lsls	r1, r3, #31
 800b266:	d405      	bmi.n	800b274 <_vfiprintf_r+0x220>
 800b268:	89ab      	ldrh	r3, [r5, #12]
 800b26a:	059a      	lsls	r2, r3, #22
 800b26c:	d402      	bmi.n	800b274 <_vfiprintf_r+0x220>
 800b26e:	6da8      	ldr	r0, [r5, #88]	; 0x58
 800b270:	f7fe ff24 	bl	800a0bc <__retarget_lock_release_recursive>
 800b274:	89ab      	ldrh	r3, [r5, #12]
 800b276:	065b      	lsls	r3, r3, #25
 800b278:	f53f af12 	bmi.w	800b0a0 <_vfiprintf_r+0x4c>
 800b27c:	9809      	ldr	r0, [sp, #36]	; 0x24
 800b27e:	e711      	b.n	800b0a4 <_vfiprintf_r+0x50>
 800b280:	ab03      	add	r3, sp, #12
 800b282:	9300      	str	r3, [sp, #0]
 800b284:	462a      	mov	r2, r5
 800b286:	4b09      	ldr	r3, [pc, #36]	; (800b2ac <_vfiprintf_r+0x258>)
 800b288:	a904      	add	r1, sp, #16
 800b28a:	4630      	mov	r0, r6
 800b28c:	f7fc f818 	bl	80072c0 <_printf_i>
 800b290:	e7e4      	b.n	800b25c <_vfiprintf_r+0x208>
 800b292:	bf00      	nop
 800b294:	0800bad4 	.word	0x0800bad4
 800b298:	0800baf4 	.word	0x0800baf4
 800b29c:	0800bab4 	.word	0x0800bab4
 800b2a0:	0800bcec 	.word	0x0800bcec
 800b2a4:	0800bcf6 	.word	0x0800bcf6
 800b2a8:	08006d79 	.word	0x08006d79
 800b2ac:	0800b02f 	.word	0x0800b02f
 800b2b0:	0800bcf2 	.word	0x0800bcf2
 800b2b4:	00000000 	.word	0x00000000

0800b2b8 <nan>:
 800b2b8:	ed9f 0b01 	vldr	d0, [pc, #4]	; 800b2c0 <nan+0x8>
 800b2bc:	4770      	bx	lr
 800b2be:	bf00      	nop
 800b2c0:	00000000 	.word	0x00000000
 800b2c4:	7ff80000 	.word	0x7ff80000

0800b2c8 <_sbrk_r>:
 800b2c8:	b538      	push	{r3, r4, r5, lr}
 800b2ca:	4d06      	ldr	r5, [pc, #24]	; (800b2e4 <_sbrk_r+0x1c>)
 800b2cc:	2300      	movs	r3, #0
 800b2ce:	4604      	mov	r4, r0
 800b2d0:	4608      	mov	r0, r1
 800b2d2:	602b      	str	r3, [r5, #0]
 800b2d4:	f7f6 fc68 	bl	8001ba8 <_sbrk>
 800b2d8:	1c43      	adds	r3, r0, #1
 800b2da:	d102      	bne.n	800b2e2 <_sbrk_r+0x1a>
 800b2dc:	682b      	ldr	r3, [r5, #0]
 800b2de:	b103      	cbz	r3, 800b2e2 <_sbrk_r+0x1a>
 800b2e0:	6023      	str	r3, [r4, #0]
 800b2e2:	bd38      	pop	{r3, r4, r5, pc}
 800b2e4:	200015cc 	.word	0x200015cc

0800b2e8 <__sread>:
 800b2e8:	b510      	push	{r4, lr}
 800b2ea:	460c      	mov	r4, r1
 800b2ec:	f9b1 100e 	ldrsh.w	r1, [r1, #14]
 800b2f0:	f000 f93a 	bl	800b568 <_read_r>
 800b2f4:	2800      	cmp	r0, #0
 800b2f6:	bfab      	itete	ge
 800b2f8:	6d63      	ldrge	r3, [r4, #84]	; 0x54
 800b2fa:	89a3      	ldrhlt	r3, [r4, #12]
 800b2fc:	181b      	addge	r3, r3, r0
 800b2fe:	f423 5380 	biclt.w	r3, r3, #4096	; 0x1000
 800b302:	bfac      	ite	ge
 800b304:	6563      	strge	r3, [r4, #84]	; 0x54
 800b306:	81a3      	strhlt	r3, [r4, #12]
 800b308:	bd10      	pop	{r4, pc}

0800b30a <__swrite>:
 800b30a:	e92d 41f0 	stmdb	sp!, {r4, r5, r6, r7, r8, lr}
 800b30e:	461f      	mov	r7, r3
 800b310:	898b      	ldrh	r3, [r1, #12]
 800b312:	05db      	lsls	r3, r3, #23
 800b314:	4605      	mov	r5, r0
 800b316:	460c      	mov	r4, r1
 800b318:	4616      	mov	r6, r2
 800b31a:	d505      	bpl.n	800b328 <__swrite+0x1e>
 800b31c:	f9b1 100e 	ldrsh.w	r1, [r1, #14]
 800b320:	2302      	movs	r3, #2
 800b322:	2200      	movs	r2, #0
 800b324:	f000 f8b8 	bl	800b498 <_lseek_r>
 800b328:	89a3      	ldrh	r3, [r4, #12]
 800b32a:	f9b4 100e 	ldrsh.w	r1, [r4, #14]
 800b32e:	f423 5380 	bic.w	r3, r3, #4096	; 0x1000
 800b332:	81a3      	strh	r3, [r4, #12]
 800b334:	4632      	mov	r2, r6
 800b336:	463b      	mov	r3, r7
 800b338:	4628      	mov	r0, r5
 800b33a:	e8bd 41f0 	ldmia.w	sp!, {r4, r5, r6, r7, r8, lr}
 800b33e:	f000 b837 	b.w	800b3b0 <_write_r>

0800b342 <__sseek>:
 800b342:	b510      	push	{r4, lr}
 800b344:	460c      	mov	r4, r1
 800b346:	f9b1 100e 	ldrsh.w	r1, [r1, #14]
 800b34a:	f000 f8a5 	bl	800b498 <_lseek_r>
 800b34e:	1c43      	adds	r3, r0, #1
 800b350:	89a3      	ldrh	r3, [r4, #12]
 800b352:	bf15      	itete	ne
 800b354:	6560      	strne	r0, [r4, #84]	; 0x54
 800b356:	f423 5380 	biceq.w	r3, r3, #4096	; 0x1000
 800b35a:	f443 5380 	orrne.w	r3, r3, #4096	; 0x1000
 800b35e:	81a3      	strheq	r3, [r4, #12]
 800b360:	bf18      	it	ne
 800b362:	81a3      	strhne	r3, [r4, #12]
 800b364:	bd10      	pop	{r4, pc}

0800b366 <__sclose>:
 800b366:	f9b1 100e 	ldrsh.w	r1, [r1, #14]
 800b36a:	f000 b851 	b.w	800b410 <_close_r>

0800b36e <strncmp>:
 800b36e:	b510      	push	{r4, lr}
 800b370:	b17a      	cbz	r2, 800b392 <strncmp+0x24>
 800b372:	4603      	mov	r3, r0
 800b374:	3901      	subs	r1, #1
 800b376:	1884      	adds	r4, r0, r2
 800b378:	f813 0b01 	ldrb.w	r0, [r3], #1
 800b37c:	f811 2f01 	ldrb.w	r2, [r1, #1]!
 800b380:	4290      	cmp	r0, r2
 800b382:	d101      	bne.n	800b388 <strncmp+0x1a>
 800b384:	42a3      	cmp	r3, r4
 800b386:	d101      	bne.n	800b38c <strncmp+0x1e>
 800b388:	1a80      	subs	r0, r0, r2
 800b38a:	bd10      	pop	{r4, pc}
 800b38c:	2800      	cmp	r0, #0
 800b38e:	d1f3      	bne.n	800b378 <strncmp+0xa>
 800b390:	e7fa      	b.n	800b388 <strncmp+0x1a>
 800b392:	4610      	mov	r0, r2
 800b394:	e7f9      	b.n	800b38a <strncmp+0x1c>

0800b396 <__ascii_wctomb>:
 800b396:	b149      	cbz	r1, 800b3ac <__ascii_wctomb+0x16>
 800b398:	2aff      	cmp	r2, #255	; 0xff
 800b39a:	bf85      	ittet	hi
 800b39c:	238a      	movhi	r3, #138	; 0x8a
 800b39e:	6003      	strhi	r3, [r0, #0]
 800b3a0:	700a      	strbls	r2, [r1, #0]
 800b3a2:	f04f 30ff 	movhi.w	r0, #4294967295
 800b3a6:	bf98      	it	ls
 800b3a8:	2001      	movls	r0, #1
 800b3aa:	4770      	bx	lr
 800b3ac:	4608      	mov	r0, r1
 800b3ae:	4770      	bx	lr

0800b3b0 <_write_r>:
 800b3b0:	b538      	push	{r3, r4, r5, lr}
 800b3b2:	4d07      	ldr	r5, [pc, #28]	; (800b3d0 <_write_r+0x20>)
 800b3b4:	4604      	mov	r4, r0
 800b3b6:	4608      	mov	r0, r1
 800b3b8:	4611      	mov	r1, r2
 800b3ba:	2200      	movs	r2, #0
 800b3bc:	602a      	str	r2, [r5, #0]
 800b3be:	461a      	mov	r2, r3
 800b3c0:	f7f5 ffa6 	bl	8001310 <_write>
 800b3c4:	1c43      	adds	r3, r0, #1
 800b3c6:	d102      	bne.n	800b3ce <_write_r+0x1e>
 800b3c8:	682b      	ldr	r3, [r5, #0]
 800b3ca:	b103      	cbz	r3, 800b3ce <_write_r+0x1e>
 800b3cc:	6023      	str	r3, [r4, #0]
 800b3ce:	bd38      	pop	{r3, r4, r5, pc}
 800b3d0:	200015cc 	.word	0x200015cc

0800b3d4 <__assert_func>:
 800b3d4:	b51f      	push	{r0, r1, r2, r3, r4, lr}
 800b3d6:	4614      	mov	r4, r2
 800b3d8:	461a      	mov	r2, r3
 800b3da:	4b09      	ldr	r3, [pc, #36]	; (800b400 <__assert_func+0x2c>)
 800b3dc:	681b      	ldr	r3, [r3, #0]
 800b3de:	4605      	mov	r5, r0
 800b3e0:	68d8      	ldr	r0, [r3, #12]
 800b3e2:	b14c      	cbz	r4, 800b3f8 <__assert_func+0x24>
 800b3e4:	4b07      	ldr	r3, [pc, #28]	; (800b404 <__assert_func+0x30>)
 800b3e6:	9100      	str	r1, [sp, #0]
 800b3e8:	e9cd 3401 	strd	r3, r4, [sp, #4]
 800b3ec:	4906      	ldr	r1, [pc, #24]	; (800b408 <__assert_func+0x34>)
 800b3ee:	462b      	mov	r3, r5
 800b3f0:	f000 f81e 	bl	800b430 <fiprintf>
 800b3f4:	f000 f8ca 	bl	800b58c <abort>
 800b3f8:	4b04      	ldr	r3, [pc, #16]	; (800b40c <__assert_func+0x38>)
 800b3fa:	461c      	mov	r4, r3
 800b3fc:	e7f3      	b.n	800b3e6 <__assert_func+0x12>
 800b3fe:	bf00      	nop
 800b400:	20000010 	.word	0x20000010
 800b404:	0800bcfd 	.word	0x0800bcfd
 800b408:	0800bd0a 	.word	0x0800bd0a
 800b40c:	0800bd38 	.word	0x0800bd38

0800b410 <_close_r>:
 800b410:	b538      	push	{r3, r4, r5, lr}
 800b412:	4d06      	ldr	r5, [pc, #24]	; (800b42c <_close_r+0x1c>)
 800b414:	2300      	movs	r3, #0
 800b416:	4604      	mov	r4, r0
 800b418:	4608      	mov	r0, r1
 800b41a:	602b      	str	r3, [r5, #0]
 800b41c:	f7f6 fbb6 	bl	8001b8c <_close>
 800b420:	1c43      	adds	r3, r0, #1
 800b422:	d102      	bne.n	800b42a <_close_r+0x1a>
 800b424:	682b      	ldr	r3, [r5, #0]
 800b426:	b103      	cbz	r3, 800b42a <_close_r+0x1a>
 800b428:	6023      	str	r3, [r4, #0]
 800b42a:	bd38      	pop	{r3, r4, r5, pc}
 800b42c:	200015cc 	.word	0x200015cc

0800b430 <fiprintf>:
 800b430:	b40e      	push	{r1, r2, r3}
 800b432:	b503      	push	{r0, r1, lr}
 800b434:	4601      	mov	r1, r0
 800b436:	ab03      	add	r3, sp, #12
 800b438:	4805      	ldr	r0, [pc, #20]	; (800b450 <fiprintf+0x20>)
 800b43a:	f853 2b04 	ldr.w	r2, [r3], #4
 800b43e:	6800      	ldr	r0, [r0, #0]
 800b440:	9301      	str	r3, [sp, #4]
 800b442:	f7ff fe07 	bl	800b054 <_vfiprintf_r>
 800b446:	b002      	add	sp, #8
 800b448:	f85d eb04 	ldr.w	lr, [sp], #4
 800b44c:	b003      	add	sp, #12
 800b44e:	4770      	bx	lr
 800b450:	20000010 	.word	0x20000010

0800b454 <_fstat_r>:
 800b454:	b538      	push	{r3, r4, r5, lr}
 800b456:	4d07      	ldr	r5, [pc, #28]	; (800b474 <_fstat_r+0x20>)
 800b458:	2300      	movs	r3, #0
 800b45a:	4604      	mov	r4, r0
 800b45c:	4608      	mov	r0, r1
 800b45e:	4611      	mov	r1, r2
 800b460:	602b      	str	r3, [r5, #0]
 800b462:	f7f6 fb97 	bl	8001b94 <_fstat>
 800b466:	1c43      	adds	r3, r0, #1
 800b468:	d102      	bne.n	800b470 <_fstat_r+0x1c>
 800b46a:	682b      	ldr	r3, [r5, #0]
 800b46c:	b103      	cbz	r3, 800b470 <_fstat_r+0x1c>
 800b46e:	6023      	str	r3, [r4, #0]
 800b470:	bd38      	pop	{r3, r4, r5, pc}
 800b472:	bf00      	nop
 800b474:	200015cc 	.word	0x200015cc

0800b478 <_isatty_r>:
 800b478:	b538      	push	{r3, r4, r5, lr}
 800b47a:	4d06      	ldr	r5, [pc, #24]	; (800b494 <_isatty_r+0x1c>)
 800b47c:	2300      	movs	r3, #0
 800b47e:	4604      	mov	r4, r0
 800b480:	4608      	mov	r0, r1
 800b482:	602b      	str	r3, [r5, #0]
 800b484:	f7f6 fb8c 	bl	8001ba0 <_isatty>
 800b488:	1c43      	adds	r3, r0, #1
 800b48a:	d102      	bne.n	800b492 <_isatty_r+0x1a>
 800b48c:	682b      	ldr	r3, [r5, #0]
 800b48e:	b103      	cbz	r3, 800b492 <_isatty_r+0x1a>
 800b490:	6023      	str	r3, [r4, #0]
 800b492:	bd38      	pop	{r3, r4, r5, pc}
 800b494:	200015cc 	.word	0x200015cc

0800b498 <_lseek_r>:
 800b498:	b538      	push	{r3, r4, r5, lr}
 800b49a:	4d07      	ldr	r5, [pc, #28]	; (800b4b8 <_lseek_r+0x20>)
 800b49c:	4604      	mov	r4, r0
 800b49e:	4608      	mov	r0, r1
 800b4a0:	4611      	mov	r1, r2
 800b4a2:	2200      	movs	r2, #0
 800b4a4:	602a      	str	r2, [r5, #0]
 800b4a6:	461a      	mov	r2, r3
 800b4a8:	f7f6 fb7c 	bl	8001ba4 <_lseek>
 800b4ac:	1c43      	adds	r3, r0, #1
 800b4ae:	d102      	bne.n	800b4b6 <_lseek_r+0x1e>
 800b4b0:	682b      	ldr	r3, [r5, #0]
 800b4b2:	b103      	cbz	r3, 800b4b6 <_lseek_r+0x1e>
 800b4b4:	6023      	str	r3, [r4, #0]
 800b4b6:	bd38      	pop	{r3, r4, r5, pc}
 800b4b8:	200015cc 	.word	0x200015cc

0800b4bc <memmove>:
 800b4bc:	4288      	cmp	r0, r1
 800b4be:	b510      	push	{r4, lr}
 800b4c0:	eb01 0402 	add.w	r4, r1, r2
 800b4c4:	d902      	bls.n	800b4cc <memmove+0x10>
 800b4c6:	4284      	cmp	r4, r0
 800b4c8:	4623      	mov	r3, r4
 800b4ca:	d807      	bhi.n	800b4dc <memmove+0x20>
 800b4cc:	1e43      	subs	r3, r0, #1
 800b4ce:	42a1      	cmp	r1, r4
 800b4d0:	d008      	beq.n	800b4e4 <memmove+0x28>
 800b4d2:	f811 2b01 	ldrb.w	r2, [r1], #1
 800b4d6:	f803 2f01 	strb.w	r2, [r3, #1]!
 800b4da:	e7f8      	b.n	800b4ce <memmove+0x12>
 800b4dc:	4402      	add	r2, r0
 800b4de:	4601      	mov	r1, r0
 800b4e0:	428a      	cmp	r2, r1
 800b4e2:	d100      	bne.n	800b4e6 <memmove+0x2a>
 800b4e4:	bd10      	pop	{r4, pc}
 800b4e6:	f813 4d01 	ldrb.w	r4, [r3, #-1]!
 800b4ea:	f802 4d01 	strb.w	r4, [r2, #-1]!
 800b4ee:	e7f7      	b.n	800b4e0 <memmove+0x24>

0800b4f0 <__malloc_lock>:
 800b4f0:	4801      	ldr	r0, [pc, #4]	; (800b4f8 <__malloc_lock+0x8>)
 800b4f2:	f7fe bde2 	b.w	800a0ba <__retarget_lock_acquire_recursive>
 800b4f6:	bf00      	nop
 800b4f8:	200015c0 	.word	0x200015c0

0800b4fc <__malloc_unlock>:
 800b4fc:	4801      	ldr	r0, [pc, #4]	; (800b504 <__malloc_unlock+0x8>)
 800b4fe:	f7fe bddd 	b.w	800a0bc <__retarget_lock_release_recursive>
 800b502:	bf00      	nop
 800b504:	200015c0 	.word	0x200015c0

0800b508 <_realloc_r>:
 800b508:	e92d 41f0 	stmdb	sp!, {r4, r5, r6, r7, r8, lr}
 800b50c:	4680      	mov	r8, r0
 800b50e:	4614      	mov	r4, r2
 800b510:	460e      	mov	r6, r1
 800b512:	b921      	cbnz	r1, 800b51e <_realloc_r+0x16>
 800b514:	e8bd 41f0 	ldmia.w	sp!, {r4, r5, r6, r7, r8, lr}
 800b518:	4611      	mov	r1, r2
 800b51a:	f7ff bba1 	b.w	800ac60 <_malloc_r>
 800b51e:	b92a      	cbnz	r2, 800b52c <_realloc_r+0x24>
 800b520:	f7ff fb32 	bl	800ab88 <_free_r>
 800b524:	4625      	mov	r5, r4
 800b526:	4628      	mov	r0, r5
 800b528:	e8bd 81f0 	ldmia.w	sp!, {r4, r5, r6, r7, r8, pc}
 800b52c:	f000 f835 	bl	800b59a <_malloc_usable_size_r>
 800b530:	4284      	cmp	r4, r0
 800b532:	4607      	mov	r7, r0
 800b534:	d802      	bhi.n	800b53c <_realloc_r+0x34>
 800b536:	ebb4 0f50 	cmp.w	r4, r0, lsr #1
 800b53a:	d812      	bhi.n	800b562 <_realloc_r+0x5a>
 800b53c:	4621      	mov	r1, r4
 800b53e:	4640      	mov	r0, r8
 800b540:	f7ff fb8e 	bl	800ac60 <_malloc_r>
 800b544:	4605      	mov	r5, r0
 800b546:	2800      	cmp	r0, #0
 800b548:	d0ed      	beq.n	800b526 <_realloc_r+0x1e>
 800b54a:	42bc      	cmp	r4, r7
 800b54c:	4622      	mov	r2, r4
 800b54e:	4631      	mov	r1, r6
 800b550:	bf28      	it	cs
 800b552:	463a      	movcs	r2, r7
 800b554:	f7fe fe32 	bl	800a1bc <memcpy>
 800b558:	4631      	mov	r1, r6
 800b55a:	4640      	mov	r0, r8
 800b55c:	f7ff fb14 	bl	800ab88 <_free_r>
 800b560:	e7e1      	b.n	800b526 <_realloc_r+0x1e>
 800b562:	4635      	mov	r5, r6
 800b564:	e7df      	b.n	800b526 <_realloc_r+0x1e>
	...

0800b568 <_read_r>:
 800b568:	b538      	push	{r3, r4, r5, lr}
 800b56a:	4d07      	ldr	r5, [pc, #28]	; (800b588 <_read_r+0x20>)
 800b56c:	4604      	mov	r4, r0
 800b56e:	4608      	mov	r0, r1
 800b570:	4611      	mov	r1, r2
 800b572:	2200      	movs	r2, #0
 800b574:	602a      	str	r2, [r5, #0]
 800b576:	461a      	mov	r2, r3
 800b578:	f7f6 fafa 	bl	8001b70 <_read>
 800b57c:	1c43      	adds	r3, r0, #1
 800b57e:	d102      	bne.n	800b586 <_read_r+0x1e>
 800b580:	682b      	ldr	r3, [r5, #0]
 800b582:	b103      	cbz	r3, 800b586 <_read_r+0x1e>
 800b584:	6023      	str	r3, [r4, #0]
 800b586:	bd38      	pop	{r3, r4, r5, pc}
 800b588:	200015cc 	.word	0x200015cc

0800b58c <abort>:
 800b58c:	b508      	push	{r3, lr}
 800b58e:	2006      	movs	r0, #6
 800b590:	f000 f834 	bl	800b5fc <raise>
 800b594:	2001      	movs	r0, #1
 800b596:	f7f6 fae5 	bl	8001b64 <_exit>

0800b59a <_malloc_usable_size_r>:
 800b59a:	f851 3c04 	ldr.w	r3, [r1, #-4]
 800b59e:	1f18      	subs	r0, r3, #4
 800b5a0:	2b00      	cmp	r3, #0
 800b5a2:	bfbc      	itt	lt
 800b5a4:	580b      	ldrlt	r3, [r1, r0]
 800b5a6:	18c0      	addlt	r0, r0, r3
 800b5a8:	4770      	bx	lr

0800b5aa <_raise_r>:
 800b5aa:	291f      	cmp	r1, #31
 800b5ac:	b538      	push	{r3, r4, r5, lr}
 800b5ae:	4604      	mov	r4, r0
 800b5b0:	460d      	mov	r5, r1
 800b5b2:	d904      	bls.n	800b5be <_raise_r+0x14>
 800b5b4:	2316      	movs	r3, #22
 800b5b6:	6003      	str	r3, [r0, #0]
 800b5b8:	f04f 30ff 	mov.w	r0, #4294967295
 800b5bc:	bd38      	pop	{r3, r4, r5, pc}
 800b5be:	6c42      	ldr	r2, [r0, #68]	; 0x44
 800b5c0:	b112      	cbz	r2, 800b5c8 <_raise_r+0x1e>
 800b5c2:	f852 3021 	ldr.w	r3, [r2, r1, lsl #2]
 800b5c6:	b94b      	cbnz	r3, 800b5dc <_raise_r+0x32>
 800b5c8:	4620      	mov	r0, r4
 800b5ca:	f000 f831 	bl	800b630 <_getpid_r>
 800b5ce:	462a      	mov	r2, r5
 800b5d0:	4601      	mov	r1, r0
 800b5d2:	4620      	mov	r0, r4
 800b5d4:	e8bd 4038 	ldmia.w	sp!, {r3, r4, r5, lr}
 800b5d8:	f000 b818 	b.w	800b60c <_kill_r>
 800b5dc:	2b01      	cmp	r3, #1
 800b5de:	d00a      	beq.n	800b5f6 <_raise_r+0x4c>
 800b5e0:	1c59      	adds	r1, r3, #1
 800b5e2:	d103      	bne.n	800b5ec <_raise_r+0x42>
 800b5e4:	2316      	movs	r3, #22
 800b5e6:	6003      	str	r3, [r0, #0]
 800b5e8:	2001      	movs	r0, #1
 800b5ea:	e7e7      	b.n	800b5bc <_raise_r+0x12>
 800b5ec:	2400      	movs	r4, #0
 800b5ee:	f842 4025 	str.w	r4, [r2, r5, lsl #2]
 800b5f2:	4628      	mov	r0, r5
 800b5f4:	4798      	blx	r3
 800b5f6:	2000      	movs	r0, #0
 800b5f8:	e7e0      	b.n	800b5bc <_raise_r+0x12>
	...

0800b5fc <raise>:
 800b5fc:	4b02      	ldr	r3, [pc, #8]	; (800b608 <raise+0xc>)
 800b5fe:	4601      	mov	r1, r0
 800b600:	6818      	ldr	r0, [r3, #0]
 800b602:	f7ff bfd2 	b.w	800b5aa <_raise_r>
 800b606:	bf00      	nop
 800b608:	20000010 	.word	0x20000010

0800b60c <_kill_r>:
 800b60c:	b538      	push	{r3, r4, r5, lr}
 800b60e:	4d07      	ldr	r5, [pc, #28]	; (800b62c <_kill_r+0x20>)
 800b610:	2300      	movs	r3, #0
 800b612:	4604      	mov	r4, r0
 800b614:	4608      	mov	r0, r1
 800b616:	4611      	mov	r1, r2
 800b618:	602b      	str	r3, [r5, #0]
 800b61a:	f7f6 fa9b 	bl	8001b54 <_kill>
 800b61e:	1c43      	adds	r3, r0, #1
 800b620:	d102      	bne.n	800b628 <_kill_r+0x1c>
 800b622:	682b      	ldr	r3, [r5, #0]
 800b624:	b103      	cbz	r3, 800b628 <_kill_r+0x1c>
 800b626:	6023      	str	r3, [r4, #0]
 800b628:	bd38      	pop	{r3, r4, r5, pc}
 800b62a:	bf00      	nop
 800b62c:	200015cc 	.word	0x200015cc

0800b630 <_getpid_r>:
 800b630:	f7f6 ba8e 	b.w	8001b50 <_getpid>

0800b634 <_init>:
 800b634:	b5f8      	push	{r3, r4, r5, r6, r7, lr}
 800b636:	bf00      	nop
 800b638:	bcf8      	pop	{r3, r4, r5, r6, r7}
 800b63a:	bc08      	pop	{r3}
 800b63c:	469e      	mov	lr, r3
 800b63e:	4770      	bx	lr

0800b640 <_fini>:
 800b640:	b5f8      	push	{r3, r4, r5, r6, r7, lr}
 800b642:	bf00      	nop
 800b644:	bcf8      	pop	{r3, r4, r5, r6, r7}
 800b646:	bc08      	pop	{r3}
 800b648:	469e      	mov	lr, r3
 800b64a:	4770      	bx	lr
